///////////////////////////////////////////////////////////////////////////////
//
// IAR C/C++ Compiler V10.20.1.5333 for 8051              18/Jun/2021  17:52:29
// Copyright 2004-2018 IAR Systems AB.
// PC-locked license - IAR Embedded Workbench for 8051
//
//    Core               =  plain
//    Code model         =  banked
//    Data model         =  large
//    Calling convention =  xdata reentrant
//    Constant location  =  data_rom
//    Dptr setup         =  1,16
//                          
//    Source file        =  
//        D:\SRC\DemoPrj\Projects\zstack\Utilities\SerialApp\Source\SerialApp.c
//    Command line       =  
//        -f C:\Users\ADMINI~1\AppData\Local\Temp\EWDDFC.tmp
//        (D:\SRC\DemoPrj\Projects\zstack\Utilities\SerialApp\Source\SerialApp.c
//        -D ZIGBEEPRO -D HAL_UART=TRUE -D SERIAL_APP_PORT=0 -D LCD_SUPPORTED
//        -lC
//        D:\SRC\DemoPrj\Projects\zstack\Utilities\SerialApp\CC2530DB\CoordinatorEB-Pro\List
//        -lA
//        D:\SRC\DemoPrj\Projects\zstack\Utilities\SerialApp\CC2530DB\CoordinatorEB-Pro\List
//        --diag_suppress Pe001,Pa010 -o
//        D:\SRC\DemoPrj\Projects\zstack\Utilities\SerialApp\CC2530DB\CoordinatorEB-Pro\Obj
//        -e --debug --core=plain --dptr=16,1 --data_model=large
//        --code_model=banked --calling_convention=xdata_reentrant
//        --place_constants=data_rom --nr_virtual_regs 8 -f
//        D:\SRC\DemoPrj\Projects\zstack\Utilities\SerialApp\CC2530DB\..\..\..\Tools\CC2530DB\f8wCoord.cfg
//        (-DCPU32MHZ -DROOT=__near_func -DMAC_CFG_APP_PENDING_QUEUE=TRUE
//        -DZDO_COORDINATOR -DRTR_NWK -DBLINK_LEDS) -f
//        D:\SRC\DemoPrj\Projects\zstack\Utilities\SerialApp\CC2530DB\..\..\..\Tools\CC2530DB\f8wConfig.cfg
//        (-DSECURE=0 -DZG_SECURE_DYNAMIC=0 -DREFLECTOR
//        -DDEFAULT_CHANLIST=0x00000800 -DZDAPP_CONFIG_PAN_ID=0x1223
//        -DNWK_START_DELAY=100 -DEXTENDED_JOINING_RANDOM_MASK=0x007F
//        -DBEACON_REQUEST_DELAY=100 -DBEACON_REQ_DELAY_MASK=0x00FF
//        -DROUTE_EXPIRY_TIME=30 -DAPSC_ACK_WAIT_DURATION_POLLED=3000
//        -DNWK_INDIRECT_MSG_TIMEOUT=7 -DMAX_RREQ_ENTRIES=8
//        -DAPSC_MAX_FRAME_RETRIES=3 -DNWK_MAX_DATA_RETRIES=2
//        -DMAX_POLL_FAILURE_RETRIES=2 -DMAX_BCAST=9 -DAPS_MAX_GROUPS=16
//        -DMAX_RTG_ENTRIES=40 -DNWK_MAX_BINDING_ENTRIES=4
//        -DMAX_BINDING_CLUSTER_IDS=4 "-DDEFAULT_KEY={0x01, 0x03, 0x05, 0x07,
//        0x09, 0x0B, 0x0D, 0x0F, 0x00, 0x02, 0x04, 0x06, 0x08, 0x0A, 0x0C,
//        0x0D}" -DMAC_MAX_FRAME_SIZE=116 "-DCONST=const __code"
//        -DGENERIC=__generic -DRFD_RCVC_ALWAYS_ON=FALSE -DPOLL_RATE=1000
//        -DQUEUED_POLL_RATE=100 -DRESPONSE_POLL_RATE=100
//        -DREJOIN_POLL_RATE=440) -I
//        D:\SRC\DemoPrj\Projects\zstack\Utilities\SerialApp\CC2530DB\ -I
//        D:\SRC\DemoPrj\Projects\zstack\Utilities\SerialApp\CC2530DB\..\SOURCE\
//        -I
//        D:\SRC\DemoPrj\Projects\zstack\Utilities\SerialApp\CC2530DB\..\..\..\ZMAIN\TI2530DB\
//        -I
//        D:\SRC\DemoPrj\Projects\zstack\Utilities\SerialApp\CC2530DB\..\..\..\..\..\COMPONENTS\MT\
//        -I
//        D:\SRC\DemoPrj\Projects\zstack\Utilities\SerialApp\CC2530DB\..\..\..\..\..\COMPONENTS\HAL\INCLUDE\
//        -I
//        D:\SRC\DemoPrj\Projects\zstack\Utilities\SerialApp\CC2530DB\..\..\..\..\..\COMPONENTS\HAL\TARGET\CC2530EB\
//        -I
//        D:\SRC\DemoPrj\Projects\zstack\Utilities\SerialApp\CC2530DB\..\..\..\..\..\COMPONENTS\OSAL\MCU\CCSOC\
//        -I
//        D:\SRC\DemoPrj\Projects\zstack\Utilities\SerialApp\CC2530DB\..\..\..\..\..\COMPONENTS\OSAL\INCLUDE\
//        -I
//        D:\SRC\DemoPrj\Projects\zstack\Utilities\SerialApp\CC2530DB\..\..\..\..\..\COMPONENTS\STACK\AF\
//        -I
//        D:\SRC\DemoPrj\Projects\zstack\Utilities\SerialApp\CC2530DB\..\..\..\..\..\COMPONENTS\STACK\NWK\
//        -I
//        D:\SRC\DemoPrj\Projects\zstack\Utilities\SerialApp\CC2530DB\..\..\..\..\..\COMPONENTS\STACK\SEC\
//        -I
//        D:\SRC\DemoPrj\Projects\zstack\Utilities\SerialApp\CC2530DB\..\..\..\..\..\COMPONENTS\STACK\SAPI\
//        -I
//        D:\SRC\DemoPrj\Projects\zstack\Utilities\SerialApp\CC2530DB\..\..\..\..\..\COMPONENTS\STACK\SYS\
//        -I
//        D:\SRC\DemoPrj\Projects\zstack\Utilities\SerialApp\CC2530DB\..\..\..\..\..\COMPONENTS\STACK\ZDO\
//        -I
//        D:\SRC\DemoPrj\Projects\zstack\Utilities\SerialApp\CC2530DB\..\..\..\..\..\COMPONENTS\ZMAC\F8W\
//        -I
//        D:\SRC\DemoPrj\Projects\zstack\Utilities\SerialApp\CC2530DB\..\..\..\..\..\COMPONENTS\ZMAC\
//        -I
//        D:\SRC\DemoPrj\Projects\zstack\Utilities\SerialApp\CC2530DB\..\..\..\..\..\COMPONENTS\SERVICES\SADDR\
//        -I
//        D:\SRC\DemoPrj\Projects\zstack\Utilities\SerialApp\CC2530DB\..\..\..\..\..\COMPONENTS\SERVICES\SDATA\
//        -I
//        D:\SRC\DemoPrj\Projects\zstack\Utilities\SerialApp\CC2530DB\..\..\..\..\..\COMPONENTS\MAC\INCLUDE\
//        -I
//        D:\SRC\DemoPrj\Projects\zstack\Utilities\SerialApp\CC2530DB\..\..\..\..\..\COMPONENTS\MAC\HIGH_LEVEL\
//        -I
//        D:\SRC\DemoPrj\Projects\zstack\Utilities\SerialApp\CC2530DB\..\..\..\..\..\COMPONENTS\MAC\LOW_LEVEL\srf04\
//        -I
//        D:\SRC\DemoPrj\Projects\zstack\Utilities\SerialApp\CC2530DB\..\..\..\..\..\COMPONENTS\MAC\LOW_LEVEL\srf04\SINGLE_CHIP\
//        -Ohz --require_prototypes)
//    Locale             =  Chinese (Simplified)_CHN.936
//    List file          =  
//        D:\SRC\DemoPrj\Projects\zstack\Utilities\SerialApp\CC2530DB\CoordinatorEB-Pro\List\SerialApp.s51
//
///////////////////////////////////////////////////////////////////////////////

        NAME SerialApp

        RTMODEL "__SystemLibrary", "CLib"
        RTMODEL "__calling_convention", "xdata_reentrant"
        RTMODEL "__code_model", "banked"
        RTMODEL "__core", "plain"
        RTMODEL "__data_model", "large"
        RTMODEL "__dptr_size", "16"
        RTMODEL "__extended_stack", "disabled"
        RTMODEL "__iar_require _formatted_write", ""
        RTMODEL "__location_for_constants", "data"
        RTMODEL "__number_of_dptrs", "1"
        RTMODEL "__register_banks", "*"
        RTMODEL "__rt_version", "1"

        RSEG DOVERLAY:DATA:NOROOT(0)
        RSEG IOVERLAY:IDATA:NOROOT(0)
        RSEG ISTACK:IDATA:NOROOT(0)
        RSEG PSTACK:XDATA:NOROOT(0)
        RSEG XSTACK:XDATA:NOROOT(0)

        EXTERN ?V0
        EXTERN ?V1
        EXTERN ?V2
        EXTERN ?V3
        EXTERN ?V4
        EXTERN ?V5
        EXTERN ?V6
        EXTERN ?V7
        EXTERN ?ALLOC_XSTACK8
        EXTERN ?BANKED_ENTER_XDATA
        EXTERN ?BANKED_LEAVE_XDATA
        EXTERN ?BDISPATCH
        EXTERN ?DEALLOC_XSTACK8
        EXTERN ?MOVE_LONG8_XDATA_XDATA
        EXTERN ?PUSH_XSTACK8_X_TWO
        EXTERN ?PUSH_XSTACK_I_ONE
        EXTERN ?PUSH_XSTACK_I_THREE
        EXTERN ?PUSH_XSTACK_I_TWO
        EXTERN ?UL_SHR
        EXTERN ?US_SWITCH_DENSE
        EXTERN ?XLOAD_R2345
        EXTERN ?XSP
        EXTERN ?XSTACK_DISP0_8
        EXTERN ?XSTACK_DISP100_8
        EXTERN ?XSTACK_DISP101_8
        EXTERN __INIT_XDATA_I
        EXTERN __INIT_XDATA_Z

        FUNCTION `??SerialApp_CallBack::?relay`,0203H
        FUNCTION `??SerialApp_ConnectReqProcess::?relay`,0203H
        PUBLIC `??SerialApp_Init::?relay`
        FUNCTION `??SerialApp_Init::?relay`,0203H
        PUBLIC `??SerialApp_ProcessEvent::?relay`
        FUNCTION `??SerialApp_ProcessEvent::?relay`,0203H
        FUNCTION `??SerialApp_ProcessMSGCmd::?relay`,0203H
        FUNCTION `??SerialApp_Send::?relay`,0203H
        FUNCTION `??sendToPc::?relay`,0203H
        PUBLIC SampleApp_NwkState
        FUNCTION SerialApp_CallBack,021603H
        ARGFRAME XSTACK, 0, STACK
        LOCFRAME XSTACK, 9, STACK
        PUBLIC SerialApp_ClusterList
        FUNCTION SerialApp_ConnectReqProcess,0a1203H
        ARGFRAME XSTACK, 11, STACK
        ARGFRAME IOVERLAY, 0, STATIC
        ARGFRAME DOVERLAY, 0, STATIC
        LOCFRAME ISTACK, 1, STACK
        LOCFRAME XSTACK, 51, STACK
        PUBLIC SerialApp_Init
        FUNCTION SerialApp_Init,021203H
        ARGFRAME XSTACK, 0, STACK
        LOCFRAME XSTACK, 38, STACK
        PUBLIC SerialApp_ProcessEvent
        FUNCTION SerialApp_ProcessEvent,0a1203H
        ARGFRAME XSTACK, 0, STACK
        LOCFRAME XSTACK, 21, STACK
        FUNCTION SerialApp_ProcessMSGCmd,0a1203H
        ARGFRAME XSTACK, 12, STACK
        ARGFRAME IOVERLAY, 0, STATIC
        ARGFRAME DOVERLAY, 0, STATIC
        LOCFRAME XSTACK, 14, STACK
        FUNCTION SerialApp_Send,0a1203H
        ARGFRAME XSTACK, 12, STACK
        ARGFRAME IOVERLAY, 0, STATIC
        ARGFRAME DOVERLAY, 0, STATIC
        LOCFRAME XSTACK, 19, STACK
        PUBLIC SerialApp_SimpleDesc
        PUBLIC SerialApp_TaskID
        PUBLIC SerialApp_epDesc
        PUBWEAK __Constant_1
        FUNCTION sendToPc,0a1203H
        ARGFRAME XSTACK, 11, STACK
        ARGFRAME IOVERLAY, 0, STATIC
        ARGFRAME DOVERLAY, 0, STATIC
        LOCFRAME ISTACK, 1, STACK
        LOCFRAME XSTACK, 36, STACK
        
          CFI Names cfiNames0
          CFI StackFrame CFA_SP SP IDATA
          CFI StackFrame CFA_PSP16 PSP16 XDATA
          CFI StackFrame CFA_XSP16 XSP16 XDATA
          CFI StaticOverlayFrame CFA_IOVERLAY IOVERLAY
          CFI StaticOverlayFrame CFA_DOVERLAY DOVERLAY
          CFI Resource `PSW.CY`:1, `B.BR0`:1, `B.BR1`:1, `B.BR2`:1, `B.BR3`:1
          CFI Resource `B.BR4`:1, `B.BR5`:1, `B.BR6`:1, `B.BR7`:1, `VB.BR8`:1
          CFI Resource `VB.BR9`:1, `VB.BR10`:1, `VB.BR11`:1, `VB.BR12`:1
          CFI Resource `VB.BR13`:1, `VB.BR14`:1, `VB.BR15`:1, VB:8, B:8, A:8
          CFI Resource PSW:8, DPL0:8, DPH0:8, R0:8, R1:8, R2:8, R3:8, R4:8, R5:8
          CFI Resource R6:8, R7:8, V0:8, V1:8, V2:8, V3:8, V4:8, V5:8, V6:8, V7:8
          CFI Resource SP:8, PSPH:8, PSPL:8, PSP16:16, XSPH:8, XSPL:8, XSP16:16
          CFI VirtualResource ?RET:24
          CFI Resource ?BRET_EXT:8
          CFI VirtualResource ?RET_HIGH:8, ?RET_LOW:8
          CFI ResourceParts PSP16 PSPH, PSPL
          CFI ResourceParts XSP16 XSPH, XSPL
          CFI ResourceParts ?RET ?BRET_EXT, ?RET_HIGH, ?RET_LOW
          CFI EndNames cfiNames0
        
          CFI Common cfiCommon0 Using cfiNames0
          CFI CodeAlign 1
          CFI DataAlign -1
          CFI ReturnAddress ?RET CODE
          CFI CFA_DOVERLAY Used
          CFI CFA_IOVERLAY Used
          CFI CFA_SP SP+-3
          CFI CFA_PSP16 PSP16+0
          CFI CFA_XSP16 XSP16+0
          CFI `PSW.CY` SameValue
          CFI `B.BR0` SameValue
          CFI `B.BR1` SameValue
          CFI `B.BR2` SameValue
          CFI `B.BR3` SameValue
          CFI `B.BR4` SameValue
          CFI `B.BR5` SameValue
          CFI `B.BR6` SameValue
          CFI `B.BR7` SameValue
          CFI `VB.BR8` SameValue
          CFI `VB.BR9` SameValue
          CFI `VB.BR10` SameValue
          CFI `VB.BR11` SameValue
          CFI `VB.BR12` SameValue
          CFI `VB.BR13` SameValue
          CFI `VB.BR14` SameValue
          CFI `VB.BR15` SameValue
          CFI VB SameValue
          CFI B Undefined
          CFI A Undefined
          CFI PSW SameValue
          CFI DPL0 SameValue
          CFI DPH0 SameValue
          CFI R0 Undefined
          CFI R1 Undefined
          CFI R2 Undefined
          CFI R3 Undefined
          CFI R4 Undefined
          CFI R5 Undefined
          CFI R6 SameValue
          CFI R7 SameValue
          CFI V0 SameValue
          CFI V1 SameValue
          CFI V2 SameValue
          CFI V3 SameValue
          CFI V4 SameValue
          CFI V5 SameValue
          CFI V6 SameValue
          CFI V7 SameValue
          CFI PSPH Undefined
          CFI PSPL Undefined
          CFI XSPH Undefined
          CFI XSPL Undefined
          CFI ?RET Concat
          CFI ?BRET_EXT Frame(CFA_SP, 3)
          CFI ?RET_HIGH Frame(CFA_SP, 2)
          CFI ?RET_LOW Frame(CFA_SP, 1)
          CFI EndCommon cfiCommon0
        
        
          CFI Common cfiCommon1 Using cfiNames0
          CFI CodeAlign 1
          CFI DataAlign -1
          CFI ReturnAddress ?RET CODE
          CFI CFA_DOVERLAY Used
          CFI CFA_IOVERLAY Used
          CFI CFA_SP SP+-2
          CFI CFA_PSP16 PSP16+0
          CFI CFA_XSP16 XSP16+0
          CFI `PSW.CY` SameValue
          CFI `B.BR0` SameValue
          CFI `B.BR1` SameValue
          CFI `B.BR2` SameValue
          CFI `B.BR3` SameValue
          CFI `B.BR4` SameValue
          CFI `B.BR5` SameValue
          CFI `B.BR6` SameValue
          CFI `B.BR7` SameValue
          CFI `VB.BR8` SameValue
          CFI `VB.BR9` SameValue
          CFI `VB.BR10` SameValue
          CFI `VB.BR11` SameValue
          CFI `VB.BR12` SameValue
          CFI `VB.BR13` SameValue
          CFI `VB.BR14` SameValue
          CFI `VB.BR15` SameValue
          CFI VB SameValue
          CFI B SameValue
          CFI A SameValue
          CFI PSW SameValue
          CFI DPL0 SameValue
          CFI DPH0 SameValue
          CFI R0 SameValue
          CFI R1 SameValue
          CFI R2 SameValue
          CFI R3 SameValue
          CFI R4 SameValue
          CFI R5 SameValue
          CFI R6 SameValue
          CFI R7 SameValue
          CFI V0 SameValue
          CFI V1 SameValue
          CFI V2 SameValue
          CFI V3 SameValue
          CFI V4 SameValue
          CFI V5 SameValue
          CFI V6 SameValue
          CFI V7 SameValue
          CFI PSPH Undefined
          CFI PSPL Undefined
          CFI XSPH Undefined
          CFI XSPL Undefined
          CFI ?RET Concat
          CFI ?BRET_EXT SameValue
          CFI ?RET_HIGH Frame(CFA_SP, 2)
          CFI ?RET_LOW Frame(CFA_SP, 1)
          CFI EndCommon cfiCommon1
        
AF_DataRequest      SYMBOL "AF_DataRequest"
`??AF_DataRequest::?relay` SYMBOL "?relay", AF_DataRequest
HalLcdWriteString   SYMBOL "HalLcdWriteString"
`??HalLcdWriteString::?relay` SYMBOL "?relay", HalLcdWriteString
HalUARTOpen         SYMBOL "HalUARTOpen"
`??HalUARTOpen::?relay` SYMBOL "?relay", HalUARTOpen
HalUARTRead         SYMBOL "HalUARTRead"
`??HalUARTRead::?relay` SYMBOL "?relay", HalUARTRead
HalUARTWrite        SYMBOL "HalUARTWrite"
`??HalUARTWrite::?relay` SYMBOL "?relay", HalUARTWrite
NLME_GetShortAddr   SYMBOL "NLME_GetShortAddr"
`??NLME_GetShortAddr::?relay` SYMBOL "?relay", NLME_GetShortAddr
RegisterForKeys     SYMBOL "RegisterForKeys"
`??RegisterForKeys::?relay` SYMBOL "?relay", RegisterForKeys
ZDO_RegisterForZDOMsg SYMBOL "ZDO_RegisterForZDOMsg"
`??ZDO_RegisterForZDOMsg::?relay` SYMBOL "?relay", ZDO_RegisterForZDOMsg
afRegister          SYMBOL "afRegister"
`??afRegister::?relay` SYMBOL "?relay", afRegister
osal_memcpy         SYMBOL "osal_memcpy"
`??osal_memcpy::?relay` SYMBOL "?relay", osal_memcpy
osal_msg_deallocate SYMBOL "osal_msg_deallocate"
`??osal_msg_deallocate::?relay` SYMBOL "?relay", osal_msg_deallocate
osal_msg_receive    SYMBOL "osal_msg_receive"
`??osal_msg_receive::?relay` SYMBOL "?relay", osal_msg_receive
osal_set_event      SYMBOL "osal_set_event"
`??osal_set_event::?relay` SYMBOL "?relay", osal_set_event
osal_stop_timerEx   SYMBOL "osal_stop_timerEx"
`??osal_stop_timerEx::?relay` SYMBOL "?relay", osal_stop_timerEx
sprintf             SYMBOL "sprintf"
`??sprintf::?relay` SYMBOL "?relay", sprintf
strlen              SYMBOL "strlen"
`??strlen::?relay`  SYMBOL "?relay", strlen
SerialApp_Init      SYMBOL "SerialApp_Init"
`??SerialApp_Init::?relay` SYMBOL "?relay", SerialApp_Init
SerialApp_ProcessEvent SYMBOL "SerialApp_ProcessEvent"
`??SerialApp_ProcessEvent::?relay` SYMBOL "?relay", SerialApp_ProcessEvent

        EXTERN `??AF_DataRequest::?relay`
        FUNCTION `??AF_DataRequest::?relay`,00H
        EXTERN `??HalLcdWriteString::?relay`
        FUNCTION `??HalLcdWriteString::?relay`,00H
        EXTERN `??HalUARTOpen::?relay`
        FUNCTION `??HalUARTOpen::?relay`,00H
        EXTERN `??HalUARTRead::?relay`
        FUNCTION `??HalUARTRead::?relay`,00H
        EXTERN `??HalUARTWrite::?relay`
        FUNCTION `??HalUARTWrite::?relay`,00H
        EXTERN `??NLME_GetShortAddr::?relay`
        FUNCTION `??NLME_GetShortAddr::?relay`,00H
        EXTERN `??RegisterForKeys::?relay`
        FUNCTION `??RegisterForKeys::?relay`,00H
        EXTERN `??ZDO_RegisterForZDOMsg::?relay`
        FUNCTION `??ZDO_RegisterForZDOMsg::?relay`,00H
        EXTERN `??afRegister::?relay`
        FUNCTION `??afRegister::?relay`,00H
        EXTERN `??osal_memcpy::?relay`
        FUNCTION `??osal_memcpy::?relay`,00H
        EXTERN `??osal_msg_deallocate::?relay`
        FUNCTION `??osal_msg_deallocate::?relay`,00H
        EXTERN `??osal_msg_receive::?relay`
        FUNCTION `??osal_msg_receive::?relay`,00H
        EXTERN `??osal_set_event::?relay`
        FUNCTION `??osal_set_event::?relay`,00H
        EXTERN `??osal_stop_timerEx::?relay`
        FUNCTION `??osal_stop_timerEx::?relay`,00H
        EXTERN `??sprintf::?relay`
        FUNCTION `??sprintf::?relay`,00H
        EXTERN `??strlen::?relay`
        FUNCTION `??strlen::?relay`,00H
        EXTERN AF_DataRequest
        FUNCTION AF_DataRequest,0202H
        ARGFRAME ISTACK, 0, STACK
        ARGFRAME PSTACK, 0, STACK
        ARGFRAME XSTACK, 51, STACK
        ARGFRAME IOVERLAY, 0, STATIC
        ARGFRAME DOVERLAY, 0, STATIC
        EXTERN HalLcdWriteString
        FUNCTION HalLcdWriteString,0202H
        ARGFRAME ISTACK, 0, STACK
        ARGFRAME PSTACK, 0, STACK
        ARGFRAME XSTACK, 38, STACK
        ARGFRAME IOVERLAY, 0, STATIC
        ARGFRAME DOVERLAY, 0, STATIC
        EXTERN HalUARTOpen
        FUNCTION HalUARTOpen,0202H
        ARGFRAME ISTACK, 0, STACK
        ARGFRAME PSTACK, 0, STACK
        ARGFRAME XSTACK, 38, STACK
        ARGFRAME IOVERLAY, 0, STATIC
        ARGFRAME DOVERLAY, 0, STATIC
        EXTERN HalUARTRead
        FUNCTION HalUARTRead,0202H
        ARGFRAME ISTACK, 0, STACK
        ARGFRAME PSTACK, 0, STACK
        ARGFRAME XSTACK, 10, STACK
        ARGFRAME IOVERLAY, 0, STATIC
        ARGFRAME DOVERLAY, 0, STATIC
        EXTERN HalUARTWrite
        FUNCTION HalUARTWrite,0202H
        ARGFRAME ISTACK, 0, STACK
        ARGFRAME PSTACK, 0, STACK
        ARGFRAME XSTACK, 42, STACK
        ARGFRAME IOVERLAY, 0, STATIC
        ARGFRAME DOVERLAY, 0, STATIC
        EXTERN NLME_GetShortAddr
        FUNCTION NLME_GetShortAddr,0202H
        ARGFRAME ISTACK, 0, STACK
        ARGFRAME PSTACK, 0, STACK
        ARGFRAME XSTACK, 42, STACK
        ARGFRAME IOVERLAY, 0, STATIC
        ARGFRAME DOVERLAY, 0, STATIC
        EXTERN RegisterForKeys
        FUNCTION RegisterForKeys,0202H
        ARGFRAME ISTACK, 0, STACK
        ARGFRAME PSTACK, 0, STACK
        ARGFRAME XSTACK, 38, STACK
        ARGFRAME IOVERLAY, 0, STATIC
        ARGFRAME DOVERLAY, 0, STATIC
        EXTERN ZDO_RegisterForZDOMsg
        FUNCTION ZDO_RegisterForZDOMsg,0202H
        ARGFRAME ISTACK, 0, STACK
        ARGFRAME PSTACK, 0, STACK
        ARGFRAME XSTACK, 38, STACK
        ARGFRAME IOVERLAY, 0, STATIC
        ARGFRAME DOVERLAY, 0, STATIC
        EXTERN afRegister
        FUNCTION afRegister,0202H
        ARGFRAME ISTACK, 0, STACK
        ARGFRAME PSTACK, 0, STACK
        ARGFRAME XSTACK, 38, STACK
        ARGFRAME IOVERLAY, 0, STATIC
        ARGFRAME DOVERLAY, 0, STATIC
        EXTERN osal_memcpy
        FUNCTION osal_memcpy,0202H
        ARGFRAME ISTACK, 0, STACK
        ARGFRAME PSTACK, 0, STACK
        ARGFRAME XSTACK, 14, STACK
        ARGFRAME IOVERLAY, 0, STATIC
        ARGFRAME DOVERLAY, 0, STATIC
        EXTERN osal_msg_deallocate
        FUNCTION osal_msg_deallocate,0202H
        ARGFRAME ISTACK, 0, STACK
        ARGFRAME PSTACK, 0, STACK
        ARGFRAME XSTACK, 12, STACK
        ARGFRAME IOVERLAY, 0, STATIC
        ARGFRAME DOVERLAY, 0, STATIC
        EXTERN osal_msg_receive
        FUNCTION osal_msg_receive,0202H
        ARGFRAME ISTACK, 0, STACK
        ARGFRAME PSTACK, 0, STACK
        ARGFRAME XSTACK, 12, STACK
        ARGFRAME IOVERLAY, 0, STATIC
        ARGFRAME DOVERLAY, 0, STATIC
        EXTERN osal_set_event
        FUNCTION osal_set_event,0202H
        ARGFRAME ISTACK, 0, STACK
        ARGFRAME PSTACK, 0, STACK
        ARGFRAME XSTACK, 12, STACK
        ARGFRAME IOVERLAY, 0, STATIC
        ARGFRAME DOVERLAY, 0, STATIC
        EXTERN osal_stop_timerEx
        FUNCTION osal_stop_timerEx,0202H
        ARGFRAME ISTACK, 0, STACK
        ARGFRAME PSTACK, 0, STACK
        ARGFRAME XSTACK, 11, STACK
        ARGFRAME IOVERLAY, 0, STATIC
        ARGFRAME DOVERLAY, 0, STATIC
        EXTERN sprintf
        FUNCTION sprintf,0202H
        ARGFRAME ISTACK, 0, STACK
        ARGFRAME PSTACK, 0, STACK
        ARGFRAME XSTACK, 46, STACK
        ARGFRAME IOVERLAY, 0, STATIC
        ARGFRAME DOVERLAY, 0, STATIC
        EXTERN strlen
        FUNCTION strlen,010202H
        ARGFRAME ISTACK, 0, STACK
        ARGFRAME PSTACK, 0, STACK
        ARGFRAME XSTACK, 42, STACK
        ARGFRAME IOVERLAY, 0, STATIC
        ARGFRAME DOVERLAY, 0, STATIC

// D:\SRC\DemoPrj\Projects\zstack\Utilities\SerialApp\Source\SerialApp.c
//    1 /*********************************************************************
//    2  * INCLUDES
//    3  */
//    4 #include <stdio.h>
//    5 #include <string.h>
//    6 #include "AF.h"
//    7 #include "OnBoard.h"
//    8 #include "OSAL_Tasks.h"
//    9 #include "SerialApp.h"
//   10 #include "ZDApp.h"
//   11 #include "ZDObject.h"
//   12 #include "ZDProfile.h"
//   13 
//   14 #include "hal_drivers.h"
//   15 #include "hal_key.h"
//   16 #if defined ( LCD_SUPPORTED )
//   17   #include "hal_lcd.h"
//   18 #endif
//   19 #include "hal_led.h"
//   20 #include "hal_uart.h"
//   21 
//   22 /*********************************************************************
//   23  * MACROS
//   24  */
//   25 
//   26 /*********************************************************************
//   27  * CONSTANTS
//   28  */
//   29 
//   30 #if !defined( SERIAL_APP_PORT )
//   31 #define SERIAL_APP_PORT  0
//   32 #endif
//   33 
//   34 #if !defined( SERIAL_APP_BAUD )
//   35   //#define SERIAL_APP_BAUD  HAL_UART_BR_38400
//   36   #define SERIAL_APP_BAUD  HAL_UART_BR_9600
//   37 #endif
//   38 
//   39 // When the Rx buf space is less than this threshold, invoke the Rx callback.
//   40 #if !defined( SERIAL_APP_THRESH )
//   41 #define SERIAL_APP_THRESH  64
//   42 #endif
//   43 
//   44 #if !defined( SERIAL_APP_RX_SZ )
//   45 #define SERIAL_APP_RX_SZ  128
//   46 #endif
//   47 
//   48 #if !defined( SERIAL_APP_TX_SZ )
//   49 #define SERIAL_APP_TX_SZ  128
//   50 #endif
//   51 
//   52 // Millisecs of idle time after a byte is received before invoking Rx callback.
//   53 #if !defined( SERIAL_APP_IDLE )
//   54 #define SERIAL_APP_IDLE  6
//   55 #endif
//   56 
//   57 // Loopback Rx bytes to Tx for throughput testing.
//   58 #if !defined( SERIAL_APP_LOOPBACK )
//   59 #define SERIAL_APP_LOOPBACK  FALSE
//   60 #endif
//   61 
//   62 // This is the max byte count per OTA message.
//   63 #if !defined( SERIAL_APP_TX_MAX )
//   64 #define SERIAL_APP_TX_MAX  80
//   65 #endif
//   66 
//   67 #define SERIAL_APP_RSP_CNT  4
//   68 
//   69 // This list should be filled with Application specific Cluster IDs.

        RSEG XDATA_ROM_C:CONST:REORDER:NOROOT(0)
        DATA8
//   70 const cId_t SerialApp_ClusterList[SERIALAPP_MAX_CLUSTERS] =
SerialApp_ClusterList:
        DATA16
        DW 1
        DW 2
        DW 3
        DW 4
//   71 {
//   72   SERIALAPP_CLUSTERID1,
//   73   SERIALAPP_CLUSTERID2,
//   74   SERIALAPP_CONNECTREQ_CLUSTER,            
//   75   SERIALAPP_CONNECTRSP_CLUSTER             
//   76 };
//   77 

        RSEG XDATA_ROM_C:CONST:REORDER:NOROOT(0)
        DATA8
//   78 const SimpleDescriptionFormat_t SerialApp_SimpleDesc =
SerialApp_SimpleDesc:
        DB 11
        DATA16
        DW 3845
        DW 1
        DATA8
        DB 0
        DB 4
        DATA16
        DW SerialApp_ClusterList
        DATA8
        DB 4
        DATA16
        DW SerialApp_ClusterList
//   79 {
//   80   SERIALAPP_ENDPOINT,              //  int   Endpoint;
//   81   SERIALAPP_PROFID,                //  uint16 AppProfId[2];
//   82   SERIALAPP_DEVICEID,              //  uint16 AppDeviceId[2];
//   83   SERIALAPP_DEVICE_VERSION,        //  int   AppDevVer:4;
//   84   SERIALAPP_FLAGS,                 //  int   AppFlags:4;
//   85   SERIALAPP_MAX_CLUSTERS,          //  byte  AppNumInClusters;
//   86   (cId_t *)SerialApp_ClusterList,  //  byte *pAppInClusterList;
//   87   SERIALAPP_MAX_CLUSTERS,          //  byte  AppNumOutClusters;
//   88   (cId_t *)SerialApp_ClusterList   //  byte *pAppOutClusterList;
//   89 };
//   90 

        RSEG XDATA_I:XDATA:NOROOT(0)
//   91 endPointDesc_t SerialApp_epDesc =
SerialApp_epDesc:
        DATA8
        DS 6
        REQUIRE `?<Initializer for SerialApp_epDesc>`
        REQUIRE __INIT_XDATA_I
//   92 {
//   93   SERIALAPP_ENDPOINT,
//   94  &SerialApp_TaskID,
//   95   (SimpleDescriptionFormat_t *)&SerialApp_SimpleDesc,
//   96   noLatencyReqs
//   97 };
//   98 
//   99 /*********************************************************************
//  100  * TYPEDEFS
//  101  */
//  102 
//  103 /*********************************************************************
//  104  * GLOBAL VARIABLES
//  105  */

        RSEG XDATA_Z:XDATA:NOROOT(0)
        DATA8
//  106 devStates_t SampleApp_NwkState;   
SampleApp_NwkState:
        DS 1
        REQUIRE __INIT_XDATA_Z

        RSEG XDATA_Z:XDATA:NOROOT(0)
        DATA8
//  107 uint8 SerialApp_TaskID;           // Task ID for internal task/event processing.
SerialApp_TaskID:
        DS 1
        REQUIRE __INIT_XDATA_Z
//  108 
//  109 /*********************************************************************
//  110  * EXTERNAL VARIABLES
//  111  */
//  112 
//  113 /*********************************************************************
//  114  * EXTERNAL FUNCTIONS
//  115  */
//  116 
//  117 /*********************************************************************
//  118  * LOCAL VARIABLES
//  119  */
//  120 

        RSEG XDATA_Z:XDATA:NOROOT(0)
        DATA8
//  121 static uint8 SerialApp_MsgID;
SerialApp_MsgID:
        DS 1
        REQUIRE __INIT_XDATA_Z
//  122 

        RSEG XDATA_Z:XDATA:NOROOT(0)
        DATA8
//  123 static afAddrType_t SerialApp_TxAddr;
SerialApp_TxAddr:
        DS 12
        REQUIRE __INIT_XDATA_Z

        RSEG XDATA_Z:XDATA:NOROOT(0)
        DATA8
//  124 static uint8 SerialApp_TxSeq;
SerialApp_TxSeq:
        DS 1
        REQUIRE __INIT_XDATA_Z

        RSEG XDATA_Z:XDATA:NOROOT(0)
        DATA8
//  125 static uint8 SerialApp_TxBuf[SERIAL_APP_TX_MAX+1];
SerialApp_TxBuf:
        DS 81
        REQUIRE __INIT_XDATA_Z

        RSEG XDATA_Z:XDATA:NOROOT(0)
        DATA8
//  126 static uint8 SerialApp_TxLen;
SerialApp_TxLen:
        DS 1
        REQUIRE __INIT_XDATA_Z
//  127 

        RSEG XDATA_Z:XDATA:NOROOT(0)
        DATA8
//  128 static afAddrType_t SerialApp_RxAddr;
SerialApp_RxAddr:
        DS 12
        REQUIRE __INIT_XDATA_Z

        RSEG XDATA_Z:XDATA:NOROOT(0)
        DATA8
//  129 static uint8 SerialApp_RxSeq;
SerialApp_RxSeq:
        DS 1
        REQUIRE __INIT_XDATA_Z

        RSEG XDATA_Z:XDATA:NOROOT(0)
        DATA32
//  130 static uint8 SerialApp_RspBuf[SERIAL_APP_RSP_CNT];
SerialApp_RspBuf:
        DS 4
        REQUIRE __INIT_XDATA_Z
//  131 
//  132 /*********************************************************************
//  133  * LOCAL FUNCTIONS
//  134  */
//  135 
//  136 static void SerialApp_ProcessMSGCmd( afIncomingMSGPacket_t *pkt );
//  137 static void SerialApp_Send(void);
//  138 static void SerialApp_Resp(void);
//  139 static void SerialApp_CallBack(uint8 port, uint8 event); 
//  140 static void SerialApp_DeviceConnect(void);              
//  141 static void SerialApp_DeviceConnectRsp(uint8*);         
//  142 static void SerialApp_ConnectReqProcess(uint8*);           
//  143 
//  144 
//  145 static void keyInvoke_Send(uint8 key);
//  146 static uint8 sendToPc(uint32 addr, uint8 key);
//  147 /*********************************************************************
//  148  * @fn      SerialApp_Init
//  149  *
//  150  * @brief   This is called during OSAL tasks' initialization.
//  151  *
//  152  * @param   task_id - the Task ID assigned by OSAL.
//  153  *
//  154  * @return  none
//  155  */

        RSEG BANKED_CODE:HUGECODE:NOROOT(0)
//  156 void SerialApp_Init( uint8 task_id )
SerialApp_Init:
          CFI Block cfiBlock0 Using cfiCommon0
          CFI Function SerialApp_Init
        CODE
//  157 {
        FUNCALL SerialApp_Init, afRegister
        LOCFRAME ISTACK, 0, STACK
        LOCFRAME PSTACK, 0, STACK
        LOCFRAME XSTACK, 38, STACK
        LOCFRAME IOVERLAY, 0, STATIC
        LOCFRAME DOVERLAY, 0, STATIC
        ARGFRAME ISTACK, 0, STACK
        ARGFRAME PSTACK, 0, STACK
        ARGFRAME XSTACK, 38, STACK
        ARGFRAME IOVERLAY, 0, STATIC
        ARGFRAME DOVERLAY, 0, STATIC
        FUNCALL SerialApp_Init, RegisterForKeys
        LOCFRAME ISTACK, 0, STACK
        LOCFRAME PSTACK, 0, STACK
        LOCFRAME XSTACK, 38, STACK
        LOCFRAME IOVERLAY, 0, STATIC
        LOCFRAME DOVERLAY, 0, STATIC
        ARGFRAME ISTACK, 0, STACK
        ARGFRAME PSTACK, 0, STACK
        ARGFRAME XSTACK, 38, STACK
        ARGFRAME IOVERLAY, 0, STATIC
        ARGFRAME DOVERLAY, 0, STATIC
        FUNCALL SerialApp_Init, HalUARTOpen
        LOCFRAME ISTACK, 0, STACK
        LOCFRAME PSTACK, 0, STACK
        LOCFRAME XSTACK, 38, STACK
        LOCFRAME IOVERLAY, 0, STATIC
        LOCFRAME DOVERLAY, 0, STATIC
        ARGFRAME ISTACK, 0, STACK
        ARGFRAME PSTACK, 0, STACK
        ARGFRAME XSTACK, 38, STACK
        ARGFRAME IOVERLAY, 0, STATIC
        ARGFRAME DOVERLAY, 0, STATIC
        FUNCALL SerialApp_Init, HalLcdWriteString
        LOCFRAME ISTACK, 0, STACK
        LOCFRAME PSTACK, 0, STACK
        LOCFRAME XSTACK, 38, STACK
        LOCFRAME IOVERLAY, 0, STATIC
        LOCFRAME DOVERLAY, 0, STATIC
        ARGFRAME ISTACK, 0, STACK
        ARGFRAME PSTACK, 0, STACK
        ARGFRAME XSTACK, 38, STACK
        ARGFRAME IOVERLAY, 0, STATIC
        ARGFRAME DOVERLAY, 0, STATIC
        FUNCALL SerialApp_Init, ZDO_RegisterForZDOMsg
        LOCFRAME ISTACK, 0, STACK
        LOCFRAME PSTACK, 0, STACK
        LOCFRAME XSTACK, 38, STACK
        LOCFRAME IOVERLAY, 0, STATIC
        LOCFRAME DOVERLAY, 0, STATIC
        ARGFRAME ISTACK, 0, STACK
        ARGFRAME PSTACK, 0, STACK
        ARGFRAME XSTACK, 38, STACK
        ARGFRAME IOVERLAY, 0, STATIC
        ARGFRAME DOVERLAY, 0, STATIC
        FUNCALL SerialApp_Init, ZDO_RegisterForZDOMsg
        LOCFRAME ISTACK, 0, STACK
        LOCFRAME PSTACK, 0, STACK
        LOCFRAME XSTACK, 38, STACK
        LOCFRAME IOVERLAY, 0, STATIC
        LOCFRAME DOVERLAY, 0, STATIC
        ARGFRAME ISTACK, 0, STACK
        ARGFRAME PSTACK, 0, STACK
        ARGFRAME XSTACK, 38, STACK
        ARGFRAME IOVERLAY, 0, STATIC
        ARGFRAME DOVERLAY, 0, STATIC
        MOV       A,#-0x9
        LCALL     ?BANKED_ENTER_XDATA
          CFI DPH0 load(1, XDATA, add(CFA_XSP16, literal(-1)))
          CFI DPL0 load(1, XDATA, add(CFA_XSP16, literal(-2)))
          CFI ?BRET_EXT load(1, XDATA, add(CFA_XSP16, literal(-3)))
          CFI ?RET_HIGH load(1, XDATA, add(CFA_XSP16, literal(-4)))
          CFI ?RET_LOW load(1, XDATA, add(CFA_XSP16, literal(-5)))
          CFI R7 load(1, XDATA, add(CFA_XSP16, literal(-6)))
          CFI V0 load(1, XDATA, add(CFA_XSP16, literal(-7)))
          CFI VB load(1, XDATA, add(CFA_XSP16, literal(-8)))
          CFI R6 load(1, XDATA, add(CFA_XSP16, literal(-9)))
          CFI CFA_SP SP+0
          CFI CFA_XSP16 add(XSP16, 9)
        ; Saved register size: 9
        ; Auto size: 29
        MOV       A,#-0x1d
        LCALL     ?ALLOC_XSTACK8
          CFI CFA_XSP16 add(XSP16, 38)
        MOV       A,R1
        MOV       R6,A
//  158   halUARTCfg_t uartConfig;
//  159 
//  160   SerialApp_TaskID = task_id;
        MOV       DPTR,#SerialApp_TaskID
        MOVX      @DPTR,A
//  161   SerialApp_RxSeq = 0xC3;
        MOV       DPTR,#SerialApp_RxSeq
        MOV       A,#-0x3d
        MOVX      @DPTR,A
//  162   SampleApp_NwkState = DEV_INIT;       
        MOV       DPTR,#SampleApp_NwkState
        MOV       A,#0x1
        MOVX      @DPTR,A
//  163   
//  164   afRegister( (endPointDesc_t *)&SerialApp_epDesc );
        ; Setup parameters for call to function afRegister
        MOV       R2,#SerialApp_epDesc & 0xff
        MOV       R3,#(SerialApp_epDesc >> 8) & 0xff
        LCALL     `??afRegister::?relay`; Banked call to: afRegister
//  165 
//  166   RegisterForKeys( task_id );
        ; Setup parameters for call to function RegisterForKeys
        MOV       A,R6
        MOV       R1,A
        LCALL     `??RegisterForKeys::?relay`; Banked call to: RegisterForKeys
//  167 
//  168   uartConfig.configured           = TRUE;              // 2x30 don't care - see uart driver.
        MOV       DPL,?XSP + 0
        MOV       DPH,?XSP + 1
        MOV       A,#0x1
        MOVX      @DPTR,A
//  169   uartConfig.baudRate             = SERIAL_APP_BAUD;
        LCALL     ?XSTACK_DISP0_8
        CLR       A
        MOVX      @DPTR,A
//  170   uartConfig.flowControl          = FALSE;
        MOV       A,#0x2
        LCALL     ?XSTACK_DISP0_8
        CLR       A
        MOVX      @DPTR,A
//  171   uartConfig.flowControlThreshold = SERIAL_APP_THRESH; // 2x30 don't care - see uart driver.
        MOV       A,#0x3
        LCALL     ?XSTACK_DISP0_8
        MOV       A,#0x40
        MOVX      @DPTR,A
        INC       DPTR
        CLR       A
        MOVX      @DPTR,A
//  172   uartConfig.rx.maxBufSize        = SERIAL_APP_RX_SZ;  // 2x30 don't care - see uart driver.
        MOV       A,#0xa
        LCALL     ?XSTACK_DISP0_8
        MOV       A,#-0x80
        MOVX      @DPTR,A
        INC       DPTR
        CLR       A
        MOVX      @DPTR,A
//  173   uartConfig.tx.maxBufSize        = SERIAL_APP_TX_SZ;  // 2x30 don't care - see uart driver.
        MOV       A,#0x12
        LCALL     ?XSTACK_DISP0_8
        MOV       A,#-0x80
        MOVX      @DPTR,A
        INC       DPTR
        CLR       A
        MOVX      @DPTR,A
//  174   uartConfig.idleTimeout          = SERIAL_APP_IDLE;   // 2x30 don't care - see uart driver.
        MOV       A,#0x5
        LCALL     ?XSTACK_DISP0_8
        MOV       A,#0x6
        MOVX      @DPTR,A
//  175   uartConfig.intEnable            = TRUE;              // 2x30 don't care - see uart driver.
        MOV       A,#0x16
        LCALL     ?XSTACK_DISP0_8
        MOV       A,#0x1
        MOVX      @DPTR,A
//  176   uartConfig.callBackFunc         = SerialApp_CallBack;
        MOV       A,#0x1b
        LCALL     ?XSTACK_DISP0_8
        MOV       A,#`??SerialApp_CallBack::?relay` & 0xff
        MOVX      @DPTR,A
        INC       DPTR
        MOV       A,#(`??SerialApp_CallBack::?relay` >> 8) & 0xff
        MOVX      @DPTR,A
//  177   HalUARTOpen (SERIAL_APP_PORT, &uartConfig);
        ; Setup parameters for call to function HalUARTOpen
        MOV       R2,?XSP + 0
        MOV       R3,?XSP + 1
        MOV       R1,#0x0
        LCALL     `??HalUARTOpen::?relay`; Banked call to: HalUARTOpen
//  178 
//  179 #if defined ( LCD_SUPPORTED )
//  180   HalLcdWriteString( "SerialApp", HAL_LCD_LINE_2 );
        ; Setup parameters for call to function HalLcdWriteString
        MOV       R1,#0x2
        MOV       R2,#`?<Constant "SerialApp">` & 0xff
        MOV       R3,#(`?<Constant "SerialApp">` >> 8) & 0xff
        LCALL     `??HalLcdWriteString::?relay`; Banked call to: HalLcdWriteString
//  181 #endif
//  182   
//  183   ZDO_RegisterForZDOMsg( SerialApp_TaskID, End_Device_Bind_rsp );
        ; Setup parameters for call to function ZDO_RegisterForZDOMsg
        MOV       R2,#0x20
        MOV       R3,#-0x80
        MOV       DPTR,#SerialApp_TaskID
        MOVX      A,@DPTR
        MOV       R1,A
        LCALL     `??ZDO_RegisterForZDOMsg::?relay`; Banked call to: ZDO_RegisterForZDOMsg
//  184   ZDO_RegisterForZDOMsg( SerialApp_TaskID, Match_Desc_rsp );
        ; Setup parameters for call to function ZDO_RegisterForZDOMsg
        MOV       R2,#0x6
        MOV       R3,#-0x80
        MOV       DPTR,#SerialApp_TaskID
        MOVX      A,@DPTR
        MOV       R1,A
        LCALL     `??ZDO_RegisterForZDOMsg::?relay`; Banked call to: ZDO_RegisterForZDOMsg
//  185 }
        MOV       A,#0x1d
        LCALL     ?DEALLOC_XSTACK8
          CFI EndBlock cfiBlock0
        REQUIRE ?Subroutine0
        ; // Fall through to label ?Subroutine0

        RSEG BANKED_CODE:HUGECODE:NOROOT(0)
?Subroutine0:
          CFI Block cfiBlock1 Using cfiCommon0
          CFI NoFunction
          CFI CFA_SP SP+0
          CFI CFA_XSP16 add(XSP16, 9)
          CFI VB load(1, XDATA, add(CFA_XSP16, literal(-8)))
          CFI DPL0 load(1, XDATA, add(CFA_XSP16, literal(-2)))
          CFI DPH0 load(1, XDATA, add(CFA_XSP16, literal(-1)))
          CFI R6 load(1, XDATA, add(CFA_XSP16, literal(-9)))
          CFI R7 load(1, XDATA, add(CFA_XSP16, literal(-6)))
          CFI V0 load(1, XDATA, add(CFA_XSP16, literal(-7)))
          CFI ?BRET_EXT load(1, XDATA, add(CFA_XSP16, literal(-3)))
          CFI ?RET_HIGH load(1, XDATA, add(CFA_XSP16, literal(-4)))
          CFI ?RET_LOW load(1, XDATA, add(CFA_XSP16, literal(-5)))
        MOV       R7,#0x1
        LJMP      ?BANKED_LEAVE_XDATA
          CFI EndBlock cfiBlock1
//  186 
//  187 /*********************************************************************
//  188  * @fn      SerialApp_ProcessEvent
//  189  *
//  190  * @brief   Generic Application Task event processor.
//  191  *
//  192  * @param   task_id  - The OSAL assigned task ID.
//  193  * @param   events   - Bit map of events to process.
//  194  *
//  195  * @return  Event flags of all unprocessed events.
//  196  */

        RSEG BANKED_CODE:HUGECODE:NOROOT(0)
//  197 UINT16 SerialApp_ProcessEvent( uint8 task_id, UINT16 events )
SerialApp_ProcessEvent:
          CFI Block cfiBlock2 Using cfiCommon0
          CFI Function SerialApp_ProcessEvent
        CODE
//  198 {
        FUNCALL SerialApp_ProcessEvent, SerialApp_Send
        LOCFRAME ISTACK, 0, STACK
        LOCFRAME PSTACK, 0, STACK
        LOCFRAME XSTACK, 12, STACK
        LOCFRAME IOVERLAY, 0, STATIC
        LOCFRAME DOVERLAY, 0, STATIC
        ARGFRAME ISTACK, 0, STACK
        ARGFRAME PSTACK, 0, STACK
        ARGFRAME XSTACK, 12, STACK
        ARGFRAME IOVERLAY, 0, STATIC
        ARGFRAME DOVERLAY, 0, STATIC
        FUNCALL SerialApp_ProcessEvent, osal_msg_deallocate
        LOCFRAME ISTACK, 0, STACK
        LOCFRAME PSTACK, 0, STACK
        LOCFRAME XSTACK, 12, STACK
        LOCFRAME IOVERLAY, 0, STATIC
        LOCFRAME DOVERLAY, 0, STATIC
        ARGFRAME ISTACK, 0, STACK
        ARGFRAME PSTACK, 0, STACK
        ARGFRAME XSTACK, 12, STACK
        ARGFRAME IOVERLAY, 0, STATIC
        ARGFRAME DOVERLAY, 0, STATIC
        FUNCALL SerialApp_ProcessEvent, osal_msg_receive
        LOCFRAME ISTACK, 0, STACK
        LOCFRAME PSTACK, 0, STACK
        LOCFRAME XSTACK, 12, STACK
        LOCFRAME IOVERLAY, 0, STATIC
        LOCFRAME DOVERLAY, 0, STATIC
        ARGFRAME ISTACK, 0, STACK
        ARGFRAME PSTACK, 0, STACK
        ARGFRAME XSTACK, 12, STACK
        ARGFRAME IOVERLAY, 0, STATIC
        ARGFRAME DOVERLAY, 0, STATIC
        FUNCALL SerialApp_ProcessEvent, SerialApp_ProcessMSGCmd
        LOCFRAME ISTACK, 0, STACK
        LOCFRAME PSTACK, 0, STACK
        LOCFRAME XSTACK, 12, STACK
        LOCFRAME IOVERLAY, 0, STATIC
        LOCFRAME DOVERLAY, 0, STATIC
        ARGFRAME ISTACK, 0, STACK
        ARGFRAME PSTACK, 0, STACK
        ARGFRAME XSTACK, 12, STACK
        ARGFRAME IOVERLAY, 0, STATIC
        ARGFRAME DOVERLAY, 0, STATIC
        FUNCALL SerialApp_ProcessEvent, AF_DataRequest
        LOCFRAME ISTACK, 0, STACK
        LOCFRAME PSTACK, 0, STACK
        LOCFRAME XSTACK, 21, STACK
        LOCFRAME IOVERLAY, 0, STATIC
        LOCFRAME DOVERLAY, 0, STATIC
        ARGFRAME ISTACK, 0, STACK
        ARGFRAME PSTACK, 0, STACK
        ARGFRAME XSTACK, 21, STACK
        ARGFRAME IOVERLAY, 0, STATIC
        ARGFRAME DOVERLAY, 0, STATIC
        FUNCALL SerialApp_ProcessEvent, osal_set_event
        LOCFRAME ISTACK, 0, STACK
        LOCFRAME PSTACK, 0, STACK
        LOCFRAME XSTACK, 12, STACK
        LOCFRAME IOVERLAY, 0, STATIC
        LOCFRAME DOVERLAY, 0, STATIC
        ARGFRAME ISTACK, 0, STACK
        ARGFRAME PSTACK, 0, STACK
        ARGFRAME XSTACK, 12, STACK
        ARGFRAME IOVERLAY, 0, STATIC
        ARGFRAME DOVERLAY, 0, STATIC
        REQUIRE ?V0
        REQUIRE ?V1
        REQUIRE ?V2
        REQUIRE ?V3
        MOV       A,#-0xc
        LCALL     ?BANKED_ENTER_XDATA
          CFI DPH0 load(1, XDATA, add(CFA_XSP16, literal(-1)))
          CFI DPL0 load(1, XDATA, add(CFA_XSP16, literal(-2)))
          CFI ?BRET_EXT load(1, XDATA, add(CFA_XSP16, literal(-3)))
          CFI ?RET_HIGH load(1, XDATA, add(CFA_XSP16, literal(-4)))
          CFI ?RET_LOW load(1, XDATA, add(CFA_XSP16, literal(-5)))
          CFI R7 load(1, XDATA, add(CFA_XSP16, literal(-6)))
          CFI V3 load(1, XDATA, add(CFA_XSP16, literal(-7)))
          CFI V2 load(1, XDATA, add(CFA_XSP16, literal(-8)))
          CFI V1 load(1, XDATA, add(CFA_XSP16, literal(-9)))
          CFI V0 load(1, XDATA, add(CFA_XSP16, literal(-10)))
          CFI VB load(1, XDATA, add(CFA_XSP16, literal(-11)))
          CFI R6 load(1, XDATA, add(CFA_XSP16, literal(-12)))
          CFI CFA_SP SP+0
          CFI CFA_XSP16 add(XSP16, 12)
        ; Saved register size: 12
        ; Auto size: 0
        MOV       A,R2
        MOV       R6,A
        MOV       A,R3
        MOV       R7,A
//  199   (void)task_id;  // Intentionally unreferenced parameter
//  200   uint8 key = 0;
//  201   if ( events & SYS_EVENT_MSG )
        ANL       A,#0x80
        JNZ       ??SerialApp_ProcessEvent_0
//  202   {
//  203     afIncomingMSGPacket_t *MSGpkt;
//  204 
//  205     while ( (MSGpkt = (afIncomingMSGPacket_t *)osal_msg_receive( SerialApp_TaskID )) )
//  206     {
//  207       switch ( MSGpkt->hdr.event )
//  208       {
//  209       case AF_INCOMING_MSG_CMD:
//  210         SerialApp_ProcessMSGCmd( MSGpkt );
//  211         break;
//  212         
//  213       case ZDO_STATE_CHANGE:
//  214         SampleApp_NwkState = (devStates_t)(MSGpkt->hdr.status);
//  215         if ( (SampleApp_NwkState == DEV_ZB_COORD)
//  216             || (SampleApp_NwkState == DEV_ROUTER)
//  217             || (SampleApp_NwkState == DEV_END_DEVICE) )
//  218         {
//  219             // Start sending the periodic message in a regular interval.
//  220             //HalLedSet(HAL_LED_1, HAL_LED_MODE_ON);
//  221             
//  222             if(SampleApp_NwkState != DEV_ZB_COORD)
//  223               SerialApp_DeviceConnect();              
//  224         }
//  225         else
//  226         {
//  227           // Device is no longer in the network
//  228         }
//  229         break;
//  230       case KEY_CHANGE:
//  231         {
//  232           keyChange_t *keyChangeMsg = (keyChange_t *)MSGpkt;
//  233 //          uint8 txbuf[20] = {0};
//  234 //          sprintf(txbuf, "hello world, %d\n", keyChangeMsg->keys);
//  235 //          HalUARTWrite(SERIAL_APP_PORT, txbuf, strlen(txbuf));
//  236           key = keyChangeMsg->keys;
//  237           keyInvoke_Send(keyChangeMsg->keys);
//  238         }
//  239         break;
//  240 
//  241       default:
//  242         break;
//  243       }
//  244 
//  245       osal_msg_deallocate( (uint8 *)MSGpkt );
//  246     }
//  247 
//  248     return ( events ^ SYS_EVENT_MSG );
//  249   }
//  250 
//  251   if ( events & SERIALAPP_SEND_EVT )
        MOV       A,R2
        MOV       C,0xE0 /* A   */.0
        JNC       ??SerialApp_ProcessEvent_1
//  252   {
//  253     SerialApp_Send();
        ; Setup parameters for call to function SerialApp_Send
        LCALL     `??SerialApp_Send::?relay`; Banked call to: SerialApp_Send
//  254     return ( events ^ SERIALAPP_SEND_EVT );
        MOV       A,R6
        XRL       A,#0x1
        LJMP      ??SerialApp_ProcessEvent_2 & 0xFFFF
//  255   }
??SerialApp_ProcessEvent_3:
        INC       DPTR
        MOVX      A,@DPTR
        MOV       DPTR,#SampleApp_NwkState
        MOVX      @DPTR,A
??SerialApp_ProcessEvent_4:
        ; Setup parameters for call to function osal_msg_deallocate
        MOV       R2,?V0
        MOV       R3,?V1
        LCALL     `??osal_msg_deallocate::?relay`; Banked call to: osal_msg_deallocate
??SerialApp_ProcessEvent_0:
        ; Setup parameters for call to function osal_msg_receive
        MOV       DPTR,#SerialApp_TaskID
        MOVX      A,@DPTR
        MOV       R1,A
        LCALL     `??osal_msg_receive::?relay`; Banked call to: osal_msg_receive
        MOV       ?V0,R2
        MOV       ?V1,R3
        MOV       A,R2
        ORL       A,R3
        JZ        ??SerialApp_ProcessEvent_5
        MOV       DPL,R2
        MOV       DPH,R3
        MOVX      A,@DPTR
        ADD       A,#-0x1a
        JZ        ??SerialApp_ProcessEvent_6
        ADD       A,#0x49
        JZ        ??SerialApp_ProcessEvent_3
        SJMP      ??SerialApp_ProcessEvent_4
??SerialApp_ProcessEvent_6:
        ; Setup parameters for call to function SerialApp_ProcessMSGCmd
        LCALL     `??SerialApp_ProcessMSGCmd::?relay`; Banked call to: SerialApp_ProcessMSGCmd
        SJMP      ??SerialApp_ProcessEvent_4
??SerialApp_ProcessEvent_5:
        MOV       A,R6
        MOV       R2,A
        MOV       A,R7
        XRL       A,#0x80
        SJMP      ??SerialApp_ProcessEvent_7
//  256 
//  257   if ( events & SERIALAPP_RESP_EVT )
??SerialApp_ProcessEvent_1:
        ANL       A,#0x2
        JZ        ??SerialApp_ProcessEvent_8
//  258   {
//  259     SerialApp_Resp();
        ; Setup parameters for call to function AF_DataRequest
        MOV       ?V0,#0x1e
        MOV       R0,#?V0
        LCALL     ?PUSH_XSTACK_I_ONE
          CFI CFA_XSP16 add(XSP16, 13)
        MOV       ?V0,#SerialApp_MsgID & 0xff
        MOV       ?V1,#(SerialApp_MsgID >> 8) & 0xff
        MOV       R0,#?V0
        LCALL     ?PUSH_XSTACK_I_TWO
          CFI CFA_XSP16 add(XSP16, 15)
        MOV       ?V0,#SerialApp_RspBuf & 0xff
        MOV       ?V1,#(SerialApp_RspBuf >> 8) & 0xff
        MOV       R0,#?V0
        LCALL     ?PUSH_XSTACK_I_TWO
          CFI CFA_XSP16 add(XSP16, 17)
        MOV       ?V0,#0x4
        MOV       ?V1,#0x0
        MOV       R0,#?V0
        LCALL     ?PUSH_XSTACK_I_TWO
          CFI CFA_XSP16 add(XSP16, 19)
        MOV       ?V0,#0x2
        MOV       R0,#?V0
        LCALL     ?PUSH_XSTACK_I_TWO
          CFI CFA_XSP16 add(XSP16, 21)
        MOV       R1,#0x0
        MOV       R4,#SerialApp_epDesc & 0xff
        MOV       R5,#(SerialApp_epDesc >> 8) & 0xff
        MOV       R2,#SerialApp_RxAddr & 0xff
        MOV       R3,#(SerialApp_RxAddr >> 8) & 0xff
        LCALL     `??AF_DataRequest::?relay`; Banked call to: AF_DataRequest
        MOV       A,#0x9
        LCALL     ?DEALLOC_XSTACK8
          CFI CFA_XSP16 add(XSP16, 12)
        MOV       A,R1
        JZ        ??CrossCallReturnLabel_2
        ; Setup parameters for call to function osal_set_event
        MOV       R2,#0x2
        LCALL     ?Subroutine3 & 0xFFFF
//  260     return ( events ^ SERIALAPP_RESP_EVT );
??CrossCallReturnLabel_2:
        MOV       A,R6
        XRL       A,#0x2
??SerialApp_ProcessEvent_2:
        MOV       R2,A
        MOV       A,R7
??SerialApp_ProcessEvent_7:
        MOV       R3,A
        SJMP      ??SerialApp_ProcessEvent_9
//  261   }
//  262   
//  263 
//  264   return ( 0 );  // Discard unknown events.
??SerialApp_ProcessEvent_8:
        MOV       R2,#0x0
        MOV       R3,#0x0
??SerialApp_ProcessEvent_9:
          CFI EndBlock cfiBlock2
        REQUIRE ?Subroutine1
        ; // Fall through to label ?Subroutine1
//  265 }

        RSEG BANKED_CODE:HUGECODE:NOROOT(0)
?Subroutine1:
          CFI Block cfiBlock3 Using cfiCommon0
          CFI NoFunction
          CFI CFA_SP SP+0
          CFI CFA_XSP16 add(XSP16, 12)
          CFI VB load(1, XDATA, add(CFA_XSP16, literal(-11)))
          CFI DPL0 load(1, XDATA, add(CFA_XSP16, literal(-2)))
          CFI DPH0 load(1, XDATA, add(CFA_XSP16, literal(-1)))
          CFI R6 load(1, XDATA, add(CFA_XSP16, literal(-12)))
          CFI R7 load(1, XDATA, add(CFA_XSP16, literal(-6)))
          CFI V0 load(1, XDATA, add(CFA_XSP16, literal(-10)))
          CFI V1 load(1, XDATA, add(CFA_XSP16, literal(-9)))
          CFI V2 load(1, XDATA, add(CFA_XSP16, literal(-8)))
          CFI V3 load(1, XDATA, add(CFA_XSP16, literal(-7)))
          CFI ?BRET_EXT load(1, XDATA, add(CFA_XSP16, literal(-3)))
          CFI ?RET_HIGH load(1, XDATA, add(CFA_XSP16, literal(-4)))
          CFI ?RET_LOW load(1, XDATA, add(CFA_XSP16, literal(-5)))
        MOV       R7,#0x4
        LJMP      ?BANKED_LEAVE_XDATA
          CFI EndBlock cfiBlock3

        RSEG BANKED_CODE:HUGECODE:NOROOT(0)
?Subroutine3:
          CFI Block cfiCond4 Using cfiCommon0
          CFI Function SerialApp_ProcessEvent
          CFI Conditional ??CrossCallReturnLabel_2
          CFI R6 load(1, XDATA, add(CFA_XSP16, literal(-12)))
          CFI VB load(1, XDATA, add(CFA_XSP16, literal(-11)))
          CFI V0 load(1, XDATA, add(CFA_XSP16, literal(-10)))
          CFI V1 load(1, XDATA, add(CFA_XSP16, literal(-9)))
          CFI V2 load(1, XDATA, add(CFA_XSP16, literal(-8)))
          CFI V3 load(1, XDATA, add(CFA_XSP16, literal(-7)))
          CFI R7 load(1, XDATA, add(CFA_XSP16, literal(-6)))
          CFI ?RET_LOW load(1, XDATA, add(CFA_XSP16, literal(-5)))
          CFI ?RET_HIGH load(1, XDATA, add(CFA_XSP16, literal(-4)))
          CFI ?BRET_EXT load(1, XDATA, add(CFA_XSP16, literal(-3)))
          CFI DPL0 load(1, XDATA, add(CFA_XSP16, literal(-2)))
          CFI DPH0 load(1, XDATA, add(CFA_XSP16, literal(-1)))
          CFI CFA_SP SP+-2
          CFI CFA_XSP16 add(XSP16, 12)
          CFI Block cfiCond5 Using cfiCommon0
          CFI (cfiCond5) Function SerialApp_Send
          CFI (cfiCond5) Conditional ??CrossCallReturnLabel_3
          CFI (cfiCond5) R6 load(1, XDATA, add(CFA_XSP16, literal(-10)))
          CFI (cfiCond5) VB load(1, XDATA, add(CFA_XSP16, literal(-9)))
          CFI (cfiCond5) V0 load(1, XDATA, add(CFA_XSP16, literal(-8)))
          CFI (cfiCond5) V1 load(1, XDATA, add(CFA_XSP16, literal(-7)))
          CFI (cfiCond5) R7 load(1, XDATA, add(CFA_XSP16, literal(-6)))
          CFI (cfiCond5) ?RET_LOW load(1, XDATA, add(CFA_XSP16, literal(-5)))
          CFI (cfiCond5) ?RET_HIGH load(1, XDATA, add(CFA_XSP16, literal(-4)))
          CFI (cfiCond5) ?BRET_EXT load(1, XDATA, add(CFA_XSP16, literal(-3)))
          CFI (cfiCond5) DPL0 load(1, XDATA, add(CFA_XSP16, literal(-2)))
          CFI (cfiCond5) DPH0 load(1, XDATA, add(CFA_XSP16, literal(-1)))
          CFI (cfiCond5) CFA_SP SP+-2
          CFI (cfiCond5) CFA_XSP16 add(XSP16, 10)
          CFI Block cfiPicker6 Using cfiCommon1
          CFI (cfiPicker6) NoFunction
          CFI (cfiPicker6) Picker
        MOV       R3,#0x0
          CFI EndBlock cfiCond4
          CFI EndBlock cfiCond5
          CFI EndBlock cfiPicker6
        REQUIRE ??Subroutine4_0
        ; // Fall through to label ??Subroutine4_0
//  266 
//  267 /*********************************************************************
//  268  * @fn      SerialApp_ProcessMSGCmd
//  269  *
//  270  * @brief   Data message processor callback. This function processes
//  271  *          any incoming data - probably from other devices. Based
//  272  *          on the cluster ID, perform the intended action.
//  273  *
//  274  * @param   pkt - pointer to the incoming message packet
//  275  *
//  276  * @return  TRUE if the 'pkt' parameter is being used and will be freed later,
//  277  *          FALSE otherwise.
//  278  */

        RSEG BANKED_CODE:HUGECODE:NOROOT(0)
??Subroutine4_0:
          CFI Block cfiCond7 Using cfiCommon0
          CFI Function SerialApp_ProcessMSGCmd
          CFI Conditional ??CrossCallReturnLabel_4
          CFI R6 load(1, XDATA, add(CFA_XSP16, literal(-11)))
          CFI VB load(1, XDATA, add(CFA_XSP16, literal(-10)))
          CFI V0 load(1, XDATA, add(CFA_XSP16, literal(-9)))
          CFI V1 load(1, XDATA, add(CFA_XSP16, literal(-8)))
          CFI V2 load(1, XDATA, add(CFA_XSP16, literal(-7)))
          CFI R7 load(1, XDATA, add(CFA_XSP16, literal(-6)))
          CFI ?RET_LOW load(1, XDATA, add(CFA_XSP16, literal(-5)))
          CFI ?RET_HIGH load(1, XDATA, add(CFA_XSP16, literal(-4)))
          CFI ?BRET_EXT load(1, XDATA, add(CFA_XSP16, literal(-3)))
          CFI DPL0 load(1, XDATA, add(CFA_XSP16, literal(-2)))
          CFI DPH0 load(1, XDATA, add(CFA_XSP16, literal(-1)))
          CFI CFA_SP SP+-2
          CFI CFA_XSP16 add(XSP16, 11)
          CFI Block cfiCond8 Using cfiCommon0
          CFI (cfiCond8) Function SerialApp_ProcessEvent
          CFI (cfiCond8) Conditional ??CrossCallReturnLabel_2
          CFI (cfiCond8) R6 load(1, XDATA, add(CFA_XSP16, literal(-12)))
          CFI (cfiCond8) VB load(1, XDATA, add(CFA_XSP16, literal(-11)))
          CFI (cfiCond8) V0 load(1, XDATA, add(CFA_XSP16, literal(-10)))
          CFI (cfiCond8) V1 load(1, XDATA, add(CFA_XSP16, literal(-9)))
          CFI (cfiCond8) V2 load(1, XDATA, add(CFA_XSP16, literal(-8)))
          CFI (cfiCond8) V3 load(1, XDATA, add(CFA_XSP16, literal(-7)))
          CFI (cfiCond8) R7 load(1, XDATA, add(CFA_XSP16, literal(-6)))
          CFI (cfiCond8) ?RET_LOW load(1, XDATA, add(CFA_XSP16, literal(-5)))
          CFI (cfiCond8) ?RET_HIGH load(1, XDATA, add(CFA_XSP16, literal(-4)))
          CFI (cfiCond8) ?BRET_EXT load(1, XDATA, add(CFA_XSP16, literal(-3)))
          CFI (cfiCond8) DPL0 load(1, XDATA, add(CFA_XSP16, literal(-2)))
          CFI (cfiCond8) DPH0 load(1, XDATA, add(CFA_XSP16, literal(-1)))
          CFI (cfiCond8) CFA_SP SP+-2
          CFI (cfiCond8) CFA_XSP16 add(XSP16, 12)
          CFI Block cfiCond9 Using cfiCommon0
          CFI (cfiCond9) Function SerialApp_Send
          CFI (cfiCond9) Conditional ??CrossCallReturnLabel_3
          CFI (cfiCond9) R6 load(1, XDATA, add(CFA_XSP16, literal(-10)))
          CFI (cfiCond9) VB load(1, XDATA, add(CFA_XSP16, literal(-9)))
          CFI (cfiCond9) V0 load(1, XDATA, add(CFA_XSP16, literal(-8)))
          CFI (cfiCond9) V1 load(1, XDATA, add(CFA_XSP16, literal(-7)))
          CFI (cfiCond9) R7 load(1, XDATA, add(CFA_XSP16, literal(-6)))
          CFI (cfiCond9) ?RET_LOW load(1, XDATA, add(CFA_XSP16, literal(-5)))
          CFI (cfiCond9) ?RET_HIGH load(1, XDATA, add(CFA_XSP16, literal(-4)))
          CFI (cfiCond9) ?BRET_EXT load(1, XDATA, add(CFA_XSP16, literal(-3)))
          CFI (cfiCond9) DPL0 load(1, XDATA, add(CFA_XSP16, literal(-2)))
          CFI (cfiCond9) DPH0 load(1, XDATA, add(CFA_XSP16, literal(-1)))
          CFI (cfiCond9) CFA_SP SP+-2
          CFI (cfiCond9) CFA_XSP16 add(XSP16, 10)
          CFI Block cfiPicker10 Using cfiCommon1
          CFI (cfiPicker10) NoFunction
          CFI (cfiPicker10) Picker
        MOV       DPTR,#SerialApp_TaskID
        MOVX      A,@DPTR
        MOV       R1,A
        LCALL     `??osal_set_event::?relay`; Banked call to: osal_set_event
        RET
          CFI EndBlock cfiCond7
          CFI EndBlock cfiCond8
          CFI EndBlock cfiCond9
          CFI EndBlock cfiPicker10

        RSEG BANKED_CODE:HUGECODE:NOROOT(0)
//  279 void SerialApp_ProcessMSGCmd( afIncomingMSGPacket_t *pkt )
SerialApp_ProcessMSGCmd:
          CFI Block cfiBlock11 Using cfiCommon0
          CFI Function SerialApp_ProcessMSGCmd
        CODE
//  280 {
        FUNCALL SerialApp_ProcessMSGCmd, osal_memcpy
        LOCFRAME ISTACK, 0, STACK
        LOCFRAME PSTACK, 0, STACK
        LOCFRAME XSTACK, 14, STACK
        LOCFRAME IOVERLAY, 0, STATIC
        LOCFRAME DOVERLAY, 0, STATIC
        ARGFRAME ISTACK, 0, STACK
        ARGFRAME PSTACK, 0, STACK
        ARGFRAME XSTACK, 14, STACK
        ARGFRAME IOVERLAY, 0, STATIC
        ARGFRAME DOVERLAY, 0, STATIC
        FUNCALL SerialApp_ProcessMSGCmd, sendToPc
        LOCFRAME ISTACK, 0, STACK
        LOCFRAME PSTACK, 0, STACK
        LOCFRAME XSTACK, 11, STACK
        LOCFRAME IOVERLAY, 0, STATIC
        LOCFRAME DOVERLAY, 0, STATIC
        ARGFRAME ISTACK, 0, STACK
        ARGFRAME PSTACK, 0, STACK
        ARGFRAME XSTACK, 11, STACK
        ARGFRAME IOVERLAY, 0, STATIC
        ARGFRAME DOVERLAY, 0, STATIC
        FUNCALL SerialApp_ProcessMSGCmd, osal_set_event
        LOCFRAME ISTACK, 0, STACK
        LOCFRAME PSTACK, 0, STACK
        LOCFRAME XSTACK, 11, STACK
        LOCFRAME IOVERLAY, 0, STATIC
        LOCFRAME DOVERLAY, 0, STATIC
        ARGFRAME ISTACK, 0, STACK
        ARGFRAME PSTACK, 0, STACK
        ARGFRAME XSTACK, 11, STACK
        ARGFRAME IOVERLAY, 0, STATIC
        ARGFRAME DOVERLAY, 0, STATIC
        FUNCALL SerialApp_ProcessMSGCmd, osal_stop_timerEx
        LOCFRAME ISTACK, 0, STACK
        LOCFRAME PSTACK, 0, STACK
        LOCFRAME XSTACK, 11, STACK
        LOCFRAME IOVERLAY, 0, STATIC
        LOCFRAME DOVERLAY, 0, STATIC
        ARGFRAME ISTACK, 0, STACK
        ARGFRAME PSTACK, 0, STACK
        ARGFRAME XSTACK, 11, STACK
        ARGFRAME IOVERLAY, 0, STATIC
        ARGFRAME DOVERLAY, 0, STATIC
        FUNCALL SerialApp_ProcessMSGCmd, osal_stop_timerEx
        LOCFRAME ISTACK, 0, STACK
        LOCFRAME PSTACK, 0, STACK
        LOCFRAME XSTACK, 11, STACK
        LOCFRAME IOVERLAY, 0, STATIC
        LOCFRAME DOVERLAY, 0, STATIC
        ARGFRAME ISTACK, 0, STACK
        ARGFRAME PSTACK, 0, STACK
        ARGFRAME XSTACK, 11, STACK
        ARGFRAME IOVERLAY, 0, STATIC
        ARGFRAME DOVERLAY, 0, STATIC
        FUNCALL SerialApp_ProcessMSGCmd, SerialApp_ConnectReqProcess
        LOCFRAME ISTACK, 0, STACK
        LOCFRAME PSTACK, 0, STACK
        LOCFRAME XSTACK, 11, STACK
        LOCFRAME IOVERLAY, 0, STATIC
        LOCFRAME DOVERLAY, 0, STATIC
        ARGFRAME ISTACK, 0, STACK
        ARGFRAME PSTACK, 0, STACK
        ARGFRAME XSTACK, 11, STACK
        ARGFRAME IOVERLAY, 0, STATIC
        ARGFRAME DOVERLAY, 0, STATIC
        REQUIRE ?V0
        REQUIRE ?V1
        REQUIRE ?V2
        MOV       A,#-0xb
        LCALL     ?BANKED_ENTER_XDATA
          CFI DPH0 load(1, XDATA, add(CFA_XSP16, literal(-1)))
          CFI DPL0 load(1, XDATA, add(CFA_XSP16, literal(-2)))
          CFI ?BRET_EXT load(1, XDATA, add(CFA_XSP16, literal(-3)))
          CFI ?RET_HIGH load(1, XDATA, add(CFA_XSP16, literal(-4)))
          CFI ?RET_LOW load(1, XDATA, add(CFA_XSP16, literal(-5)))
          CFI R7 load(1, XDATA, add(CFA_XSP16, literal(-6)))
          CFI V2 load(1, XDATA, add(CFA_XSP16, literal(-7)))
          CFI V1 load(1, XDATA, add(CFA_XSP16, literal(-8)))
          CFI V0 load(1, XDATA, add(CFA_XSP16, literal(-9)))
          CFI VB load(1, XDATA, add(CFA_XSP16, literal(-10)))
          CFI R6 load(1, XDATA, add(CFA_XSP16, literal(-11)))
          CFI CFA_SP SP+0
          CFI CFA_XSP16 add(XSP16, 11)
        ; Saved register size: 11
        ; Auto size: 0
//  281   uint8 stat;
//  282   uint8 seqnb;
//  283   uint8 delay;
//  284 
//  285   switch ( pkt->clusterId )
        MOV       A,R2
        ADD       A,#0x21
        MOV       R6,A
        CLR       A
        ADDC      A,R3
        MOV       R7,A
        MOV       DPL,R2
        MOV       DPH,R3
        INC       DPTR
        INC       DPTR
        INC       DPTR
        INC       DPTR
        MOVX      A,@DPTR
        MOV       ?V0,A
        INC       DPTR
        MOVX      A,@DPTR
        MOV       ?V1,A
        MOV       R0,#?V0
        LCALL     ?US_SWITCH_DENSE
`?<Jumptable for SerialApp_ProcessMSGCmd>_0`:
        DATA
        DATA16
        DATA
        DATA16
        DW        1
        DATA
        DATA8
        DATA
        DATA8
        DB        2
        DATA
        DATA16
        DATA
        DATA16
        DW        ??SerialApp_ProcessMSGCmd_0
        DATA
        DATA16
        DATA
        DATA16
        DW        ??SerialApp_ProcessMSGCmd_1
        DATA
        DATA16
        DATA
        DATA16
        DW        ??SerialApp_ProcessMSGCmd_2
        DATA
        DATA16
        DATA
        DATA16
        DW        ??SerialApp_ProcessMSGCmd_3
        CODE
//  286   {
//  287   // A message with a serial data block to be transmitted on the serial port.
//  288   case SERIALAPP_CLUSTERID1: //
//  289     // Store the address for sending and retrying.
//  290     osal_memcpy(&SerialApp_RxAddr, &(pkt->srcAddr), sizeof( afAddrType_t ));
??SerialApp_ProcessMSGCmd_1:
        ; Setup parameters for call to function osal_memcpy
        MOV       A,R2
        ADD       A,#0x6
        MOV       ?V0,A
        CLR       A
        ADDC      A,R3
        MOV       ?V1,A
        MOV       ?V2,#0x0
        MOV       R0,#?V0
        LCALL     ?PUSH_XSTACK_I_THREE
          CFI CFA_XSP16 add(XSP16, 14)
        MOV       R4,#0xc
        MOV       R5,#0x0
        MOV       R2,#SerialApp_RxAddr & 0xff
        MOV       R3,#(SerialApp_RxAddr >> 8) & 0xff
        LCALL     `??osal_memcpy::?relay`; Banked call to: osal_memcpy
        MOV       A,#0x3
        LCALL     ?DEALLOC_XSTACK8
          CFI CFA_XSP16 add(XSP16, 11)
//  291 
//  292     seqnb = pkt->cmd.Data[0];
        MOV       DPL,R6
        MOV       DPH,R7
        MOVX      A,@DPTR
        MOV       R0,A
        INC       DPTR
        MOVX      A,@DPTR
        MOV       DPL,R0
        MOV       DPH,A
        MOVX      A,@DPTR
        MOV       R6,A
//  293     
//  294 //    HalUARTWrite( SERIAL_APP_PORT, pkt->cmd.Data+1, (pkt->cmd.DataLength-1));
//  295                  
//  296     // Keep message if not a repeat packet
//  297 //    if ( (seqnb > SerialApp_RxSeq) ||                    // Normal
//  298 //        ((seqnb < 0x80 ) && ( SerialApp_RxSeq > 0x80)) ) // Wrap-around
//  299       if(1)
//  300     {
//  301         // Transmit the data on the serial port. // PC
//  302 #if ZDO_COORDINATOR
//  303         if(sendToPc(0x0001, pkt->cmd.Data[1]))  
        ; Setup parameters for call to function sendToPc
        INC       DPTR
        MOVX      A,@DPTR
        MOV       R1,A
        MOV       DPTR,#__Constant_1
        LCALL     ?XLOAD_R2345
        LCALL     `??sendToPc::?relay`; Banked call to: sendToPc
        MOV       A,R1
        JZ        ??SerialApp_ProcessMSGCmd_4
//  304 #else           
//  305         if ( HalUARTWrite( SERIAL_APP_PORT, pkt->cmd.Data+1, (pkt->cmd.DataLength-1) ) )
//  306 #endif          
//  307         {
//  308           // Save for next incoming message
//  309           SerialApp_RxSeq = seqnb;
        MOV       A,R6
        MOV       DPTR,#SerialApp_RxSeq
        MOVX      @DPTR,A
//  310           stat = OTA_SUCCESS;
        MOV       A,#0x0
        MOV       R0,#0x1
        SJMP      ??SerialApp_ProcessMSGCmd_5
//  311         }
//  312         else
//  313         {
//  314           stat = OTA_SER_BUSY;
??SerialApp_ProcessMSGCmd_4:
        MOV       A,#0x2
        MOV       R0,#0x10
//  315         }
//  316     }
//  317     else
//  318     {
//  319         stat = OTA_DUP_MSG;
//  320     }
//  321 
//  322     // Select approproiate OTA flow-control delay.
//  323     delay = (stat == OTA_SER_BUSY) ? SERIALAPP_NAK_DELAY : SERIALAPP_ACK_DELAY;
//  324 
//  325     // Build & send OTA response message.
//  326     SerialApp_RspBuf[0] = stat;
??SerialApp_ProcessMSGCmd_5:
        MOV       DPTR,#SerialApp_RspBuf
        MOVX      @DPTR,A
//  327     SerialApp_RspBuf[1] = seqnb;
        MOV       A,R6
        INC       DPTR
        MOVX      @DPTR,A
//  328     SerialApp_RspBuf[2] = LO_UINT16( delay );
        MOV       A,R0
        INC       DPTR
        MOVX      @DPTR,A
//  329     SerialApp_RspBuf[3] = HI_UINT16( delay );
        INC       DPTR
        CLR       A
        MOVX      @DPTR,A
//  330     osal_set_event( SerialApp_TaskID, SERIALAPP_RESP_EVT ); //
        ; Setup parameters for call to function osal_set_event
        MOV       R2,#0x2
        MOV       R3,A
        LCALL     ??Subroutine4_0 & 0xFFFF
//  331     osal_stop_timerEx(SerialApp_TaskID, SERIALAPP_RESP_EVT);
??CrossCallReturnLabel_4:
        ; Setup parameters for call to function osal_stop_timerEx
        MOV       R2,#0x2
        MOV       R3,#0x0
        SJMP      ??SerialApp_ProcessMSGCmd_6
//  332     break;
//  333 
//  334   // A response to a received serial data block.   // 
//  335   case SERIALAPP_CLUSTERID2:
//  336     if(1)
//  337 //    if ((pkt->cmd.Data[1] == SerialApp_TxSeq) &&
//  338 //       ((pkt->cmd.Data[0] == OTA_SUCCESS) || (pkt->cmd.Data[0] == OTA_DUP_MSG)))
//  339     {
//  340       SerialApp_TxLen = 0;
??SerialApp_ProcessMSGCmd_2:
        MOV       DPTR,#SerialApp_TxLen
        CLR       A
        MOVX      @DPTR,A
//  341       osal_stop_timerEx(SerialApp_TaskID, SERIALAPP_SEND_EVT);
        ; Setup parameters for call to function osal_stop_timerEx
        MOV       R2,#0x1
        MOV       R3,A
??SerialApp_ProcessMSGCmd_6:
        MOV       DPTR,#SerialApp_TaskID
        MOVX      A,@DPTR
        MOV       R1,A
        LCALL     `??osal_stop_timerEx::?relay`; Banked call to: osal_stop_timerEx
//  342     }
//  343     else
//  344     {
//  345       // Re-start timeout according to delay sent from other device.
//  346       delay = BUILD_UINT16( pkt->cmd.Data[2], pkt->cmd.Data[3] );
//  347       osal_start_timerEx( SerialApp_TaskID, SERIALAPP_SEND_EVT, delay );
//  348     }
//  349     break;
        SJMP      ??SerialApp_ProcessMSGCmd_0
//  350 
//  351     case SERIALAPP_CONNECTREQ_CLUSTER:
//  352       SerialApp_ConnectReqProcess((uint8*)pkt->cmd.Data);
??SerialApp_ProcessMSGCmd_3:
        ; Setup parameters for call to function SerialApp_ConnectReqProcess
        MOV       DPL,R6
        MOV       DPH,R7
        MOVX      A,@DPTR
        MOV       R2,A
        INC       DPTR
        MOVX      A,@DPTR
        MOV       R3,A
        LCALL     `??SerialApp_ConnectReqProcess::?relay`; Banked call to: SerialApp_ConnectReqProcess
//  353       
//  354     case SERIALAPP_CONNECTRSP_CLUSTER:
//  355       SerialApp_DeviceConnectRsp((uint8*)pkt->cmd.Data);
//  356       
//  357     default:
//  358       break;
//  359   }
//  360 }
??SerialApp_ProcessMSGCmd_0:
        MOV       R7,#0x3
        LJMP      ?BANKED_LEAVE_XDATA
          CFI EndBlock cfiBlock11
//  361 
//  362 /*********************************************************************
//  363  * @fn      SerialApp_Send
//  364  *
//  365  * @brief   Send data OTA.
//  366  *
//  367  * @param   none
//  368  *
//  369  * @return  none
//  370  */

        RSEG BANKED_CODE:HUGECODE:NOROOT(0)
//  371 static void SerialApp_Send(void)
SerialApp_Send:
          CFI Block cfiBlock12 Using cfiCommon0
          CFI Function SerialApp_Send
        CODE
//  372 {
        FUNCALL SerialApp_Send, HalUARTRead
        LOCFRAME ISTACK, 0, STACK
        LOCFRAME PSTACK, 0, STACK
        LOCFRAME XSTACK, 10, STACK
        LOCFRAME IOVERLAY, 0, STATIC
        LOCFRAME DOVERLAY, 0, STATIC
        ARGFRAME ISTACK, 0, STACK
        ARGFRAME PSTACK, 0, STACK
        ARGFRAME XSTACK, 10, STACK
        ARGFRAME IOVERLAY, 0, STATIC
        ARGFRAME DOVERLAY, 0, STATIC
        FUNCALL SerialApp_Send, AF_DataRequest
        LOCFRAME ISTACK, 0, STACK
        LOCFRAME PSTACK, 0, STACK
        LOCFRAME XSTACK, 19, STACK
        LOCFRAME IOVERLAY, 0, STATIC
        LOCFRAME DOVERLAY, 0, STATIC
        ARGFRAME ISTACK, 0, STACK
        ARGFRAME PSTACK, 0, STACK
        ARGFRAME XSTACK, 19, STACK
        ARGFRAME IOVERLAY, 0, STATIC
        ARGFRAME DOVERLAY, 0, STATIC
        FUNCALL SerialApp_Send, osal_set_event
        LOCFRAME ISTACK, 0, STACK
        LOCFRAME PSTACK, 0, STACK
        LOCFRAME XSTACK, 10, STACK
        LOCFRAME IOVERLAY, 0, STATIC
        LOCFRAME DOVERLAY, 0, STATIC
        ARGFRAME ISTACK, 0, STACK
        ARGFRAME PSTACK, 0, STACK
        ARGFRAME XSTACK, 10, STACK
        ARGFRAME IOVERLAY, 0, STATIC
        ARGFRAME DOVERLAY, 0, STATIC
        REQUIRE ?V0
        REQUIRE ?V1
        MOV       A,#-0xa
        LCALL     ?BANKED_ENTER_XDATA
          CFI DPH0 load(1, XDATA, add(CFA_XSP16, literal(-1)))
          CFI DPL0 load(1, XDATA, add(CFA_XSP16, literal(-2)))
          CFI ?BRET_EXT load(1, XDATA, add(CFA_XSP16, literal(-3)))
          CFI ?RET_HIGH load(1, XDATA, add(CFA_XSP16, literal(-4)))
          CFI ?RET_LOW load(1, XDATA, add(CFA_XSP16, literal(-5)))
          CFI R7 load(1, XDATA, add(CFA_XSP16, literal(-6)))
          CFI V1 load(1, XDATA, add(CFA_XSP16, literal(-7)))
          CFI V0 load(1, XDATA, add(CFA_XSP16, literal(-8)))
          CFI VB load(1, XDATA, add(CFA_XSP16, literal(-9)))
          CFI R6 load(1, XDATA, add(CFA_XSP16, literal(-10)))
          CFI CFA_SP SP+0
          CFI CFA_XSP16 add(XSP16, 10)
        ; Saved register size: 10
        ; Auto size: 0
//  373 #if SERIAL_APP_LOOPBACK
//  374     if (SerialApp_TxLen < SERIAL_APP_TX_MAX)
//  375     {
//  376         SerialApp_TxLen += HalUARTRead(SERIAL_APP_PORT, SerialApp_TxBuf+SerialApp_TxLen+1,
//  377                                                       SERIAL_APP_TX_MAX-SerialApp_TxLen);
//  378     }
//  379   
//  380     if (SerialApp_TxLen)
//  381     {
//  382       (void)SerialApp_TxAddr;
//  383       if (HalUARTWrite(SERIAL_APP_PORT, SerialApp_TxBuf+1, SerialApp_TxLen))
//  384       {
//  385         SerialApp_TxLen = 0;
//  386       }
//  387       else
//  388       {
//  389         osal_set_event(SerialApp_TaskID, SERIALAPP_SEND_EVT);
//  390       }
//  391     }
//  392 #else
//  393     if (!SerialApp_TxLen && 
//  394         (SerialApp_TxLen = HalUARTRead(SERIAL_APP_PORT, SerialApp_TxBuf+1, SERIAL_APP_TX_MAX)))
        MOV       DPTR,#SerialApp_TxLen
        MOVX      A,@DPTR
        JNZ       ??SerialApp_Send_0
        ; Setup parameters for call to function HalUARTRead
        MOV       R4,#0x50
        MOV       R5,#0x0
        MOV       R2,#(SerialApp_TxBuf + 1) & 0xff
        MOV       R3,#((SerialApp_TxBuf + 1) >> 8) & 0xff
        MOV       R1,#0x0
        LCALL     `??HalUARTRead::?relay`; Banked call to: HalUARTRead
        MOV       A,R2
        MOV       DPTR,#SerialApp_TxLen
        MOVX      @DPTR,A
        JZ        ??CrossCallReturnLabel_3
//  395     {
//  396       // Pre-pend sequence number to the Tx message.
//  397       SerialApp_TxBuf[0] = ++SerialApp_TxSeq;
        MOV       DPTR,#SerialApp_TxSeq
        MOVX      A,@DPTR
        INC       A
        MOVX      @DPTR,A
        MOV       DPTR,#SerialApp_TxBuf
        MOVX      @DPTR,A
//  398     }
//  399   
//  400     if (SerialApp_TxLen)
//  401     {
//  402       if (afStatus_SUCCESS != AF_DataRequest(&SerialApp_TxAddr,
//  403                                              (endPointDesc_t *)&SerialApp_epDesc,
//  404                                               SERIALAPP_CLUSTERID1,
//  405                                               SerialApp_TxLen+1, SerialApp_TxBuf,
//  406                                               &SerialApp_MsgID, 0, AF_DEFAULT_RADIUS))
??SerialApp_Send_0:
        ; Setup parameters for call to function AF_DataRequest
        MOV       ?V0,#0x1e
        MOV       R0,#?V0
        LCALL     ?PUSH_XSTACK_I_ONE
          CFI CFA_XSP16 add(XSP16, 11)
        MOV       ?V0,#SerialApp_MsgID & 0xff
        MOV       ?V1,#(SerialApp_MsgID >> 8) & 0xff
        MOV       R0,#?V0
        LCALL     ?PUSH_XSTACK_I_TWO
          CFI CFA_XSP16 add(XSP16, 13)
        MOV       ?V0,#SerialApp_TxBuf & 0xff
        MOV       ?V1,#(SerialApp_TxBuf >> 8) & 0xff
        MOV       R0,#?V0
        LCALL     ?PUSH_XSTACK_I_TWO
          CFI CFA_XSP16 add(XSP16, 15)
        MOV       DPTR,#SerialApp_TxLen
        MOVX      A,@DPTR
        ADD       A,#0x1
        MOV       ?V0,A
        CLR       A
        ADDC      A,#0x0
        MOV       ?V1,A
        MOV       R0,#?V0
        LCALL     ?PUSH_XSTACK_I_TWO
          CFI CFA_XSP16 add(XSP16, 17)
        MOV       ?V0,#0x1
        MOV       ?V1,#0x0
        MOV       R0,#?V0
        LCALL     ?PUSH_XSTACK_I_TWO
          CFI CFA_XSP16 add(XSP16, 19)
        MOV       R1,#0x0
        MOV       R4,#SerialApp_epDesc & 0xff
        MOV       R5,#(SerialApp_epDesc >> 8) & 0xff
        MOV       R2,#SerialApp_TxAddr & 0xff
        MOV       R3,#(SerialApp_TxAddr >> 8) & 0xff
        LCALL     `??AF_DataRequest::?relay`; Banked call to: AF_DataRequest
        MOV       A,#0x9
        LCALL     ?DEALLOC_XSTACK8
          CFI CFA_XSP16 add(XSP16, 10)
        MOV       A,R1
        JZ        ??CrossCallReturnLabel_3
//  407       {
//  408         osal_set_event(SerialApp_TaskID, SERIALAPP_SEND_EVT);
        ; Setup parameters for call to function osal_set_event
        MOV       R2,#0x1
        LCALL     ?Subroutine3 & 0xFFFF
//  409       }
//  410     }
//  411 #endif
//  412 }
??CrossCallReturnLabel_3:
        MOV       R7,#0x2
        LJMP      ?BANKED_LEAVE_XDATA
          CFI EndBlock cfiBlock12
//  413 
//  414 /*********************************************************************
//  415  * @fn      SerialApp_Resp
//  416  *
//  417  * @brief   Send data OTA.
//  418  *
//  419  * @param   none
//  420  *
//  421  * @return  none
//  422  */
//  423 static void SerialApp_Resp(void)
//  424 {
//  425   if (afStatus_SUCCESS != AF_DataRequest(&SerialApp_RxAddr,
//  426                                          (endPointDesc_t *)&SerialApp_epDesc,
//  427                                           SERIALAPP_CLUSTERID2,
//  428                                           SERIAL_APP_RSP_CNT, SerialApp_RspBuf,
//  429                                          &SerialApp_MsgID, 0, AF_DEFAULT_RADIUS))
//  430   {
//  431     osal_set_event(SerialApp_TaskID, SERIALAPP_RESP_EVT);
//  432   }
//  433 }
//  434 
//  435 /*********************************************************************
//  436  * @fn      SerialApp_CallBack
//  437  *
//  438  * @brief   Send data OTA.
//  439  *
//  440  * @param   port - UART port.
//  441  * @param   event - the UART port event flag.
//  442  *
//  443  * @return  none
//  444  */

        RSEG BANKED_CODE:HUGECODE:NOROOT(0)
//  445 static void SerialApp_CallBack(uint8 port, uint8 event)
SerialApp_CallBack:
          CFI Block cfiBlock13 Using cfiCommon0
          CFI Function SerialApp_CallBack
        CODE
//  446 {
        FUNCALL SerialApp_CallBack, SerialApp_Send
        LOCFRAME ISTACK, 0, STACK
        LOCFRAME PSTACK, 0, STACK
        LOCFRAME XSTACK, 9, STACK
        LOCFRAME IOVERLAY, 0, STATIC
        LOCFRAME DOVERLAY, 0, STATIC
        ARGFRAME ISTACK, 0, STACK
        ARGFRAME PSTACK, 0, STACK
        ARGFRAME XSTACK, 9, STACK
        ARGFRAME IOVERLAY, 0, STATIC
        ARGFRAME DOVERLAY, 0, STATIC
        MOV       A,#-0x9
        LCALL     ?BANKED_ENTER_XDATA
          CFI DPH0 load(1, XDATA, add(CFA_XSP16, literal(-1)))
          CFI DPL0 load(1, XDATA, add(CFA_XSP16, literal(-2)))
          CFI ?BRET_EXT load(1, XDATA, add(CFA_XSP16, literal(-3)))
          CFI ?RET_HIGH load(1, XDATA, add(CFA_XSP16, literal(-4)))
          CFI ?RET_LOW load(1, XDATA, add(CFA_XSP16, literal(-5)))
          CFI R7 load(1, XDATA, add(CFA_XSP16, literal(-6)))
          CFI V0 load(1, XDATA, add(CFA_XSP16, literal(-7)))
          CFI VB load(1, XDATA, add(CFA_XSP16, literal(-8)))
          CFI R6 load(1, XDATA, add(CFA_XSP16, literal(-9)))
          CFI CFA_SP SP+0
          CFI CFA_XSP16 add(XSP16, 9)
        ; Saved register size: 9
        ; Auto size: 0
        MOV       A,R2
        MOV       R6,A
//  447   (void)port;
//  448 
//  449   if ((event & (HAL_UART_RX_FULL | HAL_UART_RX_ABOUT_FULL | HAL_UART_RX_TIMEOUT)) &&
//  450 #if SERIAL_APP_LOOPBACK
//  451       (SerialApp_TxLen < SERIAL_APP_TX_MAX))
//  452 #else
//  453       !SerialApp_TxLen)
        MOV       A,#0x7
        ANL       A,R6
        JZ        ??SerialApp_CallBack_0
        MOV       DPTR,#SerialApp_TxLen
        MOVX      A,@DPTR
        JNZ       ??SerialApp_CallBack_0
//  454 #endif
//  455   {
//  456     SerialApp_Send();
        ; Setup parameters for call to function SerialApp_Send
        LCALL     `??SerialApp_Send::?relay`; Banked call to: SerialApp_Send
//  457   }
//  458 }
??SerialApp_CallBack_0:
        LJMP      ?Subroutine0 & 0xFFFF
          CFI EndBlock cfiBlock13
//  459 
//  460 /*********************************************************************
//  461 *********************************************************************/
//  462 void  SerialApp_DeviceConnect()              
//  463 {
//  464 #if ZDO_COORDINATOR
//  465   
//  466 #else
//  467   
//  468   uint16 nwkAddr;
//  469   uint16 parentNwkAddr;
//  470   char buff[30] = {0};
//  471   
//  472   HalLedBlink( HAL_LED_2, 3, 50, (1000 / 4) );
//  473   
//  474   nwkAddr = NLME_GetShortAddr();
//  475   parentNwkAddr = NLME_GetCoordShortAddr();
//  476   sprintf(buff, "parent:%d   self:%d\r\n", parentNwkAddr, nwkAddr);
//  477   HalUARTWrite ( 0, (uint8*)buff, strlen(buff));
//  478   
//  479   SerialApp_TxAddr.addrMode = (afAddrMode_t)Addr16Bit;
//  480   SerialApp_TxAddr.endPoint = SERIALAPP_ENDPOINT;
//  481   SerialApp_TxAddr.addr.shortAddr = parentNwkAddr;
//  482   
//  483   buff[0] = HI_UINT16( nwkAddr );
//  484   buff[1] = LO_UINT16( nwkAddr );
//  485   
//  486   if ( AF_DataRequest( &SerialApp_TxAddr, &SerialApp_epDesc,
//  487                        SERIALAPP_CONNECTREQ_CLUSTER,
//  488                        2,
//  489                        (uint8*)buff,
//  490                        &SerialApp_MsgID, 
//  491                        0, 
//  492                        AF_DEFAULT_RADIUS ) == afStatus_SUCCESS )
//  493   {
//  494   }
//  495   else
//  496   {
//  497     // Error occurred in request to send.
//  498   }
//  499   
//  500 #endif    //ZDO_COORDINATOR
//  501 }
//  502 
//  503 void SerialApp_DeviceConnectRsp(uint8 *buf)
//  504 {
//  505 #if ZDO_COORDINATOR
//  506   
//  507 #else
//  508   SerialApp_TxAddr.addrMode = (afAddrMode_t)Addr16Bit;
//  509   SerialApp_TxAddr.endPoint = SERIALAPP_ENDPOINT;
//  510   SerialApp_TxAddr.addr.shortAddr = BUILD_UINT16(buf[1], buf[0]);
//  511   
//  512   //HalLedSet(HAL_LED_2, HAL_LED_MODE_OFF);
//  513   //HalLedSet(HAL_LED_2, HAL_LED_MODE_ON);
//  514   HalUARTWrite ( 0, "< connect success>\n", 23);
//  515   //HalLedSet (HAL_LED_ALL, HAL_LED_MODE_OFF);
//  516 #endif
//  517 }
//  518 

        RSEG BANKED_CODE:HUGECODE:NOROOT(0)
//  519 void SerialApp_ConnectReqProcess(uint8 *buf)
SerialApp_ConnectReqProcess:
          CFI Block cfiBlock14 Using cfiCommon0
          CFI Function SerialApp_ConnectReqProcess
        CODE
//  520 {
        FUNCALL SerialApp_ConnectReqProcess, NLME_GetShortAddr
        LOCFRAME ISTACK, 0, STACK
        LOCFRAME PSTACK, 0, STACK
        LOCFRAME XSTACK, 42, STACK
        LOCFRAME IOVERLAY, 0, STATIC
        LOCFRAME DOVERLAY, 0, STATIC
        ARGFRAME ISTACK, 0, STACK
        ARGFRAME PSTACK, 0, STACK
        ARGFRAME XSTACK, 42, STACK
        ARGFRAME IOVERLAY, 0, STATIC
        ARGFRAME DOVERLAY, 0, STATIC
        FUNCALL SerialApp_ConnectReqProcess, sprintf
        LOCFRAME ISTACK, 0, STACK
        LOCFRAME PSTACK, 0, STACK
        LOCFRAME XSTACK, 46, STACK
        LOCFRAME IOVERLAY, 0, STATIC
        LOCFRAME DOVERLAY, 0, STATIC
        ARGFRAME ISTACK, 0, STACK
        ARGFRAME PSTACK, 0, STACK
        ARGFRAME XSTACK, 46, STACK
        ARGFRAME IOVERLAY, 0, STATIC
        ARGFRAME DOVERLAY, 0, STATIC
        FUNCALL SerialApp_ConnectReqProcess, strlen
        LOCFRAME ISTACK, 0, STACK
        LOCFRAME PSTACK, 0, STACK
        LOCFRAME XSTACK, 42, STACK
        LOCFRAME IOVERLAY, 0, STATIC
        LOCFRAME DOVERLAY, 0, STATIC
        ARGFRAME ISTACK, 0, STACK
        ARGFRAME PSTACK, 0, STACK
        ARGFRAME XSTACK, 42, STACK
        ARGFRAME IOVERLAY, 0, STATIC
        ARGFRAME DOVERLAY, 0, STATIC
        FUNCALL SerialApp_ConnectReqProcess, HalUARTWrite
        LOCFRAME ISTACK, 0, STACK
        LOCFRAME PSTACK, 0, STACK
        LOCFRAME XSTACK, 42, STACK
        LOCFRAME IOVERLAY, 0, STATIC
        LOCFRAME DOVERLAY, 0, STATIC
        ARGFRAME ISTACK, 0, STACK
        ARGFRAME PSTACK, 0, STACK
        ARGFRAME XSTACK, 42, STACK
        ARGFRAME IOVERLAY, 0, STATIC
        ARGFRAME DOVERLAY, 0, STATIC
        FUNCALL SerialApp_ConnectReqProcess, AF_DataRequest
        LOCFRAME ISTACK, 0, STACK
        LOCFRAME PSTACK, 0, STACK
        LOCFRAME XSTACK, 51, STACK
        LOCFRAME IOVERLAY, 0, STATIC
        LOCFRAME DOVERLAY, 0, STATIC
        ARGFRAME ISTACK, 0, STACK
        ARGFRAME PSTACK, 0, STACK
        ARGFRAME XSTACK, 51, STACK
        ARGFRAME IOVERLAY, 0, STATIC
        ARGFRAME DOVERLAY, 0, STATIC
        FUNCALL SerialApp_ConnectReqProcess, HalUARTWrite
        LOCFRAME ISTACK, 0, STACK
        LOCFRAME PSTACK, 0, STACK
        LOCFRAME XSTACK, 42, STACK
        LOCFRAME IOVERLAY, 0, STATIC
        LOCFRAME DOVERLAY, 0, STATIC
        ARGFRAME ISTACK, 0, STACK
        ARGFRAME PSTACK, 0, STACK
        ARGFRAME XSTACK, 42, STACK
        ARGFRAME IOVERLAY, 0, STATIC
        ARGFRAME DOVERLAY, 0, STATIC
        REQUIRE ?V0
        REQUIRE ?V1
        REQUIRE ?V2
        REQUIRE ?V3
        MOV       A,#-0xc
        LCALL     ?BANKED_ENTER_XDATA
          CFI DPH0 load(1, XDATA, add(CFA_XSP16, literal(-1)))
          CFI DPL0 load(1, XDATA, add(CFA_XSP16, literal(-2)))
          CFI ?BRET_EXT load(1, XDATA, add(CFA_XSP16, literal(-3)))
          CFI ?RET_HIGH load(1, XDATA, add(CFA_XSP16, literal(-4)))
          CFI ?RET_LOW load(1, XDATA, add(CFA_XSP16, literal(-5)))
          CFI R7 load(1, XDATA, add(CFA_XSP16, literal(-6)))
          CFI V3 load(1, XDATA, add(CFA_XSP16, literal(-7)))
          CFI V2 load(1, XDATA, add(CFA_XSP16, literal(-8)))
          CFI V1 load(1, XDATA, add(CFA_XSP16, literal(-9)))
          CFI V0 load(1, XDATA, add(CFA_XSP16, literal(-10)))
          CFI VB load(1, XDATA, add(CFA_XSP16, literal(-11)))
          CFI R6 load(1, XDATA, add(CFA_XSP16, literal(-12)))
          CFI CFA_SP SP+0
          CFI CFA_XSP16 add(XSP16, 12)
        ; Saved register size: 12
        ; Auto size: 30
        MOV       A,#-0x1e
        LCALL     ?ALLOC_XSTACK8
          CFI CFA_XSP16 add(XSP16, 42)
//  521   uint16 nwkAddr;
//  522   char buff[30] = {0};
        MOV       DPTR,#`?<Constant {0, 0, 0, 0, 0, 0, 0, 0, 0, 0, 0, 0`
        MOV       R4,?XSP + 0
        MOV       R5,?XSP + 1
        MOV       A,#0x1e
        LCALL     ?MOVE_LONG8_XDATA_XDATA
//  523   
//  524   SerialApp_TxAddr.addrMode = (afAddrMode_t)Addr16Bit;
        MOV       DPTR,#SerialApp_TxAddr + 8
        MOV       A,#0x2
        MOVX      @DPTR,A
//  525   SerialApp_TxAddr.endPoint = SERIALAPP_ENDPOINT;
        INC       DPTR
        MOV       A,#0xb
        MOVX      @DPTR,A
//  526   SerialApp_TxAddr.addr.shortAddr = BUILD_UINT16(buf[1], buf[0]);
        MOV       DPL,R2
        MOV       DPH,R3
        INC       DPTR
        MOVX      A,@DPTR
        MOV       R4,A
        MOV       DPL,R2
        MOV       DPH,R3
        MOVX      A,@DPTR
        MOV       R1,A
        MOV       A,R4
        MOV       DPTR,#SerialApp_TxAddr
        MOVX      @DPTR,A
        INC       DPTR
        MOV       A,R1
        MOVX      @DPTR,A
//  527   nwkAddr = NLME_GetShortAddr();
        ; Setup parameters for call to function NLME_GetShortAddr
        LCALL     `??NLME_GetShortAddr::?relay`; Banked call to: NLME_GetShortAddr
        MOV       ?V0,R2
        MOV       ?V1,R3
//  528   
//  529   sprintf(buff, "self:%d   child:%d\r\n", nwkAddr, SerialApp_TxAddr.addr.shortAddr);
        ; Setup parameters for call to function sprintf
        MOV       DPTR,#SerialApp_TxAddr
        LCALL     ?PUSH_XSTACK8_X_TWO
          CFI CFA_XSP16 add(XSP16, 44)
        MOV       R0,#?V0
        LCALL     ?PUSH_XSTACK_I_TWO
          CFI CFA_XSP16 add(XSP16, 46)
        MOV       R4,#`?<Constant "self:%d   child:%d\\r\\n">` & 0xff
        MOV       R5,#(`?<Constant "self:%d   child:%d\\r\\n">` >> 8) & 0xff
        MOV       A,#0x4
        LCALL     ?XSTACK_DISP101_8
        LCALL     `??sprintf::?relay`; Banked call to: sprintf
        MOV       A,#0x4
        LCALL     ?DEALLOC_XSTACK8
          CFI CFA_XSP16 add(XSP16, 42)
//  530   HalUARTWrite ( 0, (uint8*)buff, strlen(buff));
        ; Setup parameters for call to function strlen
        MOV       R2,?XSP + 0
        MOV       R3,?XSP + 1
        LCALL     `??strlen::?relay`; Banked call to: strlen
        MOV       ?V2,R2
        MOV       ?V3,R3
        MOV       R4,?V2
        MOV       R5,?V3
        ; Setup parameters for call to function HalUARTWrite
        MOV       R2,?XSP + 0
        MOV       R3,?XSP + 1
        MOV       R1,#0x0
        LCALL     `??HalUARTWrite::?relay`; Banked call to: HalUARTWrite
//  531   
//  532   buff[0] = HI_UINT16( nwkAddr );
        MOV       DPL,?XSP + 0
        MOV       DPH,?XSP + 1
        MOV       A,?V1
        MOVX      @DPTR,A
//  533   buff[1] = LO_UINT16( nwkAddr );
        MOV       A,#0x1
        LCALL     ?XSTACK_DISP0_8
        MOV       A,?V0
        MOVX      @DPTR,A
//  534   
//  535   if ( AF_DataRequest( &SerialApp_TxAddr, &SerialApp_epDesc,
//  536                        SERIALAPP_CONNECTRSP_CLUSTER,
//  537                        2,
//  538                        (uint8*)buff,
//  539                        &SerialApp_MsgID, 
//  540                        0, 
//  541                        AF_DEFAULT_RADIUS ) == afStatus_SUCCESS )
        ; Setup parameters for call to function AF_DataRequest
        MOV       ?V0,#0x1e
        MOV       R0,#?V0
        LCALL     ?PUSH_XSTACK_I_ONE
          CFI CFA_XSP16 add(XSP16, 43)
        MOV       ?V0,#SerialApp_MsgID & 0xff
        MOV       ?V1,#(SerialApp_MsgID >> 8) & 0xff
        MOV       R0,#?V0
        LCALL     ?PUSH_XSTACK_I_TWO
          CFI CFA_XSP16 add(XSP16, 45)
        MOV       A,#0x3
        LCALL     ?XSTACK_DISP100_8
        MOV       ?V0,R0
        MOV       ?V1,R1
        MOV       R0,#?V0
        LCALL     ?PUSH_XSTACK_I_TWO
          CFI CFA_XSP16 add(XSP16, 47)
        MOV       ?V0,#0x2
        MOV       ?V1,#0x0
        MOV       R0,#?V0
        LCALL     ?PUSH_XSTACK_I_TWO
          CFI CFA_XSP16 add(XSP16, 49)
        MOV       ?V0,#0x4
        MOV       R0,#?V0
        LCALL     ?PUSH_XSTACK_I_TWO
          CFI CFA_XSP16 add(XSP16, 51)
        MOV       R1,#0x0
        MOV       R4,#SerialApp_epDesc & 0xff
        MOV       R5,#(SerialApp_epDesc >> 8) & 0xff
        MOV       R2,#SerialApp_TxAddr & 0xff
        MOV       R3,#(SerialApp_TxAddr >> 8) & 0xff
        LCALL     `??AF_DataRequest::?relay`; Banked call to: AF_DataRequest
        MOV       A,#0x9
        LCALL     ?DEALLOC_XSTACK8
          CFI CFA_XSP16 add(XSP16, 42)
//  542   {
//  543   }
//  544   else
//  545   {
//  546     // Error occurred in request to send.
//  547   }
//  548   
//  549   //HalLedSet(HAL_LED_2, HAL_LED_MODE_ON);
//  550   HalUARTWrite ( 0, "< connect success>\n", 23);
        ; Setup parameters for call to function HalUARTWrite
        MOV       R4,#0x17
        MOV       R5,#0x0
        MOV       R2,#`?<Constant "< connect success>\\n">` & 0xff
        MOV       R3,#(`?<Constant "< connect success>\\n">` >> 8) & 0xff
        MOV       R1,#0x0
        LCALL     `??HalUARTWrite::?relay`; Banked call to: HalUARTWrite
//  551   //HalLedSet (HAL_LED_ALL, HAL_LED_MODE_ON);
//  552 }
        MOV       A,#0x1e
        LCALL     ?DEALLOC_XSTACK8
          CFI CFA_XSP16 add(XSP16, 12)
        LJMP      ?Subroutine1 & 0xFFFF
          CFI EndBlock cfiBlock14
//  553 
//  554 
//  555 
//  556 /*********************************************************************
//  557  * @fn      SerialApp_Send
//  558  *
//  559  * @brief   Send data OTA.
//  560  *
//  561  * @param   none
//  562  *
//  563  * @return  none
//  564  */
//  565 static void keyInvoke_Send(uint8 key)
//  566 { 
//  567 #if ZDO_COORDINATOR
//  568   
//  569 #else  
//  570     SerialApp_TxBuf[1] = key;
//  571     SerialApp_TxLen = 1;
//  572     if (SerialApp_TxLen)
//  573     {
//  574       SerialApp_TxBuf[0] = ++SerialApp_TxSeq;
//  575       if (afStatus_SUCCESS != AF_DataRequest(&SerialApp_TxAddr,
//  576                                              (endPointDesc_t *)&SerialApp_epDesc,
//  577                                               SERIALAPP_CLUSTERID1,
//  578                                               SerialApp_TxLen+1, SerialApp_TxBuf,
//  579                                               &SerialApp_MsgID, 0, AF_DEFAULT_RADIUS))
//  580       {
//  581         HalUARTWrite ( 0, "send failed\n", 12);
//  582       }
//  583       SerialApp_TxLen = 0;
//  584     }
//  585 #endif
//  586 }
//  587 

        RSEG BANKED_CODE:HUGECODE:NOROOT(0)
//  588 static uint8 sendToPc(uint32 addr, uint8 key){
sendToPc:
          CFI Block cfiBlock15 Using cfiCommon0
          CFI Function sendToPc
        CODE
        FUNCALL sendToPc, HalUARTWrite
        LOCFRAME ISTACK, 0, STACK
        LOCFRAME PSTACK, 0, STACK
        LOCFRAME XSTACK, 36, STACK
        LOCFRAME IOVERLAY, 0, STATIC
        LOCFRAME DOVERLAY, 0, STATIC
        ARGFRAME ISTACK, 0, STACK
        ARGFRAME PSTACK, 0, STACK
        ARGFRAME XSTACK, 36, STACK
        ARGFRAME IOVERLAY, 0, STATIC
        ARGFRAME DOVERLAY, 0, STATIC
        REQUIRE ?V0
        REQUIRE ?V1
        REQUIRE ?V2
        REQUIRE ?V3
        REQUIRE ?V4
        REQUIRE ?V5
        REQUIRE ?V6
        REQUIRE ?V7
        MOV       A,#-0x10
        LCALL     ?BANKED_ENTER_XDATA
          CFI DPH0 load(1, XDATA, add(CFA_XSP16, literal(-1)))
          CFI DPL0 load(1, XDATA, add(CFA_XSP16, literal(-2)))
          CFI ?BRET_EXT load(1, XDATA, add(CFA_XSP16, literal(-3)))
          CFI ?RET_HIGH load(1, XDATA, add(CFA_XSP16, literal(-4)))
          CFI ?RET_LOW load(1, XDATA, add(CFA_XSP16, literal(-5)))
          CFI R7 load(1, XDATA, add(CFA_XSP16, literal(-6)))
          CFI V7 load(1, XDATA, add(CFA_XSP16, literal(-7)))
          CFI V6 load(1, XDATA, add(CFA_XSP16, literal(-8)))
          CFI V5 load(1, XDATA, add(CFA_XSP16, literal(-9)))
          CFI V4 load(1, XDATA, add(CFA_XSP16, literal(-10)))
          CFI V3 load(1, XDATA, add(CFA_XSP16, literal(-11)))
          CFI V2 load(1, XDATA, add(CFA_XSP16, literal(-12)))
          CFI V1 load(1, XDATA, add(CFA_XSP16, literal(-13)))
          CFI V0 load(1, XDATA, add(CFA_XSP16, literal(-14)))
          CFI VB load(1, XDATA, add(CFA_XSP16, literal(-15)))
          CFI R6 load(1, XDATA, add(CFA_XSP16, literal(-16)))
          CFI CFA_SP SP+0
          CFI CFA_XSP16 add(XSP16, 16)
        ; Saved register size: 16
        ; Auto size: 20
        MOV       A,#-0x14
        LCALL     ?ALLOC_XSTACK8
          CFI CFA_XSP16 add(XSP16, 36)
        MOV       ?V2,R4
        MOV       ?V3,R5
        MOV       A,R1
        MOV       R6,A
//  589 #if ZDO_COORDINATOR
//  590   uint8 txbuf[20] = {0};
        MOV       DPTR,#`?<Constant {0, 0, 0, 0, 0, 0, 0, 0, 0, 0, 0, 0_1`
        MOV       R4,?XSP + 0
        MOV       R5,?XSP + 1
        MOV       A,#0x14
        LCALL     ?MOVE_LONG8_XDATA_XDATA
//  591   txbuf[0] = 0xA0;
        MOV       DPL,?XSP + 0
        MOV       DPH,?XSP + 1
        MOV       A,#-0x60
        MOVX      @DPTR,A
//  592   txbuf[1] = 0xB0;
        MOV       A,#0x1
        LCALL     ?XSTACK_DISP0_8
        MOV       A,#-0x50
        MOVX      @DPTR,A
//  593   txbuf[2] = 1;
        MOV       A,#0x2
        LCALL     ?XSTACK_DISP0_8
        MOV       A,#0x1
        LCALL     ?Subroutine2 & 0xFFFF
//  594   txbuf[3] = (addr >> 24)&0xFF;
??CrossCallReturnLabel_0:
        MOV       ?V7,?V3
        MOV       A,#0x18
        MOV       R0,#?V4
        LCALL     ?UL_SHR
        MOV       A,#0x3
        LCALL     ?XSTACK_DISP0_8
        MOV       A,?V4
        LCALL     ?Subroutine2 & 0xFFFF
//  595   txbuf[4] = (addr >> 16)&0xFF;
??CrossCallReturnLabel_1:
        MOV       ?V7,A
        MOV       A,#0x10
        MOV       R0,#?V4
        LCALL     ?UL_SHR
        MOV       A,#0x4
        LCALL     ?XSTACK_DISP0_8
        MOV       A,?V4
        MOVX      @DPTR,A
//  596   txbuf[5] = (addr >> 8)&0xFF;
        MOV       A,#0x5
        LCALL     ?XSTACK_DISP0_8
        MOV       A,R3
        MOVX      @DPTR,A
//  597   txbuf[6] = (addr >> 0)&0xFF;
        MOV       A,#0x6
        LCALL     ?XSTACK_DISP0_8
        MOV       A,R2
        MOVX      @DPTR,A
//  598   if(key == HAL_KEY_SW_1){
        MOV       A,#0x1
        XRL       A,R6
        JNZ       ??sendToPc_0
//  599     txbuf[7] = 'A';
        MOV       A,#0x7
        LCALL     ?XSTACK_DISP0_8
        MOV       A,#0x41
??sendToPc_1:
        MOVX      @DPTR,A
//  600   }else if(key == HAL_KEY_SW_2){
//  601     txbuf[7] = 'B';
//  602   }else if(key == HAL_KEY_SW_3){
//  603     txbuf[7] = 'C';
//  604   }else if(key == HAL_KEY_SW_4){
//  605     txbuf[7] = 'D';
//  606   }else if(key == HAL_KEY_SW_5){
//  607     txbuf[7] = 'E';
//  608   }else{
//  609     return 1;
//  610   }
//  611 
//  612   //txbuf[7] = key;
//  613   HalUARTWrite ( 0, txbuf, 8);
        ; Setup parameters for call to function HalUARTWrite
        MOV       R4,#0x8
        MOV       R5,#0x0
        MOV       R2,?XSP + 0
        MOV       R3,?XSP + 1
        MOV       R1,#0x0
        LCALL     `??HalUARTWrite::?relay`; Banked call to: HalUARTWrite
//  614   return 1;
??sendToPc_2:
        MOV       R1,#0x1
        MOV       A,#0x14
        LCALL     ?DEALLOC_XSTACK8
          CFI CFA_XSP16 add(XSP16, 16)
        MOV       R7,#0x8
        LJMP      ?BANKED_LEAVE_XDATA
          CFI CFA_XSP16 add(XSP16, 36)
??sendToPc_0:
        MOV       A,#0x2
        XRL       A,R6
        JNZ       ??sendToPc_3
        MOV       A,#0x7
        LCALL     ?XSTACK_DISP0_8
        MOV       A,#0x42
        SJMP      ??sendToPc_1
??sendToPc_3:
        MOV       A,#0x10
        XRL       A,R6
        JNZ       ??sendToPc_4
        MOV       A,#0x7
        LCALL     ?XSTACK_DISP0_8
        MOV       A,#0x43
        SJMP      ??sendToPc_1
??sendToPc_4:
        MOV       A,#0x8
        XRL       A,R6
        JNZ       ??sendToPc_5
        MOV       A,#0x7
        LCALL     ?XSTACK_DISP0_8
        MOV       A,#0x44
        SJMP      ??sendToPc_1
??sendToPc_5:
        MOV       A,#0x4
        XRL       A,R6
        JNZ       ??sendToPc_2
        MOV       A,#0x7
        LCALL     ?XSTACK_DISP0_8
        MOV       A,#0x45
        SJMP      ??sendToPc_1
//  615 #else  
//  616 
//  617 #endif
//  618 }
          CFI EndBlock cfiBlock15

        RSEG BANKED_CODE:HUGECODE:NOROOT(0)
?Subroutine2:
          CFI Block cfiCond16 Using cfiCommon0
          CFI Function sendToPc
          CFI Conditional ??CrossCallReturnLabel_0
          CFI R6 load(1, XDATA, add(CFA_XSP16, literal(-16)))
          CFI VB load(1, XDATA, add(CFA_XSP16, literal(-15)))
          CFI V0 load(1, XDATA, add(CFA_XSP16, literal(-14)))
          CFI V1 load(1, XDATA, add(CFA_XSP16, literal(-13)))
          CFI V2 load(1, XDATA, add(CFA_XSP16, literal(-12)))
          CFI V3 load(1, XDATA, add(CFA_XSP16, literal(-11)))
          CFI V4 load(1, XDATA, add(CFA_XSP16, literal(-10)))
          CFI V5 load(1, XDATA, add(CFA_XSP16, literal(-9)))
          CFI V6 load(1, XDATA, add(CFA_XSP16, literal(-8)))
          CFI V7 load(1, XDATA, add(CFA_XSP16, literal(-7)))
          CFI R7 load(1, XDATA, add(CFA_XSP16, literal(-6)))
          CFI ?RET_LOW load(1, XDATA, add(CFA_XSP16, literal(-5)))
          CFI ?RET_HIGH load(1, XDATA, add(CFA_XSP16, literal(-4)))
          CFI ?BRET_EXT load(1, XDATA, add(CFA_XSP16, literal(-3)))
          CFI DPL0 load(1, XDATA, add(CFA_XSP16, literal(-2)))
          CFI DPH0 load(1, XDATA, add(CFA_XSP16, literal(-1)))
          CFI CFA_SP SP+-2
          CFI CFA_XSP16 add(XSP16, 36)
          CFI Block cfiCond17 Using cfiCommon0
          CFI (cfiCond17) Function sendToPc
          CFI (cfiCond17) Conditional ??CrossCallReturnLabel_1
          CFI (cfiCond17) R6 load(1, XDATA, add(CFA_XSP16, literal(-16)))
          CFI (cfiCond17) VB load(1, XDATA, add(CFA_XSP16, literal(-15)))
          CFI (cfiCond17) V0 load(1, XDATA, add(CFA_XSP16, literal(-14)))
          CFI (cfiCond17) V1 load(1, XDATA, add(CFA_XSP16, literal(-13)))
          CFI (cfiCond17) V2 load(1, XDATA, add(CFA_XSP16, literal(-12)))
          CFI (cfiCond17) V3 load(1, XDATA, add(CFA_XSP16, literal(-11)))
          CFI (cfiCond17) V4 load(1, XDATA, add(CFA_XSP16, literal(-10)))
          CFI (cfiCond17) V5 load(1, XDATA, add(CFA_XSP16, literal(-9)))
          CFI (cfiCond17) V6 load(1, XDATA, add(CFA_XSP16, literal(-8)))
          CFI (cfiCond17) V7 load(1, XDATA, add(CFA_XSP16, literal(-7)))
          CFI (cfiCond17) R7 load(1, XDATA, add(CFA_XSP16, literal(-6)))
          CFI (cfiCond17) ?RET_LOW load(1, XDATA, add(CFA_XSP16, literal(-5)))
          CFI (cfiCond17) ?RET_HIGH load(1, XDATA, add(CFA_XSP16, literal(-4)))
          CFI (cfiCond17) ?BRET_EXT load(1, XDATA, add(CFA_XSP16, literal(-3)))
          CFI (cfiCond17) DPL0 load(1, XDATA, add(CFA_XSP16, literal(-2)))
          CFI (cfiCond17) DPH0 load(1, XDATA, add(CFA_XSP16, literal(-1)))
          CFI (cfiCond17) CFA_SP SP+-2
          CFI (cfiCond17) CFA_XSP16 add(XSP16, 36)
          CFI Block cfiPicker18 Using cfiCommon1
          CFI (cfiPicker18) NoFunction
          CFI (cfiPicker18) Picker
        MOVX      @DPTR,A
        MOV       ?V4,R2
        MOV       ?V5,R3
        MOV       ?V6,?V2
        RET
          CFI EndBlock cfiCond16
          CFI EndBlock cfiCond17
          CFI EndBlock cfiPicker18

        RSEG XDATA_ID:CODE:NOROOT(0)
`?<Initializer for SerialApp_epDesc>`:
        DATA8
        DB 11
        DATA16
        DW SerialApp_TaskID
        DW SerialApp_SimpleDesc
        DATA8
        DB 0

        RSEG BANK_RELAYS:CODE:REORDER:NOROOT(0)
`??SerialApp_Init::?relay`:
        CODE
        LCALL   ?BDISPATCH
        DATA24
        DC24    SerialApp_Init

        RSEG BANK_RELAYS:CODE:REORDER:NOROOT(0)
`??SerialApp_ProcessEvent::?relay`:
        CODE
        LCALL   ?BDISPATCH
        DATA24
        DC24    SerialApp_ProcessEvent

        RSEG BANK_RELAYS:CODE:REORDER:NOROOT(0)
`??SerialApp_ProcessMSGCmd::?relay`:
        CODE
        LCALL   ?BDISPATCH
        DATA24
        DC24    SerialApp_ProcessMSGCmd

        RSEG BANK_RELAYS:CODE:REORDER:NOROOT(0)
`??SerialApp_Send::?relay`:
        CODE
        LCALL   ?BDISPATCH
        DATA24
        DC24    SerialApp_Send

        RSEG BANK_RELAYS:CODE:REORDER:NOROOT(0)
`??SerialApp_CallBack::?relay`:
        CODE
        LCALL   ?BDISPATCH
        DATA24
        DC24    SerialApp_CallBack

        RSEG BANK_RELAYS:CODE:REORDER:NOROOT(0)
`??SerialApp_ConnectReqProcess::?relay`:
        CODE
        LCALL   ?BDISPATCH
        DATA24
        DC24    SerialApp_ConnectReqProcess

        RSEG BANK_RELAYS:CODE:REORDER:NOROOT(0)
`??sendToPc::?relay`:
        CODE
        LCALL   ?BDISPATCH
        DATA24
        DC24    sendToPc

        RSEG XDATA_ROM_C:CONST:REORDER:NOROOT(0)
        DATA8
`?<Constant "SerialApp">`:
        DB "SerialApp"

        RSEG XDATA_ROM_C:CONST:REORDER:NOROOT(0)
        DATA8
`?<Constant {0, 0, 0, 0, 0, 0, 0, 0, 0, 0, 0, 0`:
        DB 0
        DB 0
        DB 0
        DB 0
        DB 0
        DB 0
        DB 0
        DB 0
        DB 0
        DB 0
        DB 0
        DB 0
        DB 0
        DB 0
        DB 0
        DB 0
        DB 0
        DB 0
        DB 0
        DB 0
        DB 0
        DB 0
        DB 0
        DB 0
        DB 0
        DB 0
        DB 0
        DB 0
        DB 0
        DB 0

        RSEG XDATA_ROM_C:CONST:REORDER:NOROOT(0)
        DATA8
`?<Constant "self:%d   child:%d\\r\\n">`:
        DB "self:%d   child:%d\015\012"

        RSEG XDATA_ROM_C:CONST:REORDER:NOROOT(0)
        DATA8
`?<Constant "< connect success>\\n">`:
        DB "< connect success>\012"

        RSEG XDATA_ROM_C:CONST:REORDER:NOROOT(0)
        DATA8
`?<Constant {0, 0, 0, 0, 0, 0, 0, 0, 0, 0, 0, 0_1`:
        DB 0
        DB 0
        DB 0
        DB 0
        DB 0
        DB 0
        DB 0
        DB 0
        DB 0
        DB 0
        DB 0
        DB 0
        DB 0
        DB 0
        DB 0
        DB 0
        DB 0
        DB 0
        DB 0
        DB 0

        RSEG XDATA_ROM_C:CONST:REORDER:NOROOT(0)
        DATA32
__Constant_1:
        DD 1

        END
// 
// 1 128 bytes in segment BANKED_CODE
//    42 bytes in segment BANK_RELAYS
//     6 bytes in segment XDATA_I
//     6 bytes in segment XDATA_ID
//   125 bytes in segment XDATA_ROM_C
//   115 bytes in segment XDATA_Z
// 
//    48 bytes of CODE     memory
//   121 bytes of CONST    memory (+ 4 bytes shared)
// 1 128 bytes of HUGECODE memory
//   121 bytes of XDATA    memory
//
//Errors: none
//Warnings: 2
