###############################################################################
#
# IAR C/C++ Compiler V10.20.1.5333 for 8051               18/Jun/2021  17:52:33
# Copyright 2004-2018 IAR Systems AB.
# PC-locked license - IAR Embedded Workbench for 8051
#
#    Core               =  plain
#    Code model         =  banked
#    Data model         =  large
#    Calling convention =  xdata reentrant
#    Constant location  =  data_rom
#    Dptr setup         =  1,16
#                          
#    Source file        =  D:\SRC\DemoPrj\Components\stack\zdo\ZDObject.c
#    Command line       =  
#        -f C:\Users\ADMINI~1\AppData\Local\Temp\EWE1F6.tmp
#        (D:\SRC\DemoPrj\Components\stack\zdo\ZDObject.c -D ZIGBEEPRO -D
#        HAL_UART=TRUE -D SERIAL_APP_PORT=0 -D LCD_SUPPORTED -lC
#        D:\SRC\DemoPrj\Projects\zstack\Utilities\SerialApp\CC2530DB\CoordinatorEB-Pro\List
#        -lA
#        D:\SRC\DemoPrj\Projects\zstack\Utilities\SerialApp\CC2530DB\CoordinatorEB-Pro\List
#        --diag_suppress Pe001,Pa010 -o
#        D:\SRC\DemoPrj\Projects\zstack\Utilities\SerialApp\CC2530DB\CoordinatorEB-Pro\Obj
#        -e --debug --core=plain --dptr=16,1 --data_model=large
#        --code_model=banked --calling_convention=xdata_reentrant
#        --place_constants=data_rom --nr_virtual_regs 8 -f
#        D:\SRC\DemoPrj\Projects\zstack\Utilities\SerialApp\CC2530DB\..\..\..\Tools\CC2530DB\f8wCoord.cfg
#        (-DCPU32MHZ -DROOT=__near_func -DMAC_CFG_APP_PENDING_QUEUE=TRUE
#        -DZDO_COORDINATOR -DRTR_NWK -DBLINK_LEDS) -f
#        D:\SRC\DemoPrj\Projects\zstack\Utilities\SerialApp\CC2530DB\..\..\..\Tools\CC2530DB\f8wConfig.cfg
#        (-DSECURE=0 -DZG_SECURE_DYNAMIC=0 -DREFLECTOR
#        -DDEFAULT_CHANLIST=0x00000800 -DZDAPP_CONFIG_PAN_ID=0x1223
#        -DNWK_START_DELAY=100 -DEXTENDED_JOINING_RANDOM_MASK=0x007F
#        -DBEACON_REQUEST_DELAY=100 -DBEACON_REQ_DELAY_MASK=0x00FF
#        -DROUTE_EXPIRY_TIME=30 -DAPSC_ACK_WAIT_DURATION_POLLED=3000
#        -DNWK_INDIRECT_MSG_TIMEOUT=7 -DMAX_RREQ_ENTRIES=8
#        -DAPSC_MAX_FRAME_RETRIES=3 -DNWK_MAX_DATA_RETRIES=2
#        -DMAX_POLL_FAILURE_RETRIES=2 -DMAX_BCAST=9 -DAPS_MAX_GROUPS=16
#        -DMAX_RTG_ENTRIES=40 -DNWK_MAX_BINDING_ENTRIES=4
#        -DMAX_BINDING_CLUSTER_IDS=4 "-DDEFAULT_KEY={0x01, 0x03, 0x05, 0x07,
#        0x09, 0x0B, 0x0D, 0x0F, 0x00, 0x02, 0x04, 0x06, 0x08, 0x0A, 0x0C,
#        0x0D}" -DMAC_MAX_FRAME_SIZE=116 "-DCONST=const __code"
#        -DGENERIC=__generic -DRFD_RCVC_ALWAYS_ON=FALSE -DPOLL_RATE=1000
#        -DQUEUED_POLL_RATE=100 -DRESPONSE_POLL_RATE=100
#        -DREJOIN_POLL_RATE=440) -I
#        D:\SRC\DemoPrj\Projects\zstack\Utilities\SerialApp\CC2530DB\ -I
#        D:\SRC\DemoPrj\Projects\zstack\Utilities\SerialApp\CC2530DB\..\SOURCE\
#        -I
#        D:\SRC\DemoPrj\Projects\zstack\Utilities\SerialApp\CC2530DB\..\..\..\ZMAIN\TI2530DB\
#        -I
#        D:\SRC\DemoPrj\Projects\zstack\Utilities\SerialApp\CC2530DB\..\..\..\..\..\COMPONENTS\MT\
#        -I
#        D:\SRC\DemoPrj\Projects\zstack\Utilities\SerialApp\CC2530DB\..\..\..\..\..\COMPONENTS\HAL\INCLUDE\
#        -I
#        D:\SRC\DemoPrj\Projects\zstack\Utilities\SerialApp\CC2530DB\..\..\..\..\..\COMPONENTS\HAL\TARGET\CC2530EB\
#        -I
#        D:\SRC\DemoPrj\Projects\zstack\Utilities\SerialApp\CC2530DB\..\..\..\..\..\COMPONENTS\OSAL\MCU\CCSOC\
#        -I
#        D:\SRC\DemoPrj\Projects\zstack\Utilities\SerialApp\CC2530DB\..\..\..\..\..\COMPONENTS\OSAL\INCLUDE\
#        -I
#        D:\SRC\DemoPrj\Projects\zstack\Utilities\SerialApp\CC2530DB\..\..\..\..\..\COMPONENTS\STACK\AF\
#        -I
#        D:\SRC\DemoPrj\Projects\zstack\Utilities\SerialApp\CC2530DB\..\..\..\..\..\COMPONENTS\STACK\NWK\
#        -I
#        D:\SRC\DemoPrj\Projects\zstack\Utilities\SerialApp\CC2530DB\..\..\..\..\..\COMPONENTS\STACK\SEC\
#        -I
#        D:\SRC\DemoPrj\Projects\zstack\Utilities\SerialApp\CC2530DB\..\..\..\..\..\COMPONENTS\STACK\SAPI\
#        -I
#        D:\SRC\DemoPrj\Projects\zstack\Utilities\SerialApp\CC2530DB\..\..\..\..\..\COMPONENTS\STACK\SYS\
#        -I
#        D:\SRC\DemoPrj\Projects\zstack\Utilities\SerialApp\CC2530DB\..\..\..\..\..\COMPONENTS\STACK\ZDO\
#        -I
#        D:\SRC\DemoPrj\Projects\zstack\Utilities\SerialApp\CC2530DB\..\..\..\..\..\COMPONENTS\ZMAC\F8W\
#        -I
#        D:\SRC\DemoPrj\Projects\zstack\Utilities\SerialApp\CC2530DB\..\..\..\..\..\COMPONENTS\ZMAC\
#        -I
#        D:\SRC\DemoPrj\Projects\zstack\Utilities\SerialApp\CC2530DB\..\..\..\..\..\COMPONENTS\SERVICES\SADDR\
#        -I
#        D:\SRC\DemoPrj\Projects\zstack\Utilities\SerialApp\CC2530DB\..\..\..\..\..\COMPONENTS\SERVICES\SDATA\
#        -I
#        D:\SRC\DemoPrj\Projects\zstack\Utilities\SerialApp\CC2530DB\..\..\..\..\..\COMPONENTS\MAC\INCLUDE\
#        -I
#        D:\SRC\DemoPrj\Projects\zstack\Utilities\SerialApp\CC2530DB\..\..\..\..\..\COMPONENTS\MAC\HIGH_LEVEL\
#        -I
#        D:\SRC\DemoPrj\Projects\zstack\Utilities\SerialApp\CC2530DB\..\..\..\..\..\COMPONENTS\MAC\LOW_LEVEL\srf04\
#        -I
#        D:\SRC\DemoPrj\Projects\zstack\Utilities\SerialApp\CC2530DB\..\..\..\..\..\COMPONENTS\MAC\LOW_LEVEL\srf04\SINGLE_CHIP\
#        -Ohz --require_prototypes)
#    Locale             =  Chinese (Simplified)_CHN.936
#    List file          =  
#        D:\SRC\DemoPrj\Projects\zstack\Utilities\SerialApp\CC2530DB\CoordinatorEB-Pro\List\ZDObject.lst
#    Object file        =  
#        D:\SRC\DemoPrj\Projects\zstack\Utilities\SerialApp\CC2530DB\CoordinatorEB-Pro\Obj\ZDObject.r51
#
###############################################################################

D:\SRC\DemoPrj\Components\stack\zdo\ZDObject.c
      1          /**************************************************************************************************
      2            Filename:       ZDObject.c
      3            Revised:        $Date: 2009-03-19 11:37:20 -0700 (Thu, 19 Mar 2009) $
      4            Revision:       $Revision: 19466 $
      5          
      6            Description:    This is the Zigbee Device Object.
      7          
      8          
      9            Copyright 2004-2009 Texas Instruments Incorporated. All rights reserved.
     10          
     11            IMPORTANT: Your use of this Software is limited to those specific rights
     12            granted under the terms of a software license agreement between the user
     13            who downloaded the software, his/her employer (which must be your employer)
     14            and Texas Instruments Incorporated (the "License").  You may not use this
     15            Software unless you agree to abide by the terms of the License. The License
     16            limits your use, and you acknowledge, that the Software may not be modified,
     17            copied or distributed unless embedded on a Texas Instruments microcontroller
     18            or used solely and exclusively in conjunction with a Texas Instruments radio
     19            frequency transceiver, which is integrated into your product.  Other than for
     20            the foregoing purpose, you may not use, reproduce, copy, prepare derivative
     21            works of, modify, distribute, perform, display or sell this Software and/or
     22            its documentation for any purpose.
     23          
     24            YOU FURTHER ACKNOWLEDGE AND AGREE THAT THE SOFTWARE AND DOCUMENTATION ARE
     25            PROVIDED “AS IS” WITHOUT WARRANTY OF ANY KIND, EITHER EXPRESS OR IMPLIED,
     26            INCLUDING WITHOUT LIMITATION, ANY WARRANTY OF MERCHANTABILITY, TITLE,
     27            NON-INFRINGEMENT AND FITNESS FOR A PARTICULAR PURPOSE. IN NO EVENT SHALL
     28            TEXAS INSTRUMENTS OR ITS LICENSORS BE LIABLE OR OBLIGATED UNDER CONTRACT,
     29            NEGLIGENCE, STRICT LIABILITY, CONTRIBUTION, BREACH OF WARRANTY, OR OTHER
     30            LEGAL EQUITABLE THEORY ANY DIRECT OR INDIRECT DAMAGES OR EXPENSES
     31            INCLUDING BUT NOT LIMITED TO ANY INCIDENTAL, SPECIAL, INDIRECT, PUNITIVE
     32            OR CONSEQUENTIAL DAMAGES, LOST PROFITS OR LOST DATA, COST OF PROCUREMENT
     33            OF SUBSTITUTE GOODS, TECHNOLOGY, SERVICES, OR ANY CLAIMS BY THIRD PARTIES
     34            (INCLUDING BUT NOT LIMITED TO ANY DEFENSE THEREOF), OR OTHER SIMILAR COSTS.
     35          
     36            Should you have any questions regarding your right to use this Software,
     37            contact Texas Instruments Incorporated at www.TI.com.
     38          **************************************************************************************************/
     39          
     40          /*********************************************************************
     41           * INCLUDES
     42           */
     43          #include "ZComdef.h"
     44          #include "OSAL.h"
     45          #include "OSAL_Nv.h"
     46          #include "rtg.h"
     47          #include "NLMEDE.h"
     48          #include "nwk_globals.h"
     49          #include "APS.h"
     50          #include "APSMEDE.h"
     51          #include "AssocList.h"
     52          #include "BindingTable.h"
     53          #include "AddrMgr.h"
     54          #include "AF.h"
     55          #include "ZDObject.h"
     56          #include "ZDProfile.h"
     57          #include "ZDConfig.h"
     58          #include "ZDSecMgr.h"
     59          #include "ZDApp.h"
     60          #include "nwk_util.h"   // NLME_IsAddressBroadcast()
     61          #include "ZGlobals.h"
     62          
     63          #if defined( LCD_SUPPORTED )
     64            #include "OnBoard.h"
     65          #endif
     66          
     67          /* HAL */
     68          #include "hal_lcd.h"
     69          
     70          /*********************************************************************
     71           * MACROS
     72           */
     73          
     74          /*********************************************************************
     75           * CONSTANTS
     76           */
     77          // NLME Stub Implementations
     78          #define ZDO_ProcessMgmtPermitJoinTimeout NLME_PermitJoiningTimeout
     79          
     80          // Status fields used by ZDO_ProcessMgmtRtgReq
     81          #define ZDO_MGMT_RTG_ENTRY_ACTIVE             0x00
     82          #define ZDO_MGMT_RTG_ENTRY_DISCOVERY_UNDERWAY 0x01
     83          #define ZDO_MGMT_RTG_ENTRY_DISCOVERY_FAILED   0x02
     84          #define ZDO_MGMT_RTG_ENTRY_INACTIVE           0x03
     85          
     86          /*********************************************************************
     87           * TYPEDEFS
     88           */
     89          #if defined ( REFLECTOR )
     90          typedef struct
     91          {
     92            byte SrcTransSeq;
     93            zAddrType_t SrcAddr;
     94            uint16 LocalCoordinator;
     95            byte epIntf;
     96            uint16 ProfileID;
     97            byte numInClusters;
     98            uint16 *inClusters;
     99            byte numOutClusters;
    100            uint16 *outClusters;
    101            byte SecurityUse;
    102            byte status;
    103          } ZDO_EDBind_t;
    104          #endif // defined ( REFLECTOR )
    105          
    106          enum
    107          {
    108            ZDMATCH_INIT,           // Initialized
    109            ZDMATCH_WAIT_REQ,       // Received first request, waiting for second
    110            ZDMATCH_SENDING_BINDS   // Received both requests, sending unbind/binds
    111          };
    112          
    113          enum
    114          {
    115            ZDMATCH_SENDING_NOT,
    116            ZDMATCH_SENDING_UNBIND,
    117            ZDMATCH_SENDING_BIND
    118          };
    119          
    120          /*********************************************************************
    121           * GLOBAL VARIABLES
    122           */
    123          
    124          /*********************************************************************
    125           * EXTERNAL VARIABLES
    126           */
    127          
    128          /*********************************************************************
    129           * EXTERNAL FUNCTIONS
    130           */
    131          
    132          /*********************************************************************
    133           * LOCAL VARIABLES
    134           */

   \                                 In  segment XDATA_Z, align 1, keep-with-next
    135          static uint16 ZDOBuildBuf[26];  // temp area to build data without allocation
   \                     ZDOBuildBuf:
   \   000000                DS 52
   \   000034                REQUIRE __INIT_XDATA_Z
    136          
    137          #if defined ( REFLECTOR )

   \                                 In  segment XDATA_Z, align 1, keep-with-next
    138          static ZDO_EDBind_t *ZDO_EDBind;     // Null when not used
   \                     ZDO_EDBind:
   \   000000                DS 2
   \   000002                REQUIRE __INIT_XDATA_Z
    139          #endif
    140          
    141          #if defined ( MANAGED_SCAN )
    142            uint32 managedScanNextChannel = 0;
    143            uint32 managedScanChannelMask = 0;
    144            uint8  managedScanTimesPerChannel = 0;
    145          #endif
    146          

   \                                 In  segment XDATA_Z, align 1, keep-with-next
    147          ZDMatchEndDeviceBind_t *matchED = (ZDMatchEndDeviceBind_t *)NULL;
   \                     matchED:
   \   000000                DS 2
   \   000002                REQUIRE __INIT_XDATA_Z
    148          

   \                                 In  segment XDATA_Z, align 1, keep-with-next
    149          uint32 apsChannelMask = 0;
   \                     apsChannelMask:
   \   000000                DS 4
   \   000004                REQUIRE __INIT_XDATA_Z
    150          
    151          /*********************************************************************
    152           * LOCAL FUNCTIONS
    153           */
    154          static void ZDODeviceSetup( void );
    155          #if defined ( MANAGED_SCAN )
    156            static void ZDOManagedScan_Next( void );
    157          #endif
    158          #if defined ( REFLECTOR )
    159            static void ZDO_RemoveEndDeviceBind( void );
    160            static void ZDO_SendEDBindRsp( byte TransSeq, zAddrType_t *dstAddr, byte Status, byte secUse );
    161          #endif
    162          static byte ZDO_CompareClusterLists( byte numList1, uint16 *list1,
    163                                          byte numList2, uint16 *list2, uint16 *pMatches );
    164          static void ZDO_RemoveMatchMemory( void );
    165          static uint8 ZDO_CopyMatchInfo( ZDEndDeviceBind_t *destReq, ZDEndDeviceBind_t *srcReq );
    166          static void ZDO_EndDeviceBindMatchTimeoutCB( void );
    167          uint8 *ZDO_ConvertOTAClusters( uint8 cnt, uint8 *inBuf, uint16 *outList );
    168          
    169          /*********************************************************************
    170           * @fn          ZDO_Init
    171           *
    172           * @brief       ZDObject and ZDProfile initialization.
    173           *
    174           * @param       none
    175           *
    176           * @return      none
    177           */

   \                                 In  segment BANKED_CODE, align 1, keep-with-next
    178          void ZDO_Init( void )
   \                     ZDO_Init:
    179          {
   \   000000   C082         PUSH      DPL
   \   000002   C083         PUSH      DPH
   \   000004                ; Saved register size: 2
   \   000004                ; Auto size: 0
    180            // Initialize ZD items
    181            #if defined ( REFLECTOR )
    182            ZDO_EDBind = NULL;
   \   000004   90....       MOV       DPTR,#ZDO_EDBind
   \   000007   E4           CLR       A
   \   000008   F0           MOVX      @DPTR,A
   \   000009   A3           INC       DPTR
   \   00000A   F0           MOVX      @DPTR,A
    183            #endif
    184          
    185            // Initialize default ZDO_UseExtendedPANID to the APS one.
    186            osal_cpyExtAddr( ZDO_UseExtendedPANID, AIB_apsUseExtendedPANID );
   \   00000B                ; Setup parameters for call to function sAddrExtCpy
   \   00000B   7C..         MOV       R4,#AIB_apsUseExtendedPANID & 0xff
   \   00000D   7D..         MOV       R5,#(AIB_apsUseExtendedPANID >> 8) & 0xff
   \   00000F   7A..         MOV       R2,#ZDO_UseExtendedPANID & 0xff
   \   000011   7B..         MOV       R3,#(ZDO_UseExtendedPANID >> 8) & 0xff
   \   000013   12....       LCALL     `??sAddrExtCpy::?relay`; Banked call to: sAddrExtCpy
    187          
    188            // Setup the device - type of device to create.
    189            ZDODeviceSetup();
   \   000016                ; Setup parameters for call to function NLME_CoordinatorInit
   \   000016   12....       LCALL     `??NLME_CoordinatorInit::?relay`; Banked call to: NLME_CoordinatorInit
   \   000019                ; Setup parameters for call to function APS_ReflectorInit
   \   000019   7900         MOV       R1,#0x0
   \   00001B   12....       LCALL     `??APS_ReflectorInit::?relay`; Banked call to: APS_ReflectorInit
    190          }
   \   00001E   02....       LJMP      ?Subroutine0 & 0xFFFF

   \                                 In  segment BANKED_CODE, align 1, keep-with-next
   \                     ?Subroutine0:
   \   000000   D083         POP       DPH
   \   000002   D082         POP       DPL
   \   000004   02....       LJMP      ?BRET
    191          
    192          #if defined ( MANAGED_SCAN )
    193          /*********************************************************************
    194           * @fn      ZDOManagedScan_Next()
    195           *
    196           * @brief   Setup a managed scan.
    197           *
    198           * @param   none
    199           *
    200           * @return  none
    201           */
    202          static void ZDOManagedScan_Next( void )
    203          {
    204            // Is it the first time
    205            if ( managedScanNextChannel == 0 && managedScanTimesPerChannel == 0 )
    206            {
    207              // Setup the defaults
    208              managedScanNextChannel  = 1;
    209          
    210              while( managedScanNextChannel && (zgDefaultChannelList & managedScanNextChannel) == 0 )
    211                managedScanNextChannel <<= 1;
    212          
    213              managedScanChannelMask = managedScanNextChannel;
    214              managedScanTimesPerChannel = MANAGEDSCAN_TIMES_PRE_CHANNEL;
    215            }
    216            else
    217            {
    218              // Do we need to go to the next channel
    219              if ( managedScanTimesPerChannel == 0 )
    220              {
    221                // Find next active channel
    222                managedScanChannelMask  = managedScanNextChannel;
    223                managedScanTimesPerChannel = MANAGEDSCAN_TIMES_PRE_CHANNEL;
    224              }
    225              else
    226              {
    227                managedScanTimesPerChannel--;
    228          
    229                if ( managedScanTimesPerChannel == 0 )
    230                {
    231                  managedScanNextChannel  <<= 1;
    232                  while( managedScanNextChannel && (zgDefaultChannelList & managedScanNextChannel) == 0 )
    233                    managedScanNextChannel <<= 1;
    234          
    235                  if ( managedScanNextChannel == 0 )
    236                    zdoDiscCounter  = NUM_DISC_ATTEMPTS + 1; // Stop
    237                }
    238              }
    239            }
    240          }
    241          #endif // MANAGED_SCAN
    242          
    243          /*********************************************************************
    244           * @fn      ZDODeviceSetup()
    245           *
    246           * @brief   Call set functions depending on the type of device compiled.
    247           *
    248           * @param   none
    249           *
    250           * @return  none
    251           */
    252          static void ZDODeviceSetup( void )
    253          {
    254            if ( ZG_BUILD_COORDINATOR_TYPE )
    255            {
    256              NLME_CoordinatorInit();
    257            }
    258          
    259          #if defined ( REFLECTOR )
    260            APS_ReflectorInit( (ZG_DEVICE_COORDINATOR_TYPE) ? APS_REFLECTOR_PUBLIC :  APS_REFLECTOR_PRIVATE );
    261          #endif
    262          
    263            if ( ZG_BUILD_JOINING_TYPE )
    264            {
    265              NLME_DeviceJoiningInit();
    266            }
    267          }
    268          
    269          /*********************************************************************
    270           * @fn          ZDO_StartDevice
    271           *
    272           * @brief       This function starts a device in a network.
    273           *
    274           * @param       logicalType     - Device type to start
    275           *              startMode       - indicates mode of device startup
    276           *              beaconOrder     - indicates time betwen beacons
    277           *              superframeOrder - indicates length of active superframe
    278           *
    279           * @return      none
    280           */

   \                                 In  segment BANKED_CODE, align 1, keep-with-next
    281          void ZDO_StartDevice( byte logicalType, devStartModes_t startMode, byte beaconOrder, byte superframeOrder )
   \                     ZDO_StartDevice:
    282          {
   \   000000                REQUIRE ?V0
   \   000000                REQUIRE ?V1
   \   000000                REQUIRE ?V2
   \   000000   74F5         MOV       A,#-0xb
   \   000002   12....       LCALL     ?BANKED_ENTER_XDATA
   \   000005                ; Saved register size: 11
   \   000005                ; Auto size: 0
   \   000005   EA           MOV       A,R2
   \   000006   FF           MOV       R7,A
   \   000007   EB           MOV       A,R3
   \   000008   FE           MOV       R6,A
    283            ZStatus_t ret;
    284          #if defined ( ZIGBEE_FREQ_AGILITY )
    285            static uint8 discRetries = 0;
    286          #endif
    287          #if defined ( ZIGBEE_COMMISSIONING )
    288            static uint8 scanCnt = 0;
    289          #endif
    290            
    291            ret = ZUnsupportedMode;
    292          
    293            if ( ZG_BUILD_COORDINATOR_TYPE && logicalType == NODETYPE_COORDINATOR )
   \   000009   E9           MOV       A,R1
   \   00000A   7065         JNZ       ??ZDO_StartDevice_0
    294            {
    295              if ( startMode == MODE_HARD )
   \   00000C   7402         MOV       A,#0x2
   \   00000E   6F           XRL       A,R7
   \   00000F   703D         JNZ       ??ZDO_StartDevice_1
    296              {
    297                devState = DEV_COORD_STARTING;
   \   000011   90....       MOV       DPTR,#devState
   \   000014   7408         MOV       A,#0x8
   \   000016   F0           MOVX      @DPTR,A
    298                ret = NLME_NetworkFormationRequest( zgConfigPANID, zgApsUseExtendedPANID, zgDefaultChannelList,
    299                                                    zgDefaultStartingScanDuration, beaconOrder,
    300                                                    superframeOrder, false );
   \   000017                ; Setup parameters for call to function NLME_NetworkFormationRequest
   \   000017   75..00       MOV       ?V2,#0x0
   \   00001A   78..         MOV       R0,#?V2
   \   00001C   12....       LCALL     ?PUSH_XSTACK_I_ONE
   \   00001F   EC           MOV       A,R4
   \   000020   F5..         MOV       ?V2,A
   \   000022   78..         MOV       R0,#?V2
   \   000024   12....       LCALL     ?PUSH_XSTACK_I_ONE
   \   000027   EB           MOV       A,R3
   \   000028   F5..         MOV       ?V2,A
   \   00002A   78..         MOV       R0,#?V2
   \   00002C   12....       LCALL     ?PUSH_XSTACK_I_ONE
   \   00002F   90....       MOV       DPTR,#zgDefaultChannelList
   \   000032   12....       LCALL     ?PUSH_XSTACK8_X_FOUR
   \   000035   90....       MOV       DPTR,#zgDefaultStartingScanDuration
   \   000038   E0           MOVX      A,@DPTR
   \   000039   F9           MOV       R1,A
   \   00003A   7C..         MOV       R4,#zgApsUseExtendedPANID & 0xff
   \   00003C   7D..         MOV       R5,#(zgApsUseExtendedPANID >> 8) & 0xff
   \   00003E   90....       MOV       DPTR,#zgConfigPANID
   \   000041   12....       LCALL     ??Subroutine212_0 & 0xFFFF
    301              }
   \                     ??CrossCallReturnLabel_355:
   \   000044   12....       LCALL     `??NLME_NetworkFormationRequest::?relay`; Banked call to: NLME_NetworkFormationRequest
   \   000047   7407         MOV       A,#0x7
   \   000049   12....       LCALL     ?DEALLOC_XSTACK8
   \   00004C   8013         SJMP      ??ZDO_StartDevice_2
    302              else if ( startMode == MODE_RESUME )
   \                     ??ZDO_StartDevice_1:
   \   00004E   7401         MOV       A,#0x1
   \   000050   6F           XRL       A,R7
   \   000051   7013         JNZ       ??ZDO_StartDevice_3
    303              {
    304                // Just start the coordinator
    305                devState = DEV_COORD_STARTING;
   \   000053   90....       MOV       DPTR,#devState
   \   000056   7408         MOV       A,#0x8
   \   000058   F0           MOVX      @DPTR,A
    306                ret = NLME_StartRouterRequest( beaconOrder, beaconOrder, false );
   \   000059                ; Setup parameters for call to function NLME_StartRouterRequest
   \   000059   7B00         MOV       R3,#0x0
   \   00005B   EE           MOV       A,R6
   \   00005C   FA           MOV       R2,A
   \   00005D   F9           MOV       R1,A
   \   00005E   12....       LCALL     `??NLME_StartRouterRequest::?relay`; Banked call to: NLME_StartRouterRequest
   \                     ??ZDO_StartDevice_2:
   \   000061   E9           MOV       A,R1
    307              }
    308              else
    309              {
    310          #if defined( LCD_SUPPORTED )
    311                HalLcdWriteScreen( "StartDevice ERR", "MODE unknown" );
    312          #endif
    313              }
    314            }
    315          
    316            if ( ZG_BUILD_JOINING_TYPE && (logicalType == NODETYPE_ROUTER || logicalType == NODETYPE_DEVICE) )
    317            {
    318              if ( (startMode == MODE_JOIN) || (startMode == MODE_REJOIN) )
    319              {
    320                devState = DEV_NWK_DISC;
    321          
    322            #if defined( MANAGED_SCAN )
    323                ZDOManagedScan_Next();
    324                ret = NLME_NetworkDiscoveryRequest( managedScanChannelMask, BEACON_ORDER_15_MSEC );
    325            #else
    326                ret = NLME_NetworkDiscoveryRequest( zgDefaultChannelList, zgDefaultStartingScanDuration );
    327              #if defined ( ZIGBEE_FREQ_AGILITY )
    328                if ( !( ZDO_Config_Node_Descriptor.CapabilityFlags & CAPINFO_RCVR_ON_IDLE ) &&
    329                      ( ret == ZSuccess ) && ( ++discRetries == 4 ) )
    330                {
    331                  // For devices with RxOnWhenIdle equals to FALSE, any network channel
    332                  // change will not be recieved. On these devices or routers that have 
    333                  // lost the network, an active scan shall be conducted on the Default
    334                  // Channel list using the extended PANID to find the network. If the 
    335                  // extended PANID isn't found using the Default Channel list, an scan
    336                  // should be completed using all channels.
    337                  zgDefaultChannelList = MAX_CHANNELS_24GHZ;
    338                }
    339              #endif // ZIGBEE_FREQ_AGILITY
    340              #if defined ( ZIGBEE_COMMISSIONING )
    341                if (startMode == MODE_REJOIN && scanCnt++ >= 5 )
    342                {
    343                  // When ApsUseExtendedPanID is commissioned to a non zero value via 
    344                  // application specific means, the device shall conduct an active scan
    345                  // on the Default Channel list and join the PAN with the same
    346                  // ExtendedPanID. If the PAN is not found, an scan should be completed
    347                  // on all channels.
    348                  // When devices rejoin the network and the PAN is not found from 
    349                  zgDefaultChannelList = MAX_CHANNELS_24GHZ;
    350                }  
    351              #endif // ZIGBEE_COMMISSIONING
    352            #endif
    353              }
    354              else if ( startMode == MODE_RESUME )
    355              {
    356                if ( logicalType == NODETYPE_ROUTER )
    357                {
    358                  ZMacScanCnf_t scanCnf;
    359                  devState = DEV_NWK_ORPHAN;
    360          
    361                  /* if router and nvram is available, fake successful orphan scan */
    362                  scanCnf.hdr.Status = ZSUCCESS;
    363                  scanCnf.ScanType = ZMAC_ORPHAN_SCAN;
    364                  scanCnf.UnscannedChannels = 0;
    365                  scanCnf.ResultListSize = 0;
    366                  nwk_ScanJoiningOrphan(&scanCnf);
    367          
    368                  ret = ZSuccess;
    369                }
    370                else
    371                {
    372                  devState = DEV_NWK_ORPHAN;
    373                  ret = NLME_OrphanJoinRequest( zgDefaultChannelList,
    374                                                zgDefaultStartingScanDuration );
    375                }
    376              }
    377              else
    378              {
    379          #if defined( LCD_SUPPORTED )
    380                HalLcdWriteScreen( "StartDevice ERR", "MODE unknown" );
    381          #endif
    382              }
    383            }
    384          
    385            if ( ret != ZSuccess )
   \   000062   700D         JNZ       ??ZDO_StartDevice_0
   \   000064   801B         SJMP      ??ZDO_StartDevice_4
   \                     ??ZDO_StartDevice_3:
   \   000066                ; Setup parameters for call to function HalLcdWriteScreen
   \   000066   7C..         MOV       R4,#`?<Constant "MODE unknown">` & 0xff
   \   000068   7D..         MOV       R5,#(`?<Constant "MODE unknown">` >> 8) & 0xff
   \   00006A   7A..         MOV       R2,#`?<Constant "StartDevice ERR">` & 0xff
   \   00006C   7B..         MOV       R3,#(`?<Constant "StartDevice ERR">` >> 8) & 0xff
   \   00006E   12....       LCALL     `??HalLcdWriteScreen::?relay`; Banked call to: HalLcdWriteScreen
    386              osal_start_timerEx(ZDAppTaskID, ZDO_NETWORK_INIT, NWK_RETRY_DELAY );
   \                     ??ZDO_StartDevice_0:
   \   000071                ; Setup parameters for call to function osal_start_timerEx
   \   000071   7CE8         MOV       R4,#-0x18
   \   000073   7D03         MOV       R5,#0x3
   \   000075   7A01         MOV       R2,#0x1
   \   000077   7B00         MOV       R3,#0x0
   \   000079   90....       MOV       DPTR,#ZDAppTaskID
   \   00007C   E0           MOVX      A,@DPTR
   \   00007D   F9           MOV       R1,A
   \   00007E   12....       LCALL     `??osal_start_timerEx::?relay`; Banked call to: osal_start_timerEx
    387          }
   \                     ??ZDO_StartDevice_4:
   \   000081   7F03         MOV       R7,#0x3
   \   000083   02....       LJMP      ?BANKED_LEAVE_XDATA

   \                                 In  segment BANKED_CODE, align 1, keep-with-next
   \                     ??Subroutine212_0:
   \   000000   12....       LCALL     ?Subroutine161 & 0xFFFF
   \                     ??CrossCallReturnLabel_430:
   \   000003   22           RET

   \                                 In  segment BANKED_CODE, align 1, keep-with-next
   \                     ?Subroutine161:
   \   000000   E0           MOVX      A,@DPTR
   \   000001   FA           MOV       R2,A
   \   000002   A3           INC       DPTR
   \   000003   E0           MOVX      A,@DPTR
   \   000004   FB           MOV       R3,A
   \   000005   22           RET
    388          
    389          /*********************************************************************
    390           * @fn      ZDO_UpdateNwkStatus()
    391           *
    392           * @brief
    393           *
    394           *   This function will send an update message to each registered
    395           *   application endpoint/interface about a network status change.
    396           *
    397           * @param   none
    398           *
    399           * @return  none
    400           */

   \                                 In  segment BANKED_CODE, align 1, keep-with-next
    401          void ZDO_UpdateNwkStatus( devStates_t state )
   \                     ZDO_UpdateNwkStatus:
    402          {
   \   000000                REQUIRE ?V0
   \   000000                REQUIRE ?V2
   \   000000                REQUIRE ?V3
   \   000000   74F4         MOV       A,#-0xc
   \   000002   12....       LCALL     ?BANKED_ENTER_XDATA
   \   000005                ; Saved register size: 12
   \   000005                ; Auto size: 0
   \   000005   89..         MOV       ?V0,R1
    403            // Endpoint/Interface descriptor list.
    404            epList_t *epDesc = epList;
   \   000007   90....       MOV       DPTR,#epList
   \   00000A   12....       LCALL     ??Subroutine237_0 & 0xFFFF
    405            byte bufLen = sizeof(osal_event_hdr_t);
    406            osal_event_hdr_t *msgPtr;
    407          
    408            ZDAppNwkAddr.addr.shortAddr = NLME_GetShortAddr();
   \                     ??CrossCallReturnLabel_495:
   \   00000D                ; Setup parameters for call to function NLME_GetShortAddr
   \   00000D   12....       LCALL     `??NLME_GetShortAddr::?relay`; Banked call to: NLME_GetShortAddr
   \   000010   90....       MOV       DPTR,#ZDAppNwkAddr
   \   000013   12....       LCALL     ??Subroutine206_0 & 0xFFFF
    409            (void)NLME_GetExtAddr();  // Load the saveExtAddr pointer.
   \                     ??CrossCallReturnLabel_327:
   \   000016                ; Setup parameters for call to function NLME_GetExtAddr
   \   000016   12....       LCALL     `??NLME_GetExtAddr::?relay`; Banked call to: NLME_GetExtAddr
   \   000019   8030         SJMP      ??CrossCallReturnLabel_496
    410          
    411            while ( epDesc )
    412            {
    413              if ( epDesc->epDesc->endPoint != ZDO_EP )
   \                     ??ZDO_UpdateNwkStatus_0:
   \   00001B   8E82         MOV       DPL,R6
   \   00001D   8F83         MOV       DPH,R7
   \   00001F   12....       LCALL     ??Subroutine209_0 & 0xFFFF
   \                     ??CrossCallReturnLabel_346:
   \   000022   601B         JZ        ??CrossCallReturnLabel_70
    414              {
    415                msgPtr = (osal_event_hdr_t *)osal_msg_allocate( bufLen );
   \   000024                ; Setup parameters for call to function osal_msg_allocate
   \   000024   7A02         MOV       R2,#0x2
   \   000026   7B00         MOV       R3,#0x0
   \   000028   12....       LCALL     `??osal_msg_allocate::?relay`; Banked call to: osal_msg_allocate
    416                if ( msgPtr )
   \   00002B   EA           MOV       A,R2
   \   00002C   4B           ORL       A,R3
   \   00002D   6010         JZ        ??CrossCallReturnLabel_70
    417                {
    418                  msgPtr->event = ZDO_STATE_CHANGE; // Command ID
   \   00002F   8A82         MOV       DPL,R2
   \   000031   8B83         MOV       DPH,R3
   \   000033   74D1         MOV       A,#-0x2f
   \   000035   F0           MOVX      @DPTR,A
    419                  msgPtr->status = (byte)state;
   \   000036   A3           INC       DPTR
   \   000037   E5..         MOV       A,?V0
   \   000039   12....       LCALL     ??Subroutine243_0 & 0xFFFF
    420          
    421                  osal_msg_send( *(epDesc->epDesc->task_id), (uint8 *)msgPtr );
    422                }
    423              }
   \                     ??CrossCallReturnLabel_559:
   \   00003C   12....       LCALL     ?Subroutine57 & 0xFFFF
    424              epDesc = epDesc->nextDesc;
   \                     ??CrossCallReturnLabel_70:
   \   00003F   8E82         MOV       DPL,R6
   \   000041   8F83         MOV       DPH,R7
   \   000043   A3           INC       DPTR
   \   000044   A3           INC       DPTR
   \   000045   A3           INC       DPTR
   \   000046   A3           INC       DPTR
   \   000047   A3           INC       DPTR
   \   000048   12....       LCALL     ??Subroutine237_0 & 0xFFFF
    425            }
   \                     ??CrossCallReturnLabel_496:
   \   00004B   EE           MOV       A,R6
   \   00004C   4F           ORL       A,R7
   \   00004D   70CC         JNZ       ??ZDO_UpdateNwkStatus_0
    426          }
   \   00004F   02....       LJMP      ?Subroutine1 & 0xFFFF

   \                                 In  segment BANKED_CODE, align 1, keep-with-next
   \                     ?Subroutine57:
   \   000000   12....       LCALL     ??Subroutine261_0 & 0xFFFF
   \                     ??CrossCallReturnLabel_648:
   \   000003   12....       LCALL     ?Subroutine170 & 0xFFFF
   \                     ??CrossCallReturnLabel_353:
   \   000006   F9           MOV       R1,A
   \   000007   12....       LCALL     `??osal_msg_send::?relay`; Banked call to: osal_msg_send
   \   00000A   22           RET

   \                                 In  segment BANKED_CODE, align 1, keep-with-next
   \                     ??Subroutine206_0:
   \   000000   EA           MOV       A,R2
   \   000001                REQUIRE ??Subroutine207_0
   \   000001                ; // Fall through to label ??Subroutine207_0

   \                                 In  segment BANKED_CODE, align 1, keep-with-next
   \                     ??Subroutine207_0:
   \   000000   F0           MOVX      @DPTR,A
   \   000001   A3           INC       DPTR
   \   000002   EB           MOV       A,R3
   \   000003   F0           MOVX      @DPTR,A
   \   000004   22           RET

   \                                 In  segment BANKED_CODE, align 1, keep-with-next
   \                     ??Subroutine209_0:
   \   000000   12....       LCALL     ?Subroutine170 & 0xFFFF
   \                     ??CrossCallReturnLabel_354:
   \   000003   22           RET

   \                                 In  segment BANKED_CODE, align 1, keep-with-next
   \                     ?Subroutine170:
   \   000000   E0           MOVX      A,@DPTR
   \   000001   12....       LCALL     ?Subroutine190 & 0xFFFF
   \                     ??CrossCallReturnLabel_654:
   \   000004   E0           MOVX      A,@DPTR
   \   000005   22           RET

   \                                 In  segment BANKED_CODE, align 1, keep-with-next
   \                     ?Subroutine1:
   \   000000   7F04         MOV       R7,#0x4
   \   000002   02....       LJMP      ?BANKED_LEAVE_XDATA

   \                                 In  segment BANKED_CODE, align 1, keep-with-next
   \                     ??Subroutine237_0:
   \   000000   12....       LCALL     ?Subroutine174 & 0xFFFF
   \                     ??CrossCallReturnLabel_507:
   \   000003   FF           MOV       R7,A
   \   000004   22           RET

   \                                 In  segment BANKED_CODE, align 1, keep-with-next
   \                     ?Subroutine174:
   \   000000   E0           MOVX      A,@DPTR
   \   000001   FE           MOV       R6,A
   \   000002   A3           INC       DPTR
   \   000003   E0           MOVX      A,@DPTR
   \   000004   22           RET

   \                                 In  segment BANKED_CODE, align 1, keep-with-next
   \                     ??Subroutine243_0:
   \   000000   F0           MOVX      @DPTR,A
   \   000001                ; Setup parameters for call to function osal_msg_send
   \   000001   8E82         MOV       DPL,R6
   \   000003   8F83         MOV       DPH,R7
   \   000005   E0           MOVX      A,@DPTR
   \   000006   22           RET

   \                                 In  segment BANKED_CODE, align 1, keep-with-next
   \                     ??Subroutine261_0:
   \   000000   F8           MOV       R0,A
   \   000001                REQUIRE ??Subroutine262_0
   \   000001                ; // Fall through to label ??Subroutine262_0

   \                                 In  segment BANKED_CODE, align 1, keep-with-next
   \                     ??Subroutine262_0:
   \   000000   12....       LCALL     ??Subroutine263_0 & 0xFFFF
   \                     ??CrossCallReturnLabel_656:
   \   000003   A3           INC       DPTR
   \   000004   22           RET

   \                                 In  segment BANKED_CODE, align 1, keep-with-next
   \                     ?Subroutine190:
   \   000000   F8           MOV       R0,A
   \   000001                REQUIRE ??Subroutine263_0
   \   000001                ; // Fall through to label ??Subroutine263_0

   \                                 In  segment BANKED_CODE, align 1, keep-with-next
   \                     ??Subroutine263_0:
   \   000000   A3           INC       DPTR
   \   000001   E0           MOVX      A,@DPTR
   \   000002   F583         MOV       DPH,A
   \   000004   8882         MOV       DPL,R0
   \   000006   22           RET
    427          
    428          #if defined ( REFLECTOR )
    429          /*********************************************************************
    430           * @fn          ZDO_RemoveEndDeviceBind
    431           *
    432           * @brief       Remove the end device bind
    433           *
    434           * @param  none
    435           *
    436           * @return      none
    437           */
    438          static void ZDO_RemoveEndDeviceBind( void )
    439          {
    440            if ( ZDO_EDBind != NULL )
    441            {
    442              // Free the RAM
    443              if ( ZDO_EDBind->inClusters != NULL )
    444                osal_mem_free( ZDO_EDBind->inClusters );
    445              if ( ZDO_EDBind->outClusters != NULL )
    446                osal_mem_free( ZDO_EDBind->outClusters );
    447              osal_mem_free( ZDO_EDBind );
    448              ZDO_EDBind = NULL;
    449            }
    450          }
    451          #endif // REFLECTOR
    452          
    453          #if defined ( REFLECTOR )
    454          /*********************************************************************
    455           * @fn          ZDO_RemoveEndDeviceBind
    456           *
    457           * @brief       Remove the end device bind
    458           *
    459           * @param  none
    460           *
    461           * @return      none
    462           */
    463          static void ZDO_SendEDBindRsp( byte TransSeq, zAddrType_t *dstAddr, byte Status, byte secUse )
    464          {
    465            ZDP_EndDeviceBindRsp( TransSeq, dstAddr, Status, secUse );
    466          
    467          #if defined( LCD_SUPPORTED )
    468            HalLcdWriteString( "End Device Bind", HAL_LCD_LINE_1 );
    469            if ( Status == ZDP_SUCCESS )
    470              HalLcdWriteString( "Success Sent", HAL_LCD_LINE_2 );
    471            else
    472              HalLcdWriteString( "Timeout", HAL_LCD_LINE_2 );
    473          #endif
    474          
    475          }
    476          #endif // REFLECTOR
    477          
    478          /*********************************************************************
    479           * @fn          ZDO_CompareClusterLists
    480           *
    481           * @brief       Compare one list to another list
    482           *
    483           * @param       numList1 - number of items in list 1
    484           * @param       list1 - first list of cluster IDs
    485           * @param       numList2 - number of items in list 2
    486           * @param       list2 - second list of cluster IDs
    487           * @param       pMatches - buffer to put matches
    488           *
    489           * @return      number of matches
    490           */

   \                                 In  segment BANKED_CODE, align 1, keep-with-next
    491          static byte ZDO_CompareClusterLists( byte numList1, uint16 *list1,
   \                     ZDO_CompareClusterLists:
    492                                    byte numList2, uint16 *list2, uint16 *pMatches )
    493          {
   \   000000                REQUIRE ?V0
   \   000000                REQUIRE ?V1
   \   000000                REQUIRE ?V2
   \   000000                REQUIRE ?V3
   \   000000                REQUIRE ?V4
   \   000000                REQUIRE ?V6
   \   000000                REQUIRE ?V7
   \   000000   74F0         MOV       A,#-0x10
   \   000002   12....       LCALL     ?BANKED_ENTER_XDATA
   \   000005                ; Saved register size: 16
   \   000005                ; Auto size: 0
   \   000005   89..         MOV       ?V0,R1
   \   000007   8A..         MOV       ?V6,R2
   \   000009   8B..         MOV       ?V7,R3
   \   00000B   8C..         MOV       ?V4,R4
    494            byte x, y;
    495            uint16 z;
    496            byte numMatches = 0;
   \   00000D   7A00         MOV       R2,#0x0
    497          
    498            // Check the first in against the seconds out
    499            for ( x = 0; x < numList1; x++ )
   \   00000F   7B00         MOV       R3,#0x0
   \   000011   7410         MOV       A,#0x10
   \   000013   12....       LCALL     ?XSTACK_DISP0_8
   \   000016   12....       LCALL     ?Subroutine169 & 0xFFFF
   \                     ??CrossCallReturnLabel_255:
   \   000019   7412         MOV       A,#0x12
   \   00001B   12....       LCALL     ?XSTACK_DISP0_8
   \   00001E   12....       LCALL     ??Subroutine237_0 & 0xFFFF
   \                     ??CrossCallReturnLabel_497:
   \   000021   8045         SJMP      ??ZDO_CompareClusterLists_0
    500            {
    501              for ( y = 0; y < numList2; y++ )
    502              {
    503                z = list2[y];
   \                     ??ZDO_CompareClusterLists_1:
   \   000023   A8..         MOV       R0,?V1
   \   000025   12....       LCALL     ?Subroutine175 & 0xFFFF
   \                     ??CrossCallReturnLabel_261:
   \   000028   EC           MOV       A,R4
   \   000029   28           ADD       A,R0
   \   00002A   F582         MOV       DPL,A
   \   00002C   ED           MOV       A,R5
   \   00002D   39           ADDC      A,R1
   \   00002E   12....       LCALL     ?Subroutine79 & 0xFFFF
    504                if ( list1[x] == z )
   \                     ??CrossCallReturnLabel_294:
   \   000031   EB           MOV       A,R3
   \   000032   12....       LCALL     ?Subroutine116 & 0xFFFF
   \                     ??CrossCallReturnLabel_172:
   \   000035   E5..         MOV       A,?V6
   \   000037   28           ADD       A,R0
   \   000038   F582         MOV       DPL,A
   \   00003A   E5..         MOV       A,?V7
   \   00003C   39           ADDC      A,R1
   \   00003D   F583         MOV       DPH,A
   \   00003F   E0           MOVX      A,@DPTR
   \   000040   65..         XRL       A,?V2
   \   000042   7004         JNZ       ??ZDO_CompareClusterLists_2
   \   000044   A3           INC       DPTR
   \   000045   E0           MOVX      A,@DPTR
   \   000046   65..         XRL       A,?V3
   \                     ??ZDO_CompareClusterLists_2:
   \   000048   7014         JNZ       ??ZDO_CompareClusterLists_3
    505                  pMatches[numMatches++] = z;
   \   00004A   EA           MOV       A,R2
   \   00004B   12....       LCALL     ?Subroutine116 & 0xFFFF
    506              }
   \                     ??CrossCallReturnLabel_173:
   \   00004E   EE           MOV       A,R6
   \   00004F   28           ADD       A,R0
   \   000050   F582         MOV       DPL,A
   \   000052   EF           MOV       A,R7
   \   000053   39           ADDC      A,R1
   \   000054   F583         MOV       DPH,A
   \   000056   E5..         MOV       A,?V2
   \   000058   F0           MOVX      @DPTR,A
   \   000059   A3           INC       DPTR
   \   00005A   E5..         MOV       A,?V3
   \   00005C   F0           MOVX      @DPTR,A
   \   00005D   0A           INC       R2
   \                     ??ZDO_CompareClusterLists_3:
   \   00005E   05..         INC       ?V1
   \                     ??ZDO_CompareClusterLists_4:
   \   000060   E5..         MOV       A,?V1
   \   000062   C3           CLR       C
   \   000063   95..         SUBB      A,?V4
   \   000065   40BC         JC        ??ZDO_CompareClusterLists_1
   \   000067   0B           INC       R3
   \                     ??ZDO_CompareClusterLists_0:
   \   000068   EB           MOV       A,R3
   \   000069   C3           CLR       C
   \   00006A   95..         SUBB      A,?V0
   \   00006C   5005         JNC       ??ZDO_CompareClusterLists_5
   \   00006E   75..00       MOV       ?V1,#0x0
   \   000071   80ED         SJMP      ??ZDO_CompareClusterLists_4
    507            }
    508          
    509            return ( numMatches );
   \                     ??ZDO_CompareClusterLists_5:
   \   000073   EA           MOV       A,R2
   \   000074   F9           MOV       R1,A
   \   000075   02....       LJMP      ??Subroutine210_0 & 0xFFFF
    510          }

   \                                 In  segment BANKED_CODE, align 1, keep-with-next
   \                     ?Subroutine79:
   \   000000   F583         MOV       DPH,A
   \   000002                REQUIRE ??Subroutine196_0
   \   000002                ; // Fall through to label ??Subroutine196_0

   \                                 In  segment BANKED_CODE, align 1, keep-with-next
   \                     ??Subroutine196_0:
   \   000000   E0           MOVX      A,@DPTR
   \   000001   F5..         MOV       ?V2,A
   \   000003   A3           INC       DPTR
   \   000004   E0           MOVX      A,@DPTR
   \   000005   F5..         MOV       ?V3,A
   \   000007   22           RET

   \                                 In  segment BANKED_CODE, align 1, keep-with-next
   \                     ?Subroutine116:
   \   000000   25E0         ADD       A,0xE0 /* A   */
   \   000002   F8           MOV       R0,A
   \   000003   E4           CLR       A
   \   000004   33           RLC       A
   \   000005   F9           MOV       R1,A
   \   000006   22           RET

   \                                 In  segment BANKED_CODE, align 1, keep-with-next
   \                     ?Subroutine169:
   \   000000   E0           MOVX      A,@DPTR
   \   000001   FC           MOV       R4,A
   \   000002   A3           INC       DPTR
   \   000003   E0           MOVX      A,@DPTR
   \   000004   FD           MOV       R5,A
   \   000005   22           RET

   \                                 In  segment BANKED_CODE, align 1, keep-with-next
   \                     ??Subroutine210_0:
   \   000000   7F08         MOV       R7,#0x8
   \   000002   02....       LJMP      ?BANKED_LEAVE_XDATA

   \                                 In  segment BANKED_CODE, align 1, keep-with-next
   \                     ?Subroutine175:
   \   000000   E8           MOV       A,R0
   \   000001   28           ADD       A,R0
   \   000002   F8           MOV       R0,A
   \   000003   E4           CLR       A
   \   000004   33           RLC       A
   \   000005   F9           MOV       R1,A
   \   000006   22           RET
    511          
    512          /*********************************************************************
    513           * Utility functions
    514           */
    515          
    516          /*********************************************************************
    517           * @fn          ZDO_CompareByteLists
    518           *
    519           * @brief       Compares two lists for matches.
    520           *
    521           * @param       ACnt  - number of entries in list A
    522           * @param       AList  - List A
    523           * @param       BCnt  - number of entries in list B
    524           * @param       BList  - List B
    525           *
    526           * @return      true if a match is found
    527           */

   \                                 In  segment BANKED_CODE, align 1, keep-with-next
    528          byte ZDO_AnyClusterMatches( byte ACnt, uint16 *AList, byte BCnt, uint16 *BList )
   \                     ZDO_AnyClusterMatches:
    529          {
   \   000000                REQUIRE ?V0
   \   000000                REQUIRE ?V1
   \   000000                REQUIRE ?V2
   \   000000                REQUIRE ?V3
   \   000000   74F4         MOV       A,#-0xc
   \   000002   12....       LCALL     ?BANKED_ENTER_XDATA
   \   000005                ; Saved register size: 12
   \   000005                ; Auto size: 0
   \   000005   E9           MOV       A,R1
   \   000006   FE           MOV       R6,A
   \   000007   8C..         MOV       ?V2,R4
    530            byte x, y;
    531          
    532            for ( x = 0; x < ACnt; x++ )
   \   000009   7F00         MOV       R7,#0x0
   \   00000B   740C         MOV       A,#0xc
   \   00000D   12....       LCALL     ?XSTACK_DISP0_8
   \   000010   12....       LCALL     ??Subroutine233_0 & 0xFFFF
   \                     ??CrossCallReturnLabel_458:
   \   000013   8001         SJMP      ??ZDO_AnyClusterMatches_0
   \                     ??ZDO_AnyClusterMatches_1:
   \   000015   0F           INC       R7
   \                     ??ZDO_AnyClusterMatches_0:
   \   000016   EF           MOV       A,R7
   \   000017   C3           CLR       C
   \   000018   9E           SUBB      A,R6
   \   000019   503C         JNC       ??ZDO_AnyClusterMatches_2
    533            {
    534              for ( y = 0; y < BCnt; y++ )
   \   00001B   75..00       MOV       ?V3,#0x0
   \   00001E   8002         SJMP      ??ZDO_AnyClusterMatches_3
   \                     ??ZDO_AnyClusterMatches_4:
   \   000020   05..         INC       ?V3
   \                     ??ZDO_AnyClusterMatches_3:
   \   000022   E5..         MOV       A,?V3
   \   000024   C3           CLR       C
   \   000025   95..         SUBB      A,?V2
   \   000027   50EC         JNC       ??ZDO_AnyClusterMatches_1
    535              {
    536                if ( AList[x] == BList[y] )
   \   000029   EF           MOV       A,R7
   \   00002A   12....       LCALL     ??Subroutine256_0 & 0xFFFF
   \                     ??CrossCallReturnLabel_626:
   \   00002D   EA           MOV       A,R2
   \   00002E   2C           ADD       A,R4
   \   00002F   F582         MOV       DPL,A
   \   000031   EB           MOV       A,R3
   \   000032   3D           ADDC      A,R5
   \   000033   12....       LCALL     ??Subroutine201_0 & 0xFFFF
   \                     ??CrossCallReturnLabel_311:
   \   000036   F5..         MOV       ?V1,A
   \   000038   AC..         MOV       R4,?V3
   \   00003A   EC           MOV       A,R4
   \   00003B   2C           ADD       A,R4
   \   00003C   FC           MOV       R4,A
   \   00003D   E4           CLR       A
   \   00003E   33           RLC       A
   \   00003F   FD           MOV       R5,A
   \   000040   E8           MOV       A,R0
   \   000041   2C           ADD       A,R4
   \   000042   F582         MOV       DPL,A
   \   000044   E9           MOV       A,R1
   \   000045   3D           ADDC      A,R5
   \   000046   F583         MOV       DPH,A
   \   000048   E0           MOVX      A,@DPTR
   \   000049   65..         XRL       A,?V0
   \   00004B   7004         JNZ       ??ZDO_AnyClusterMatches_5
   \   00004D   A3           INC       DPTR
   \   00004E   E0           MOVX      A,@DPTR
   \   00004F   65..         XRL       A,?V1
   \                     ??ZDO_AnyClusterMatches_5:
   \   000051   70CD         JNZ       ??ZDO_AnyClusterMatches_4
    537                {
    538                  return true;
   \   000053   7901         MOV       R1,#0x1
   \   000055   8002         SJMP      ??ZDO_AnyClusterMatches_6
    539                }
    540              }
    541            }
    542          
    543            return false;
   \                     ??ZDO_AnyClusterMatches_2:
   \   000057   7900         MOV       R1,#0x0
   \                     ??ZDO_AnyClusterMatches_6:
   \   000059   02....       LJMP      ?Subroutine1 & 0xFFFF
    544          }

   \                                 In  segment BANKED_CODE, align 1, keep-with-next
   \                     ??Subroutine201_0:
   \   000000   F583         MOV       DPH,A
   \   000002                REQUIRE ??Subroutine202_0
   \   000002                ; // Fall through to label ??Subroutine202_0

   \                                 In  segment BANKED_CODE, align 1, keep-with-next
   \                     ??Subroutine202_0:
   \   000000   E0           MOVX      A,@DPTR
   \   000001   F5..         MOV       ?V0,A
   \   000003   A3           INC       DPTR
   \   000004   E0           MOVX      A,@DPTR
   \   000005   22           RET

   \                                 In  segment BANKED_CODE, align 1, keep-with-next
   \                     ?Subroutine192:
   \   000000   E0           MOVX      A,@DPTR
   \   000001   F8           MOV       R0,A
   \   000002   A3           INC       DPTR
   \   000003   E0           MOVX      A,@DPTR
   \   000004   22           RET

   \                                 In  segment BANKED_CODE, align 1, keep-with-next
   \                     ??Subroutine230_0:
   \   000000   12....       LCALL     ?Subroutine192 & 0xFFFF
   \                     ??CrossCallReturnLabel_551:
   \   000003   F9           MOV       R1,A
   \   000004   22           RET

   \                                 In  segment BANKED_CODE, align 1, keep-with-next
   \                     ??Subroutine233_0:
   \   000000   12....       LCALL     ??Subroutine230_0 & 0xFFFF
   \                     ??CrossCallReturnLabel_474:
   \   000003   22           RET

   \                                 In  segment BANKED_CODE, align 1, keep-with-next
   \                     ??Subroutine256_0:
   \   000000   25E0         ADD       A,0xE0 /* A   */
   \   000002   FC           MOV       R4,A
   \   000003   E4           CLR       A
   \   000004   33           RLC       A
   \   000005   FD           MOV       R5,A
   \   000006   22           RET
    545          
    546          /*********************************************************************
    547           * Callback functions from ZDProfile
    548           */
    549          
    550          /*********************************************************************
    551           * @fn          ZDO_ProcessNodeDescReq
    552           *
    553           * @brief       This function processes and responds to the
    554           *              Node_Desc_req message.
    555           *
    556           * @param       inMsg - incoming message
    557           *
    558           * @return      none
    559           */

   \                                 In  segment BANKED_CODE, align 1, keep-with-next
    560          void ZDO_ProcessNodeDescReq( zdoIncomingMsg_t *inMsg ) 
   \                     ZDO_ProcessNodeDescReq:
    561          {
   \   000000                REQUIRE ?V0
   \   000000                REQUIRE ?V1
   \   000000   74F6         MOV       A,#-0xa
   \   000002   12....       LCALL     ?BANKED_ENTER_XDATA
   \   000005                ; Saved register size: 10
   \   000005                ; Auto size: 0
   \   000005   12....       LCALL     ?Subroutine50 & 0xFFFF
    562            uint16 aoi = BUILD_UINT16( inMsg->asdu[0], inMsg->asdu[1] );
    563            NodeDescriptorFormat_t *desc = NULL;
    564          
    565            if ( aoi == ZDAppNwkAddr.addr.shortAddr )
   \                     ??CrossCallReturnLabel_57:
   \   000008   7003         JNZ       ??ZDO_ProcessNodeDescReq_0
   \   00000A   A3           INC       DPTR
   \   00000B   E0           MOVX      A,@DPTR
   \   00000C   6D           XRL       A,R5
   \                     ??ZDO_ProcessNodeDescReq_0:
   \   00000D   7017         JNZ       ??ZDO_ProcessNodeDescReq_1
    566            {
    567              desc = &ZDO_Config_Node_Descriptor;
    568            }
    569          
    570            if ( desc != NULL )
    571            {
    572              ZDP_NodeDescMsg( inMsg, aoi, desc );
   \   00000F                ; Setup parameters for call to function ZDP_NodeDescMsg
   \   00000F   75....       MOV       ?V0,#ZDO_Config_Node_Descriptor & 0xff
   \   000012   75....       MOV       ?V1,#(ZDO_Config_Node_Descriptor >> 8) & 0xff
   \   000015   78..         MOV       R0,#?V0
   \   000017   12....       LCALL     ?PUSH_XSTACK_I_TWO
   \   00001A   EE           MOV       A,R6
   \   00001B   FA           MOV       R2,A
   \   00001C   12....       LCALL     `??ZDP_NodeDescMsg::?relay`; Banked call to: ZDP_NodeDescMsg
   \   00001F   7402         MOV       A,#0x2
   \   000021   12....       LCALL     ?DEALLOC_XSTACK8
   \   000024   801A         SJMP      ??ZDO_ProcessNodeDescReq_2
    573            }
    574            else
    575            {
    576              ZDP_GenericRsp( inMsg->TransSeq, &(inMsg->srcAddr), 
    577                        ZDP_INVALID_REQTYPE, aoi, Node_Desc_rsp, inMsg->SecurityUse );
   \                     ??ZDO_ProcessNodeDescReq_1:
   \   000026                ; Setup parameters for call to function ZDP_GenericRsp
   \   000026   75..02       MOV       ?V0,#0x2
   \   000029   75..80       MOV       ?V1,#-0x80
   \   00002C   78..         MOV       R0,#?V0
   \   00002E   12....       LCALL     ?PUSH_XSTACK_I_TWO
   \   000031   8A..         MOV       ?V0,R2
   \   000033   89..         MOV       ?V1,R1
   \   000035   78..         MOV       R0,#?V0
   \   000037   12....       LCALL     ?PUSH_XSTACK_I_TWO
   \   00003A   12....       LCALL     ?Subroutine51 & 0xFFFF
    578            }
   \                     ??CrossCallReturnLabel_59:
   \   00003D   12....       LCALL     ?DEALLOC_XSTACK8
    579          }
   \                     ??ZDO_ProcessNodeDescReq_2:
   \   000040   80..         SJMP      ??Subroutine198_0

   \                                 In  segment BANKED_CODE, align 1, keep-with-next
   \                     ?Subroutine51:
   \   000000   EE           MOV       A,R6
   \   000001   240E         ADD       A,#0xe
   \   000003   12....       LCALL     ?Subroutine177 & 0xFFFF
   \                     ??CrossCallReturnLabel_306:
   \   000006   FD           MOV       R5,A
   \   000007   7C80         MOV       R4,#-0x80
   \   000009   12....       LCALL     ?Subroutine178 & 0xFFFF
   \                     ??CrossCallReturnLabel_267:
   \   00000C   EE           MOV       A,R6
   \   00000D   240F         ADD       A,#0xf
   \   00000F   12....       LCALL     ?Subroutine177 & 0xFFFF
   \                     ??CrossCallReturnLabel_307:
   \   000012   F9           MOV       R1,A
   \   000013   12....       LCALL     `??ZDP_GenericRsp::?relay`; Banked call to: ZDP_GenericRsp
   \   000016   7404         MOV       A,#0x4
   \   000018   22           RET

   \                                 In  segment BANKED_CODE, align 1, keep-with-next
   \                     ?Subroutine50:
   \   000000   12....       LCALL     ?Subroutine182 & 0xFFFF
   \                     ??CrossCallReturnLabel_370:
   \   000003   3F           ADDC      A,R7
   \   000004   12....       LCALL     ?Subroutine159 & 0xFFFF
   \                     ??CrossCallReturnLabel_249:
   \   000007   FC           MOV       R4,A
   \   000008   E4           CLR       A
   \   000009   39           ADDC      A,R1
   \   00000A   FD           MOV       R5,A
   \   00000B   90....       MOV       DPTR,#ZDAppNwkAddr
   \   00000E   E0           MOVX      A,@DPTR
   \   00000F   6C           XRL       A,R4
   \   000010   22           RET

   \                                 In  segment BANKED_CODE, align 1, keep-with-next
   \                     ??Subroutine198_0:
   \   000000   7F02         MOV       R7,#0x2
   \   000002   02....       LJMP      ?BANKED_LEAVE_XDATA

   \                                 In  segment BANKED_CODE, align 1, keep-with-next
   \                     ?Subroutine177:
   \   000000   F582         MOV       DPL,A
   \   000002   E4           CLR       A
   \   000003                REQUIRE ??Subroutine200_0
   \   000003                ; // Fall through to label ??Subroutine200_0

   \                                 In  segment BANKED_CODE, align 1, keep-with-next
   \                     ??Subroutine200_0:
   \   000000   3F           ADDC      A,R7
   \   000001   F583         MOV       DPH,A
   \   000003   E0           MOVX      A,@DPTR
   \   000004   22           RET

   \                                 In  segment BANKED_CODE, align 1, keep-with-next
   \                     ?Subroutine178:
   \   000000   EE           MOV       A,R6
   \   000001   2402         ADD       A,#0x2
   \   000003   FA           MOV       R2,A
   \   000004   E4           CLR       A
   \   000005   3F           ADDC      A,R7
   \   000006   FB           MOV       R3,A
   \   000007   22           RET

   \                                 In  segment BANKED_CODE, align 1, keep-with-next
   \                     ?Subroutine191:
   \   000000   E0           MOVX      A,@DPTR
   \   000001   F8           MOV       R0,A
   \   000002   A3           INC       DPTR
   \   000003   E0           MOVX      A,@DPTR
   \   000004   8882         MOV       DPL,R0
   \   000006   F583         MOV       DPH,A
   \   000008   22           RET

   \                                 In  segment BANKED_CODE, align 1, keep-with-next
   \                     ?Subroutine182:
   \   000000   EA           MOV       A,R2
   \   000001   FE           MOV       R6,A
   \   000002   EB           MOV       A,R3
   \   000003   FF           MOV       R7,A
   \   000004                REQUIRE ??Subroutine213_0
   \   000004                ; // Fall through to label ??Subroutine213_0

   \                                 In  segment BANKED_CODE, align 1, keep-with-next
   \                     ??Subroutine213_0:
   \   000000   EA           MOV       A,R2
   \   000001                REQUIRE ??Subroutine214_0
   \   000001                ; // Fall through to label ??Subroutine214_0

   \                                 In  segment BANKED_CODE, align 1, keep-with-next
   \                     ??Subroutine214_0:
   \   000000   2413         ADD       A,#0x13
   \   000002   F582         MOV       DPL,A
   \   000004   E4           CLR       A
   \   000005   22           RET

   \                                 In  segment BANKED_CODE, align 1, keep-with-next
   \                     ?Subroutine159:
   \   000000   F583         MOV       DPH,A
   \   000002   12....       LCALL     ?Subroutine191 & 0xFFFF
   \                     ??CrossCallReturnLabel_285:
   \   000005   E0           MOVX      A,@DPTR
   \   000006   FA           MOV       R2,A
   \   000007   A3           INC       DPTR
   \   000008   E0           MOVX      A,@DPTR
   \   000009   F8           MOV       R0,A
   \   00000A   E4           CLR       A
   \   00000B   C8           XCH       A,R0
   \   00000C   F9           MOV       R1,A
   \   00000D   EA           MOV       A,R2
   \   00000E   28           ADD       A,R0
   \   00000F   22           RET
    580          
    581          /*********************************************************************
    582           * @fn          ZDO_ProcessPowerDescReq
    583           *
    584           * @brief       This function processes and responds to the
    585           *              Node_Power_req message.
    586           *
    587           * @param       inMsg  - incoming request
    588           *
    589           * @return      none
    590           */

   \                                 In  segment BANKED_CODE, align 1, keep-with-next
    591          void ZDO_ProcessPowerDescReq( zdoIncomingMsg_t *inMsg )
   \                     ZDO_ProcessPowerDescReq:
    592          {
   \   000000                REQUIRE ?V0
   \   000000                REQUIRE ?V1
   \   000000   74F6         MOV       A,#-0xa
   \   000002   12....       LCALL     ?BANKED_ENTER_XDATA
   \   000005                ; Saved register size: 10
   \   000005                ; Auto size: 0
   \   000005   12....       LCALL     ?Subroutine50 & 0xFFFF
    593            uint16 aoi = BUILD_UINT16( inMsg->asdu[0], inMsg->asdu[1] );
    594            NodePowerDescriptorFormat_t *desc = NULL;
    595          
    596            if ( aoi == ZDAppNwkAddr.addr.shortAddr )
   \                     ??CrossCallReturnLabel_58:
   \   000008   7003         JNZ       ??ZDO_ProcessPowerDescReq_0
   \   00000A   A3           INC       DPTR
   \   00000B   E0           MOVX      A,@DPTR
   \   00000C   6D           XRL       A,R5
   \                     ??ZDO_ProcessPowerDescReq_0:
   \   00000D   7017         JNZ       ??ZDO_ProcessPowerDescReq_1
    597            {
    598              desc = &ZDO_Config_Power_Descriptor;
    599            }
    600          
    601            if ( desc != NULL )
    602            {
    603              ZDP_PowerDescMsg( inMsg, aoi, desc );
   \   00000F                ; Setup parameters for call to function ZDP_PowerDescMsg
   \   00000F   75....       MOV       ?V0,#ZDO_Config_Power_Descriptor & 0xff
   \   000012   75....       MOV       ?V1,#(ZDO_Config_Power_Descriptor >> 8) & 0xff
   \   000015   78..         MOV       R0,#?V0
   \   000017   12....       LCALL     ?PUSH_XSTACK_I_TWO
   \   00001A   EE           MOV       A,R6
   \   00001B   FA           MOV       R2,A
   \   00001C   12....       LCALL     `??ZDP_PowerDescMsg::?relay`; Banked call to: ZDP_PowerDescMsg
   \   00001F   7402         MOV       A,#0x2
   \   000021   12....       LCALL     ?DEALLOC_XSTACK8
   \   000024   801A         SJMP      ??ZDO_ProcessPowerDescReq_2
    604            }
    605            else
    606            {
    607              ZDP_GenericRsp( inMsg->TransSeq, &(inMsg->srcAddr), 
    608                        ZDP_INVALID_REQTYPE, aoi, Power_Desc_rsp, inMsg->SecurityUse );
   \                     ??ZDO_ProcessPowerDescReq_1:
   \   000026                ; Setup parameters for call to function ZDP_GenericRsp
   \   000026   75..03       MOV       ?V0,#0x3
   \   000029   75..80       MOV       ?V1,#-0x80
   \   00002C   78..         MOV       R0,#?V0
   \   00002E   12....       LCALL     ?PUSH_XSTACK_I_TWO
   \   000031   8A..         MOV       ?V0,R2
   \   000033   89..         MOV       ?V1,R1
   \   000035   78..         MOV       R0,#?V0
   \   000037   12....       LCALL     ?PUSH_XSTACK_I_TWO
   \   00003A   12....       LCALL     ?Subroutine51 & 0xFFFF
    609            }
   \                     ??CrossCallReturnLabel_60:
   \   00003D   12....       LCALL     ?DEALLOC_XSTACK8
    610          }
   \                     ??ZDO_ProcessPowerDescReq_2:
   \   000040   80..         SJMP      ??Subroutine198_0
    611          
    612          /*********************************************************************
    613           * @fn          ZDO_ProcessSimpleDescReq
    614           *
    615           * @brief       This function processes and responds to the
    616           *              Simple_Desc_req message.
    617           *
    618           * @param       inMsg - incoming message (request)
    619           *
    620           * @return      none
    621           */

   \                                 In  segment BANKED_CODE, align 1, keep-with-next
   \                     ?Subroutine3:
   \   000000   7402         MOV       A,#0x2
   \   000002                REQUIRE ??Subroutine197_0
   \   000002                ; // Fall through to label ??Subroutine197_0

   \                                 In  segment BANKED_CODE, align 1, keep-with-next
   \                     ??Subroutine197_0:
   \   000000   12....       LCALL     ?DEALLOC_XSTACK8
   \   000003                REQUIRE ??Subroutine198_0
   \   000003                ; // Fall through to label ??Subroutine198_0

   \                                 In  segment BANKED_CODE, align 1, keep-with-next
    622          void ZDO_ProcessSimpleDescReq( zdoIncomingMsg_t *inMsg )
   \                     ZDO_ProcessSimpleDescReq:
    623          {
   \   000000                REQUIRE ?V0
   \   000000                REQUIRE ?V1
   \   000000   74F6         MOV       A,#-0xa
   \   000002   12....       LCALL     ?BANKED_ENTER_XDATA
   \   000005                ; Saved register size: 10
   \   000005                ; Auto size: 2
   \   000005   74FE         MOV       A,#-0x2
   \   000007   12....       LCALL     ?ALLOC_XSTACK8
   \   00000A   EA           MOV       A,R2
   \   00000B   FE           MOV       R6,A
   \   00000C   EB           MOV       A,R3
   \   00000D   FF           MOV       R7,A
    624            SimpleDescriptionFormat_t *sDesc = NULL;
   \   00000E   85..82       MOV       DPL,?XSP + 0
   \   000011   85..83       MOV       DPH,?XSP + 1
   \   000014   E4           CLR       A
   \   000015   F0           MOVX      @DPTR,A
   \   000016   A3           INC       DPTR
   \   000017   F0           MOVX      @DPTR,A
    625            uint16 aoi = BUILD_UINT16( inMsg->asdu[0], inMsg->asdu[1] );
   \   000018   12....       LCALL     ?Subroutine123 & 0xFFFF
   \                     ??CrossCallReturnLabel_183:
   \   00001B   3F           ADDC      A,R7
   \   00001C   12....       LCALL     ?Subroutine71 & 0xFFFF
   \                     ??CrossCallReturnLabel_95:
   \   00001F   FB           MOV       R3,A
   \   000020   EC           MOV       A,R4
   \   000021   FA           MOV       R2,A
    626            byte endPoint = inMsg->asdu[2];
   \   000022   8882         MOV       DPL,R0
   \   000024   8983         MOV       DPH,R1
   \   000026   A3           INC       DPTR
   \   000027   A3           INC       DPTR
   \   000028   E0           MOVX      A,@DPTR
   \   000029   F9           MOV       R1,A
    627            byte free = false;
   \   00002A   75..00       MOV       ?V1,#0x0
    628            byte stat = ZDP_SUCCESS;
   \   00002D   75..00       MOV       ?V0,#0x0
    629          
    630            if ( (endPoint == ZDO_EP) || (endPoint > MAX_ENDPOINTS) )
   \   000030   6005         JZ        ??ZDO_ProcessSimpleDescReq_0
   \   000032   C3           CLR       C
   \   000033   94F1         SUBB      A,#-0xf
   \   000035   4005         JC        ??ZDO_ProcessSimpleDescReq_1
    631            {
    632              stat = ZDP_INVALID_EP;
   \                     ??ZDO_ProcessSimpleDescReq_0:
   \   000037   75..82       MOV       ?V0,#-0x7e
   \   00003A   8024         SJMP      ??ZDO_ProcessSimpleDescReq_2
    633            }
    634            else if ( aoi == ZDAppNwkAddr.addr.shortAddr )
   \                     ??ZDO_ProcessSimpleDescReq_1:
   \   00003C   90....       MOV       DPTR,#ZDAppNwkAddr
   \   00003F   E0           MOVX      A,@DPTR
   \   000040   6A           XRL       A,R2
   \   000041   7003         JNZ       ??ZDO_ProcessSimpleDescReq_3
   \   000043   A3           INC       DPTR
   \   000044   E0           MOVX      A,@DPTR
   \   000045   6B           XRL       A,R3
   \                     ??ZDO_ProcessSimpleDescReq_3:
   \   000046   7015         JNZ       ??ZDO_ProcessSimpleDescReq_4
    635            {
    636              free = afFindSimpleDesc( &sDesc, endPoint );
   \   000048                ; Setup parameters for call to function afFindSimpleDesc
   \   000048   AA..         MOV       R2,?XSP + 0
   \   00004A   AB..         MOV       R3,?XSP + 1
   \   00004C   12....       LCALL     `??afFindSimpleDesc::?relay`; Banked call to: afFindSimpleDesc
   \   00004F   E9           MOV       A,R1
   \   000050   FA           MOV       R2,A
    637              if ( sDesc == NULL )
   \   000051   12....       LCALL     ?Subroutine45 & 0xFFFF
   \                     ??CrossCallReturnLabel_404:
   \   000054   7003         JNZ       ??ZDO_ProcessSimpleDescReq_5
    638              {
    639                stat = ZDP_NOT_ACTIVE;
   \   000056   75..83       MOV       ?V0,#-0x7d
   \                     ??ZDO_ProcessSimpleDescReq_5:
   \   000059   8A..         MOV       ?V1,R2
   \   00005B   8003         SJMP      ??ZDO_ProcessSimpleDescReq_2
    640              }
    641            }
    642            else
    643            {
    644              if ( ZSTACK_ROUTER_BUILD )
    645              {
    646                stat = ZDP_DEVICE_NOT_FOUND;
   \                     ??ZDO_ProcessSimpleDescReq_4:
   \   00005D   75..81       MOV       ?V0,#-0x7f
    647              }
    648              else if ( ZSTACK_END_DEVICE_BUILD )
    649              {
    650                stat = ZDP_INVALID_REQTYPE;
    651              }
    652            }
    653          
    654            ZDP_SimpleDescMsg( inMsg, stat, sDesc );
   \                     ??ZDO_ProcessSimpleDescReq_2:
   \   000060                ; Setup parameters for call to function ZDP_SimpleDescMsg
   \   000060   85..82       MOV       DPL,?XSP + 0
   \   000063   85..83       MOV       DPH,?XSP + 1
   \   000066   12....       LCALL     ?Subroutine169 & 0xFFFF
   \                     ??CrossCallReturnLabel_256:
   \   000069   A9..         MOV       R1,?V0
   \   00006B   EE           MOV       A,R6
   \   00006C   FA           MOV       R2,A
   \   00006D   EF           MOV       A,R7
   \   00006E   FB           MOV       R3,A
   \   00006F   12....       LCALL     `??ZDP_SimpleDescMsg::?relay`; Banked call to: ZDP_SimpleDescMsg
    655          
    656            if ( free && sDesc )
   \   000072   E5..         MOV       A,?V1
   \   000074   6008         JZ        ??CrossCallReturnLabel_318
   \   000076   12....       LCALL     ?Subroutine45 & 0xFFFF
   \                     ??CrossCallReturnLabel_405:
   \   000079   6003         JZ        ??CrossCallReturnLabel_318
    657            {
    658              osal_mem_free( sDesc );
   \   00007B                ; Setup parameters for call to function osal_mem_free
   \   00007B   12....       LCALL     ?Subroutine47 & 0xFFFF
    659            }
    660          }
   \                     ??CrossCallReturnLabel_318:
   \   00007E   02....       LJMP      ?Subroutine3 & 0xFFFF

   \                                 In  segment BANKED_CODE, align 1, keep-with-next
   \                     ?Subroutine47:
   \   000000   85..82       MOV       DPL,?XSP + 0
   \   000003   85..83       MOV       DPH,?XSP + 1
   \   000006                REQUIRE ??Subroutine205_0
   \   000006                ; // Fall through to label ??Subroutine205_0

   \                                 In  segment BANKED_CODE, align 1, keep-with-next
   \                     ??Subroutine205_0:
   \   000000   12....       LCALL     ?Subroutine161 & 0xFFFF
   \                     ??CrossCallReturnLabel_429:
   \   000003   12....       LCALL     `??osal_mem_free::?relay`; Banked call to: osal_mem_free
   \   000006   22           RET

   \                                 In  segment BANKED_CODE, align 1, keep-with-next
   \                     ?Subroutine123:
   \   000000   12....       LCALL     ??Subroutine213_0 & 0xFFFF
   \                     ??CrossCallReturnLabel_375:
   \   000003   22           RET

   \                                 In  segment BANKED_CODE, align 1, keep-with-next
   \                     ?Subroutine71:
   \   000000   12....       LCALL     ?Subroutine165 & 0xFFFF
   \                     ??CrossCallReturnLabel_471:
   \   000003   8882         MOV       DPL,R0
   \   000005   F583         MOV       DPH,A
   \   000007   E0           MOVX      A,@DPTR
   \   000008   FC           MOV       R4,A
   \   000009   A3           INC       DPTR
   \   00000A   E0           MOVX      A,@DPTR
   \   00000B   22           RET

   \                                 In  segment BANKED_CODE, align 1, keep-with-next
   \                     ?Subroutine45:
   \   000000   85..82       MOV       DPL,?XSP + 0
   \   000003   85..83       MOV       DPH,?XSP + 1
   \   000006                REQUIRE ??Subroutine221_0
   \   000006                ; // Fall through to label ??Subroutine221_0

   \                                 In  segment BANKED_CODE, align 1, keep-with-next
   \                     ??Subroutine221_0:
   \   000000   12....       LCALL     ??Subroutine230_0 & 0xFFFF
   \                     ??CrossCallReturnLabel_473:
   \   000003   E8           MOV       A,R0
   \   000004   49           ORL       A,R1
   \   000005   22           RET

   \                                 In  segment BANKED_CODE, align 1, keep-with-next
   \                     ?Subroutine165:
   \   000000   F583         MOV       DPH,A
   \   000002                REQUIRE ??Subroutine230_0
   \   000002                ; // Fall through to label ??Subroutine230_0
    661          
    662          /*********************************************************************
    663           * @fn          ZDO_ProcessActiveEPReq
    664           *
    665           * @brief       This function processes and responds to the
    666           *              Active_EP_req message.
    667           *
    668           * @param       inMsg  - incoming message (request)
    669           *
    670           * @return      none
    671           */

   \                                 In  segment BANKED_CODE, align 1, keep-with-next
    672          void ZDO_ProcessActiveEPReq( zdoIncomingMsg_t *inMsg )
   \                     ZDO_ProcessActiveEPReq:
    673          {
   \   000000                REQUIRE ?V0
   \   000000                REQUIRE ?V1
   \   000000                REQUIRE ?V2
   \   000000                REQUIRE ?V3
   \   000000                REQUIRE ?V4
   \   000000                REQUIRE ?V5
   \   000000   74F2         MOV       A,#-0xe
   \   000002   12....       LCALL     ?BANKED_ENTER_XDATA
   \   000005                ; Saved register size: 14
   \   000005                ; Auto size: 0
   \   000005   8A..         MOV       ?V4,R2
   \   000007   8B..         MOV       ?V5,R3
    674            byte cnt = 0;
   \   000009   75..00       MOV       ?V0,#0x0
    675            uint16 aoi;
    676            byte stat = ZDP_SUCCESS;
   \   00000C   75..00       MOV       ?V1,#0x0
    677          
    678            aoi = BUILD_UINT16( inMsg->asdu[0], inMsg->asdu[1] );
   \   00000F   12....       LCALL     ?Subroutine123 & 0xFFFF
   \                     ??CrossCallReturnLabel_184:
   \   000012   35..         ADDC      A,?V5
   \   000014   12....       LCALL     ?Subroutine54 & 0xFFFF
    679          
    680            if ( aoi == NLME_GetShortAddr() )
   \                     ??CrossCallReturnLabel_65:
   \   000017                ; Setup parameters for call to function NLME_GetShortAddr
   \   000017   12....       LCALL     `??NLME_GetShortAddr::?relay`; Banked call to: NLME_GetShortAddr
   \   00001A   EA           MOV       A,R2
   \   00001B   6E           XRL       A,R6
   \   00001C   7002         JNZ       ??ZDO_ProcessActiveEPReq_0
   \   00001E   EB           MOV       A,R3
   \   00001F   6F           XRL       A,R7
   \                     ??ZDO_ProcessActiveEPReq_0:
   \   000020   7012         JNZ       ??ZDO_ProcessActiveEPReq_1
    681            {
    682              cnt = afNumEndPoints() - 1;  // -1 for ZDO endpoint descriptor
   \   000022                ; Setup parameters for call to function afNumEndPoints
   \   000022   12....       LCALL     `??afNumEndPoints::?relay`; Banked call to: afNumEndPoints
   \   000025   E9           MOV       A,R1
   \   000026   14           DEC       A
   \   000027   F5..         MOV       ?V0,A
    683              afEndPoints( (uint8 *)ZDOBuildBuf, true );
   \   000029                ; Setup parameters for call to function afEndPoints
   \   000029   7901         MOV       R1,#0x1
   \   00002B   7A..         MOV       R2,#ZDOBuildBuf & 0xff
   \   00002D   7B..         MOV       R3,#(ZDOBuildBuf >> 8) & 0xff
   \   00002F   12....       LCALL     `??afEndPoints::?relay`; Banked call to: afEndPoints
   \   000032   8003         SJMP      ??ZDO_ProcessActiveEPReq_2
    684            }
    685            else
    686            {
    687              stat = ZDP_INVALID_REQTYPE;
   \                     ??ZDO_ProcessActiveEPReq_1:
   \   000034   75..80       MOV       ?V1,#-0x80
    688            }
    689          
    690            ZDP_ActiveEPRsp( inMsg->TransSeq, &(inMsg->srcAddr), stat, 
    691                            aoi, cnt, (uint8 *)ZDOBuildBuf, inMsg->SecurityUse );
   \                     ??ZDO_ProcessActiveEPReq_2:
   \   000037                ; Setup parameters for call to function ZDP_EPRsp
   \   000037   12....       LCALL     ?Subroutine125 & 0xFFFF
   \                     ??CrossCallReturnLabel_456:
   \   00003A   12....       LCALL     ??Subroutine226_0 & 0xFFFF
   \                     ??CrossCallReturnLabel_432:
   \   00003D   F5..         MOV       ?V2,A
   \   00003F   78..         MOV       R0,#?V2
   \   000041   12....       LCALL     ?PUSH_XSTACK_I_ONE
   \   000044   75....       MOV       ?V2,#ZDOBuildBuf & 0xff
   \   000047   75....       MOV       ?V3,#(ZDOBuildBuf >> 8) & 0xff
   \   00004A   78..         MOV       R0,#?V2
   \   00004C   12....       LCALL     ?PUSH_XSTACK_I_TWO
   \   00004F   78..         MOV       R0,#?V0
   \   000051   12....       LCALL     ?PUSH_XSTACK_I_ONE
   \   000054   8E..         MOV       ?V2,R6
   \   000056   8F..         MOV       ?V3,R7
   \   000058   78..         MOV       R0,#?V2
   \   00005A   12....       LCALL     ?PUSH_XSTACK_I_TWO
   \   00005D   E5..         MOV       A,?V1
   \   00005F   F5..         MOV       ?V0,A
   \   000061   78..         MOV       R0,#?V0
   \   000063   12....       LCALL     ?PUSH_XSTACK_I_ONE
   \   000066   12....       LCALL     ?Subroutine128 & 0xFFFF
   \                     ??CrossCallReturnLabel_196:
   \   000069   12....       LCALL     ?Subroutine131 & 0xFFFF
   \                     ??CrossCallReturnLabel_433:
   \   00006C   F9           MOV       R1,A
   \   00006D   7A05         MOV       R2,#0x5
   \   00006F   7B80         MOV       R3,#-0x80
   \   000071   12....       LCALL     `??ZDP_EPRsp::?relay`; Banked call to: ZDP_EPRsp
   \   000074   7407         MOV       A,#0x7
   \   000076   02....       LJMP      ?Subroutine4 & 0xFFFF
    692          }

   \                                 In  segment BANKED_CODE, align 1, keep-with-next
   \                     ?Subroutine54:
   \   000000   12....       LCALL     ?Subroutine159 & 0xFFFF
   \                     ??CrossCallReturnLabel_250:
   \   000003   FE           MOV       R6,A
   \   000004   E4           CLR       A
   \   000005   39           ADDC      A,R1
   \   000006   FF           MOV       R7,A
   \   000007   22           RET

   \                                 In  segment BANKED_CODE, align 1, keep-with-next
   \                     ?Subroutine128:
   \   000000   E5..         MOV       A,?V4
   \   000002   2402         ADD       A,#0x2
   \   000004   FC           MOV       R4,A
   \   000005   E4           CLR       A
   \   000006   35..         ADDC      A,?V5
   \   000008   FD           MOV       R5,A
   \   000009   E5..         MOV       A,?V4
   \   00000B   240F         ADD       A,#0xf
   \   00000D   22           RET

   \                                 In  segment BANKED_CODE, align 1, keep-with-next
   \                     ?Subroutine4:
   \   000000   12....       LCALL     ?DEALLOC_XSTACK8
   \   000003                REQUIRE ??Subroutine218_0
   \   000003                ; // Fall through to label ??Subroutine218_0

   \                                 In  segment BANKED_CODE, align 1, keep-with-next
   \                     ??Subroutine218_0:
   \   000000   7F06         MOV       R7,#0x6
   \   000002   02....       LJMP      ?BANKED_LEAVE_XDATA

   \                                 In  segment BANKED_CODE, align 1, keep-with-next
   \                     ?Subroutine131:
   \   000000   F582         MOV       DPL,A
   \   000002   E4           CLR       A
   \   000003                REQUIRE ??Subroutine226_0
   \   000003                ; // Fall through to label ??Subroutine226_0

   \                                 In  segment BANKED_CODE, align 1, keep-with-next
   \                     ??Subroutine226_0:
   \   000000   35..         ADDC      A,?V5
   \   000002   F583         MOV       DPH,A
   \   000004   E0           MOVX      A,@DPTR
   \   000005   22           RET

   \                                 In  segment BANKED_CODE, align 1, keep-with-next
   \                     ?Subroutine125:
   \   000000   E5..         MOV       A,?V4
   \   000002                REQUIRE ??Subroutine232_0
   \   000002                ; // Fall through to label ??Subroutine232_0

   \                                 In  segment BANKED_CODE, align 1, keep-with-next
   \                     ??Subroutine232_0:
   \   000000   240E         ADD       A,#0xe
   \   000002   F582         MOV       DPL,A
   \   000004   E4           CLR       A
   \   000005   22           RET
    693          
    694          /*********************************************************************
    695           * @fn          ZDO_ConvertOTAClusters
    696           *
    697           * @brief       This function will convert the over-the-air cluster list
    698           *              format to an internal format.
    699           *
    700           * @param       inMsg  - incoming message (request)
    701           *
    702           * @return      pointer to incremented inBuf
    703           */

   \                                 In  segment BANKED_CODE, align 1, keep-with-next
    704          uint8 *ZDO_ConvertOTAClusters( uint8 cnt, uint8 *inBuf, uint16 *outList )
   \                     ZDO_ConvertOTAClusters:
    705          {
   \   000000                REQUIRE ?V0
   \   000000                REQUIRE ?V1
   \   000000   74F6         MOV       A,#-0xa
   \   000002   12....       LCALL     ?BANKED_ENTER_XDATA
   \   000005                ; Saved register size: 10
   \   000005                ; Auto size: 0
   \   000005   E9           MOV       A,R1
   \   000006   FF           MOV       R7,A
    706            uint8 x;
    707            
    708            for ( x = 0; x < cnt; x++ ) 
   \   000007   7E00         MOV       R6,#0x0
   \   000009   802D         SJMP      ??ZDO_ConvertOTAClusters_0
    709            {
    710              // convert ota format to internal
    711              outList[x] = BUILD_UINT16( inBuf[0], inBuf[1] );
   \                     ??ZDO_ConvertOTAClusters_1:
   \   00000B   8A82         MOV       DPL,R2
   \   00000D   8B83         MOV       DPH,R3
   \   00000F   12....       LCALL     ??Subroutine202_0 & 0xFFFF
   \                     ??CrossCallReturnLabel_309:
   \   000012   F8           MOV       R0,A
   \   000013   E4           CLR       A
   \   000014   C8           XCH       A,R0
   \   000015   F9           MOV       R1,A
   \   000016   E5..         MOV       A,?V0
   \   000018   28           ADD       A,R0
   \   000019   E4           CLR       A
   \   00001A   39           ADDC      A,R1
   \   00001B   F5..         MOV       ?V1,A
   \   00001D   EE           MOV       A,R6
   \   00001E   12....       LCALL     ?Subroutine116 & 0xFFFF
   \                     ??CrossCallReturnLabel_174:
   \   000021   EC           MOV       A,R4
   \   000022   28           ADD       A,R0
   \   000023   F582         MOV       DPL,A
   \   000025   ED           MOV       A,R5
   \   000026   39           ADDC      A,R1
   \   000027   F583         MOV       DPH,A
   \   000029   E5..         MOV       A,?V0
   \   00002B   F0           MOVX      @DPTR,A
   \   00002C   A3           INC       DPTR
   \   00002D   E5..         MOV       A,?V1
   \   00002F   F0           MOVX      @DPTR,A
    712              inBuf += sizeof( uint16 );
   \   000030   EA           MOV       A,R2
   \   000031   2402         ADD       A,#0x2
   \   000033   FA           MOV       R2,A
   \   000034   5001         JNC       ??ZDO_ConvertOTAClusters_2
   \   000036   0B           INC       R3
    713            }
   \                     ??ZDO_ConvertOTAClusters_2:
   \   000037   0E           INC       R6
   \                     ??ZDO_ConvertOTAClusters_0:
   \   000038   EE           MOV       A,R6
   \   000039   C3           CLR       C
   \   00003A   9F           SUBB      A,R7
   \   00003B   40CE         JC        ??ZDO_ConvertOTAClusters_1
    714            return ( inBuf );
   \   00003D   02....       LJMP      ??Subroutine198_0 & 0xFFFF
    715          }
    716          
    717          /*********************************************************************
    718           * @fn          ZDO_ProcessMatchDescReq
    719           *
    720           * @brief       This function processes and responds to the
    721           *              Match_Desc_req message.
    722           *
    723           * @param       inMsg  - incoming message (request)
    724           *
    725           * @return      none
    726           */

   \                                 In  segment BANKED_CODE, align 1, keep-with-next
    727          void ZDO_ProcessMatchDescReq( zdoIncomingMsg_t *inMsg )
   \                     ZDO_ProcessMatchDescReq:
    728          {
   \   000000                REQUIRE ?V0
   \   000000                REQUIRE ?V1
   \   000000                REQUIRE ?V2
   \   000000                REQUIRE ?V3
   \   000000                REQUIRE ?V4
   \   000000                REQUIRE ?V5
   \   000000                REQUIRE ?V6
   \   000000                REQUIRE ?V7
   \   000000   74F0         MOV       A,#-0x10
   \   000002   12....       LCALL     ?BANKED_ENTER_XDATA
   \   000005                ; Saved register size: 16
   \   000005                ; Auto size: 11
   \   000005   74F5         MOV       A,#-0xb
   \   000007   12....       LCALL     ?ALLOC_XSTACK8
   \   00000A   7403         MOV       A,#0x3
   \   00000C   12....       LCALL     ?XSTACK_DISP0_8
   \   00000F   12....       LCALL     ??Subroutine206_0 & 0xFFFF
    729            uint8 epCnt = 0;
   \                     ??CrossCallReturnLabel_328:
   \   000012   7402         MOV       A,#0x2
   \   000014   12....       LCALL     ?XSTACK_DISP0_8
   \   000017   E4           CLR       A
   \   000018   F0           MOVX      @DPTR,A
    730            uint8 numInClusters;
    731            uint16 *inClusters = NULL;
   \   000019   7409         MOV       A,#0x9
   \   00001B   12....       LCALL     ?XSTACK_DISP0_8
   \   00001E   E4           CLR       A
   \   00001F   F0           MOVX      @DPTR,A
   \   000020   A3           INC       DPTR
   \   000021   F0           MOVX      @DPTR,A
    732            uint8 numOutClusters;
    733            uint16 *outClusters = NULL;
   \   000022   7407         MOV       A,#0x7
   \   000024   12....       LCALL     ?XSTACK_DISP0_8
   \   000027   E4           CLR       A
   \   000028   F0           MOVX      @DPTR,A
   \   000029   A3           INC       DPTR
   \   00002A   F0           MOVX      @DPTR,A
    734            epList_t *epDesc;
    735            SimpleDescriptionFormat_t *sDesc = NULL;
    736            uint8 allocated;
    737            uint8 *msg;
    738            uint16 aoi;
    739            uint16 profileID;
    740          
    741            // Parse the incoming message
    742            msg = inMsg->asdu;
   \   00002B   7403         MOV       A,#0x3
   \   00002D   12....       LCALL     ?XSTACK_DISP0_8
   \   000030   12....       LCALL     ?Subroutine80 & 0xFFFF
   \                     ??CrossCallReturnLabel_110:
   \   000033   12....       LCALL     ?Subroutine79 & 0xFFFF
    743            aoi = BUILD_UINT16( msg[0], msg[1] );
   \                     ??CrossCallReturnLabel_295:
   \   000036   85..82       MOV       DPL,?V2
   \   000039   F583         MOV       DPH,A
   \   00003B   12....       LCALL     ?Subroutine94 & 0xFFFF
   \                     ??CrossCallReturnLabel_132:
   \   00003E   28           ADD       A,R0
   \   00003F   F5..         MOV       ?V0,A
   \   000041   E4           CLR       A
   \   000042   39           ADDC      A,R1
   \   000043   F5..         MOV       ?V1,A
    744            profileID = BUILD_UINT16( msg[2], msg[3] );
   \   000045   85..82       MOV       DPL,?V2
   \   000048   85..83       MOV       DPH,?V3
   \   00004B   A3           INC       DPTR
   \   00004C   A3           INC       DPTR
   \   00004D   E0           MOVX      A,@DPTR
   \   00004E   FA           MOV       R2,A
   \   00004F   85..82       MOV       DPL,?V2
   \   000052   85..83       MOV       DPH,?V3
   \   000055   A3           INC       DPTR
   \   000056   A3           INC       DPTR
   \   000057   A3           INC       DPTR
   \   000058   E0           MOVX      A,@DPTR
   \   000059   F9           MOV       R1,A
   \   00005A   EA           MOV       A,R2
   \   00005B   FE           MOV       R6,A
   \   00005C   E4           CLR       A
   \   00005D   39           ADDC      A,R1
   \   00005E   FF           MOV       R7,A
   \   00005F                ; Setup parameters for call to function NLME_IsAddressBroadcast
   \   00005F   AA..         MOV       R2,?V0
   \   000061   AB..         MOV       R3,?V1
    745            msg += 4;
    746          
    747            if ( ADDR_BCAST_NOT_ME == NLME_IsAddressBroadcast(aoi) )
   \   000063   12....       LCALL     `??NLME_IsAddressBroadcast::?relay`; Banked call to: NLME_IsAddressBroadcast
   \   000066   E9           MOV       A,R1
   \   000067   6401         XRL       A,#0x1
   \   000069   6018         JZ        ??ZDO_ProcessMatchDescReq_0
    748            {
    749              ZDP_MatchDescRsp( inMsg->TransSeq, &(inMsg->srcAddr), ZDP_INVALID_REQTYPE,
    750                                    ZDAppNwkAddr.addr.shortAddr, 0, NULL, inMsg->SecurityUse );
    751              return;
    752            }
    753            else if ( (ADDR_NOT_BCAST == NLME_IsAddressBroadcast(aoi)) && (aoi != ZDAppNwkAddr.addr.shortAddr) )
   \   00006B                ; Setup parameters for call to function NLME_IsAddressBroadcast
   \   00006B   AA..         MOV       R2,?V0
   \   00006D   AB..         MOV       R3,?V1
   \   00006F   12....       LCALL     `??NLME_IsAddressBroadcast::?relay`; Banked call to: NLME_IsAddressBroadcast
   \   000072   E9           MOV       A,R1
   \   000073   704A         JNZ       ??ZDO_ProcessMatchDescReq_1
   \   000075   90....       MOV       DPTR,#ZDAppNwkAddr
   \   000078   E0           MOVX      A,@DPTR
   \   000079   65..         XRL       A,?V0
   \   00007B   7004         JNZ       ??ZDO_ProcessMatchDescReq_2
   \   00007D   A3           INC       DPTR
   \   00007E   E0           MOVX      A,@DPTR
   \   00007F   65..         XRL       A,?V1
   \                     ??ZDO_ProcessMatchDescReq_2:
   \   000081   603C         JZ        ??ZDO_ProcessMatchDescReq_1
    754            {
    755              ZDP_MatchDescRsp( inMsg->TransSeq, &(inMsg->srcAddr), ZDP_INVALID_REQTYPE,
    756                                       ZDAppNwkAddr.addr.shortAddr, 0, NULL, inMsg->SecurityUse );
   \                     ??ZDO_ProcessMatchDescReq_0:
   \   000083                ; Setup parameters for call to function ZDP_EPRsp
   \   000083   7403         MOV       A,#0x3
   \   000085   12....       LCALL     ?XSTACK_DISP0_8
   \   000088   12....       LCALL     ?Subroutine56 & 0xFFFF
   \                     ??CrossCallReturnLabel_384:
   \   00008B   12....       LCALL     ?PUSH_XSTACK_I_ONE
   \   00008E   E4           CLR       A
   \   00008F   F5..         MOV       ?V0,A
   \   000091   F5..         MOV       ?V1,A
   \   000093   78..         MOV       R0,#?V0
   \   000095   12....       LCALL     ?PUSH_XSTACK_I_TWO
   \   000098   78..         MOV       R0,#?V0
   \   00009A   12....       LCALL     ?PUSH_XSTACK_I_ONE
   \   00009D   90....       MOV       DPTR,#ZDAppNwkAddr
   \   0000A0   12....       LCALL     ?PUSH_XSTACK8_X_TWO
   \   0000A3   75..80       MOV       ?V0,#-0x80
   \   0000A6   78..         MOV       R0,#?V0
   \   0000A8   12....       LCALL     ?PUSH_XSTACK_I_ONE
   \   0000AB   740A         MOV       A,#0xa
   \   0000AD   12....       LCALL     ?XSTACK_DISP0_8
   \   0000B0   12....       LCALL     ?Subroutine83 & 0xFFFF
   \                     ??CrossCallReturnLabel_114:
   \   0000B3   12....       LCALL     ?XSTACK_DISP0_8
   \   0000B6   12....       LCALL     ?Subroutine52 & 0xFFFF
   \                     ??CrossCallReturnLabel_61:
   \   0000B9   12....       LCALL     ?DEALLOC_XSTACK8
    757              return;
   \   0000BC   02....       LJMP      ??CrossCallReturnLabel_321 & 0xFFFF
    758            }
    759          
    760            if ((numInClusters = *msg++) &&
    761                (inClusters = (uint16*)osal_mem_alloc( numInClusters * sizeof( uint16 ) )))
   \                     ??ZDO_ProcessMatchDescReq_1:
   \   0000BF   85..82       MOV       DPL,?V2
   \   0000C2   85..83       MOV       DPH,?V3
   \   0000C5   A3           INC       DPTR
   \   0000C6   A3           INC       DPTR
   \   0000C7   A3           INC       DPTR
   \   0000C8   A3           INC       DPTR
   \   0000C9   E0           MOVX      A,@DPTR
   \   0000CA   F5..         MOV       ?V7,A
   \   0000CC   E5..         MOV       A,?V2
   \   0000CE   2405         ADD       A,#0x5
   \   0000D0   F5..         MOV       ?V2,A
   \   0000D2   5002         JNC       ??ZDO_ProcessMatchDescReq_3
   \   0000D4   05..         INC       ?V3
   \                     ??ZDO_ProcessMatchDescReq_3:
   \   0000D6   E5..         MOV       A,?V7
   \   0000D8   6028         JZ        ??ZDO_ProcessMatchDescReq_4
   \   0000DA                ; Setup parameters for call to function osal_mem_alloc
   \   0000DA   12....       LCALL     ?Subroutine114 & 0xFFFF
   \                     ??CrossCallReturnLabel_168:
   \   0000DD   7409         MOV       A,#0x9
   \   0000DF   12....       LCALL     ?XSTACK_DISP0_8
   \   0000E2   12....       LCALL     ??Subroutine206_0 & 0xFFFF
   \                     ??CrossCallReturnLabel_329:
   \   0000E5   7409         MOV       A,#0x9
   \   0000E7   12....       LCALL     ?XSTACK_DISP0_8
   \   0000EA   12....       LCALL     ??Subroutine221_0 & 0xFFFF
   \                     ??CrossCallReturnLabel_390:
   \   0000ED   6013         JZ        ??ZDO_ProcessMatchDescReq_4
    762            {
    763              msg = ZDO_ConvertOTAClusters( numInClusters, msg, inClusters );
   \   0000EF                ; Setup parameters for call to function ZDO_ConvertOTAClusters
   \   0000EF   7409         MOV       A,#0x9
   \   0000F1   12....       LCALL     ?XSTACK_DISP0_8
   \   0000F4   12....       LCALL     ?Subroutine91 & 0xFFFF
    764            }
   \                     ??CrossCallReturnLabel_128:
   \   0000F7   A9..         MOV       R1,?V7
   \   0000F9   12....       LCALL     `??ZDO_ConvertOTAClusters::?relay`; Banked call to: ZDO_ConvertOTAClusters
   \   0000FC   8A..         MOV       ?V2,R2
   \   0000FE   8B..         MOV       ?V3,R3
   \   000100   8003         SJMP      ??ZDO_ProcessMatchDescReq_5
    765            else
    766            {
    767              numInClusters = 0;
   \                     ??ZDO_ProcessMatchDescReq_4:
   \   000102   75..00       MOV       ?V7,#0x0
    768            }
    769          
    770            if ((numOutClusters = *msg++) &&
    771                (outClusters = (uint16 *)osal_mem_alloc( numOutClusters * sizeof( uint16 ) )))
   \                     ??ZDO_ProcessMatchDescReq_5:
   \   000105   85..82       MOV       DPL,?V2
   \   000108   85..83       MOV       DPH,?V3
   \   00010B   E0           MOVX      A,@DPTR
   \   00010C   F5..         MOV       ?V6,A
   \   00010E   A3           INC       DPTR
   \   00010F   8582..       MOV       ?V2,DPL
   \   000112   8583..       MOV       ?V3,DPH
   \   000115   6024         JZ        ??ZDO_ProcessMatchDescReq_6
   \   000117                ; Setup parameters for call to function osal_mem_alloc
   \   000117   12....       LCALL     ?Subroutine114 & 0xFFFF
   \                     ??CrossCallReturnLabel_169:
   \   00011A   7407         MOV       A,#0x7
   \   00011C   12....       LCALL     ?XSTACK_DISP0_8
   \   00011F   12....       LCALL     ??Subroutine206_0 & 0xFFFF
   \                     ??CrossCallReturnLabel_330:
   \   000122   7407         MOV       A,#0x7
   \   000124   12....       LCALL     ?XSTACK_DISP0_8
   \   000127   12....       LCALL     ??Subroutine221_0 & 0xFFFF
   \                     ??CrossCallReturnLabel_391:
   \   00012A   600F         JZ        ??ZDO_ProcessMatchDescReq_6
    772            {
    773              msg = ZDO_ConvertOTAClusters( numOutClusters, msg, outClusters );
   \   00012C                ; Setup parameters for call to function ZDO_ConvertOTAClusters
   \   00012C   7407         MOV       A,#0x7
   \   00012E   12....       LCALL     ?XSTACK_DISP0_8
   \   000131   12....       LCALL     ?Subroutine91 & 0xFFFF
    774            }
   \                     ??CrossCallReturnLabel_129:
   \   000134   A9..         MOV       R1,?V6
   \   000136   12....       LCALL     `??ZDO_ConvertOTAClusters::?relay`; Banked call to: ZDO_ConvertOTAClusters
   \   000139   8003         SJMP      ??ZDO_ProcessMatchDescReq_7
    775            else
    776            {
    777              numOutClusters = 0;
   \                     ??ZDO_ProcessMatchDescReq_6:
   \   00013B   75..00       MOV       ?V6,#0x0
    778            }
    779          
    780            // First count the number of endpoints that match.
    781            epDesc = epList;
   \                     ??ZDO_ProcessMatchDescReq_7:
   \   00013E   90....       MOV       DPTR,#epList
   \   000141   804D         SJMP      ??ZDO_ProcessMatchDescReq_8
    782            while ( epDesc )
    783            {
    784              // Don't search endpoint 0 and check if response is allowed
    785              if ( epDesc->epDesc->endPoint != ZDO_EP && (epDesc->flags&eEP_AllowMatch) )
    786              {
    787                if ( epDesc->pfnDescCB )
    788                {
    789                  sDesc = (SimpleDescriptionFormat_t *)epDesc->pfnDescCB( AF_DESCRIPTOR_SIMPLE, epDesc->epDesc->endPoint );
    790                  allocated = TRUE;
    791                }
    792                else
    793                {
    794                  sDesc = epDesc->epDesc->simpleDesc;
    795                  allocated = FALSE;
    796                }
    797          
    798                if ( sDesc && sDesc->AppProfId == profileID )
    799                {
    800                  uint8 *uint8Buf = (uint8 *)ZDOBuildBuf;
    801          
    802                  // If there are no search input/ouput clusters - respond
    803                  if ( ((numInClusters == 0) && (numOutClusters == 0))
    804                      // Are there matching input clusters?
    805                       || (ZDO_AnyClusterMatches( numInClusters, inClusters,
    806                            sDesc->AppNumInClusters, sDesc->pAppInClusterList ))
    807                      // Are there matching output clusters?
    808                       || (ZDO_AnyClusterMatches( numOutClusters, outClusters,
    809                            sDesc->AppNumOutClusters, sDesc->pAppOutClusterList ))     )
    810                  {         
    811                    // Notify the endpoint of the match.
    812                    uint8 bufLen = sizeof( ZDO_MatchDescRspSent_t ) + (numOutClusters + numInClusters) * sizeof(uint16);
    813                    ZDO_MatchDescRspSent_t *pRspSent = (ZDO_MatchDescRspSent_t *) osal_msg_allocate( bufLen );
    814          
    815                    if (pRspSent)
    816                    {
    817                      pRspSent->hdr.event = ZDO_MATCH_DESC_RSP_SENT;
    818                      pRspSent->nwkAddr = inMsg->srcAddr.addr.shortAddr;
    819                      pRspSent->numInClusters = numInClusters;
    820                      pRspSent->numOutClusters = numOutClusters;
    821          
    822                      if (numInClusters)
    823                      {
    824                        pRspSent->pInClusters = (uint16*) (pRspSent + 1);
    825                        osal_memcpy(pRspSent->pInClusters, inClusters, numInClusters * sizeof(uint16));
    826                      }
    827                      else 
    828                      {
    829                        pRspSent->pInClusters = NULL;
    830                      }
    831                       
    832                      if (numOutClusters)
    833                      {
    834                        pRspSent->pOutClusters = (uint16*)(pRspSent + 1) + numInClusters;
    835                        osal_memcpy(pRspSent->pOutClusters, outClusters, numOutClusters * sizeof(uint16));
    836                      }
    837                      else 
    838                      {
    839                        pRspSent->pOutClusters = NULL;
   \                     ??ZDO_ProcessMatchDescReq_9:
   \   000143   E4           CLR       A
   \   000144   F0           MOVX      @DPTR,A
   \   000145   A3           INC       DPTR
   \   000146   F0           MOVX      @DPTR,A
    840                      }
    841                    
    842                      osal_msg_send( *epDesc->epDesc->task_id, (uint8 *)pRspSent );
   \                     ??ZDO_ProcessMatchDescReq_10:
   \   000147                ; Setup parameters for call to function osal_msg_send
   \   000147   AA..         MOV       R2,?V4
   \   000149   AB..         MOV       R3,?V5
   \   00014B   7405         MOV       A,#0x5
   \   00014D   12....       LCALL     ?XSTACK_DISP0_8
   \   000150   12....       LCALL     ??Subroutine209_0 & 0xFFFF
   \                     ??CrossCallReturnLabel_347:
   \   000153   12....       LCALL     ?Subroutine57 & 0xFFFF
    843                    }
    844          
    845                    uint8Buf[epCnt++] = sDesc->EndPoint;
   \                     ??CrossCallReturnLabel_71:
   \   000156   85..82       MOV       DPL,?XSP + 0
   \   000159   85..83       MOV       DPH,?XSP + 1
   \   00015C   12....       LCALL     ??Subroutine209_0 & 0xFFFF
   \                     ??CrossCallReturnLabel_348:
   \   00015F   C0E0         PUSH      A
   \   000161   7402         MOV       A,#0x2
   \   000163   12....       LCALL     ?XSTACK_DISP0_8
   \   000166   E0           MOVX      A,@DPTR
   \   000167   F8           MOV       R0,A
   \   000168   74..         MOV       A,#ZDOBuildBuf & 0xff
   \   00016A   28           ADD       A,R0
   \   00016B   F582         MOV       DPL,A
   \   00016D   E4           CLR       A
   \   00016E   34..         ADDC      A,#(ZDOBuildBuf >> 8) & 0xff
   \   000170   F583         MOV       DPH,A
   \   000172   D0E0         POP       A
   \   000174   F0           MOVX      @DPTR,A
   \   000175   7402         MOV       A,#0x2
   \   000177   12....       LCALL     ?XSTACK_DISP0_8
   \   00017A   E0           MOVX      A,@DPTR
   \   00017B   04           INC       A
   \   00017C   F0           MOVX      @DPTR,A
    846                  }
    847                }
    848          
    849                if ( allocated )
   \                     ??ZDO_ProcessMatchDescReq_11:
   \   00017D   A2..         MOV       C,?VB.0
   \   00017F   5003         JNC       ??CrossCallReturnLabel_319
    850                  osal_mem_free( sDesc );
   \   000181                ; Setup parameters for call to function osal_mem_free
   \   000181   12....       LCALL     ?Subroutine47 & 0xFFFF
    851              }
    852              epDesc = epDesc->nextDesc;
   \                     ??CrossCallReturnLabel_319:
   \   000184   7405         MOV       A,#0x5
   \   000186   12....       LCALL     ?XSTACK_DISP0_8
   \   000189   12....       LCALL     ?Subroutine95 & 0xFFFF
   \                     ??CrossCallReturnLabel_134:
   \   00018C   A3           INC       DPTR
   \   00018D   A3           INC       DPTR
   \   00018E   A3           INC       DPTR
   \   00018F   A3           INC       DPTR
   \                     ??ZDO_ProcessMatchDescReq_8:
   \   000190   12....       LCALL     ??Subroutine233_0 & 0xFFFF
   \                     ??CrossCallReturnLabel_459:
   \   000193   7405         MOV       A,#0x5
   \   000195   12....       LCALL     ?XSTACK_DISP0_8
   \   000198   12....       LCALL     ??Subroutine254_0 & 0xFFFF
   \                     ??CrossCallReturnLabel_614:
   \   00019B   7405         MOV       A,#0x5
   \   00019D   12....       LCALL     ?XSTACK_DISP0_8
   \   0001A0   12....       LCALL     ??Subroutine221_0 & 0xFFFF
   \                     ??CrossCallReturnLabel_392:
   \   0001A3   7003         JNZ       $+5
   \   0001A5   02....       LJMP      ??ZDO_ProcessMatchDescReq_12 & 0xFFFF
   \   0001A8   7405         MOV       A,#0x5
   \   0001AA   12....       LCALL     ?XSTACK_DISP0_8
   \   0001AD   12....       LCALL     ??Subroutine204_0 & 0xFFFF
   \                     ??CrossCallReturnLabel_315:
   \   0001B0   E8           MOV       A,R0
   \   0001B1   FA           MOV       R2,A
   \   0001B2   E9           MOV       A,R1
   \   0001B3   8882         MOV       DPL,R0
   \   0001B5   F583         MOV       DPH,A
   \   0001B7   E0           MOVX      A,@DPTR
   \   0001B8   FC           MOV       R4,A
   \   0001B9   60C9         JZ        ??CrossCallReturnLabel_319
   \   0001BB   7405         MOV       A,#0x5
   \   0001BD   12....       LCALL     ?XSTACK_DISP0_8
   \   0001C0   12....       LCALL     ?Subroutine82 & 0xFFFF
   \                     ??CrossCallReturnLabel_112:
   \   0001C3   A2E0         MOV       C,0xE0 /* A   */.0
   \   0001C5   50BD         JNC       ??CrossCallReturnLabel_319
   \   0001C7   7405         MOV       A,#0x5
   \   0001C9   12....       LCALL     ?XSTACK_DISP0_8
   \   0001CC   12....       LCALL     ??Subroutine260_0 & 0xFFFF
   \                     ??CrossCallReturnLabel_642:
   \   0001CF   A3           INC       DPTR
   \   0001D0   A3           INC       DPTR
   \   0001D1   A3           INC       DPTR
   \   0001D2   12....       LCALL     ?Subroutine105 & 0xFFFF
   \                     ??CrossCallReturnLabel_149:
   \   0001D5   E582         MOV       A,DPL
   \   0001D7   4583         ORL       A,DPH
   \   0001D9   6014         JZ        ??ZDO_ProcessMatchDescReq_13
   \   0001DB                ; Setup parameters for indirect call
   \   0001DB   EC           MOV       A,R4
   \   0001DC   FA           MOV       R2,A
   \   0001DD   7901         MOV       R1,#0x1
   \   0001DF   12....       LCALL     ?CALL_IND
   \   0001E2   85..82       MOV       DPL,?XSP + 0
   \   0001E5   85..83       MOV       DPH,?XSP + 1
   \   0001E8   12....       LCALL     ??Subroutine206_0 & 0xFFFF
   \                     ??CrossCallReturnLabel_331:
   \   0001EB   D2..         SETB      ?VB.0
   \   0001ED   800F         SJMP      ??ZDO_ProcessMatchDescReq_14
   \                     ??ZDO_ProcessMatchDescReq_13:
   \   0001EF   8A82         MOV       DPL,R2
   \   0001F1   8983         MOV       DPH,R1
   \   0001F3   A3           INC       DPTR
   \   0001F4   A3           INC       DPTR
   \   0001F5   A3           INC       DPTR
   \   0001F6   12....       LCALL     ?Subroutine192 & 0xFFFF
   \                     ??CrossCallReturnLabel_546:
   \   0001F9   12....       LCALL     ??Subroutine253_0 & 0xFFFF
   \                     ??CrossCallReturnLabel_623:
   \   0001FC   C2..         CLR       ?VB.0
   \                     ??ZDO_ProcessMatchDescReq_14:
   \   0001FE   12....       LCALL     ?Subroutine45 & 0xFFFF
   \                     ??CrossCallReturnLabel_406:
   \   000201   7003         JNZ       $+5
   \   000203   02....       LJMP      ??ZDO_ProcessMatchDescReq_11 & 0xFFFF
   \   000206   85..82       MOV       DPL,?XSP + 0
   \   000209   85..83       MOV       DPH,?XSP + 1
   \   00020C   12....       LCALL     ??Subroutine260_0 & 0xFFFF
   \                     ??CrossCallReturnLabel_643:
   \   00020F   A3           INC       DPTR
   \   000210   E0           MOVX      A,@DPTR
   \   000211   6E           XRL       A,R6
   \   000212   7003         JNZ       ??ZDO_ProcessMatchDescReq_15
   \   000214   A3           INC       DPTR
   \   000215   E0           MOVX      A,@DPTR
   \   000216   6F           XRL       A,R7
   \                     ??ZDO_ProcessMatchDescReq_15:
   \   000217   6003         JZ        $+5
   \   000219   02....       LJMP      ??ZDO_ProcessMatchDescReq_11 & 0xFFFF
   \   00021C   E5..         MOV       A,?V7
   \   00021E   7004         JNZ       ??ZDO_ProcessMatchDescReq_16
   \   000220   E5..         MOV       A,?V6
   \   000222   605D         JZ        ??ZDO_ProcessMatchDescReq_17
   \                     ??ZDO_ProcessMatchDescReq_16:
   \   000224                ; Setup parameters for call to function ZDO_AnyClusterMatches
   \   000224   E8           MOV       A,R0
   \   000225   2407         ADD       A,#0x7
   \   000227   F582         MOV       DPL,A
   \   000229   E4           CLR       A
   \   00022A   39           ADDC      A,R1
   \   00022B   F583         MOV       DPH,A
   \   00022D   12....       LCALL     ?PUSH_XSTACK8_X_TWO
   \   000230   7402         MOV       A,#0x2
   \   000232   12....       LCALL     ?XSTACK_DISP0_8
   \   000235   12....       LCALL     ??Subroutine240_0 & 0xFFFF
   \                     ??CrossCallReturnLabel_514:
   \   000238   2406         ADD       A,#0x6
   \   00023A   12....       LCALL     ?Subroutine133 & 0xFFFF
   \                     ??CrossCallReturnLabel_206:
   \   00023D   FC           MOV       R4,A
   \   00023E   740B         MOV       A,#0xb
   \   000240   12....       LCALL     ?XSTACK_DISP0_8
   \   000243   12....       LCALL     ??Subroutine212_0 & 0xFFFF
   \                     ??CrossCallReturnLabel_356:
   \   000246   A9..         MOV       R1,?V7
   \   000248   12....       LCALL     `??ZDO_AnyClusterMatches::?relay`; Banked call to: ZDO_AnyClusterMatches
   \   00024B   7402         MOV       A,#0x2
   \   00024D   12....       LCALL     ?DEALLOC_XSTACK8
   \   000250   E9           MOV       A,R1
   \   000251   702E         JNZ       ??ZDO_ProcessMatchDescReq_17
   \   000253                ; Setup parameters for call to function ZDO_AnyClusterMatches
   \   000253   85..82       MOV       DPL,?XSP + 0
   \   000256   85..83       MOV       DPH,?XSP + 1
   \   000259   12....       LCALL     ?Subroutine73 & 0xFFFF
   \                     ??CrossCallReturnLabel_96:
   \   00025C   12....       LCALL     ?PUSH_XSTACK8_X_TWO
   \   00025F   7402         MOV       A,#0x2
   \   000261   12....       LCALL     ?XSTACK_DISP0_8
   \   000264   12....       LCALL     ?Subroutine74 & 0xFFFF
   \                     ??CrossCallReturnLabel_98:
   \   000267   E0           MOVX      A,@DPTR
   \   000268   FC           MOV       R4,A
   \   000269   7409         MOV       A,#0x9
   \   00026B   12....       LCALL     ?XSTACK_DISP0_8
   \   00026E   12....       LCALL     ??Subroutine212_0 & 0xFFFF
   \                     ??CrossCallReturnLabel_357:
   \   000271   A9..         MOV       R1,?V6
   \   000273   12....       LCALL     `??ZDO_AnyClusterMatches::?relay`; Banked call to: ZDO_AnyClusterMatches
   \   000276   7402         MOV       A,#0x2
   \   000278   12....       LCALL     ?DEALLOC_XSTACK8
   \   00027B   E9           MOV       A,R1
   \   00027C   7003         JNZ       $+5
   \   00027E   02....       LJMP      ??ZDO_ProcessMatchDescReq_11 & 0xFFFF
   \                     ??ZDO_ProcessMatchDescReq_17:
   \   000281                ; Setup parameters for call to function osal_msg_allocate
   \   000281   E5..         MOV       A,?V6
   \   000283   25..         ADD       A,?V7
   \   000285   C3           CLR       C
   \   000286   33           RLC       A
   \   000287   240A         ADD       A,#0xa
   \   000289   FA           MOV       R2,A
   \   00028A   7B00         MOV       R3,#0x0
   \   00028C   12....       LCALL     `??osal_msg_allocate::?relay`; Banked call to: osal_msg_allocate
   \   00028F   8A..         MOV       ?V4,R2
   \   000291   8B..         MOV       ?V5,R3
   \   000293   EA           MOV       A,R2
   \   000294   4B           ORL       A,R3
   \   000295   7003         JNZ       $+5
   \   000297   02....       LJMP      ??CrossCallReturnLabel_71 & 0xFFFF
   \   00029A   8A82         MOV       DPL,R2
   \   00029C   8B83         MOV       DPH,R3
   \   00029E   74D2         MOV       A,#-0x2e
   \   0002A0   F0           MOVX      @DPTR,A
   \   0002A1   7403         MOV       A,#0x3
   \   0002A3   12....       LCALL     ?XSTACK_DISP0_8
   \   0002A6   12....       LCALL     ?Subroutine67 & 0xFFFF
   \                     ??CrossCallReturnLabel_86:
   \   0002A9   8A82         MOV       DPL,R2
   \   0002AB   8B83         MOV       DPH,R3
   \   0002AD   A3           INC       DPTR
   \   0002AE   A3           INC       DPTR
   \   0002AF   12....       LCALL     ??Subroutine254_0 & 0xFFFF
   \                     ??CrossCallReturnLabel_615:
   \   0002B2   8A82         MOV       DPL,R2
   \   0002B4   8B83         MOV       DPH,R3
   \   0002B6   A3           INC       DPTR
   \   0002B7   A3           INC       DPTR
   \   0002B8   A3           INC       DPTR
   \   0002B9   A3           INC       DPTR
   \   0002BA   E5..         MOV       A,?V7
   \   0002BC   12....       LCALL     ??Subroutine252_0 & 0xFFFF
   \                     ??CrossCallReturnLabel_599:
   \   0002BF   A3           INC       DPTR
   \   0002C0   A3           INC       DPTR
   \   0002C1   A3           INC       DPTR
   \   0002C2   A3           INC       DPTR
   \   0002C3   E5..         MOV       A,?V6
   \   0002C5   F0           MOVX      @DPTR,A
   \   0002C6   EA           MOV       A,R2
   \   0002C7   2405         ADD       A,#0x5
   \   0002C9   F582         MOV       DPL,A
   \   0002CB   E4           CLR       A
   \   0002CC   35..         ADDC      A,?V5
   \   0002CE   F583         MOV       DPH,A
   \   0002D0   E5..         MOV       A,?V7
   \   0002D2   601F         JZ        ??ZDO_ProcessMatchDescReq_18
   \   0002D4   EA           MOV       A,R2
   \   0002D5   240A         ADD       A,#0xa
   \   0002D7   FA           MOV       R2,A
   \   0002D8   E4           CLR       A
   \   0002D9   35..         ADDC      A,?V5
   \   0002DB   12....       LCALL     ?Subroutine35 & 0xFFFF
   \                     ??CrossCallReturnLabel_341:
   \   0002DE                ; Setup parameters for call to function osal_memcpy
   \   0002DE   7409         MOV       A,#0x9
   \   0002E0   12....       LCALL     ?XSTACK_DISP0_8
   \   0002E3   12....       LCALL     ?Subroutine55 & 0xFFFF
   \                     ??CrossCallReturnLabel_67:
   \   0002E6   12....       LCALL     ?PUSH_XSTACK_I_THREE
   \   0002E9   AC..         MOV       R4,?V7
   \   0002EB   12....       LCALL     ?Subroutine115 & 0xFFFF
   \                     ??CrossCallReturnLabel_170:
   \   0002EE   12....       LCALL     ?DEALLOC_XSTACK8
   \   0002F1   8004         SJMP      ??ZDO_ProcessMatchDescReq_19
   \                     ??ZDO_ProcessMatchDescReq_18:
   \   0002F3   E4           CLR       A
   \   0002F4   F0           MOVX      @DPTR,A
   \   0002F5   A3           INC       DPTR
   \   0002F6   F0           MOVX      @DPTR,A
   \                     ??ZDO_ProcessMatchDescReq_19:
   \   0002F7   E5..         MOV       A,?V4
   \   0002F9   2408         ADD       A,#0x8
   \   0002FB   F582         MOV       DPL,A
   \   0002FD   E4           CLR       A
   \   0002FE   35..         ADDC      A,?V5
   \   000300   F583         MOV       DPH,A
   \   000302   E5..         MOV       A,?V6
   \   000304   7003         JNZ       $+5
   \   000306   02....       LJMP      ??ZDO_ProcessMatchDescReq_9 & 0xFFFF
   \   000309   A8..         MOV       R0,?V7
   \   00030B   12....       LCALL     ?Subroutine175 & 0xFFFF
   \                     ??CrossCallReturnLabel_262:
   \   00030E   E5..         MOV       A,?V4
   \   000310   28           ADD       A,R0
   \   000311   F8           MOV       R0,A
   \   000312   E5..         MOV       A,?V5
   \   000314   39           ADDC      A,R1
   \   000315   F9           MOV       R1,A
   \   000316   E8           MOV       A,R0
   \   000317   240A         ADD       A,#0xa
   \   000319   FA           MOV       R2,A
   \   00031A   E4           CLR       A
   \   00031B   39           ADDC      A,R1
   \   00031C   12....       LCALL     ?Subroutine35 & 0xFFFF
   \                     ??CrossCallReturnLabel_342:
   \   00031F                ; Setup parameters for call to function osal_memcpy
   \   00031F   7407         MOV       A,#0x7
   \   000321   12....       LCALL     ?XSTACK_DISP0_8
   \   000324   12....       LCALL     ?Subroutine55 & 0xFFFF
    853            }
   \                     ??CrossCallReturnLabel_68:
   \   000327   12....       LCALL     ?PUSH_XSTACK_I_THREE
   \   00032A   AC..         MOV       R4,?V6
   \   00032C   12....       LCALL     ?Subroutine115 & 0xFFFF
   \                     ??CrossCallReturnLabel_171:
   \   00032F   12....       LCALL     ?DEALLOC_XSTACK8
   \   000332   02....       LJMP      ??ZDO_ProcessMatchDescReq_10 & 0xFFFF
    854          
    855            // Send the message only if at least one match found.
    856            if ( epCnt )
   \                     ??ZDO_ProcessMatchDescReq_12:
   \   000335   7402         MOV       A,#0x2
   \   000337   12....       LCALL     ?XSTACK_DISP0_8
   \   00033A   E0           MOVX      A,@DPTR
   \   00033B   6049         JZ        ??ZDO_ProcessMatchDescReq_20
    857            {
    858              if ( ZSuccess == ZDP_MatchDescRsp( inMsg->TransSeq, &(inMsg->srcAddr), ZDP_SUCCESS,
    859                        ZDAppNwkAddr.addr.shortAddr, epCnt, (uint8 *)ZDOBuildBuf, inMsg->SecurityUse ) )
   \   00033D                ; Setup parameters for call to function ZDP_EPRsp
   \   00033D   7403         MOV       A,#0x3
   \   00033F   12....       LCALL     ?XSTACK_DISP0_8
   \   000342   12....       LCALL     ?Subroutine56 & 0xFFFF
   \                     ??CrossCallReturnLabel_385:
   \   000345   12....       LCALL     ?PUSH_XSTACK_I_ONE
   \   000348   75....       MOV       ?V0,#ZDOBuildBuf & 0xff
   \   00034B   75....       MOV       ?V1,#(ZDOBuildBuf >> 8) & 0xff
   \   00034E   78..         MOV       R0,#?V0
   \   000350   12....       LCALL     ?PUSH_XSTACK_I_TWO
   \   000353   7405         MOV       A,#0x5
   \   000355   12....       LCALL     ?XSTACK_DISP0_8
   \   000358   12....       LCALL     ??Subroutine217_0 & 0xFFFF
   \                     ??CrossCallReturnLabel_376:
   \   00035B   12....       LCALL     ?PUSH_XSTACK_I_ONE
   \   00035E   90....       MOV       DPTR,#ZDAppNwkAddr
   \   000361   12....       LCALL     ?PUSH_XSTACK8_X_TWO
   \   000364   75..00       MOV       ?V0,#0x0
   \   000367   78..         MOV       R0,#?V0
   \   000369   12....       LCALL     ?PUSH_XSTACK_I_ONE
   \   00036C   740A         MOV       A,#0xa
   \   00036E   12....       LCALL     ?XSTACK_DISP0_8
   \   000371   12....       LCALL     ?Subroutine83 & 0xFFFF
   \                     ??CrossCallReturnLabel_115:
   \   000374   12....       LCALL     ?XSTACK_DISP0_8
   \   000377   12....       LCALL     ?Subroutine52 & 0xFFFF
   \                     ??CrossCallReturnLabel_62:
   \   00037A   12....       LCALL     ?DEALLOC_XSTACK8
   \   00037D   E9           MOV       A,R1
   \   00037E   7011         JNZ       ??ZDO_ProcessMatchDescReq_21
    860              {
    861          #if defined( LCD_SUPPORTED )
    862                HalLcdWriteScreen( "Match Desc Req", "Rsp Sent" );
   \   000380                ; Setup parameters for call to function HalLcdWriteScreen
   \   000380   7C..         MOV       R4,#`?<Constant "Rsp Sent">` & 0xff
   \   000382   7D..         MOV       R5,#(`?<Constant "Rsp Sent">` >> 8) & 0xff
   \   000384   8004         SJMP      ??ZDO_ProcessMatchDescReq_22
    863          #endif
    864              }
    865            }
    866            else
    867            {
    868          #if defined( LCD_SUPPORTED )
    869              HalLcdWriteScreen( "Match Desc Req", "Non Matched" );
   \                     ??ZDO_ProcessMatchDescReq_20:
   \   000386                ; Setup parameters for call to function HalLcdWriteScreen
   \   000386   7C..         MOV       R4,#`?<Constant "Non Matched">` & 0xff
   \   000388   7D..         MOV       R5,#(`?<Constant "Non Matched">` >> 8) & 0xff
   \                     ??ZDO_ProcessMatchDescReq_22:
   \   00038A   7A..         MOV       R2,#`?<Constant "Match Desc Req">` & 0xff
   \   00038C   7B..         MOV       R3,#(`?<Constant "Match Desc Req">` >> 8) & 0xff
   \   00038E   12....       LCALL     `??HalLcdWriteScreen::?relay`; Banked call to: HalLcdWriteScreen
    870          #endif
    871            }
    872            
    873            if ( inClusters != NULL )
   \                     ??ZDO_ProcessMatchDescReq_21:
   \   000391   7409         MOV       A,#0x9
   \   000393   12....       LCALL     ?XSTACK_DISP0_8
   \   000396   12....       LCALL     ??Subroutine221_0 & 0xFFFF
   \                     ??CrossCallReturnLabel_393:
   \   000399   6008         JZ        ??CrossCallReturnLabel_320
    874              osal_mem_free( inClusters );
   \   00039B                ; Setup parameters for call to function osal_mem_free
   \   00039B   7409         MOV       A,#0x9
   \   00039D   12....       LCALL     ?XSTACK_DISP0_8
   \   0003A0   12....       LCALL     ??Subroutine205_0 & 0xFFFF
    875            if ( outClusters != NULL )
   \                     ??CrossCallReturnLabel_320:
   \   0003A3   7407         MOV       A,#0x7
   \   0003A5   12....       LCALL     ?XSTACK_DISP0_8
   \   0003A8   12....       LCALL     ??Subroutine221_0 & 0xFFFF
   \                     ??CrossCallReturnLabel_394:
   \   0003AB   6008         JZ        ??CrossCallReturnLabel_321
    876              osal_mem_free( outClusters );
   \   0003AD                ; Setup parameters for call to function osal_mem_free
   \   0003AD   7407         MOV       A,#0x7
   \   0003AF   12....       LCALL     ?XSTACK_DISP0_8
   \   0003B2   12....       LCALL     ??Subroutine205_0 & 0xFFFF
    877          }
   \                     ??CrossCallReturnLabel_321:
   \   0003B5   740B         MOV       A,#0xb
   \   0003B7   02....       LJMP      ?Subroutine6 & 0xFFFF

   \                                 In  segment BANKED_CODE, align 1, keep-with-next
   \                     ?Subroutine115:
   \   000000   EC           MOV       A,R4
   \   000001   2C           ADD       A,R4
   \   000002   FC           MOV       R4,A
   \   000003   E4           CLR       A
   \   000004   33           RLC       A
   \   000005   FD           MOV       R5,A
   \   000006   12....       LCALL     `??osal_memcpy::?relay`; Banked call to: osal_memcpy
   \   000009   7403         MOV       A,#0x3
   \   00000B   22           RET

   \                                 In  segment BANKED_CODE, align 1, keep-with-next
   \                     ?Subroutine114:
   \   000000   12....       LCALL     ?Subroutine179 & 0xFFFF
   \                     ??CrossCallReturnLabel_268:
   \   000003   22           RET

   \                                 In  segment BANKED_CODE, align 1, keep-with-next
   \                     ?Subroutine179:
   \   000000   25E0         ADD       A,0xE0 /* A   */
   \   000002   FA           MOV       R2,A
   \   000003   E4           CLR       A
   \   000004   33           RLC       A
   \   000005   FB           MOV       R3,A
   \   000006   12....       LCALL     `??osal_mem_alloc::?relay`; Banked call to: osal_mem_alloc
   \   000009   22           RET

   \                                 In  segment BANKED_CODE, align 1, keep-with-next
   \                     ?Subroutine91:
   \   000000   12....       LCALL     ?Subroutine169 & 0xFFFF
   \                     ??CrossCallReturnLabel_258:
   \   000003   AA..         MOV       R2,?V2
   \   000005   AB..         MOV       R3,?V3
   \   000007   22           RET

   \                                 In  segment BANKED_CODE, align 1, keep-with-next
   \                     ?Subroutine83:
   \   000000   E0           MOVX      A,@DPTR
   \   000001   2402         ADD       A,#0x2
   \   000003   FC           MOV       R4,A
   \   000004   A3           INC       DPTR
   \   000005   E0           MOVX      A,@DPTR
   \   000006   3400         ADDC      A,#0x0
   \   000008   FD           MOV       R5,A
   \   000009   740A         MOV       A,#0xa
   \   00000B   22           RET

   \                                 In  segment BANKED_CODE, align 1, keep-with-next
   \                     ?Subroutine52:
   \   000000   12....       LCALL     ?Subroutine160 & 0xFFFF
   \                     ??CrossCallReturnLabel_251:
   \   000003   7A06         MOV       R2,#0x6
   \   000005   7B80         MOV       R3,#-0x80
   \   000007   12....       LCALL     `??ZDP_EPRsp::?relay`; Banked call to: ZDP_EPRsp
   \   00000A   7407         MOV       A,#0x7
   \   00000C   22           RET

   \                                 In  segment BANKED_CODE, align 1, keep-with-next
   \                     ?Subroutine105:
   \   000000   12....       LCALL     ?Subroutine191 & 0xFFFF
   \                     ??CrossCallReturnLabel_284:
   \   000003   22           RET

   \                                 In  segment BANKED_CODE, align 1, keep-with-next
   \                     ?Subroutine80:
   \   000000   12....       LCALL     ??Subroutine220_0 & 0xFFFF
   \                     ??CrossCallReturnLabel_541:
   \   000003   12....       LCALL     ??Subroutine214_0 & 0xFFFF
   \                     ??CrossCallReturnLabel_373:
   \   000006   38           ADDC      A,R0
   \   000007   22           RET

   \                                 In  segment BANKED_CODE, align 1, keep-with-next
   \                     ?Subroutine73:
   \   000000   12....       LCALL     ??Subroutine220_0 & 0xFFFF
   \                     ??CrossCallReturnLabel_539:
   \   000003   240A         ADD       A,#0xa
   \   000005   F582         MOV       DPL,A
   \   000007   E4           CLR       A
   \   000008   38           ADDC      A,R0
   \   000009   F583         MOV       DPH,A
   \   00000B   22           RET

   \                                 In  segment BANKED_CODE, align 1, keep-with-next
   \                     ??Subroutine204_0:
   \   000000   12....       LCALL     ??Subroutine263_0 & 0xFFFF
   \                     ??CrossCallReturnLabel_652:
   \   000003   12....       LCALL     ??Subroutine230_0 & 0xFFFF
   \                     ??CrossCallReturnLabel_472:
   \   000006   22           RET

   \                                 In  segment BANKED_CODE, align 1, keep-with-next
   \                     ?Subroutine35:
   \   000000   FB           MOV       R3,A
   \   000001                REQUIRE ??Subroutine206_0
   \   000001                ; // Fall through to label ??Subroutine206_0

   \                                 In  segment BANKED_CODE, align 1, keep-with-next
   \                     ?Subroutine6:
   \   000000   12....       LCALL     ?DEALLOC_XSTACK8
   \   000003   80..         SJMP      ??Subroutine210_0

   \                                 In  segment BANKED_CODE, align 1, keep-with-next
   \                     ?Subroutine160:
   \   000000   12....       LCALL     ?Subroutine192 & 0xFFFF
   \                     ??CrossCallReturnLabel_548:
   \   000003   C8           XCH       A,R0
   \   000004   240F         ADD       A,#0xf
   \   000006   F582         MOV       DPL,A
   \   000008   E4           CLR       A
   \   000009   38           ADDC      A,R0
   \   00000A   F583         MOV       DPH,A
   \   00000C   E0           MOVX      A,@DPTR
   \   00000D   F9           MOV       R1,A
   \   00000E   22           RET

   \                                 In  segment BANKED_CODE, align 1, keep-with-next
   \                     ?Subroutine56:
   \   000000   12....       LCALL     ??Subroutine220_0 & 0xFFFF
   \                     ??CrossCallReturnLabel_537:
   \   000003   240E         ADD       A,#0xe
   \   000005                REQUIRE ??Subroutine215_0
   \   000005                ; // Fall through to label ??Subroutine215_0

   \                                 In  segment BANKED_CODE, align 1, keep-with-next
   \                     ??Subroutine215_0:
   \   000000   F582         MOV       DPL,A
   \   000002   E4           CLR       A
   \   000003   38           ADDC      A,R0
   \   000004                REQUIRE ??Subroutine216_0
   \   000004                ; // Fall through to label ??Subroutine216_0

   \                                 In  segment BANKED_CODE, align 1, keep-with-next
   \                     ??Subroutine216_0:
   \   000000   F583         MOV       DPH,A
   \   000002                REQUIRE ??Subroutine217_0
   \   000002                ; // Fall through to label ??Subroutine217_0

   \                                 In  segment BANKED_CODE, align 1, keep-with-next
   \                     ??Subroutine217_0:
   \   000000   E0           MOVX      A,@DPTR
   \   000001   F5..         MOV       ?V0,A
   \   000003   78..         MOV       R0,#?V0
   \   000005   22           RET

   \                                 In  segment BANKED_CODE, align 1, keep-with-next
   \                     ??Subroutine220_0:
   \   000000   12....       LCALL     ?Subroutine192 & 0xFFFF
   \                     ??CrossCallReturnLabel_552:
   \   000003   C8           XCH       A,R0
   \   000004   22           RET

   \                                 In  segment BANKED_CODE, align 1, keep-with-next
   \                     ??Subroutine227_0:
   \   000000   E0           MOVX      A,@DPTR
   \   000001   F5..         MOV       ?V0,A
   \   000003   A3           INC       DPTR
   \   000004   E0           MOVX      A,@DPTR
   \   000005   F5..         MOV       ?V1,A
   \   000007   22           RET

   \                                 In  segment BANKED_CODE, align 1, keep-with-next
   \                     ?Subroutine133:
   \   000000   F582         MOV       DPL,A
   \   000002   E4           CLR       A
   \   000003   38           ADDC      A,R0
   \   000004   F583         MOV       DPH,A
   \   000006   E0           MOVX      A,@DPTR
   \   000007   22           RET

   \                                 In  segment BANKED_CODE, align 1, keep-with-next
   \                     ?Subroutine67:
   \   000000   12....       LCALL     ?Subroutine166 & 0xFFFF
   \                     ??CrossCallReturnLabel_649:
   \   000003   A3           INC       DPTR
   \   000004   12....       LCALL     ??Subroutine230_0 & 0xFFFF
   \                     ??CrossCallReturnLabel_469:
   \   000007   22           RET

   \                                 In  segment BANKED_CODE, align 1, keep-with-next
   \                     ??Subroutine240_0:
   \   000000   12....       LCALL     ??Subroutine220_0 & 0xFFFF
   \                     ??CrossCallReturnLabel_545:
   \   000003   22           RET

   \                                 In  segment BANKED_CODE, align 1, keep-with-next
   \                     ?Subroutine152:
   \   000000   F0           MOVX      @DPTR,A
   \   000001   8A82         MOV       DPL,R2
   \   000003   8B83         MOV       DPH,R3
   \   000005   A3           INC       DPTR
   \   000006   22           RET

   \                                 In  segment BANKED_CODE, align 1, keep-with-next
   \                     ?Subroutine94:
   \   000000   12....       LCALL     ??Subroutine259_0 & 0xFFFF
   \                     ??CrossCallReturnLabel_637:
   \   000003   F8           MOV       R0,A
   \   000004   E4           CLR       A
   \   000005   C8           XCH       A,R0
   \   000006   F9           MOV       R1,A
   \   000007   EA           MOV       A,R2
   \   000008   22           RET

   \                                 In  segment BANKED_CODE, align 1, keep-with-next
   \                     ??Subroutine252_0:
   \   000000   12....       LCALL     ?Subroutine152 & 0xFFFF
   \                     ??CrossCallReturnLabel_604:
   \   000003   A3           INC       DPTR
   \   000004   A3           INC       DPTR
   \   000005   22           RET

   \                                 In  segment BANKED_CODE, align 1, keep-with-next
   \                     ??Subroutine253_0:
   \   000000   F9           MOV       R1,A
   \   000001   85..82       MOV       DPL,?XSP + 0
   \   000004   85..83       MOV       DPH,?XSP + 1
   \   000007                REQUIRE ??Subroutine254_0
   \   000007                ; // Fall through to label ??Subroutine254_0

   \                                 In  segment BANKED_CODE, align 1, keep-with-next
   \                     ??Subroutine254_0:
   \   000000   E8           MOV       A,R0
   \   000001                REQUIRE ??Subroutine255_0
   \   000001                ; // Fall through to label ??Subroutine255_0

   \                                 In  segment BANKED_CODE, align 1, keep-with-next
   \                     ??Subroutine255_0:
   \   000000   F0           MOVX      @DPTR,A
   \   000001   A3           INC       DPTR
   \   000002   E9           MOV       A,R1
   \   000003   F0           MOVX      @DPTR,A
   \   000004   22           RET

   \                                 In  segment BANKED_CODE, align 1, keep-with-next
   \                     ??Subroutine259_0:
   \   000000   E0           MOVX      A,@DPTR
   \   000001   FA           MOV       R2,A
   \   000002   A3           INC       DPTR
   \   000003   E0           MOVX      A,@DPTR
   \   000004   22           RET

   \                                 In  segment BANKED_CODE, align 1, keep-with-next
   \                     ??Subroutine260_0:
   \   000000   12....       LCALL     ??Subroutine263_0 & 0xFFFF
   \                     ??CrossCallReturnLabel_655:
   \   000003   22           RET

   \                                 In  segment BANKED_CODE, align 1, keep-with-next
   \                     ?Subroutine95:
   \   000000   12....       LCALL     ?Subroutine166 & 0xFFFF
   \                     ??CrossCallReturnLabel_651:
   \   000003   22           RET

   \                                 In  segment BANKED_CODE, align 1, keep-with-next
   \                     ?Subroutine166:
   \   000000   E0           MOVX      A,@DPTR
   \   000001                REQUIRE ??Subroutine261_0
   \   000001                ; // Fall through to label ??Subroutine261_0

   \                                 In  segment BANKED_CODE, align 1, keep-with-next
   \                     ?Subroutine82:
   \   000000   12....       LCALL     ?Subroutine166 & 0xFFFF
   \                     ??CrossCallReturnLabel_650:
   \   000003   A3           INC       DPTR
   \   000004   E0           MOVX      A,@DPTR
   \   000005   22           RET

   \                                 In  segment BANKED_CODE, align 1, keep-with-next
   \                     ?Subroutine74:
   \   000000   12....       LCALL     ??Subroutine220_0 & 0xFFFF
   \                     ??CrossCallReturnLabel_540:
   \   000003   2409         ADD       A,#0x9
   \   000005   F582         MOV       DPL,A
   \   000007   E4           CLR       A
   \   000008   38           ADDC      A,R0
   \   000009   F583         MOV       DPH,A
   \   00000B   22           RET

   \                                 In  segment BANKED_CODE, align 1, keep-with-next
   \                     ?Subroutine55:
   \   000000   12....       LCALL     ??Subroutine227_0 & 0xFFFF
   \                     ??CrossCallReturnLabel_436:
   \   000003   75..00       MOV       ?V2,#0x0
   \   000006   78..         MOV       R0,#?V0
   \   000008   22           RET
    878          
    879          
    880          /*********************************************************************
    881           * @fn      ZDO_ProcessBindUnbindReq()
    882           *
    883           * @brief   Called to process a Bind or Unbind Request message.
    884           *
    885           * @param   inMsg  - incoming message (request)
    886           * @param   pReq - place to put parsed information
    887           *
    888           * @return  none
    889           */

   \                                 In  segment BANKED_CODE, align 1, keep-with-next
    890          void ZDO_ProcessBindUnbindReq( zdoIncomingMsg_t *inMsg, ZDO_BindUnbindReq_t *pReq )
   \                     ZDO_ProcessBindUnbindReq:
    891          {
   \   000000                REQUIRE ?V0
   \   000000                REQUIRE ?V1
   \   000000                REQUIRE ?V2
   \   000000                REQUIRE ?V3
   \   000000                REQUIRE ?V4
   \   000000                REQUIRE ?V5
   \   000000                REQUIRE ?V6
   \   000000                REQUIRE ?V7
   \   000000   74F0         MOV       A,#-0x10
   \   000002   12....       LCALL     ?BANKED_ENTER_XDATA
   \   000005                ; Saved register size: 16
   \   000005                ; Auto size: 12
   \   000005   74F4         MOV       A,#-0xc
   \   000007   12....       LCALL     ?ALLOC_XSTACK8
   \   00000A   8A..         MOV       ?V2,R2
   \   00000C   8B..         MOV       ?V3,R3
   \   00000E   EC           MOV       A,R4
   \   00000F   FE           MOV       R6,A
   \   000010   ED           MOV       A,R5
   \   000011   FF           MOV       R7,A
    892            zAddrType_t SourceAddr;       // Binding Source addres
    893            byte bindStat;
    894          
    895            SourceAddr.addrMode = Addr64Bit;
   \   000012   740B         MOV       A,#0xb
   \   000014   12....       LCALL     ?XSTACK_DISP0_8
   \   000017   7403         MOV       A,#0x3
   \   000019   F0           MOVX      @DPTR,A
    896            osal_cpyExtAddr( SourceAddr.addr.extAddr, pReq->srcAddress );
   \   00001A                ; Setup parameters for call to function sAddrExtCpy
   \   00001A   12....       LCALL     ?XSTACK_DISP101_8
   \   00001D   12....       LCALL     `??sAddrExtCpy::?relay`; Banked call to: sAddrExtCpy
    897          
    898           
    899            // If the local device is not the primary binding cache
    900            // check the src address of the bind request.
    901            // If it is not the local device's extended address
    902            // discard the request.
    903            if ( !osal_ExtAddrEqual( SourceAddr.addr.extAddr, NLME_GetExtAddr()) ||
    904                  (pReq->dstAddress.addrMode != Addr64Bit &&
    905                   pReq->dstAddress.addrMode != AddrGroup) )
   \   000020                ; Setup parameters for call to function NLME_GetExtAddr
   \   000020   12....       LCALL     `??NLME_GetExtAddr::?relay`; Banked call to: NLME_GetExtAddr
   \   000023   8A..         MOV       ?V0,R2
   \   000025   8B..         MOV       ?V1,R3
   \   000027   AC..         MOV       R4,?V0
   \   000029   AD..         MOV       R5,?V1
   \   00002B                ; Setup parameters for call to function sAddrExtCmp
   \   00002B   7403         MOV       A,#0x3
   \   00002D   12....       LCALL     ?XSTACK_DISP101_8
   \   000030   12....       LCALL     `??sAddrExtCmp::?relay`; Banked call to: sAddrExtCmp
   \   000033   E9           MOV       A,R1
   \   000034   600E         JZ        ??ZDO_ProcessBindUnbindReq_0
   \   000036   12....       LCALL     ?Subroutine118 & 0xFFFF
   \                     ??CrossCallReturnLabel_175:
   \   000039   F8           MOV       R0,A
   \   00003A   7403         MOV       A,#0x3
   \   00003C   68           XRL       A,R0
   \   00003D   6010         JZ        ??ZDO_ProcessBindUnbindReq_1
   \   00003F   7401         MOV       A,#0x1
   \   000041   68           XRL       A,R0
   \   000042   600B         JZ        ??ZDO_ProcessBindUnbindReq_1
    906            {
    907              bindStat = ZDP_NOT_SUPPORTED;
   \                     ??ZDO_ProcessBindUnbindReq_0:
   \   000044   85..82       MOV       DPL,?XSP + 0
   \   000047   85..83       MOV       DPH,?XSP + 1
   \   00004A   7484         MOV       A,#-0x7c
   \   00004C   02....       LJMP      ??ZDO_ProcessBindUnbindReq_2 & 0xFFFF
    908            }
   \                     ??ZDO_ProcessBindUnbindReq_1:
   \   00004F   8E82         MOV       DPL,R6
   \   000051   8F83         MOV       DPH,R7
   \   000053   A3           INC       DPTR
   \   000054   A3           INC       DPTR
   \   000055   A3           INC       DPTR
   \   000056   A3           INC       DPTR
   \   000057   A3           INC       DPTR
   \   000058   A3           INC       DPTR
   \   000059   A3           INC       DPTR
   \   00005A   A3           INC       DPTR
   \   00005B   E0           MOVX      A,@DPTR
   \   00005C   F9           MOV       R1,A
   \   00005D   6021         JZ        ??ZDO_ProcessBindUnbindReq_3
   \   00005F   C3           CLR       C
   \   000060   94F1         SUBB      A,#-0xf
   \   000062   501C         JNC       ??ZDO_ProcessBindUnbindReq_3
   \   000064   EE           MOV       A,R6
   \   000065   2414         ADD       A,#0x14
   \   000067   F5..         MOV       ?V0,A
   \   000069   E4           CLR       A
   \   00006A   3F           ADDC      A,R7
   \   00006B   F5..         MOV       ?V1,A
   \   00006D   7403         MOV       A,#0x3
   \   00006F   68           XRL       A,R0
   \   000070   7019         JNZ       ??ZDO_ProcessBindUnbindReq_4
   \   000072   85..82       MOV       DPL,?V0
   \   000075   85..83       MOV       DPH,?V1
   \   000078   E0           MOVX      A,@DPTR
   \   000079   6005         JZ        ??ZDO_ProcessBindUnbindReq_3
   \   00007B   C3           CLR       C
   \   00007C   94F1         SUBB      A,#-0xf
   \   00007E   400B         JC        ??ZDO_ProcessBindUnbindReq_4
    909            else
    910            { 
    911              // Check source & destination endpoints
    912              if ( (pReq->srcEndpoint == 0 || pReq->srcEndpoint > MAX_ENDPOINTS)
    913                  || (( pReq->dstAddress.addrMode == Addr64Bit ) &&
    914                      (pReq->dstEndpoint == 0 || pReq->dstEndpoint > MAX_ENDPOINTS)) )
    915              {
    916                bindStat = ZDP_INVALID_EP;
   \                     ??ZDO_ProcessBindUnbindReq_3:
   \   000080   85..82       MOV       DPL,?XSP + 0
   \   000083   85..83       MOV       DPH,?XSP + 1
   \   000086   7482         MOV       A,#-0x7e
   \   000088   02....       LJMP      ??ZDO_ProcessBindUnbindReq_2 & 0xFFFF
    917              }
   \                     ??ZDO_ProcessBindUnbindReq_4:
   \   00008B   EE           MOV       A,R6
   \   00008C   240B         ADD       A,#0xb
   \   00008E   F5..         MOV       ?V6,A
   \   000090   E4           CLR       A
   \   000091   3F           ADDC      A,R7
   \   000092   F5..         MOV       ?V7,A
   \   000094   E5..         MOV       A,?V2
   \   000096   240C         ADD       A,#0xc
   \   000098   F582         MOV       DPL,A
   \   00009A   E4           CLR       A
   \   00009B   35..         ADDC      A,?V3
   \   00009D   F583         MOV       DPH,A
   \   00009F   E0           MOVX      A,@DPTR
   \   0000A0   6421         XRL       A,#0x21
   \   0000A2   7002         JNZ       ??ZDO_ProcessBindUnbindReq_5
   \   0000A4   A3           INC       DPTR
   \   0000A5   E0           MOVX      A,@DPTR
   \                     ??ZDO_ProcessBindUnbindReq_5:
   \   0000A6   6003         JZ        $+5
   \   0000A8   02....       LJMP      ??ZDO_ProcessBindUnbindReq_6 & 0xFFFF
    918              else
    919              {
    920                if ( inMsg->clusterID == Bind_req )
    921                {
    922                  // Assume the table is full
    923                  bindStat = ZDP_TABLE_FULL;
   \   0000AB   85..82       MOV       DPL,?XSP + 0
   \   0000AE   85..83       MOV       DPH,?XSP + 1
   \   0000B1   7487         MOV       A,#-0x79
   \   0000B3   F0           MOVX      @DPTR,A
    924                  
    925                  if ( bindNumOfEntries() < gNWK_MAX_BINDING_ENTRIES )
   \   0000B4                ; Setup parameters for call to function bindNumOfEntries
   \   0000B4   12....       LCALL     `??bindNumOfEntries::?relay`; Banked call to: bindNumOfEntries
   \   0000B7   90....       MOV       DPTR,#gNWK_MAX_BINDING_ENTRIES
   \   0000BA   E4           CLR       A
   \   0000BB   93           MOVC      A,@A+DPTR
   \   0000BC   F8           MOV       R0,A
   \   0000BD   7401         MOV       A,#0x1
   \   0000BF   93           MOVC      A,@A+DPTR
   \   0000C0   F9           MOV       R1,A
   \   0000C1   C3           CLR       C
   \   0000C2   EA           MOV       A,R2
   \   0000C3   98           SUBB      A,R0
   \   0000C4   EB           MOV       A,R3
   \   0000C5   99           SUBB      A,R1
   \   0000C6   4003         JC        $+5
   \   0000C8   02....       LJMP      ??ZDO_ProcessBindUnbindReq_7 & 0xFFFF
    926                  {
    927                    if ( APSME_BindRequest( pReq->srcEndpoint, pReq->clusterID,
    928                                   &(pReq->dstAddress), pReq->dstEndpoint ) == ZSuccess )
   \   0000CB                ; Setup parameters for call to function APSME_BindRequest
   \   0000CB   85..82       MOV       DPL,?V0
   \   0000CE   85..83       MOV       DPH,?V1
   \   0000D1   12....       LCALL     ??Subroutine217_0 & 0xFFFF
   \                     ??CrossCallReturnLabel_377:
   \   0000D4   12....       LCALL     ?PUSH_XSTACK_I_ONE
   \   0000D7   AC..         MOV       R4,?V6
   \   0000D9   AD..         MOV       R5,?V7
   \   0000DB   8E82         MOV       DPL,R6
   \   0000DD   8F83         MOV       DPH,R7
   \   0000DF   A3           INC       DPTR
   \   0000E0   A3           INC       DPTR
   \   0000E1   A3           INC       DPTR
   \   0000E2   A3           INC       DPTR
   \   0000E3   A3           INC       DPTR
   \   0000E4   A3           INC       DPTR
   \   0000E5   A3           INC       DPTR
   \   0000E6   A3           INC       DPTR
   \   0000E7   A3           INC       DPTR
   \   0000E8   12....       LCALL     ??Subroutine212_0 & 0xFFFF
   \                     ??CrossCallReturnLabel_358:
   \   0000EB   8E82         MOV       DPL,R6
   \   0000ED   8F83         MOV       DPH,R7
   \   0000EF   A3           INC       DPTR
   \   0000F0   A3           INC       DPTR
   \   0000F1   A3           INC       DPTR
   \   0000F2   A3           INC       DPTR
   \   0000F3   A3           INC       DPTR
   \   0000F4   A3           INC       DPTR
   \   0000F5   A3           INC       DPTR
   \   0000F6   A3           INC       DPTR
   \   0000F7   E0           MOVX      A,@DPTR
   \   0000F8   F9           MOV       R1,A
   \   0000F9   12....       LCALL     `??APSME_BindRequest::?relay`; Banked call to: APSME_BindRequest
   \   0000FC   7401         MOV       A,#0x1
   \   0000FE   12....       LCALL     ?DEALLOC_XSTACK8
   \   000101   E9           MOV       A,R1
   \   000102   706B         JNZ       ??ZDO_ProcessBindUnbindReq_7
    929                    {
    930                      uint16 nwkAddr;
    931                      
    932                      // valid entry
    933                      bindStat = ZDP_SUCCESS;
   \   000104   85..82       MOV       DPL,?XSP + 0
   \   000107   85..83       MOV       DPH,?XSP + 1
   \   00010A   E4           CLR       A
   \   00010B   F0           MOVX      @DPTR,A
    934                      
    935                      // Notify to save info into NV
    936                      ZDApp_NVUpdate();
   \   00010C                ; Setup parameters for call to function ZDApp_NVUpdate
   \   00010C   12....       LCALL     `??ZDApp_NVUpdate::?relay`; Banked call to: ZDApp_NVUpdate
    937                      
    938                      // Check for the destination address
    939                      if ( pReq->dstAddress.addrMode == Addr64Bit )
   \   00010F   12....       LCALL     ?Subroutine118 & 0xFFFF
   \                     ??CrossCallReturnLabel_176:
   \   000112   6403         XRL       A,#0x3
   \   000114   7059         JNZ       ??ZDO_ProcessBindUnbindReq_7
    940                      {
    941                        if ( APSME_LookupNwkAddr( pReq->dstAddress.addr.extAddr, &nwkAddr ) == FALSE )
   \   000116                ; Setup parameters for call to function APSME_LookupNwkAddr
   \   000116   7401         MOV       A,#0x1
   \   000118   12....       LCALL     ?XSTACK_DISP102_8
   \   00011B   AA..         MOV       R2,?V6
   \   00011D   AB..         MOV       R3,?V7
   \   00011F   12....       LCALL     `??APSME_LookupNwkAddr::?relay`; Banked call to: APSME_LookupNwkAddr
   \   000122   E9           MOV       A,R1
   \   000123   704A         JNZ       ??ZDO_ProcessBindUnbindReq_7
    942                        {
    943                          ZDP_NwkAddrReq( pReq->dstAddress.addr.extAddr, ZDP_ADDR_REQTYPE_SINGLE, 0, 0 );
   \   000125                ; Setup parameters for call to function ZDP_NwkAddrReq
   \   000125   7D00         MOV       R5,#0x0
   \   000127   7C00         MOV       R4,#0x0
   \   000129   7900         MOV       R1,#0x0
   \   00012B   AA..         MOV       R2,?V6
   \   00012D   AB..         MOV       R3,?V7
   \   00012F   12....       LCALL     `??ZDP_NwkAddrReq::?relay`; Banked call to: ZDP_NwkAddrReq
   \   000132   803B         SJMP      ??ZDO_ProcessBindUnbindReq_7
    944                        }
    945                      }
    946                    }
    947                  }
    948                }
    949                else // Unbind_req
    950                {
    951                  if ( APSME_UnBindRequest( pReq->srcEndpoint, pReq->clusterID,
    952                                 &(pReq->dstAddress), pReq->dstEndpoint ) == ZSuccess )
   \                     ??ZDO_ProcessBindUnbindReq_6:
   \   000134                ; Setup parameters for call to function APSME_UnBindRequest
   \   000134   85..82       MOV       DPL,?V0
   \   000137   85..83       MOV       DPH,?V1
   \   00013A   12....       LCALL     ??Subroutine217_0 & 0xFFFF
   \                     ??CrossCallReturnLabel_378:
   \   00013D   12....       LCALL     ?PUSH_XSTACK_I_ONE
   \   000140   AC..         MOV       R4,?V6
   \   000142   AD..         MOV       R5,?V7
   \   000144   8E82         MOV       DPL,R6
   \   000146   8F83         MOV       DPH,R7
   \   000148   A3           INC       DPTR
   \   000149   A3           INC       DPTR
   \   00014A   A3           INC       DPTR
   \   00014B   A3           INC       DPTR
   \   00014C   A3           INC       DPTR
   \   00014D   A3           INC       DPTR
   \   00014E   A3           INC       DPTR
   \   00014F   A3           INC       DPTR
   \   000150   A3           INC       DPTR
   \   000151   12....       LCALL     ??Subroutine212_0 & 0xFFFF
   \                     ??CrossCallReturnLabel_359:
   \   000154   12....       LCALL     `??APSME_UnBindRequest::?relay`; Banked call to: APSME_UnBindRequest
   \   000157   7401         MOV       A,#0x1
   \   000159   12....       LCALL     ?DEALLOC_XSTACK8
   \   00015C   E9           MOV       A,R1
   \   00015D   85..82       MOV       DPL,?XSP + 0
   \   000160   85..83       MOV       DPH,?XSP + 1
   \   000163   7007         JNZ       ??ZDO_ProcessBindUnbindReq_8
    953                  {
    954                    bindStat = ZDP_SUCCESS;
   \   000165   E4           CLR       A
   \   000166   F0           MOVX      @DPTR,A
    955              
    956                    // Notify to save info into NV
    957                    ZDApp_NVUpdate();
   \   000167                ; Setup parameters for call to function ZDApp_NVUpdate
   \   000167   12....       LCALL     `??ZDApp_NVUpdate::?relay`; Banked call to: ZDApp_NVUpdate
   \   00016A   8003         SJMP      ??ZDO_ProcessBindUnbindReq_7
    958                  }
    959                  else
    960                    bindStat = ZDP_NO_ENTRY;
   \                     ??ZDO_ProcessBindUnbindReq_8:
   \   00016C   7488         MOV       A,#-0x78
   \                     ??ZDO_ProcessBindUnbindReq_2:
   \   00016E   F0           MOVX      @DPTR,A
    961                }
    962              }
    963            }
    964            
    965            // Send back a response message
    966            ZDP_SendData( &(inMsg->TransSeq), &(inMsg->srcAddr), 
    967                         (inMsg->clusterID | ZDO_RESPONSE_BIT), 1, &bindStat, 
    968                         inMsg->SecurityUse );
   \                     ??ZDO_ProcessBindUnbindReq_7:
   \   00016F                ; Setup parameters for call to function ZDP_SendData
   \   00016F   E5..         MOV       A,?V2
   \   000171   12....       LCALL     ??Subroutine232_0 & 0xFFFF
   \                     ??CrossCallReturnLabel_451:
   \   000174   35..         ADDC      A,?V3
   \   000176   12....       LCALL     ??Subroutine216_0 & 0xFFFF
   \                     ??CrossCallReturnLabel_380:
   \   000179   12....       LCALL     ?PUSH_XSTACK_I_ONE
   \   00017C   7401         MOV       A,#0x1
   \   00017E   12....       LCALL     ?XSTACK_DISP100_8
   \   000181   88..         MOV       ?V0,R0
   \   000183   89..         MOV       ?V1,R1
   \   000185   78..         MOV       R0,#?V0
   \   000187   12....       LCALL     ?PUSH_XSTACK_I_TWO
   \   00018A   E5..         MOV       A,?V2
   \   00018C   240C         ADD       A,#0xc
   \   00018E   F582         MOV       DPL,A
   \   000190   E4           CLR       A
   \   000191   35..         ADDC      A,?V3
   \   000193   12....       LCALL     ??Subroutine201_0 & 0xFFFF
   \                     ??CrossCallReturnLabel_312:
   \   000196   4480         ORL       A,#0x80
   \   000198   F5..         MOV       ?V1,A
   \   00019A   78..         MOV       R0,#?V0
   \   00019C   12....       LCALL     ?PUSH_XSTACK_I_TWO
   \   00019F   7901         MOV       R1,#0x1
   \   0001A1   E5..         MOV       A,?V2
   \   0001A3   2402         ADD       A,#0x2
   \   0001A5   FC           MOV       R4,A
   \   0001A6   E4           CLR       A
   \   0001A7   35..         ADDC      A,?V3
   \   0001A9   FD           MOV       R5,A
   \   0001AA   E5..         MOV       A,?V2
   \   0001AC   240F         ADD       A,#0xf
   \   0001AE   FA           MOV       R2,A
   \   0001AF   E4           CLR       A
   \   0001B0   35..         ADDC      A,?V3
   \   0001B2   12....       LCALL     ?Subroutine139 & 0xFFFF
   \                     ??CrossCallReturnLabel_296:
   \   0001B5   12....       LCALL     ?DEALLOC_XSTACK8
    969          }
   \   0001B8   740C         MOV       A,#0xc
   \   0001BA   02....       LJMP      ?Subroutine6 & 0xFFFF

   \                                 In  segment BANKED_CODE, align 1, keep-with-next
   \                     ?Subroutine139:
   \   000000   FB           MOV       R3,A
   \   000001                REQUIRE ??Subroutine199_0
   \   000001                ; // Fall through to label ??Subroutine199_0

   \                                 In  segment BANKED_CODE, align 1, keep-with-next
   \                     ??Subroutine199_0:
   \   000000   12....       LCALL     `??ZDP_SendData::?relay`; Banked call to: ZDP_SendData
   \   000003   7405         MOV       A,#0x5
   \   000005   22           RET

   \                                 In  segment BANKED_CODE, align 1, keep-with-next
   \                     ?Subroutine118:
   \   000000   EE           MOV       A,R6
   \   000001   2413         ADD       A,#0x13
   \   000003   12....       LCALL     ?Subroutine177 & 0xFFFF
   \                     ??CrossCallReturnLabel_308:
   \   000006   22           RET
    970          
    971          /*********************************************************************
    972           * @fn      ZDO_UpdateAddrManager
    973           *
    974           * @brief   Update the Address Manager.
    975           *
    976           * @param   nwkAddr - network address
    977           * @param   extAddr - extended address
    978           *
    979           * @return  none
    980           */

   \                                 In  segment BANKED_CODE, align 1, keep-with-next
    981          void ZDO_UpdateAddrManager( uint16 nwkAddr, uint8 *extAddr )
   \                     ZDO_UpdateAddrManager:
    982          {
   \   000000   C082         PUSH      DPL
   \   000002   C083         PUSH      DPH
   \   000004                ; Saved register size: 2
   \   000004                ; Auto size: 13
   \   000004   74F3         MOV       A,#-0xd
   \   000006   12....       LCALL     ?ALLOC_XSTACK8
    983            AddrMgrEntry_t addrEntry;
    984          
    985            // Update the address manager
    986            addrEntry.user = ADDRMGR_USER_DEFAULT;
   \   000009   85..82       MOV       DPL,?XSP + 0
   \   00000C   85..83       MOV       DPH,?XSP + 1
   \   00000F   E4           CLR       A
   \   000010   F0           MOVX      @DPTR,A
    987            addrEntry.nwkAddr = nwkAddr;
   \   000011   04           INC       A
   \   000012   12....       LCALL     ?XSTACK_DISP0_8
   \   000015   12....       LCALL     ??Subroutine206_0 & 0xFFFF
    988            AddrMgrExtAddrSet( addrEntry.extAddr, extAddr );
   \                     ??CrossCallReturnLabel_332:
   \   000018                ; Setup parameters for call to function AddrMgrExtAddrSet
   \   000018   7403         MOV       A,#0x3
   \   00001A   12....       LCALL     ?XSTACK_DISP0_8
   \   00001D   AA82         MOV       R2,DPL
   \   00001F   AB83         MOV       R3,DPH
   \   000021   12....       LCALL     `??AddrMgrExtAddrSet::?relay`; Banked call to: AddrMgrExtAddrSet
    989            AddrMgrEntryUpdate( &addrEntry );
   \   000024                ; Setup parameters for call to function AddrMgrEntryUpdate
   \   000024   AA..         MOV       R2,?XSP + 0
   \   000026   AB..         MOV       R3,?XSP + 1
   \   000028   12....       LCALL     `??AddrMgrEntryUpdate::?relay`; Banked call to: AddrMgrEntryUpdate
    990          }
   \   00002B   740D         MOV       A,#0xd
   \   00002D   12....       LCALL     ?DEALLOC_XSTACK8
   \   000030   02....       LJMP      ?Subroutine0 & 0xFFFF
    991          
    992          /*********************************************************************
    993           * @fn      ZDO_ProcessServerDiscReq
    994           *
    995           * @brief   Process the Server_Discovery_req message.
    996           *
    997           * @param   inMsg  - incoming message (request)
    998           *
    999           * @return  none
   1000           */

   \                                 In  segment BANKED_CODE, align 1, keep-with-next
   1001          void ZDO_ProcessServerDiscReq( zdoIncomingMsg_t *inMsg )
   \                     ZDO_ProcessServerDiscReq:
   1002          {
   \   000000                REQUIRE ?V0
   \   000000                REQUIRE ?V1
   \   000000   74F6         MOV       A,#-0xa
   \   000002   12....       LCALL     ?BANKED_ENTER_XDATA
   \   000005                ; Saved register size: 10
   \   000005                ; Auto size: 0
   \   000005   12....       LCALL     ?Subroutine120 & 0xFFFF
   1003            uint16 serverMask = BUILD_UINT16( inMsg->asdu[0], inMsg->asdu[1] );
   1004            uint16 matchMask = serverMask & ZDO_Config_Node_Descriptor.ServerMask;
   \                     ??CrossCallReturnLabel_179:
   \   000008   12....       LCALL     ?Subroutine105 & 0xFFFF
   \                     ??CrossCallReturnLabel_150:
   \   00000B   12....       LCALL     ??Subroutine259_0 & 0xFFFF
   \                     ??CrossCallReturnLabel_636:
   \   00000E   F9           MOV       R1,A
   \   00000F   EA           MOV       A,R2
   \   000010   F8           MOV       R0,A
   \   000011   90....       MOV       DPTR,#ZDO_Config_Node_Descriptor + 8
   \   000014   E0           MOVX      A,@DPTR
   \   000015   58           ANL       A,R0
   \   000016   F5..         MOV       ?V0,A
   \   000018   A3           INC       DPTR
   \   000019   E0           MOVX      A,@DPTR
   \   00001A   59           ANL       A,R1
   \   00001B   F5..         MOV       ?V1,A
   1005          
   1006            if ( matchMask )
   \   00001D   E5..         MOV       A,?V0
   \   00001F   45..         ORL       A,?V1
   \   000021   6028         JZ        ??ZDO_ProcessServerDiscReq_0
   1007            {
   1008              ZDP_ServerDiscRsp( inMsg->TransSeq, &(inMsg->srcAddr), ZSUCCESS, 
   1009                          ZDAppNwkAddr.addr.shortAddr, matchMask, inMsg->SecurityUse );
   \   000023                ; Setup parameters for call to function ZDP_ServerDiscRsp
   \   000023   78..         MOV       R0,#?V0
   \   000025   12....       LCALL     ?PUSH_XSTACK_I_TWO
   \   000028   90....       MOV       DPTR,#ZDAppNwkAddr
   \   00002B   12....       LCALL     ?PUSH_XSTACK8_X_TWO
   \   00002E   EE           MOV       A,R6
   \   00002F   12....       LCALL     ??Subroutine232_0 & 0xFFFF
   1010            }
   \                     ??CrossCallReturnLabel_452:
   \   000032   12....       LCALL     ??Subroutine200_0 & 0xFFFF
   \                     ??CrossCallReturnLabel_302:
   \   000035   FD           MOV       R5,A
   \   000036   7C00         MOV       R4,#0x0
   \   000038   12....       LCALL     ?Subroutine178 & 0xFFFF
   \                     ??CrossCallReturnLabel_265:
   \   00003B   EE           MOV       A,R6
   \   00003C   12....       LCALL     ?Subroutine130 & 0xFFFF
   \                     ??CrossCallReturnLabel_200:
   \   00003F   12....       LCALL     ??Subroutine200_0 & 0xFFFF
   \                     ??CrossCallReturnLabel_303:
   \   000042   F9           MOV       R1,A
   \   000043   12....       LCALL     `??ZDP_ServerDiscRsp::?relay`; Banked call to: ZDP_ServerDiscRsp
   \   000046   7404         MOV       A,#0x4
   \   000048   12....       LCALL     ?DEALLOC_XSTACK8
   1011          }
   \                     ??ZDO_ProcessServerDiscReq_0:
   \   00004B   02....       LJMP      ??Subroutine198_0 & 0xFFFF

   \                                 In  segment BANKED_CODE, align 1, keep-with-next
   \                     ?Subroutine120:
   \   000000   12....       LCALL     ?Subroutine182 & 0xFFFF
   \                     ??CrossCallReturnLabel_371:
   \   000003   3F           ADDC      A,R7
   \   000004   F583         MOV       DPH,A
   \   000006   22           RET

   \                                 In  segment BANKED_CODE, align 1, keep-with-next
   \                     ?Subroutine130:
   \   000000   240F         ADD       A,#0xf
   \   000002   F582         MOV       DPL,A
   \   000004   E4           CLR       A
   \   000005   22           RET
   1012          
   1013          /*********************************************************************
   1014           * Call Back Functions from APS  - API
   1015           */
   1016          
   1017          /*********************************************************************
   1018           * @fn          ZDO_EndDeviceTimeoutCB
   1019           *
   1020           * @brief       This function handles the binding timer for the End
   1021           *              Device Bind command.
   1022           *
   1023           * @param       none
   1024           *
   1025           * @return      none
   1026           */

   \                                 In  segment BANKED_CODE, align 1, keep-with-next
   1027          void ZDO_EndDeviceTimeoutCB( void )
   \                     ZDO_EndDeviceTimeoutCB:
   1028          {
   \   000000                REQUIRE ?V0
   \   000000                REQUIRE ?V1
   \   000000   74F6         MOV       A,#-0xa
   \   000002   12....       LCALL     ?BANKED_ENTER_XDATA
   \   000005                ; Saved register size: 10
   \   000005                ; Auto size: 2
   \   000005   74FE         MOV       A,#-0x2
   \   000007   12....       LCALL     ?ALLOC_XSTACK8
   1029          #if defined ( REFLECTOR )
   1030            byte stat;
   1031            if ( ZDO_EDBind )
   \   00000A   90....       MOV       DPTR,#ZDO_EDBind
   \   00000D   12....       LCALL     ??Subroutine221_0 & 0xFFFF
   \                     ??CrossCallReturnLabel_395:
   \   000010   7003         JNZ       $+5
   \   000012   02....       LJMP      ??ZDO_EndDeviceTimeoutCB_0 & 0xFFFF
   1032            {
   1033              stat = ZDO_EDBind->status;
   1034          
   1035              // Send the response message to the first sent
   1036              ZDO_SendEDBindRsp( ZDO_EDBind->SrcTransSeq, &(ZDO_EDBind->SrcAddr),
   1037                                  stat, ZDO_EDBind->SecurityUse );
   \   000015   E8           MOV       A,R0
   \   000016   2416         ADD       A,#0x16
   \   000018   F582         MOV       DPL,A
   \   00001A   E4           CLR       A
   \   00001B   39           ADDC      A,R1
   \   00001C   F583         MOV       DPH,A
   \   00001E   E0           MOVX      A,@DPTR
   \   00001F   85..82       MOV       DPL,?XSP + 0
   \   000022   85..83       MOV       DPH,?XSP + 1
   \   000025   12....       LCALL     ?Subroutine42 & 0xFFFF
   \                     ??CrossCallReturnLabel_52:
   \   000028   F583         MOV       DPH,A
   \   00002A   8882         MOV       DPL,R0
   \   00002C   E0           MOVX      A,@DPTR
   \   00002D   C0E0         PUSH      A
   \   00002F   7401         MOV       A,#0x1
   \   000031   12....       LCALL     ?XSTACK_DISP0_8
   \   000034   D0E0         POP       A
   \   000036   12....       LCALL     ?Subroutine42 & 0xFFFF
   \                     ??CrossCallReturnLabel_51:
   \   000039   C8           XCH       A,R0
   \   00003A   2415         ADD       A,#0x15
   \   00003C   12....       LCALL     ??Subroutine215_0 & 0xFFFF
   \                     ??CrossCallReturnLabel_382:
   \   00003F   12....       LCALL     ?PUSH_XSTACK_I_ONE
   \   000042   7401         MOV       A,#0x1
   \   000044   12....       LCALL     ?XSTACK_DISP100_8
   \   000047   88..         MOV       ?V0,R0
   \   000049   89..         MOV       ?V1,R1
   \   00004B   78..         MOV       R0,#?V0
   \   00004D   12....       LCALL     ?PUSH_XSTACK_I_TWO
   \   000050   75..20       MOV       ?V0,#0x20
   \   000053   75..80       MOV       ?V1,#-0x80
   \   000056   78..         MOV       R0,#?V0
   \   000058   12....       LCALL     ?PUSH_XSTACK_I_TWO
   \   00005B   7901         MOV       R1,#0x1
   \   00005D   90....       MOV       DPTR,#ZDO_EDBind
   \   000060   E0           MOVX      A,@DPTR
   \   000061   29           ADD       A,R1
   \   000062   FC           MOV       R4,A
   \   000063   A3           INC       DPTR
   \   000064   E0           MOVX      A,@DPTR
   \   000065   3400         ADDC      A,#0x0
   \   000067   FD           MOV       R5,A
   \   000068   7406         MOV       A,#0x6
   \   00006A   12....       LCALL     ?XSTACK_DISP101_8
   \   00006D   12....       LCALL     ??Subroutine199_0 & 0xFFFF
   \                     ??CrossCallReturnLabel_299:
   \   000070   12....       LCALL     ?DEALLOC_XSTACK8
   \   000073                ; Setup parameters for call to function HalLcdWriteString
   \   000073   7901         MOV       R1,#0x1
   \   000075   7A..         MOV       R2,#`?<Constant "End Device Bind">` & 0xff
   \   000077   7B..         MOV       R3,#(`?<Constant "End Device Bind">` >> 8) & 0xff
   \   000079   12....       LCALL     `??HalLcdWriteString::?relay`; Banked call to: HalLcdWriteString
   \   00007C   85..82       MOV       DPL,?XSP + 0
   \   00007F   85..83       MOV       DPH,?XSP + 1
   \   000082   E0           MOVX      A,@DPTR
   \   000083   7902         MOV       R1,#0x2
   \   000085   7006         JNZ       ??ZDO_EndDeviceTimeoutCB_1
   \   000087                ; Setup parameters for call to function HalLcdWriteString
   \   000087   7A..         MOV       R2,#`?<Constant "Success Sent">` & 0xff
   \   000089   7B..         MOV       R3,#(`?<Constant "Success Sent">` >> 8) & 0xff
   \   00008B   8004         SJMP      ??ZDO_EndDeviceTimeoutCB_2
   \                     ??ZDO_EndDeviceTimeoutCB_1:
   \   00008D                ; Setup parameters for call to function HalLcdWriteString
   \   00008D   7A..         MOV       R2,#`?<Constant "Timeout">` & 0xff
   \   00008F   7B..         MOV       R3,#(`?<Constant "Timeout">` >> 8) & 0xff
   \                     ??ZDO_EndDeviceTimeoutCB_2:
   \   000091   12....       LCALL     `??HalLcdWriteString::?relay`; Banked call to: HalLcdWriteString
   1038          
   1039              ZDO_RemoveEndDeviceBind();
   \   000094   90....       MOV       DPTR,#ZDO_EDBind
   \   000097   12....       LCALL     ??Subroutine221_0 & 0xFFFF
   \                     ??CrossCallReturnLabel_396:
   \   00009A   602C         JZ        ??ZDO_EndDeviceTimeoutCB_0
   \   00009C   E8           MOV       A,R0
   \   00009D   2410         ADD       A,#0x10
   \   00009F   F582         MOV       DPL,A
   \   0000A1   E4           CLR       A
   \   0000A2   39           ADDC      A,R1
   \   0000A3   12....       LCALL     ??Subroutine224_0 & 0xFFFF
   \                     ??CrossCallReturnLabel_416:
   \   0000A6   6003         JZ        ??ZDO_EndDeviceTimeoutCB_3
   \   0000A8                ; Setup parameters for call to function osal_mem_free
   \   0000A8   12....       LCALL     `??osal_mem_free::?relay`; Banked call to: osal_mem_free
   \                     ??ZDO_EndDeviceTimeoutCB_3:
   \   0000AB   90....       MOV       DPTR,#ZDO_EDBind
   \   0000AE   12....       LCALL     ??Subroutine240_0 & 0xFFFF
   \                     ??CrossCallReturnLabel_515:
   \   0000B1   2413         ADD       A,#0x13
   \   0000B3   12....       LCALL     ?Subroutine46 & 0xFFFF
   \                     ??CrossCallReturnLabel_420:
   \   0000B6   6003         JZ        ??ZDO_EndDeviceTimeoutCB_4
   \   0000B8                ; Setup parameters for call to function osal_mem_free
   \   0000B8   12....       LCALL     `??osal_mem_free::?relay`; Banked call to: osal_mem_free
   \                     ??ZDO_EndDeviceTimeoutCB_4:
   \   0000BB                ; Setup parameters for call to function osal_mem_free
   \   0000BB   90....       MOV       DPTR,#ZDO_EDBind
   \   0000BE   12....       LCALL     ??Subroutine205_0 & 0xFFFF
   \                     ??CrossCallReturnLabel_324:
   \   0000C1   90....       MOV       DPTR,#ZDO_EDBind
   \   0000C4   E4           CLR       A
   \   0000C5   F0           MOVX      @DPTR,A
   \   0000C6   A3           INC       DPTR
   \   0000C7   F0           MOVX      @DPTR,A
   1040            }
   1041          #endif  // REFLECTOR
   1042          }
   \                     ??ZDO_EndDeviceTimeoutCB_0:
   \   0000C8   02....       LJMP      ?Subroutine3 & 0xFFFF

   \                                 In  segment BANKED_CODE, align 1, keep-with-next
   \                     ?Subroutine42:
   \   000000   F0           MOVX      @DPTR,A
   \   000001                ; Setup parameters for call to function ZDP_SendData
   \   000001   90....       MOV       DPTR,#ZDO_EDBind
   \   000004   12....       LCALL     ?Subroutine192 & 0xFFFF
   \                     ??CrossCallReturnLabel_547:
   \   000007   22           RET

   \                                 In  segment BANKED_CODE, align 1, keep-with-next
   \                     ?Subroutine46:
   \   000000   F582         MOV       DPL,A
   \   000002   E4           CLR       A
   \   000003   38           ADDC      A,R0
   \   000004                REQUIRE ??Subroutine224_0
   \   000004                ; // Fall through to label ??Subroutine224_0

   \                                 In  segment BANKED_CODE, align 1, keep-with-next
   \                     ??Subroutine224_0:
   \   000000   F583         MOV       DPH,A
   \   000002                REQUIRE ??Subroutine225_0
   \   000002                ; // Fall through to label ??Subroutine225_0

   \                                 In  segment BANKED_CODE, align 1, keep-with-next
   \                     ??Subroutine225_0:
   \   000000   12....       LCALL     ?Subroutine161 & 0xFFFF
   \                     ??CrossCallReturnLabel_431:
   \   000003   EA           MOV       A,R2
   \   000004   4B           ORL       A,R3
   \   000005   22           RET
   1043          
   1044          /*********************************************************************
   1045           * Optional Management Messages
   1046           */
   1047          
   1048          /*********************************************************************
   1049           * @fn          ZDO_ProcessMgmtLqiReq
   1050           *
   1051           * @brief       This function handles parsing the incoming Management
   1052           *              LQI request and generate the response.
   1053           *
   1054           *   Note:      This function will limit the number of items returned
   1055           *              to ZDO_MAX_LQI_ITEMS items.
   1056           *
   1057           * @param       inMsg - incoming message (request)
   1058           *
   1059           * @return      none
   1060           */

   \                                 In  segment BANKED_CODE, align 1, keep-with-next
   1061          void ZDO_ProcessMgmtLqiReq( zdoIncomingMsg_t *inMsg )
   \                     ZDO_ProcessMgmtLqiReq:
   1062          {
   \   000000                REQUIRE ?V0
   \   000000                REQUIRE ?V1
   \   000000                REQUIRE ?V2
   \   000000                REQUIRE ?V3
   \   000000                REQUIRE ?V4
   \   000000                REQUIRE ?V5
   \   000000                REQUIRE ?V6
   \   000000                REQUIRE ?V7
   \   000000   74F0         MOV       A,#-0x10
   \   000002   12....       LCALL     ?BANKED_ENTER_XDATA
   \   000005                ; Saved register size: 16
   \   000005                ; Auto size: 43
   \   000005   74D5         MOV       A,#-0x2b
   \   000007   12....       LCALL     ?ALLOC_XSTACK8
   \   00000A   7405         MOV       A,#0x5
   \   00000C   12....       LCALL     ?XSTACK_DISP0_8
   \   00000F   12....       LCALL     ??Subroutine206_0 & 0xFFFF
   1063            byte x;
   1064            byte index;
   1065            byte numItems;
   1066            byte maxItems;
   1067            ZDP_MgmtLqiItem_t* table = NULL;
   \                     ??CrossCallReturnLabel_333:
   \   000012   7401         MOV       A,#0x1
   \   000014   12....       LCALL     ?XSTACK_DISP0_8
   \   000017   E4           CLR       A
   \   000018   F0           MOVX      @DPTR,A
   \   000019   A3           INC       DPTR
   \   00001A   F0           MOVX      @DPTR,A
   1068            ZDP_MgmtLqiItem_t* item;
   1069            neighborEntry_t    entry;
   1070            byte aItems;
   1071            associated_devices_t *aDevice;
   1072            AddrMgrEntry_t  nwkEntry;
   1073            uint8 StartIndex = inMsg->asdu[0];
   \   00001B   7405         MOV       A,#0x5
   \   00001D   12....       LCALL     ?XSTACK_DISP0_8
   \   000020   12....       LCALL     ?Subroutine80 & 0xFFFF
   \                     ??CrossCallReturnLabel_111:
   \   000023   12....       LCALL     ?Subroutine60 & 0xFFFF
   \                     ??CrossCallReturnLabel_349:
   \   000026   F5..         MOV       ?V3,A
   1074          
   1075            // Get the number of neighbor items
   1076            NLME_GetRequest( nwkNumNeighborTableEntries, 0, &maxItems );
   \   000028                ; Setup parameters for call to function NLME_GetRequest
   \   000028   AC..         MOV       R4,?XSP + 0
   \   00002A   AD..         MOV       R5,?XSP + 1
   \   00002C   7A00         MOV       R2,#0x0
   \   00002E   7B00         MOV       R3,#0x0
   \   000030   799C         MOV       R1,#-0x64
   \   000032   12....       LCALL     `??NLME_GetRequest::?relay`; Banked call to: NLME_GetRequest
   1077          
   1078            // Get the number of associated items
   1079            aItems = (uint8)AssocCount( PARENT, CHILD_FFD_RX_IDLE );
   \   000035                ; Setup parameters for call to function AssocCount
   \   000035   7A04         MOV       R2,#0x4
   \   000037   7900         MOV       R1,#0x0
   \   000039   12....       LCALL     `??AssocCount::?relay`; Banked call to: AssocCount
   \   00003C   EA           MOV       A,R2
   \   00003D   F5..         MOV       ?V4,A
   1080          
   1081            // Total number of items
   1082            maxItems += aItems;
   \   00003F   85..82       MOV       DPL,?XSP + 0
   \   000042   85..83       MOV       DPH,?XSP + 1
   \   000045   E0           MOVX      A,@DPTR
   \   000046   2A           ADD       A,R2
   \   000047   F0           MOVX      @DPTR,A
   1083          
   1084            // Start with the supplied index
   1085            if ( maxItems > StartIndex )
   \   000048   F8           MOV       R0,A
   \   000049   E5..         MOV       A,?V3
   \   00004B   C3           CLR       C
   \   00004C   98           SUBB      A,R0
   \   00004D   4003         JC        $+5
   \   00004F   02....       LJMP      ??ZDO_ProcessMgmtLqiReq_0 & 0xFFFF
   1086            {
   1087              numItems = maxItems - StartIndex;
   \   000052   E0           MOVX      A,@DPTR
   \   000053   C3           CLR       C
   \   000054   95..         SUBB      A,?V3
   \   000056   F5..         MOV       ?V1,A
   1088          
   1089              // limit the size of the list
   1090              if ( numItems > ZDO_MAX_LQI_ITEMS )
   \   000058   C3           CLR       C
   \   000059   9404         SUBB      A,#0x4
   \   00005B   4003         JC        ??ZDO_ProcessMgmtLqiReq_1
   1091                numItems = ZDO_MAX_LQI_ITEMS;
   \   00005D   75..03       MOV       ?V1,#0x3
   1092            
   1093              // Allocate the memory to build the table
   1094              table = (ZDP_MgmtLqiItem_t*)osal_mem_alloc( (short)
   1095                        ( numItems * sizeof( ZDP_MgmtLqiItem_t ) ) );
   \                     ??ZDO_ProcessMgmtLqiReq_1:
   \   000060                ; Setup parameters for call to function osal_mem_alloc
   \   000060   E5..         MOV       A,?V1
   \   000062   75F01A       MOV       B,#0x1a
   \   000065   A4           MUL       AB
   \   000066   FA           MOV       R2,A
   \   000067   ABF0         MOV       R3,B
   \   000069   12....       LCALL     `??osal_mem_alloc::?relay`; Banked call to: osal_mem_alloc
   \   00006C   7401         MOV       A,#0x1
   \   00006E   12....       LCALL     ?XSTACK_DISP0_8
   \   000071   12....       LCALL     ??Subroutine206_0 & 0xFFFF
   1096            
   1097              if ( table != NULL )
   \                     ??CrossCallReturnLabel_334:
   \   000074   7401         MOV       A,#0x1
   \   000076   12....       LCALL     ?XSTACK_DISP0_8
   \   000079   12....       LCALL     ??Subroutine221_0 & 0xFFFF
   \                     ??CrossCallReturnLabel_397:
   \   00007C   7003         JNZ       $+5
   \   00007E   02....       LJMP      ??ZDO_ProcessMgmtLqiReq_2 & 0xFFFF
   1098              {
   1099                x = 0;
   \   000081   75..00       MOV       ?V2,#0x0
   1100                item = table;
   \   000084   7401         MOV       A,#0x1
   \   000086   12....       LCALL     ?XSTACK_DISP0_8
   \   000089   12....       LCALL     ??Subroutine237_0 & 0xFFFF
   1101                index = StartIndex;
   \                     ??CrossCallReturnLabel_498:
   \   00008C   85....       MOV       ?V0,?V3
   \   00008F   02....       LJMP      ??ZDO_ProcessMgmtLqiReq_3 & 0xFFFF
   1102            
   1103                // Loop through associated items and build list
   1104                for ( ; x < numItems; x++ )
   1105                {
   1106                  if ( index < aItems )
   1107                  {
   1108                    // get next associated device
   1109                    aDevice = AssocFindDevice( index++ );
   1110            
   1111                    // set basic fields
   1112                    item->panID   = _NIB.nwkPanId;
   1113                    osal_cpyExtAddr( item->extPanID, _NIB.extendedPANID );
   1114                    item->nwkAddr = aDevice->shortAddr;
   1115                    item->permit  = ZDP_MGMT_BOOL_UNKNOWN;
   1116                    item->depth   = 0xFF;
   1117                    item->lqi     = aDevice->linkInfo.rxLqi;
   1118                    
   1119                    // set extented address
   1120                    nwkEntry.user    = ADDRMGR_USER_DEFAULT;
   1121                    nwkEntry.nwkAddr = aDevice->shortAddr;    
   1122                    
   1123                    if ( AddrMgrEntryLookupNwk( &nwkEntry ) == TRUE )
   1124                    {
   1125                      osal_cpyExtAddr( item->extAddr, nwkEntry.extAddr );
   1126                    }
   1127                    else
   1128                    {
   1129                      osal_memset( item->extAddr, 0xFF, Z_EXTADDR_LEN );
   \                     ??ZDO_ProcessMgmtLqiReq_4:
   \   000092                ; Setup parameters for call to function osal_memset
   \   000092   7C08         MOV       R4,#0x8
   \   000094   7D00         MOV       R5,#0x0
   \   000096   79FF         MOV       R1,#-0x1
   \   000098   AA..         MOV       R2,?V6
   \   00009A   AB..         MOV       R3,?V7
   \   00009C   12....       LCALL     `??osal_memset::?relay`; Banked call to: osal_memset
   1130                    }
   1131            
   1132                    // use association info to set other fields
   1133                    if ( aDevice->nodeRelation == PARENT )
   \                     ??ZDO_ProcessMgmtLqiReq_5:
   \   00009F   7403         MOV       A,#0x3
   \   0000A1   12....       LCALL     ?XSTACK_DISP0_8
   \   0000A4   E0           MOVX      A,@DPTR
   \   0000A5   2404         ADD       A,#0x4
   \   0000A7   F8           MOV       R0,A
   \   0000A8   A3           INC       DPTR
   \   0000A9   E0           MOVX      A,@DPTR
   \   0000AA   3400         ADDC      A,#0x0
   \   0000AC   F9           MOV       R1,A
   \   0000AD   EE           MOV       A,R6
   \   0000AE   2415         ADD       A,#0x15
   \   0000B0   FA           MOV       R2,A
   \   0000B1   E4           CLR       A
   \   0000B2   3F           ADDC      A,R7
   \   0000B3   FB           MOV       R3,A
   \   0000B4   EE           MOV       A,R6
   \   0000B5   2414         ADD       A,#0x14
   \   0000B7   FC           MOV       R4,A
   \   0000B8   E4           CLR       A
   \   0000B9   3F           ADDC      A,R7
   \   0000BA   FD           MOV       R5,A
   \   0000BB   8882         MOV       DPL,R0
   \   0000BD   8983         MOV       DPH,R1
   \   0000BF   E0           MOVX      A,@DPTR
   \   0000C0   7034         JNZ       ??ZDO_ProcessMgmtLqiReq_6
   1134                    {
   1135                      if (  aDevice->shortAddr == 0 )
   \   0000C2   7403         MOV       A,#0x3
   \   0000C4   12....       LCALL     ?XSTACK_DISP0_8
   \   0000C7   E0           MOVX      A,@DPTR
   \   0000C8   12....       LCALL     ?Subroutine96 & 0xFFFF
   \                     ??CrossCallReturnLabel_645:
   \   0000CB   12....       LCALL     ??Subroutine221_0 & 0xFFFF
   \                     ??CrossCallReturnLabel_398:
   \   0000CE   8C82         MOV       DPL,R4
   \   0000D0   8D83         MOV       DPH,R5
   \   0000D2   7008         JNZ       ??ZDO_ProcessMgmtLqiReq_7
   1136                      {
   1137                        item->devType = ZDP_MGMT_DT_COORD;
   \   0000D4   E4           CLR       A
   \   0000D5   F0           MOVX      @DPTR,A
   1138                        item->depth = 0;
   \   0000D6   12....       LCALL     ?Subroutine142 & 0xFFFF
   1139                      }
   \                     ??CrossCallReturnLabel_225:
   \   0000D9   E4           CLR       A
   \   0000DA   800F         SJMP      ??ZDO_ProcessMgmtLqiReq_8
   1140                      else
   1141                      {
   1142                        item->devType = ZDP_MGMT_DT_ROUTER;
   \                     ??ZDO_ProcessMgmtLqiReq_7:
   \   0000DC   7401         MOV       A,#0x1
   \   0000DE   F0           MOVX      @DPTR,A
   1143                        item->depth = _NIB.nodeDepth - 1;
   \   0000DF   90....       MOV       DPTR,#_NIB + 52
   \   0000E2   E0           MOVX      A,@DPTR
   \   0000E3   14           DEC       A
   \   0000E4   C0E0         PUSH      A
   \   0000E6   12....       LCALL     ?Subroutine142 & 0xFFFF
   1144                      }
   \                     ??CrossCallReturnLabel_226:
   \   0000E9   D0E0         POP       A
   \                     ??ZDO_ProcessMgmtLqiReq_8:
   \   0000EB   F0           MOVX      @DPTR,A
   1145            
   1146                      item->rxOnIdle = ZDP_MGMT_BOOL_UNKNOWN;
   \   0000EC   8A82         MOV       DPL,R2
   \   0000EE   8B83         MOV       DPH,R3
   \   0000F0   12....       LCALL     ?Subroutine17 & 0xFFFF
   1147                      item->relation = ZDP_MGMT_REL_PARENT;
   1148                    }
   \                     ??CrossCallReturnLabel_343:
   \   0000F3   E4           CLR       A
   \   0000F4   8032         SJMP      ??ZDO_ProcessMgmtLqiReq_9
   1149                    else
   1150                    {
   1151                      // If not parent, then it's a child
   1152                      item->depth = _NIB.nodeDepth + 1;
   \                     ??ZDO_ProcessMgmtLqiReq_6:
   \   0000F6   90....       MOV       DPTR,#_NIB + 52
   \   0000F9   E0           MOVX      A,@DPTR
   \   0000FA   04           INC       A
   \   0000FB   C0E0         PUSH      A
   \   0000FD   12....       LCALL     ?Subroutine142 & 0xFFFF
   \                     ??CrossCallReturnLabel_227:
   \   000100   D0E0         POP       A
   \   000102   12....       LCALL     ?Subroutine39 & 0xFFFF
   1153                      
   1154                      if ( aDevice->nodeRelation < CHILD_FFD )
   \                     ??CrossCallReturnLabel_43:
   \   000105   C3           CLR       C
   \   000106   9403         SUBB      A,#0x3
   \   000108   8C82         MOV       DPL,R4
   \   00010A   8D83         MOV       DPH,R5
   \   00010C   4003         JC        $+5
   \   00010E   02....       LJMP      ??ZDO_ProcessMgmtLqiReq_10 & 0xFFFF
   1155                      {
   1156                        item->devType = ZDP_MGMT_DT_ENDDEV;
   \   000111   7402         MOV       A,#0x2
   \   000113   12....       LCALL     ?Subroutine39 & 0xFFFF
   1157                       
   1158                        if ( aDevice->nodeRelation == CHILD_RFD )
   1159                        {
   1160                          item->rxOnIdle = FALSE;
   1161                        }
   1162                        else
   1163                        {
   1164                          item->rxOnIdle = TRUE;
   1165                        }
   1166                      }
   \                     ??CrossCallReturnLabel_44:
   \   000116   6401         XRL       A,#0x1
   \   000118   7003         JNZ       $+5
   \   00011A   02....       LJMP      ??ZDO_ProcessMgmtLqiReq_11 & 0xFFFF
   1167                      else
   1168                      {
   1169                        item->devType = ZDP_MGMT_DT_ROUTER;
   1170            
   1171                        if ( aDevice->nodeRelation == CHILD_FFD )
   1172                        {
   1173                          item->rxOnIdle = FALSE;
   1174                        }
   1175                        else
   1176                        {
   1177                          item->rxOnIdle = TRUE;
   \                     ??ZDO_ProcessMgmtLqiReq_12:
   \   00011D   8A82         MOV       DPL,R2
   \   00011F   8B83         MOV       DPH,R3
   \   000121   7401         MOV       A,#0x1
   1178                        }
   \                     ??ZDO_ProcessMgmtLqiReq_13:
   \   000123   12....       LCALL     ??Subroutine208_0 & 0xFFFF
   1179                      }
   1180            
   1181                      item->relation = ZDP_MGMT_REL_CHILD;
   \                     ??CrossCallReturnLabel_345:
   \   000126   7401         MOV       A,#0x1
   \                     ??ZDO_ProcessMgmtLqiReq_9:
   \   000128   F0           MOVX      @DPTR,A
   1182                    }
   1183            
   1184                    item++;
   \   000129   EE           MOV       A,R6
   \   00012A   241A         ADD       A,#0x1a
   \   00012C   FE           MOV       R6,A
   \   00012D   5001         JNC       ??ZDO_ProcessMgmtLqiReq_14
   \   00012F   0F           INC       R7
   \                     ??ZDO_ProcessMgmtLqiReq_14:
   \   000130   05..         INC       ?V2
   \                     ??ZDO_ProcessMgmtLqiReq_3:
   \   000132   E5..         MOV       A,?V2
   \   000134   C3           CLR       C
   \   000135   95..         SUBB      A,?V1
   \   000137   4003         JC        $+5
   \   000139   02....       LJMP      ??ZDO_ProcessMgmtLqiReq_15 & 0xFFFF
   \   00013C   E5..         MOV       A,?V0
   \   00013E   C3           CLR       C
   \   00013F   95..         SUBB      A,?V4
   \   000141   4003         JC        $+5
   \   000143   02....       LJMP      ??ZDO_ProcessMgmtLqiReq_16 & 0xFFFF
   \   000146                ; Setup parameters for call to function AssocFindDevice
   \   000146   A9..         MOV       R1,?V0
   \   000148   12....       LCALL     `??AssocFindDevice::?relay`; Banked call to: AssocFindDevice
   \   00014B   7403         MOV       A,#0x3
   \   00014D   12....       LCALL     ?XSTACK_DISP0_8
   \   000150   12....       LCALL     ??Subroutine206_0 & 0xFFFF
   \                     ??CrossCallReturnLabel_335:
   \   000153   05..         INC       ?V0
   \   000155   90....       MOV       DPTR,#_NIB + 33
   \   000158   12....       LCALL     ?Subroutine14 & 0xFFFF
   \                     ??CrossCallReturnLabel_10:
   \   00015B   7403         MOV       A,#0x3
   \   00015D   12....       LCALL     ?XSTACK_DISP0_8
   \   000160   12....       LCALL     ?Subroutine59 & 0xFFFF
   \                     ??CrossCallReturnLabel_316:
   \   000163   EE           MOV       A,R6
   \   000164   12....       LCALL     ??Subroutine219_0 & 0xFFFF
   \                     ??CrossCallReturnLabel_386:
   \   000167   3F           ADDC      A,R7
   \   000168   F583         MOV       DPH,A
   \   00016A   E8           MOV       A,R0
   \   00016B   F0           MOVX      @DPTR,A
   \   00016C   A3           INC       DPTR
   \   00016D   E9           MOV       A,R1
   \   00016E   12....       LCALL     ?Subroutine12 & 0xFFFF
   \                     ??CrossCallReturnLabel_6:
   \   000171   7403         MOV       A,#0x3
   \   000173   12....       LCALL     ?XSTACK_DISP0_8
   \   000176   12....       LCALL     ?Subroutine73 & 0xFFFF
   \                     ??CrossCallReturnLabel_97:
   \   000179   E0           MOVX      A,@DPTR
   \   00017A   C0E0         PUSH      A
   \   00017C   12....       LCALL     ?Subroutine145 & 0xFFFF
   \                     ??CrossCallReturnLabel_230:
   \   00017F   D0E0         POP       A
   \   000181   F0           MOVX      @DPTR,A
   \   000182   7407         MOV       A,#0x7
   \   000184   12....       LCALL     ?XSTACK_DISP0_8
   \   000187   E4           CLR       A
   \   000188   F0           MOVX      @DPTR,A
   \   000189   7403         MOV       A,#0x3
   \   00018B   12....       LCALL     ?XSTACK_DISP0_8
   \   00018E   12....       LCALL     ?Subroutine59 & 0xFFFF
   \                     ??CrossCallReturnLabel_317:
   \   000191   7408         MOV       A,#0x8
   \   000193   12....       LCALL     ?XSTACK_DISP0_8
   \   000196   12....       LCALL     ??Subroutine254_0 & 0xFFFF
   \                     ??CrossCallReturnLabel_616:
   \   000199   EE           MOV       A,R6
   \   00019A   240A         ADD       A,#0xa
   \   00019C   F5..         MOV       ?V6,A
   \   00019E   E4           CLR       A
   \   00019F   3F           ADDC      A,R7
   \   0001A0   F5..         MOV       ?V7,A
   \   0001A2                ; Setup parameters for call to function AddrMgrEntryLookupNwk
   \   0001A2   7407         MOV       A,#0x7
   \   0001A4   12....       LCALL     ?XSTACK_DISP101_8
   \   0001A7   12....       LCALL     `??AddrMgrEntryLookupNwk::?relay`; Banked call to: AddrMgrEntryLookupNwk
   \   0001AA   E9           MOV       A,R1
   \   0001AB   6401         XRL       A,#0x1
   \   0001AD   6003         JZ        $+5
   \   0001AF   02....       LJMP      ??ZDO_ProcessMgmtLqiReq_4 & 0xFFFF
   \   0001B2                ; Setup parameters for call to function sAddrExtCpy
   \   0001B2   740A         MOV       A,#0xa
   \   0001B4   12....       LCALL     ?XSTACK_DISP0_8
   \   0001B7   AC82         MOV       R4,DPL
   \   0001B9   AD83         MOV       R5,DPH
   \   0001BB   AA..         MOV       R2,?V6
   \   0001BD   AB..         MOV       R3,?V7
   \   0001BF   12....       LCALL     `??sAddrExtCpy::?relay`; Banked call to: sAddrExtCpy
   \   0001C2   02....       LJMP      ??ZDO_ProcessMgmtLqiReq_5 & 0xFFFF
   \                     ??ZDO_ProcessMgmtLqiReq_10:
   \   0001C5   7401         MOV       A,#0x1
   \   0001C7   12....       LCALL     ?Subroutine39 & 0xFFFF
   \                     ??CrossCallReturnLabel_45:
   \   0001CA   6403         XRL       A,#0x3
   \   0001CC   6003         JZ        $+5
   \   0001CE   02....       LJMP      ??ZDO_ProcessMgmtLqiReq_12 & 0xFFFF
   \                     ??ZDO_ProcessMgmtLqiReq_11:
   \   0001D1   8A82         MOV       DPL,R2
   \   0001D3   8B83         MOV       DPH,R3
   \   0001D5   E4           CLR       A
   \   0001D6   02....       LJMP      ??ZDO_ProcessMgmtLqiReq_13 & 0xFFFF
   1185                  }
   1186                  else
   1187                  {
   1188                    if ( StartIndex <= aItems )
   \                     ??ZDO_ProcessMgmtLqiReq_16:
   \   0001D9   E5..         MOV       A,?V4
   \   0001DB   C3           CLR       C
   \   0001DC   95..         SUBB      A,?V3
   \   0001DE   4005         JC        ??ZDO_ProcessMgmtLqiReq_17
   1189                      // Start with 1st neighbor
   1190                      index = 0;
   \   0001E0   75..00       MOV       ?V0,#0x0
   \   0001E3   801C         SJMP      ??ZDO_ProcessMgmtLqiReq_18
   1191                    else
   1192                      // Start with >1st neighbor
   1193                      index = StartIndex - aItems;
   \                     ??ZDO_ProcessMgmtLqiReq_17:
   \   0001E5   E5..         MOV       A,?V3
   \   0001E7   C3           CLR       C
   \   0001E8   95..         SUBB      A,?V4
   \   0001EA   F5..         MOV       ?V0,A
   \   0001EC   8013         SJMP      ??ZDO_ProcessMgmtLqiReq_18
   1194                    break;
   1195                  }
   1196                }
   1197            
   1198                // Loop through neighbor items and finish list
   1199                for ( ; x < numItems; x++ )
   1200                {
   1201                  // Add next neighbor table item
   1202                  NLME_GetRequest( nwkNeighborTable, index++, &entry );
   1203            
   1204                  // set ZDP_MgmtLqiItem_t fields
   1205                  item->panID    = entry.panId;
   1206                  osal_cpyExtAddr( item->extPanID, _NIB.extendedPANID );
   1207                  osal_memset( item->extAddr, 0xFF, Z_EXTADDR_LEN );
   1208                  item->nwkAddr  = entry.neighborAddress;
   1209                  item->rxOnIdle = ZDP_MGMT_BOOL_UNKNOWN;
   1210                  item->relation = ZDP_MGMT_REL_UNKNOWN;
   1211                  item->permit   = ZDP_MGMT_BOOL_UNKNOWN;
   1212                  item->depth    = 0xFF;
   1213                  item->lqi      = entry.linkInfo.rxLqi;
   1214            
   1215                  if ( item->nwkAddr == 0 )
   1216                  {
   1217                    item->devType = ZDP_MGMT_DT_COORD;
   1218                  }
   1219                  else
   1220                  {
   1221                    item->devType = ZDP_MGMT_DT_ROUTER;
   \                     ??ZDO_ProcessMgmtLqiReq_19:
   \   0001EE   7401         MOV       A,#0x1
   \                     ??ZDO_ProcessMgmtLqiReq_20:
   \   0001F0   F0           MOVX      @DPTR,A
   1222                  }
   1223            
   1224                  item++;
   \   0001F1   EE           MOV       A,R6
   \   0001F2   241A         ADD       A,#0x1a
   \   0001F4   FE           MOV       R6,A
   \   0001F5   5001         JNC       ??ZDO_ProcessMgmtLqiReq_21
   \   0001F7   0F           INC       R7
   \                     ??ZDO_ProcessMgmtLqiReq_21:
   \   0001F8   05..         INC       ?V2
   \                     ??ZDO_ProcessMgmtLqiReq_15:
   \   0001FA   E5..         MOV       A,?V2
   \   0001FC   C3           CLR       C
   \   0001FD   95..         SUBB      A,?V1
   \   0001FF   5079         JNC       ??ZDO_ProcessMgmtLqiReq_2
   \                     ??ZDO_ProcessMgmtLqiReq_18:
   \   000201                ; Setup parameters for call to function NLME_GetRequest
   \   000201   7414         MOV       A,#0x14
   \   000203   12....       LCALL     ?XSTACK_DISP102_8
   \   000206   AA..         MOV       R2,?V0
   \   000208   7B00         MOV       R3,#0x0
   \   00020A   7987         MOV       R1,#-0x79
   \   00020C   12....       LCALL     `??NLME_GetRequest::?relay`; Banked call to: NLME_GetRequest
   \   00020F   05..         INC       ?V0
   \   000211   741E         MOV       A,#0x1e
   \   000213   12....       LCALL     ?XSTACK_DISP0_8
   \   000216   12....       LCALL     ?Subroutine14 & 0xFFFF
   \                     ??CrossCallReturnLabel_11:
   \   000219                ; Setup parameters for call to function osal_memset
   \   000219   7C08         MOV       R4,#0x8
   \   00021B   7D00         MOV       R5,#0x0
   \   00021D   79FF         MOV       R1,#-0x1
   \   00021F   EE           MOV       A,R6
   \   000220   240A         ADD       A,#0xa
   \   000222   FA           MOV       R2,A
   \   000223   E4           CLR       A
   \   000224   3F           ADDC      A,R7
   \   000225   FB           MOV       R3,A
   \   000226   12....       LCALL     `??osal_memset::?relay`; Banked call to: osal_memset
   \   000229   EE           MOV       A,R6
   \   00022A   2412         ADD       A,#0x12
   \   00022C   F8           MOV       R0,A
   \   00022D   E4           CLR       A
   \   00022E   3F           ADDC      A,R7
   \   00022F   F9           MOV       R1,A
   \   000230   7414         MOV       A,#0x14
   \   000232   12....       LCALL     ?XSTACK_DISP0_8
   \   000235   12....       LCALL     ??Subroutine212_0 & 0xFFFF
   \                     ??CrossCallReturnLabel_360:
   \   000238   8882         MOV       DPL,R0
   \   00023A   8983         MOV       DPH,R1
   \   00023C   12....       LCALL     ??Subroutine206_0 & 0xFFFF
   \                     ??CrossCallReturnLabel_336:
   \   00023F   EE           MOV       A,R6
   \   000240   12....       LCALL     ??Subroutine231_0 & 0xFFFF
   \                     ??CrossCallReturnLabel_447:
   \   000243   3F           ADDC      A,R7
   \   000244   F583         MOV       DPH,A
   \   000246   12....       LCALL     ?Subroutine17 & 0xFFFF
   \                     ??CrossCallReturnLabel_344:
   \   000249   7403         MOV       A,#0x3
   \   00024B   12....       LCALL     ?Subroutine12 & 0xFFFF
   \                     ??CrossCallReturnLabel_7:
   \   00024E   7423         MOV       A,#0x23
   \   000250   12....       LCALL     ?XSTACK_DISP0_8
   \   000253   E0           MOVX      A,@DPTR
   \   000254   C0E0         PUSH      A
   \   000256   12....       LCALL     ?Subroutine145 & 0xFFFF
   \                     ??CrossCallReturnLabel_231:
   \   000259   D0E0         POP       A
   \   00025B   F0           MOVX      @DPTR,A
   \   00025C   EE           MOV       A,R6
   \   00025D   2414         ADD       A,#0x14
   \   00025F   FA           MOV       R2,A
   \   000260   E4           CLR       A
   \   000261   3F           ADDC      A,R7
   \   000262   FB           MOV       R3,A
   \   000263   8882         MOV       DPL,R0
   \   000265   8983         MOV       DPH,R1
   \   000267   12....       LCALL     ??Subroutine221_0 & 0xFFFF
   \                     ??CrossCallReturnLabel_399:
   \   00026A   8A82         MOV       DPL,R2
   \   00026C   8B83         MOV       DPH,R3
   \   00026E   6003         JZ        $+5
   \   000270   02....       LJMP      ??ZDO_ProcessMgmtLqiReq_19 & 0xFFFF
   \   000273   E4           CLR       A
   \   000274   02....       LJMP      ??ZDO_ProcessMgmtLqiReq_20 & 0xFFFF
   1225                }
   1226              }
   1227            }
   1228            else
   1229            {
   1230              numItems = 0;
   \                     ??ZDO_ProcessMgmtLqiReq_0:
   \   000277   75..00       MOV       ?V1,#0x0
   1231            }
   1232            
   1233            // Send response
   1234            ZDP_MgmtLqiRsp( inMsg->TransSeq, &(inMsg->srcAddr), ZSuccess, maxItems,
   1235                            StartIndex, numItems, table, false );
   \                     ??ZDO_ProcessMgmtLqiReq_2:
   \   00027A                ; Setup parameters for call to function ZDP_MgmtLqiRsp
   \   00027A   75..00       MOV       ?V2,#0x0
   \   00027D   78..         MOV       R0,#?V2
   \   00027F   12....       LCALL     ?PUSH_XSTACK_I_ONE
   \   000282   7402         MOV       A,#0x2
   \   000284   12....       LCALL     ?XSTACK_DISP0_8
   \   000287   12....       LCALL     ?PUSH_XSTACK8_X_TWO
   \   00028A   78..         MOV       R0,#?V1
   \   00028C   12....       LCALL     ?PUSH_XSTACK_I_ONE
   \   00028F   E5..         MOV       A,?V3
   \   000291   F5..         MOV       ?V1,A
   \   000293   78..         MOV       R0,#?V1
   \   000295   12....       LCALL     ?PUSH_XSTACK_I_ONE
   \   000298   7405         MOV       A,#0x5
   \   00029A   12....       LCALL     ?XSTACK_DISP0_8
   \   00029D   E0           MOVX      A,@DPTR
   \   00029E   FD           MOV       R5,A
   \   00029F   7C00         MOV       R4,#0x0
   \   0002A1   740A         MOV       A,#0xa
   \   0002A3   12....       LCALL     ?XSTACK_DISP0_8
   \   0002A6   12....       LCALL     ?Subroutine97 & 0xFFFF
   \                     ??CrossCallReturnLabel_136:
   \   0002A9   740A         MOV       A,#0xa
   \   0002AB   12....       LCALL     ?XSTACK_DISP0_8
   \   0002AE   12....       LCALL     ?Subroutine65 & 0xFFFF
   \                     ??CrossCallReturnLabel_82:
   \   0002B1   12....       LCALL     `??ZDP_MgmtLqiRsp::?relay`; Banked call to: ZDP_MgmtLqiRsp
   \   0002B4   7405         MOV       A,#0x5
   \   0002B6   12....       LCALL     ?DEALLOC_XSTACK8
   1236          
   1237            if ( table )
   \   0002B9   7401         MOV       A,#0x1
   \   0002BB   12....       LCALL     ?XSTACK_DISP0_8
   \   0002BE   12....       LCALL     ??Subroutine221_0 & 0xFFFF
   \                     ??CrossCallReturnLabel_400:
   \   0002C1   6008         JZ        ??CrossCallReturnLabel_322
   1238            {
   1239              osal_mem_free( table );
   \   0002C3                ; Setup parameters for call to function osal_mem_free
   \   0002C3   7401         MOV       A,#0x1
   \   0002C5   12....       LCALL     ?XSTACK_DISP0_8
   \   0002C8   12....       LCALL     ??Subroutine205_0 & 0xFFFF
   1240            }
   1241          }
   \                     ??CrossCallReturnLabel_322:
   \   0002CB   742B         MOV       A,#0x2b
   \   0002CD   02....       LJMP      ?Subroutine6 & 0xFFFF

   \                                 In  segment BANKED_CODE, align 1, keep-with-next
   \                     ?Subroutine145:
   \   000000   EE           MOV       A,R6
   \   000001   2419         ADD       A,#0x19
   \   000003   F582         MOV       DPL,A
   \   000005   E4           CLR       A
   \   000006   3F           ADDC      A,R7
   \   000007   F583         MOV       DPH,A
   \   000009   22           RET

   \                                 In  segment BANKED_CODE, align 1, keep-with-next
   \                     ?Subroutine142:
   \   000000   12....       LCALL     ?Subroutine186 & 0xFFFF
   \                     ??CrossCallReturnLabel_277:
   \   000003   22           RET

   \                                 In  segment BANKED_CODE, align 1, keep-with-next
   \                     ?Subroutine186:
   \   000000   EE           MOV       A,R6
   \   000001   2418         ADD       A,#0x18
   \   000003   F582         MOV       DPL,A
   \   000005   E4           CLR       A
   \   000006   3F           ADDC      A,R7
   \   000007   F583         MOV       DPH,A
   \   000009   22           RET

   \                                 In  segment BANKED_CODE, align 1, keep-with-next
   \                     ?Subroutine59:
   \   000000   E0           MOVX      A,@DPTR
   \   000001   F8           MOV       R0,A
   \   000002                REQUIRE ??Subroutine204_0
   \   000002                ; // Fall through to label ??Subroutine204_0

   \                                 In  segment BANKED_CODE, align 1, keep-with-next
   \                     ?Subroutine17:
   \   000000   7402         MOV       A,#0x2
   \   000002                REQUIRE ??Subroutine208_0
   \   000002                ; // Fall through to label ??Subroutine208_0

   \                                 In  segment BANKED_CODE, align 1, keep-with-next
   \                     ??Subroutine208_0:
   \   000000   F0           MOVX      @DPTR,A
   \   000001   EE           MOV       A,R6
   \   000002   2416         ADD       A,#0x16
   \   000004   F582         MOV       DPL,A
   \   000006   E4           CLR       A
   \   000007   3F           ADDC      A,R7
   \   000008   F583         MOV       DPH,A
   \   00000A   22           RET

   \                                 In  segment BANKED_CODE, align 1, keep-with-next
   \                     ?Subroutine14:
   \   000000   12....       LCALL     ??Subroutine230_0 & 0xFFFF
   \                     ??CrossCallReturnLabel_468:
   \   000003   8E82         MOV       DPL,R6
   \   000005   8F83         MOV       DPH,R7
   \   000007   E8           MOV       A,R0
   \   000008   F0           MOVX      @DPTR,A
   \   000009   A3           INC       DPTR
   \   00000A   E9           MOV       A,R1
   \   00000B   F0           MOVX      @DPTR,A
   \   00000C                ; Setup parameters for call to function sAddrExtCpy
   \   00000C                ; Setup parameters for call to function sAddrExtCpy
   \   00000C   7C..         MOV       R4,#(_NIB + 53) & 0xff
   \   00000E   7D..         MOV       R5,#((_NIB + 53) >> 8) & 0xff
   \   000010   12....       LCALL     ?Subroutine178 & 0xFFFF
   \                     ??CrossCallReturnLabel_266:
   \   000013   12....       LCALL     `??sAddrExtCpy::?relay`; Banked call to: sAddrExtCpy
   \   000016   22           RET

   \                                 In  segment BANKED_CODE, align 1, keep-with-next
   \                     ?Subroutine12:
   \   000000   F0           MOVX      @DPTR,A
   \   000001   EE           MOV       A,R6
   \   000002   2417         ADD       A,#0x17
   \   000004   F582         MOV       DPL,A
   \   000006   E4           CLR       A
   \   000007   3F           ADDC      A,R7
   \   000008   F583         MOV       DPH,A
   \   00000A   7402         MOV       A,#0x2
   \   00000C   F0           MOVX      @DPTR,A
   \   00000D   12....       LCALL     ?Subroutine186 & 0xFFFF
   \                     ??CrossCallReturnLabel_276:
   \   000010   74FF         MOV       A,#-0x1
   \   000012   F0           MOVX      @DPTR,A
   \   000013   22           RET

   \                                 In  segment BANKED_CODE, align 1, keep-with-next
   \                     ?Subroutine60:
   \   000000   F583         MOV       DPH,A
   \   000002                REQUIRE ??Subroutine209_0
   \   000002                ; // Fall through to label ??Subroutine209_0

   \                                 In  segment BANKED_CODE, align 1, keep-with-next
   \                     ?Subroutine97:
   \   000000   E0           MOVX      A,@DPTR
   \   000001   2402         ADD       A,#0x2
   \   000003   FA           MOV       R2,A
   \   000004   A3           INC       DPTR
   \   000005   E0           MOVX      A,@DPTR
   \   000006   3400         ADDC      A,#0x0
   \   000008   FB           MOV       R3,A
   \   000009   22           RET

   \                                 In  segment BANKED_CODE, align 1, keep-with-next
   \                     ?Subroutine65:
   \   000000   12....       LCALL     ?Subroutine160 & 0xFFFF
   \                     ??CrossCallReturnLabel_252:
   \   000003   22           RET

   \                                 In  segment BANKED_CODE, align 1, keep-with-next
   \                     ??Subroutine219_0:
   \   000000   2412         ADD       A,#0x12
   \   000002   F582         MOV       DPL,A
   \   000004   E4           CLR       A
   \   000005   22           RET

   \                                 In  segment BANKED_CODE, align 1, keep-with-next
   \                     ??Subroutine231_0:
   \   000000   2415         ADD       A,#0x15
   \   000002   F582         MOV       DPL,A
   \   000004   E4           CLR       A
   \   000005   22           RET

   \                                 In  segment BANKED_CODE, align 1, keep-with-next
   \                     ?Subroutine39:
   \   000000   12....       LCALL     ?Subroutine154 & 0xFFFF
   \                     ??CrossCallReturnLabel_241:
   \   000003   22           RET

   \                                 In  segment BANKED_CODE, align 1, keep-with-next
   \                     ?Subroutine154:
   \   000000   F0           MOVX      @DPTR,A
   \   000001   8882         MOV       DPL,R0
   \   000003   8983         MOV       DPH,R1
   \   000005   E0           MOVX      A,@DPTR
   \   000006   22           RET

   \                                 In  segment BANKED_CODE, align 1, keep-with-next
   \                     ?Subroutine96:
   \   000000   F8           MOV       R0,A
   \   000001                REQUIRE ??Subroutine260_0
   \   000001                ; // Fall through to label ??Subroutine260_0
   1242          
   1243          /*********************************************************************
   1244           * @fn          ZDO_ProcessMgmtNwkDiscReq
   1245           *
   1246           * @brief       This function handles parsing the incoming Management
   1247           *              Network Discover request and starts the request.
   1248           *
   1249           * @param       inMsg - incoming message (request)
   1250           *
   1251           * @return      none
   1252           */

   \                                 In  segment BANKED_CODE, align 1, keep-with-next
   1253          void ZDO_ProcessMgmtNwkDiscReq( zdoIncomingMsg_t *inMsg )
   \                     ZDO_ProcessMgmtNwkDiscReq:
   1254          {
   \   000000                REQUIRE ?V0
   \   000000                REQUIRE ?V1
   \   000000   74F6         MOV       A,#-0xa
   \   000002   12....       LCALL     ?BANKED_ENTER_XDATA
   \   000005                ; Saved register size: 10
   \   000005                ; Auto size: 7
   \   000005   74F9         MOV       A,#-0x7
   \   000007   12....       LCALL     ?ALLOC_XSTACK8
   \   00000A   12....       LCALL     ?Subroutine113 & 0xFFFF
   1255            NLME_ScanFields_t scan;
   1256            uint8             index;
   1257            uint8             *msg;
   1258          
   1259            msg = inMsg->asdu;
   \                     ??CrossCallReturnLabel_165:
   \   00000D   12....       LCALL     ?Subroutine53 & 0xFFFF
   1260            scan.channels = osal_build_uint32( msg, 4 );
   \                     ??CrossCallReturnLabel_63:
   \   000010   85..82       MOV       DPL,?XSP + 0
   \   000013   85..83       MOV       DPH,?XSP + 1
   \   000016   12....       LCALL     ?XSTORE_R0123
   1261            msg += 4;
   1262            scan.duration = *msg++;
   \   000019   8E82         MOV       DPL,R6
   \   00001B   8F83         MOV       DPH,R7
   \   00001D   A3           INC       DPTR
   \   00001E   A3           INC       DPTR
   \   00001F   A3           INC       DPTR
   \   000020   A3           INC       DPTR
   \   000021   E0           MOVX      A,@DPTR
   \   000022   C0E0         PUSH      A
   \   000024   7404         MOV       A,#0x4
   \   000026   12....       LCALL     ?XSTACK_DISP0_8
   \   000029   D0E0         POP       A
   \   00002B   12....       LCALL     ?Subroutine151 & 0xFFFF
   1263            index         = *msg;
   \                     ??CrossCallReturnLabel_238:
   \   00002E   E0           MOVX      A,@DPTR
   \   00002F   F8           MOV       R0,A
   1264            scan.scanType = ZMAC_ACTIVE_SCAN;
   \   000030   7405         MOV       A,#0x5
   \   000032   12....       LCALL     ?XSTACK_DISP0_8
   \   000035   7401         MOV       A,#0x1
   \   000037   F0           MOVX      @DPTR,A
   1265            scan.scanApp  = NLME_DISC_SCAN;
   \   000038   7406         MOV       A,#0x6
   \   00003A   12....       LCALL     ?XSTACK_DISP0_8
   \   00003D   7401         MOV       A,#0x1
   \   00003F   F0           MOVX      @DPTR,A
   1266          
   1267            // Save off the information to be used for the response
   1268            zdappMgmtNwkDiscReqInProgress          = true;
   \   000040   90....       MOV       DPTR,#zdappMgmtNwkDiscReqInProgress
   \   000043   F0           MOVX      @DPTR,A
   1269            zdappMgmtNwkDiscRspAddr.addrMode       = Addr16Bit;
   \   000044   90....       MOV       DPTR,#zdappMgmtNwkDiscRspAddr + 8
   \   000047   04           INC       A
   \   000048   12....       LCALL     ?Subroutine41 & 0xFFFF
   1270            zdappMgmtNwkDiscRspAddr.addr.shortAddr = inMsg->srcAddr.addr.shortAddr;
   \                     ??CrossCallReturnLabel_49:
   \   00004B   12....       LCALL     ??Subroutine212_0 & 0xFFFF
   \                     ??CrossCallReturnLabel_361:
   \   00004E   90....       MOV       DPTR,#zdappMgmtNwkDiscRspAddr
   \   000051   12....       LCALL     ??Subroutine206_0 & 0xFFFF
   1271            zdappMgmtNwkDiscStartIndex             = index;
   \                     ??CrossCallReturnLabel_337:
   \   000054   E8           MOV       A,R0
   \   000055   90....       MOV       DPTR,#zdappMgmtNwkDiscStartIndex
   \   000058   F0           MOVX      @DPTR,A
   1272            zdappMgmtNwkDiscRspTransSeq            = inMsg->TransSeq;
   \   000059   12....       LCALL     ?Subroutine127 & 0xFFFF
   \                     ??CrossCallReturnLabel_193:
   \   00005C   E0           MOVX      A,@DPTR
   \   00005D   90....       MOV       DPTR,#zdappMgmtNwkDiscRspTransSeq
   \   000060   F0           MOVX      @DPTR,A
   1273            
   1274            if ( NLME_NwkDiscReq2( &scan ) != ZSuccess )
   \   000061                ; Setup parameters for call to function NLME_NwkDiscReq2
   \   000061   AA..         MOV       R2,?XSP + 0
   \   000063   AB..         MOV       R3,?XSP + 1
   \   000065   12....       LCALL     `??NLME_NwkDiscReq2::?relay`; Banked call to: NLME_NwkDiscReq2
   \   000068   E9           MOV       A,R1
   \   000069   6003         JZ        ??ZDO_ProcessMgmtNwkDiscReq_0
   1275            {
   1276              NLME_NwkDiscTerm();
   \   00006B                ; Setup parameters for call to function NLME_NwkDiscTerm
   \   00006B   12....       LCALL     `??NLME_NwkDiscTerm::?relay`; Banked call to: NLME_NwkDiscTerm
   1277          
   1278              // zdappMgmtNwkDiscReqInProgress will be reset in the confirm callback
   1279            }
   1280          }
   \                     ??ZDO_ProcessMgmtNwkDiscReq_0:
   \   00006E   7407         MOV       A,#0x7
   \   000070   02....       LJMP      ??Subroutine197_0 & 0xFFFF

   \                                 In  segment BANKED_CODE, align 1, keep-with-next
   \                     ?Subroutine113:
   \   000000   8A..         MOV       ?V0,R2
   \   000002   8B..         MOV       ?V1,R3
   \   000004   12....       LCALL     ??Subroutine213_0 & 0xFFFF
   \                     ??CrossCallReturnLabel_374:
   \   000007   35..         ADDC      A,?V1
   \   000009   22           RET

   \                                 In  segment BANKED_CODE, align 1, keep-with-next
   \                     ?Subroutine127:
   \   000000   E5..         MOV       A,?V0
   \   000002   240F         ADD       A,#0xf
   \   000004   12....       LCALL     ?Subroutine184 & 0xFFFF
   \                     ??CrossCallReturnLabel_579:
   \   000007   22           RET

   \                                 In  segment BANKED_CODE, align 1, keep-with-next
   \                     ?Subroutine41:
   \   000000   F0           MOVX      @DPTR,A
   \   000001                ; Setup parameters for call to function osal_memcpy
   \   000001   85..82       MOV       DPL,?V0
   \   000004   85..83       MOV       DPH,?V1
   \   000007   A3           INC       DPTR
   \   000008   A3           INC       DPTR
   \   000009   22           RET

   \                                 In  segment BANKED_CODE, align 1, keep-with-next
   \                     ?Subroutine184:
   \   000000   F582         MOV       DPL,A
   \   000002   E4           CLR       A
   \   000003                REQUIRE ??Subroutine247_0
   \   000003                ; // Fall through to label ??Subroutine247_0

   \                                 In  segment BANKED_CODE, align 1, keep-with-next
   \                     ??Subroutine247_0:
   \   000000   35..         ADDC      A,?V1
   \   000002   F583         MOV       DPH,A
   \   000004   22           RET

   \                                 In  segment BANKED_CODE, align 1, keep-with-next
   \                     ?Subroutine151:
   \   000000   12....       LCALL     ?Subroutine188 & 0xFFFF
   \                     ??CrossCallReturnLabel_280:
   \   000003   A3           INC       DPTR
   \   000004   A3           INC       DPTR
   \   000005   22           RET

   \                                 In  segment BANKED_CODE, align 1, keep-with-next
   \                     ?Subroutine195:
   \   000000   F0           MOVX      @DPTR,A
   \   000001   8E82         MOV       DPL,R6
   \   000003   8F83         MOV       DPH,R7
   \   000005   A3           INC       DPTR
   \   000006   22           RET

   \                                 In  segment BANKED_CODE, align 1, keep-with-next
   \                     ?Subroutine188:
   \   000000   12....       LCALL     ?Subroutine195 & 0xFFFF
   \                     ??CrossCallReturnLabel_291:
   \   000003   A3           INC       DPTR
   \   000004   A3           INC       DPTR
   \   000005   22           RET

   \                                 In  segment BANKED_CODE, align 1, keep-with-next
   \                     ?Subroutine53:
   \   000000   F583         MOV       DPH,A
   \   000002   12....       LCALL     ?Subroutine174 & 0xFFFF
   \                     ??CrossCallReturnLabel_505:
   \   000005   FF           MOV       R7,A
   \   000006                ; Setup parameters for call to function osal_build_uint32
   \   000006                ; Setup parameters for call to function osal_build_uint32
   \   000006   7904         MOV       R1,#0x4
   \   000008   EE           MOV       A,R6
   \   000009   FA           MOV       R2,A
   \   00000A   EF           MOV       A,R7
   \   00000B   FB           MOV       R3,A
   \   00000C   12....       LCALL     `??osal_build_uint32::?relay`; Banked call to: osal_build_uint32
   \   00000F   EA           MOV       A,R2
   \   000010   F8           MOV       R0,A
   \   000011   EB           MOV       A,R3
   \   000012   F9           MOV       R1,A
   \   000013   EC           MOV       A,R4
   \   000014   FA           MOV       R2,A
   \   000015   ED           MOV       A,R5
   \   000016   FB           MOV       R3,A
   \   000017   22           RET
   1281          
   1282          #if defined ( ZDO_MGMT_NWKDISC_RESPONSE )
   1283          /*********************************************************************
   1284           * @fn          ZDO_FinishProcessingMgmtNwkDiscReq
   1285           *
   1286           * @brief       This function finishes the processing of the Management
   1287           *              Network Discover Request and generates the response.
   1288           *
   1289           *   Note:      This function will limit the number of items returned
   1290           *              to ZDO_MAX_NWKDISC_ITEMS items.
   1291           *
   1292           * @param       ResultCountSrcAddr - source of the request
   1293           * @param       msg - pointer to incoming message
   1294           * @param       SecurityUse -
   1295           *
   1296           * @return      none
   1297           */
   1298          void ZDO_FinishProcessingMgmtNwkDiscReq( byte ResultCount,
   1299                                                   networkDesc_t *NetworkList )
   1300          {
   1301            byte count, i;
   1302            networkDesc_t *newDesc = NULL, *pList = NetworkList;
   1303          
   1304            if ( ZSTACK_ROUTER_BUILD )
   1305            {
   1306              // Look for my PanID.
   1307              while ( pList )
   1308              {
   1309                if ( pList->panId == _NIB.nwkPanId )
   1310                {
   1311                  break;
   1312                }
   1313          
   1314            
   1315                if ( !pList->nextDesc )
   1316                {
   1317                  break;
   1318                }
   1319                pList = pList->nextDesc;
   1320              }
   1321            
   1322              
   1323              // If my Pan not present (query to a star network ZC or an isolated ZR?),
   1324              // prepend it.
   1325              if ( !pList || (pList->panId != _NIB.nwkPanId) )
   1326              {
   1327                newDesc = (networkDesc_t *)osal_mem_alloc( sizeof( networkDesc_t ) );
   1328                if ( newDesc )
   1329                {
   1330                  byte pJoin;
   1331            
   1332                  newDesc->panId = _NIB.nwkPanId;
   1333                  newDesc->logicalChannel = _NIB.nwkLogicalChannel;
   1334                  newDesc->beaconOrder = _NIB.beaconOrder;
   1335                  newDesc->superFrameOrder = _NIB.superFrameOrder;
   1336                  newDesc->version = NLME_GetProtocolVersion();
   1337                  newDesc->stackProfile = zgStackProfile;
   1338                  //Extended PanID
   1339                  osal_cpyExtAddr( newDesc->extendedPANID, _NIB.extendedPANID);
   1340            
   1341                  ZMacGetReq( ZMacAssociationPermit, &pJoin );
   1342                  newDesc->chosenRouter = ((pJoin) ? ZDAppNwkAddr.addr.shortAddr :
   1343                                                     INVALID_NODE_ADDR);
   1344            
   1345                  newDesc->nextDesc = NetworkList;
   1346                  NetworkList = newDesc;
   1347                  ResultCount++;
   1348                }
   1349              }
   1350            }
   1351          
   1352            // Calc the count and apply a max count.
   1353            if ( zdappMgmtNwkDiscStartIndex > ResultCount )
   1354            {
   1355              count = 0;
   1356            }
   1357            else
   1358            {
   1359              count = ResultCount - zdappMgmtNwkDiscStartIndex;
   1360              if ( count > ZDO_MAX_NWKDISC_ITEMS )
   1361              {
   1362                count = ZDO_MAX_NWKDISC_ITEMS;
   1363              }
   1364          
   1365              // Move the list pointer up to the start index.
   1366              for ( i = 0; i < zdappMgmtNwkDiscStartIndex; i++ )
   1367              {
   1368                NetworkList = NetworkList->nextDesc;
   1369              }
   1370            }
   1371          
   1372            ZDP_MgmtNwkDiscRsp( zdappMgmtNwkDiscRspTransSeq,
   1373                               &zdappMgmtNwkDiscRspAddr, ZSuccess, ResultCount,
   1374                                zdappMgmtNwkDiscStartIndex,
   1375                                count,
   1376                                NetworkList,
   1377                                false );
   1378          
   1379            if ( ZSTACK_ROUTER_BUILD )
   1380            {
   1381              if ( newDesc != NULL )
   1382              {
   1383                osal_mem_free( newDesc );
   1384              }
   1385            }
   1386          
   1387            NLME_NwkDiscTerm();
   1388          }
   1389          #endif
   1390          
   1391          /*********************************************************************
   1392           * @fn          ZDO_ProcessMgmtRtgReq
   1393           *
   1394           * @brief       This function finishes the processing of the Management
   1395           *              Routing Request and generates the response.
   1396           *
   1397           *   Note:      This function will limit the number of items returned
   1398           *              to ZDO_MAX_RTG_ITEMS items.
   1399           *
   1400           * @param       inMsg - incoming message (request)
   1401           *
   1402           * @return      none
   1403           */

   \                                 In  segment BANKED_CODE, align 1, keep-with-next
   1404          void ZDO_ProcessMgmtRtgReq( zdoIncomingMsg_t *inMsg )
   \                     ZDO_ProcessMgmtRtgReq:
   1405          {
   \   000000                REQUIRE ?V0
   \   000000                REQUIRE ?V1
   \   000000                REQUIRE ?V2
   \   000000                REQUIRE ?V3
   \   000000                REQUIRE ?V4
   \   000000                REQUIRE ?V5
   \   000000                REQUIRE ?V6
   \   000000                REQUIRE ?V7
   \   000000   74F0         MOV       A,#-0x10
   \   000002   12....       LCALL     ?BANKED_ENTER_XDATA
   \   000005                ; Saved register size: 16
   \   000005                ; Auto size: 1
   \   000005   74FF         MOV       A,#-0x1
   \   000007   12....       LCALL     ?ALLOC_XSTACK8
   \   00000A   8A..         MOV       ?V6,R2
   \   00000C   8B..         MOV       ?V7,R3
   1406            byte x;
   1407            byte maxNumItems;
   1408            byte numItems = 0;
   \   00000E   7E00         MOV       R6,#0x0
   1409            uint8 *pBuf = NULL;
   \   000010   8E..         MOV       ?V4,R6
   \   000012   8E..         MOV       ?V5,R6
   1410            rtgItem_t *pList;
   1411            uint8 StartIndex = inMsg->asdu[0];
   \   000014   12....       LCALL     ?Subroutine123 & 0xFFFF
   \                     ??CrossCallReturnLabel_185:
   \   000017   35..         ADDC      A,?V7
   \   000019   12....       LCALL     ?Subroutine60 & 0xFFFF
   \                     ??CrossCallReturnLabel_350:
   \   00001C   F5..         MOV       ?V0,A
   1412          
   1413            // Get the number of table items
   1414            NLME_GetRequest( nwkNumRoutingTableEntries, 0, &maxNumItems );
   \   00001E                ; Setup parameters for call to function NLME_GetRequest
   \   00001E   AC..         MOV       R4,?XSP + 0
   \   000020   AD..         MOV       R5,?XSP + 1
   \   000022   7A00         MOV       R2,#0x0
   \   000024   7B00         MOV       R3,#0x0
   \   000026   799D         MOV       R1,#-0x63
   \   000028   12....       LCALL     `??NLME_GetRequest::?relay`; Banked call to: NLME_GetRequest
   1415          
   1416            if ( maxNumItems > StartIndex )
   \   00002B   85..82       MOV       DPL,?XSP + 0
   \   00002E   85..83       MOV       DPH,?XSP + 1
   \   000031   E0           MOVX      A,@DPTR
   \   000032   F8           MOV       R0,A
   \   000033   E5..         MOV       A,?V0
   \   000035   C3           CLR       C
   \   000036   98           SUBB      A,R0
   \   000037   506F         JNC       ??ZDO_ProcessMgmtRtgReq_0
   1417            {
   1418              numItems = maxNumItems - StartIndex;    // Start at the passed in index
   \   000039   E0           MOVX      A,@DPTR
   \   00003A   C3           CLR       C
   \   00003B   95..         SUBB      A,?V0
   \   00003D   FE           MOV       R6,A
   1419              
   1420              // limit the size of the list
   1421              if ( numItems > ZDO_MAX_RTG_ITEMS )
   \   00003E   C3           CLR       C
   \   00003F   940B         SUBB      A,#0xb
   \   000041   4002         JC        ??ZDO_ProcessMgmtRtgReq_1
   1422              {
   1423                numItems = ZDO_MAX_RTG_ITEMS;
   \   000043   7E0A         MOV       R6,#0xa
   1424              }
   1425          
   1426              // Allocate the memory to build the table
   1427              pBuf = osal_mem_alloc( (short)(sizeof( rtgItem_t ) * numItems) );
   \                     ??ZDO_ProcessMgmtRtgReq_1:
   \   000045                ; Setup parameters for call to function osal_mem_alloc
   \   000045   EE           MOV       A,R6
   \   000046   75F006       MOV       B,#0x6
   \   000049   A4           MUL       AB
   \   00004A   FA           MOV       R2,A
   \   00004B   ABF0         MOV       R3,B
   \   00004D   12....       LCALL     `??osal_mem_alloc::?relay`; Banked call to: osal_mem_alloc
   \   000050   8A..         MOV       ?V2,R2
   \   000052   8B..         MOV       ?V3,R3
   \   000054   8A..         MOV       ?V4,R2
   \   000056   8B..         MOV       ?V5,R3
   1428            
   1429              if ( pBuf != NULL )
   \   000058   EA           MOV       A,R2
   \   000059   4B           ORL       A,R3
   \   00005A   604A         JZ        ??ZDO_ProcessMgmtRtgReq_2
   1430              {
   1431                // Convert buffer to list
   1432                pList = (rtgItem_t *)pBuf;
   1433            
   1434                // Loop through items and build list
   1435                for ( x = 0; x < numItems; x++ )
   \   00005C   7F00         MOV       R7,#0x0
   \   00005E   8011         SJMP      ??ZDO_ProcessMgmtRtgReq_3
   1436                {
   1437                  NLME_GetRequest( nwkRoutingTable, (uint16)(x + StartIndex), (void*)pList );
   1438            
   1439                  // Remap the status to the RoutingTableList Record Format defined in the ZigBee spec
   1440                  switch( pList->status )
   1441                  {
   1442                    case RT_ACTIVE:
   1443                      pList->status = ZDO_MGMT_RTG_ENTRY_ACTIVE;
   1444                      break;
   1445            
   1446                    case RT_DISC:
   1447                      pList->status = ZDO_MGMT_RTG_ENTRY_DISCOVERY_UNDERWAY;
   1448                      break;
   1449            
   1450                    case RT_LINK_FAIL:
   1451                      pList->status = ZDO_MGMT_RTG_ENTRY_DISCOVERY_FAILED;
   \                     ??ZDO_ProcessMgmtRtgReq_4:
   \   000060   7402         MOV       A,#0x2
   \   000062   F0           MOVX      @DPTR,A
   1452            
   1453                    case RT_INIT:
   1454                    case RT_REPAIR:
   1455                    default:
   1456                      pList->status = ZDO_MGMT_RTG_ENTRY_INACTIVE;
   \                     ??ZDO_ProcessMgmtRtgReq_5:
   \   000063   7403         MOV       A,#0x3
   \                     ??ZDO_ProcessMgmtRtgReq_6:
   \   000065   F0           MOVX      @DPTR,A
   1457                      break;
   1458                  }
   1459            
   1460                  // Increment pointer to next record
   1461                  pList++;
   \   000066   E5..         MOV       A,?V2
   \   000068   2406         ADD       A,#0x6
   \   00006A   F5..         MOV       ?V2,A
   \   00006C   5002         JNC       ??ZDO_ProcessMgmtRtgReq_7
   \   00006E   05..         INC       ?V3
   \                     ??ZDO_ProcessMgmtRtgReq_7:
   \   000070   0F           INC       R7
   \                     ??ZDO_ProcessMgmtRtgReq_3:
   \   000071   EF           MOV       A,R7
   \   000072   C3           CLR       C
   \   000073   9E           SUBB      A,R6
   \   000074   5032         JNC       ??ZDO_ProcessMgmtRtgReq_0
   \   000076                ; Setup parameters for call to function NLME_GetRequest
   \   000076   AC..         MOV       R4,?V2
   \   000078   AD..         MOV       R5,?V3
   \   00007A   EF           MOV       A,R7
   \   00007B   A8..         MOV       R0,?V0
   \   00007D   28           ADD       A,R0
   \   00007E   FA           MOV       R2,A
   \   00007F   E4           CLR       A
   \   000080   3400         ADDC      A,#0x0
   \   000082   FB           MOV       R3,A
   \   000083   798B         MOV       R1,#-0x75
   \   000085   12....       LCALL     `??NLME_GetRequest::?relay`; Banked call to: NLME_GetRequest
   \   000088   E5..         MOV       A,?V2
   \   00008A   2405         ADD       A,#0x5
   \   00008C   F582         MOV       DPL,A
   \   00008E   E4           CLR       A
   \   00008F   35..         ADDC      A,?V3
   \   000091   F583         MOV       DPH,A
   \   000093   E0           MOVX      A,@DPTR
   \   000094   14           DEC       A
   \   000095   6008         JZ        ??ZDO_ProcessMgmtRtgReq_8
   \   000097   14           DEC       A
   \   000098   6008         JZ        ??ZDO_ProcessMgmtRtgReq_9
   \   00009A   14           DEC       A
   \   00009B   60C3         JZ        ??ZDO_ProcessMgmtRtgReq_4
   \   00009D   80C4         SJMP      ??ZDO_ProcessMgmtRtgReq_5
   \                     ??ZDO_ProcessMgmtRtgReq_8:
   \   00009F   E4           CLR       A
   \   0000A0   80C3         SJMP      ??ZDO_ProcessMgmtRtgReq_6
   \                     ??ZDO_ProcessMgmtRtgReq_9:
   \   0000A2   7401         MOV       A,#0x1
   \   0000A4   80BF         SJMP      ??ZDO_ProcessMgmtRtgReq_6
   1462                }
   1463              }
   1464              else
   1465              {
   1466                numItems = 0;
   \                     ??ZDO_ProcessMgmtRtgReq_2:
   \   0000A6   7E00         MOV       R6,#0x0
   1467              }
   1468            }
   1469            
   1470            // Send response
   1471            ZDP_MgmtRtgRsp( inMsg->TransSeq, &(inMsg->srcAddr), ZSuccess, maxNumItems, StartIndex, numItems,
   1472                                  (rtgItem_t *)pBuf, false );
   \                     ??ZDO_ProcessMgmtRtgReq_0:
   \   0000A8                ; Setup parameters for call to function ZDP_MgmtRtgRsp
   \   0000A8   75..00       MOV       ?V1,#0x0
   \   0000AB   78..         MOV       R0,#?V1
   \   0000AD   12....       LCALL     ?PUSH_XSTACK_I_ONE
   \   0000B0   78..         MOV       R0,#?V4
   \   0000B2   12....       LCALL     ?PUSH_XSTACK_I_TWO
   \   0000B5   EE           MOV       A,R6
   \   0000B6   F5..         MOV       ?V1,A
   \   0000B8   78..         MOV       R0,#?V1
   \   0000BA   12....       LCALL     ?PUSH_XSTACK_I_ONE
   \   0000BD   78..         MOV       R0,#?V0
   \   0000BF   12....       LCALL     ?PUSH_XSTACK_I_ONE
   \   0000C2   7405         MOV       A,#0x5
   \   0000C4   12....       LCALL     ?XSTACK_DISP0_8
   \   0000C7   E0           MOVX      A,@DPTR
   \   0000C8   FD           MOV       R5,A
   \   0000C9   7C00         MOV       R4,#0x0
   \   0000CB   E5..         MOV       A,?V6
   \   0000CD   2402         ADD       A,#0x2
   \   0000CF   FA           MOV       R2,A
   \   0000D0   E4           CLR       A
   \   0000D1   35..         ADDC      A,?V7
   \   0000D3   FB           MOV       R3,A
   \   0000D4   E5..         MOV       A,?V6
   \   0000D6   12....       LCALL     ?Subroutine130 & 0xFFFF
   \                     ??CrossCallReturnLabel_201:
   \   0000D9   35..         ADDC      A,?V7
   \   0000DB   F583         MOV       DPH,A
   \   0000DD   E0           MOVX      A,@DPTR
   \   0000DE   F9           MOV       R1,A
   \   0000DF   12....       LCALL     `??ZDP_MgmtRtgRsp::?relay`; Banked call to: ZDP_MgmtRtgRsp
   \   0000E2   7405         MOV       A,#0x5
   \   0000E4   12....       LCALL     ?DEALLOC_XSTACK8
   1473          
   1474            if ( pBuf )
   \   0000E7   E5..         MOV       A,?V4
   \   0000E9   45..         ORL       A,?V5
   \   0000EB   6007         JZ        ??ZDO_ProcessMgmtRtgReq_10
   1475            {
   1476              osal_mem_free( pBuf );
   \   0000ED                ; Setup parameters for call to function osal_mem_free
   \   0000ED   AA..         MOV       R2,?V4
   \   0000EF   AB..         MOV       R3,?V5
   \   0000F1   12....       LCALL     `??osal_mem_free::?relay`; Banked call to: osal_mem_free
   1477            }
   1478          }
   \                     ??ZDO_ProcessMgmtRtgReq_10:
   \   0000F4   7401         MOV       A,#0x1
   \   0000F6                REQUIRE ?Subroutine6
   \   0000F6                ; // Fall through to label ?Subroutine6
   1479          
   1480          /*********************************************************************
   1481           * @fn          ZDO_ProcessMgmtBindReq
   1482           *
   1483           * @brief       This function finishes the processing of the Management
   1484           *              Bind Request and generates the response.
   1485           *
   1486           *   Note:      This function will limit the number of items returned
   1487           *              to ZDO_MAX_BIND_ITEMS items.
   1488           *
   1489           * @param       inMsg - incoming message (request)
   1490           *
   1491           * @return      none
   1492           */

   \                                 In  segment BANKED_CODE, align 1, keep-with-next
   \                     ??Subroutine203_0:
   \   000000   2413         ADD       A,#0x13
   \   000002   F582         MOV       DPL,A
   \   000004   E4           CLR       A
   \   000005   3B           ADDC      A,R3
   \   000006   22           RET

   \                                 In  segment BANKED_CODE, align 1, keep-with-next
   1493          void ZDO_ProcessMgmtBindReq( zdoIncomingMsg_t *inMsg )
   \                     ZDO_ProcessMgmtBindReq:
   1494          {
   \   000000                REQUIRE ?V0
   \   000000                REQUIRE ?V1
   \   000000                REQUIRE ?V2
   \   000000                REQUIRE ?V3
   \   000000                REQUIRE ?V4
   \   000000                REQUIRE ?V5
   \   000000                REQUIRE ?V6
   \   000000   74F1         MOV       A,#-0xf
   \   000002   12....       LCALL     ?BANKED_ENTER_XDATA
   \   000005                ; Saved register size: 15
   \   000005                ; Auto size: 4
   \   000005   74FC         MOV       A,#-0x4
   \   000007   12....       LCALL     ?ALLOC_XSTACK8
   \   00000A   7402         MOV       A,#0x2
   \   00000C   12....       LCALL     ?XSTACK_DISP0_8
   \   00000F   12....       LCALL     ??Subroutine206_0 & 0xFFFF
   1495          #if defined ( REFLECTOR )
   1496            byte x;
   1497            uint16 maxNumItems;
   1498            uint16 numItems;
   1499            uint8 *pBuf = NULL;
   \                     ??CrossCallReturnLabel_338:
   \   000012   75..00       MOV       ?V2,#0x0
   \   000015   75..00       MOV       ?V3,#0x0
   1500            apsBindingItem_t *pList;
   1501            uint8 StartIndex = inMsg->asdu[0];
   \   000018   7402         MOV       A,#0x2
   \   00001A   12....       LCALL     ?XSTACK_DISP0_8
   \   00001D   E0           MOVX      A,@DPTR
   \   00001E   12....       LCALL     ??Subroutine236_0 & 0xFFFF
   \                     ??CrossCallReturnLabel_491:
   \   000021   12....       LCALL     ?Subroutine60 & 0xFFFF
   \                     ??CrossCallReturnLabel_351:
   \   000024   F5..         MOV       ?V6,A
   1502            uint8 status;
   1503          
   1504            // Get the number of table items
   1505            APSME_GetRequest( apsNumBindingTableEntries, 0, (byte*)(&maxNumItems) );
   \   000026                ; Setup parameters for call to function APSME_GetRequest
   \   000026   AC..         MOV       R4,?XSP + 0
   \   000028   AD..         MOV       R5,?XSP + 1
   \   00002A   7A00         MOV       R2,#0x0
   \   00002C   7B00         MOV       R3,#0x0
   \   00002E   79A3         MOV       R1,#-0x5d
   \   000030   12....       LCALL     `??APSME_GetRequest::?relay`; Banked call to: APSME_GetRequest
   1506          
   1507            if ( maxNumItems > StartIndex )
   \   000033   AA..         MOV       R2,?V6
   \   000035   12....       LCALL     ?Subroutine72 & 0xFFFF
   \                     ??CrossCallReturnLabel_466:
   \   000038   C3           CLR       C
   \   000039   EA           MOV       A,R2
   \   00003A   98           SUBB      A,R0
   \   00003B   E4           CLR       A
   \   00003C   99           SUBB      A,R1
   \   00003D   5070         JNC       ??ZDO_ProcessMgmtBindReq_0
   1508            {
   1509              numItems = maxNumItems - StartIndex;    // Start at the passed in index
   \   00003F   85..82       MOV       DPL,?XSP + 0
   \   000042   85..83       MOV       DPH,?XSP + 1
   \   000045   E0           MOVX      A,@DPTR
   \   000046   C3           CLR       C
   \   000047   9A           SUBB      A,R2
   \   000048   FE           MOV       R6,A
   \   000049   A3           INC       DPTR
   \   00004A   E0           MOVX      A,@DPTR
   \   00004B   9400         SUBB      A,#0x0
   \   00004D   FF           MOV       R7,A
   1510            }
   1511            else
   1512            {
   1513              numItems = 0;
   1514            }
   1515          
   1516            // limit the size of the list
   1517            if ( numItems > ZDO_MAX_BIND_ITEMS )
   \   00004E   C3           CLR       C
   \   00004F   EE           MOV       A,R6
   \   000050   9404         SUBB      A,#0x4
   \   000052   EF           MOV       A,R7
   \   000053   9400         SUBB      A,#0x0
   \   000055   4006         JC        ??ZDO_ProcessMgmtBindReq_1
   1518            {
   1519              numItems = ZDO_MAX_BIND_ITEMS;
   \   000057   7E03         MOV       R6,#0x3
   \   000059   7F00         MOV       R7,#0x0
   \   00005B   8004         SJMP      ??ZDO_ProcessMgmtBindReq_2
   1520            }
   1521          
   1522            // Allocate the memory to build the table
   1523            if ( numItems && (pBuf = osal_mem_alloc( sizeof( apsBindingItem_t ) * numItems )) )
   \                     ??ZDO_ProcessMgmtBindReq_1:
   \   00005D   EE           MOV       A,R6
   \   00005E   4F           ORL       A,R7
   \   00005F   604E         JZ        ??ZDO_ProcessMgmtBindReq_0
   \                     ??ZDO_ProcessMgmtBindReq_2:
   \   000061                ; Setup parameters for call to function osal_mem_alloc
   \   000061   EE           MOV       A,R6
   \   000062   FA           MOV       R2,A
   \   000063   EF           MOV       A,R7
   \   000064   FB           MOV       R3,A
   \   000065   EA           MOV       A,R2
   \   000066   75F015       MOV       B,#0x15
   \   000069   A4           MUL       AB
   \   00006A   FA           MOV       R2,A
   \   00006B   A8F0         MOV       R0,B
   \   00006D   75F015       MOV       B,#0x15
   \   000070   EB           MOV       A,R3
   \   000071   A4           MUL       AB
   \   000072   28           ADD       A,R0
   \   000073   12....       LCALL     ?Subroutine136 & 0xFFFF
   \                     ??CrossCallReturnLabel_214:
   \   000076   6037         JZ        ??ZDO_ProcessMgmtBindReq_0
   1524            {
   1525              status = ZSuccess;
   \   000078   75..00       MOV       ?V1,#0x0
   1526              
   1527              // Convert buffer to list
   1528              pList = (apsBindingItem_t *)pBuf;
   \   00007B   8A..         MOV       ?V4,R2
   \   00007D   8B..         MOV       ?V5,R3
   1529          
   1530              // Loop through items and build list
   1531              for ( x = 0; x < numItems; x++ )
   \   00007F   75..00       MOV       ?V0,#0x0
   \   000082   801F         SJMP      ??ZDO_ProcessMgmtBindReq_3
   1532              {
   1533                APSME_GetRequest( apsBindingTable, (x + StartIndex), (void*)pList );
   \                     ??ZDO_ProcessMgmtBindReq_4:
   \   000084                ; Setup parameters for call to function APSME_GetRequest
   \   000084   AC..         MOV       R4,?V4
   \   000086   AD..         MOV       R5,?V5
   \   000088   A8..         MOV       R0,?V6
   \   00008A   E5..         MOV       A,?V0
   \   00008C   28           ADD       A,R0
   \   00008D   FA           MOV       R2,A
   \   00008E   E4           CLR       A
   \   00008F   3400         ADDC      A,#0x0
   \   000091   FB           MOV       R3,A
   \   000092   79A2         MOV       R1,#-0x5e
   \   000094   12....       LCALL     `??APSME_GetRequest::?relay`; Banked call to: APSME_GetRequest
   1534                pList++;
   \   000097   E5..         MOV       A,?V4
   \   000099   2415         ADD       A,#0x15
   \   00009B   F5..         MOV       ?V4,A
   \   00009D   5002         JNC       ??ZDO_ProcessMgmtBindReq_5
   \   00009F   05..         INC       ?V5
   1535              }
   \                     ??ZDO_ProcessMgmtBindReq_5:
   \   0000A1   05..         INC       ?V0
   \                     ??ZDO_ProcessMgmtBindReq_3:
   \   0000A3   C3           CLR       C
   \   0000A4   E5..         MOV       A,?V0
   \   0000A6   9E           SUBB      A,R6
   \   0000A7   E4           CLR       A
   \   0000A8   9F           SUBB      A,R7
   \   0000A9   40D9         JC        ??ZDO_ProcessMgmtBindReq_4
   \   0000AB   EE           MOV       A,R6
   \   0000AC   F9           MOV       R1,A
   \   0000AD   8005         SJMP      ??ZDO_ProcessMgmtBindReq_6
   1536              
   1537            }
   1538            else
   1539            {
   1540              status = ZDP_NOT_PERMITTED;
   \                     ??ZDO_ProcessMgmtBindReq_0:
   \   0000AF   75..8B       MOV       ?V1,#-0x75
   1541              numItems = 0;
   \   0000B2   7900         MOV       R1,#0x0
   1542            }
   1543          
   1544            // Send response
   1545            ZDP_MgmtBindRsp( inMsg->TransSeq, &(inMsg->srcAddr), status, (byte)maxNumItems, StartIndex,
   1546                             (byte)numItems, (apsBindingItem_t *)pBuf, false );
   \                     ??ZDO_ProcessMgmtBindReq_6:
   \   0000B4                ; Setup parameters for call to function ZDP_MgmtBindRsp
   \   0000B4   75..00       MOV       ?V0,#0x0
   \   0000B7   78..         MOV       R0,#?V0
   \   0000B9   12....       LCALL     ?PUSH_XSTACK_I_ONE
   \   0000BC   78..         MOV       R0,#?V2
   \   0000BE   12....       LCALL     ?PUSH_XSTACK_I_TWO
   \   0000C1   E9           MOV       A,R1
   \   0000C2   F5..         MOV       ?V0,A
   \   0000C4   78..         MOV       R0,#?V0
   \   0000C6   12....       LCALL     ?PUSH_XSTACK_I_ONE
   \   0000C9   E5..         MOV       A,?V6
   \   0000CB   F5..         MOV       ?V0,A
   \   0000CD   78..         MOV       R0,#?V0
   \   0000CF   12....       LCALL     ?PUSH_XSTACK_I_ONE
   \   0000D2   7405         MOV       A,#0x5
   \   0000D4   12....       LCALL     ?XSTACK_DISP0_8
   \   0000D7   E0           MOVX      A,@DPTR
   \   0000D8   FD           MOV       R5,A
   \   0000D9   AC..         MOV       R4,?V1
   \   0000DB   7407         MOV       A,#0x7
   \   0000DD   12....       LCALL     ?XSTACK_DISP0_8
   \   0000E0   12....       LCALL     ?Subroutine97 & 0xFFFF
   \                     ??CrossCallReturnLabel_137:
   \   0000E3   7407         MOV       A,#0x7
   \   0000E5   12....       LCALL     ?XSTACK_DISP0_8
   \   0000E8   12....       LCALL     ?Subroutine65 & 0xFFFF
   \                     ??CrossCallReturnLabel_83:
   \   0000EB   12....       LCALL     `??ZDP_MgmtBindRsp::?relay`; Banked call to: ZDP_MgmtBindRsp
   \   0000EE   7405         MOV       A,#0x5
   \   0000F0   12....       LCALL     ?DEALLOC_XSTACK8
   1547          
   1548            if ( pBuf )
   \   0000F3   E5..         MOV       A,?V2
   \   0000F5   45..         ORL       A,?V3
   \   0000F7   6007         JZ        ??ZDO_ProcessMgmtBindReq_7
   1549            {
   1550              osal_mem_free( pBuf );
   \   0000F9                ; Setup parameters for call to function osal_mem_free
   \   0000F9   AA..         MOV       R2,?V2
   \   0000FB   AB..         MOV       R3,?V3
   \   0000FD   12....       LCALL     `??osal_mem_free::?relay`; Banked call to: osal_mem_free
   1551            }
   1552          #else
   1553            (void)inMsg;
   1554          #endif
   1555          }
   \                     ??ZDO_ProcessMgmtBindReq_7:
   \   000100   7404         MOV       A,#0x4
   \   000102   12....       LCALL     ?DEALLOC_XSTACK8
   \   000105   7F07         MOV       R7,#0x7
   \   000107   02....       LJMP      ?BANKED_LEAVE_XDATA

   \                                 In  segment BANKED_CODE, align 1, keep-with-next
   \                     ?Subroutine72:
   \   000000   85..82       MOV       DPL,?XSP + 0
   \   000003   85..83       MOV       DPH,?XSP + 1
   \   000006                REQUIRE ??Subroutine233_0
   \   000006                ; // Fall through to label ??Subroutine233_0

   \                                 In  segment BANKED_CODE, align 1, keep-with-next
   \                     ??Subroutine236_0:
   \   000000   12....       LCALL     ??Subroutine203_0 & 0xFFFF
   \                     ??CrossCallReturnLabel_494:
   \   000003   22           RET

   \                                 In  segment BANKED_CODE, align 1, keep-with-next
   \                     ?Subroutine136:
   \   000000   FB           MOV       R3,A
   \   000001   12....       LCALL     `??osal_mem_alloc::?relay`; Banked call to: osal_mem_alloc
   \   000004   8A..         MOV       ?V2,R2
   \   000006   8B..         MOV       ?V3,R3
   \   000008   EA           MOV       A,R2
   \   000009   4B           ORL       A,R3
   \   00000A   22           RET
   1556          
   1557          /*********************************************************************
   1558           * @fn          ZDO_ProcessMgmtDirectJoinReq
   1559           *
   1560           * @brief       This function finishes the processing of the Management
   1561           *              Direct Join Request and generates the response.
   1562           *
   1563           * @param       inMsg - incoming message (request)
   1564           *
   1565           * @return      none
   1566           */

   \                                 In  segment BANKED_CODE, align 1, keep-with-next
   1567          void ZDO_ProcessMgmtDirectJoinReq( zdoIncomingMsg_t *inMsg )
   \                     ZDO_ProcessMgmtDirectJoinReq:
   1568          {
   \   000000                REQUIRE ?V0
   \   000000                REQUIRE ?V1
   \   000000   74F6         MOV       A,#-0xa
   \   000002   12....       LCALL     ?BANKED_ENTER_XDATA
   \   000005                ; Saved register size: 10
   \   000005                ; Auto size: 1
   \   000005   74FF         MOV       A,#-0x1
   \   000007   12....       LCALL     ?ALLOC_XSTACK8
   \   00000A   12....       LCALL     ?Subroutine120 & 0xFFFF
   1569            uint8 *deviceAddr;
   1570            uint8 capInfo;
   1571            uint8 stat;
   1572          
   1573            // Parse the message
   1574            deviceAddr = inMsg->asdu;
   1575            capInfo = inMsg->asdu[Z_EXTADDR_LEN];
   1576          
   1577            stat = (byte) NLME_DirectJoinRequest( deviceAddr, capInfo );
   \                     ??CrossCallReturnLabel_180:
   \   00000D   12....       LCALL     ??Subroutine212_0 & 0xFFFF
   \                     ??CrossCallReturnLabel_362:
   \   000010                ; Setup parameters for call to function NLME_DirectJoinRequest
   \   000010   8A82         MOV       DPL,R2
   \   000012   F583         MOV       DPH,A
   \   000014   A3           INC       DPTR
   \   000015   A3           INC       DPTR
   \   000016   A3           INC       DPTR
   \   000017   A3           INC       DPTR
   \   000018   A3           INC       DPTR
   \   000019   A3           INC       DPTR
   \   00001A   A3           INC       DPTR
   \   00001B   A3           INC       DPTR
   \   00001C   E0           MOVX      A,@DPTR
   \   00001D   F9           MOV       R1,A
   \   00001E   12....       LCALL     `??NLME_DirectJoinRequest::?relay`; Banked call to: NLME_DirectJoinRequest
   \   000021   E9           MOV       A,R1
   \   000022   85..82       MOV       DPL,?XSP + 0
   \   000025   85..83       MOV       DPH,?XSP + 1
   \   000028   F0           MOVX      @DPTR,A
   1578          
   1579            ZDP_MgmtDirectJoinRsp( inMsg->TransSeq, &(inMsg->srcAddr), stat, false );
   \   000029                ; Setup parameters for call to function ZDP_SendData
   \   000029   75..00       MOV       ?V0,#0x0
   \   00002C   78..         MOV       R0,#?V0
   \   00002E   12....       LCALL     ?PUSH_XSTACK_I_ONE
   \   000031   7401         MOV       A,#0x1
   \   000033   12....       LCALL     ?XSTACK_DISP100_8
   \   000036   88..         MOV       ?V0,R0
   \   000038   89..         MOV       ?V1,R1
   \   00003A   78..         MOV       R0,#?V0
   \   00003C   12....       LCALL     ?PUSH_XSTACK_I_TWO
   \   00003F   75..35       MOV       ?V0,#0x35
   \   000042   75..80       MOV       ?V1,#-0x80
   \   000045   78..         MOV       R0,#?V0
   \   000047   12....       LCALL     ?PUSH_XSTACK_I_TWO
   \   00004A   7901         MOV       R1,#0x1
   \   00004C   EE           MOV       A,R6
   \   00004D   2402         ADD       A,#0x2
   \   00004F   FC           MOV       R4,A
   \   000050   E4           CLR       A
   \   000051   3F           ADDC      A,R7
   \   000052   FD           MOV       R5,A
   \   000053   12....       LCALL     ?Subroutine129 & 0xFFFF
   \                     ??CrossCallReturnLabel_198:
   \   000056   12....       LCALL     ?DEALLOC_XSTACK8
   1580          }
   \   000059                REQUIRE ?Subroutine7
   \   000059                ; // Fall through to label ?Subroutine7

   \                                 In  segment BANKED_CODE, align 1, keep-with-next
   \                     ?Subroutine7:
   \   000000   7401         MOV       A,#0x1
   \   000002   02....       LJMP      ??Subroutine197_0 & 0xFFFF

   \                                 In  segment BANKED_CODE, align 1, keep-with-next
   \                     ?Subroutine129:
   \   000000   EE           MOV       A,R6
   \   000001   240F         ADD       A,#0xf
   \   000003   FA           MOV       R2,A
   \   000004   E4           CLR       A
   \   000005   3F           ADDC      A,R7
   \   000006   FB           MOV       R3,A
   \   000007   12....       LCALL     `??ZDP_SendData::?relay`; Banked call to: ZDP_SendData
   \   00000A   7405         MOV       A,#0x5
   \   00000C   22           RET
   1581          
   1582          /*********************************************************************
   1583           * @fn          ZDO_ProcessMgmtLeaveReq
   1584           *
   1585           * @brief       This function processes a Management Leave Request
   1586           *              and generates the response.
   1587           *
   1588           * @param       inMsg - incoming message (request)
   1589           *
   1590           * @return      none
   1591           */

   \                                 In  segment BANKED_CODE, align 1, keep-with-next
   1592          void ZDO_ProcessMgmtLeaveReq( zdoIncomingMsg_t *inMsg )
   \                     ZDO_ProcessMgmtLeaveReq:
   1593          {
   \   000000                REQUIRE ?V0
   \   000000                REQUIRE ?V1
   \   000000                REQUIRE ?V2
   \   000000                REQUIRE ?V3
   \   000000   74F4         MOV       A,#-0xc
   \   000002   12....       LCALL     ?BANKED_ENTER_XDATA
   \   000005                ; Saved register size: 12
   \   000005                ; Auto size: 6
   \   000005   74FA         MOV       A,#-0x6
   \   000007   12....       LCALL     ?ALLOC_XSTACK8
   \   00000A   12....       LCALL     ?Subroutine113 & 0xFFFF
   1594            NLME_LeaveReq_t req;
   1595            ZStatus_t       status;
   1596            uint8           option;
   1597            uint8 *msg = inMsg->asdu;
   \                     ??CrossCallReturnLabel_166:
   \   00000D   12....       LCALL     ?Subroutine103 & 0xFFFF
   1598          
   1599            if ( ( AddrMgrExtAddrValid( msg ) == FALSE                 ) ||
   1600                 ( osal_ExtAddrEqual( msg, NLME_GetExtAddr() ) == TRUE )    )
   \                     ??CrossCallReturnLabel_500:
   \   000010                ; Setup parameters for call to function AddrMgrExtAddrValid
   \   000010   EE           MOV       A,R6
   \   000011   FA           MOV       R2,A
   \   000012   EF           MOV       A,R7
   \   000013   FB           MOV       R3,A
   \   000014   12....       LCALL     `??AddrMgrExtAddrValid::?relay`; Banked call to: AddrMgrExtAddrValid
   \   000017   E9           MOV       A,R1
   \   000018   6017         JZ        ??ZDO_ProcessMgmtLeaveReq_0
   \   00001A                ; Setup parameters for call to function NLME_GetExtAddr
   \   00001A   12....       LCALL     `??NLME_GetExtAddr::?relay`; Banked call to: NLME_GetExtAddr
   \   00001D   8A..         MOV       ?V2,R2
   \   00001F   8B..         MOV       ?V3,R3
   \   000021   AC..         MOV       R4,?V2
   \   000023   AD..         MOV       R5,?V3
   \   000025                ; Setup parameters for call to function sAddrExtCmp
   \   000025   EE           MOV       A,R6
   \   000026   FA           MOV       R2,A
   \   000027   EF           MOV       A,R7
   \   000028   FB           MOV       R3,A
   \   000029   12....       LCALL     `??sAddrExtCmp::?relay`; Banked call to: sAddrExtCmp
   \   00002C   E9           MOV       A,R1
   \   00002D   6401         XRL       A,#0x1
   \   00002F   700A         JNZ       ??ZDO_ProcessMgmtLeaveReq_1
   1601            {
   1602              // Remove this device
   1603              req.extAddr = NULL;
   \                     ??ZDO_ProcessMgmtLeaveReq_0:
   \   000031   7401         MOV       A,#0x1
   \   000033   12....       LCALL     ?XSTACK_DISP0_8
   \   000036   E4           CLR       A
   \   000037   F0           MOVX      @DPTR,A
   \   000038   A3           INC       DPTR
   \   000039   8009         SJMP      ??ZDO_ProcessMgmtLeaveReq_2
   1604            }
   1605            else
   1606            {
   1607              // Remove child device
   1608              req.extAddr = msg;
   \                     ??ZDO_ProcessMgmtLeaveReq_1:
   \   00003B   7401         MOV       A,#0x1
   \   00003D   12....       LCALL     ?XSTACK_DISP0_8
   \   000040   EE           MOV       A,R6
   \   000041   F0           MOVX      @DPTR,A
   \   000042   A3           INC       DPTR
   \   000043   EF           MOV       A,R7
   1609            }
   \                     ??ZDO_ProcessMgmtLeaveReq_2:
   \   000044   12....       LCALL     ?Subroutine18 & 0xFFFF
   1610            
   1611            option = msg[Z_EXTADDR_LEN];
   \                     ??CrossCallReturnLabel_12:
   \   000047   F8           MOV       R0,A
   1612            if ( option & ZDP_MGMT_LEAVE_REQ_RC )
   \   000048   A2E6         MOV       C,0xE0 /* A   */.6
   \   00004A   5008         JNC       ??ZDO_ProcessMgmtLeaveReq_3
   1613            {
   1614              req.removeChildren = TRUE;
   \   00004C   7403         MOV       A,#0x3
   \   00004E   12....       LCALL     ?XSTACK_DISP0_8
   \   000051   7401         MOV       A,#0x1
   \   000053   F0           MOVX      @DPTR,A
   1615            }
   1616            
   1617            if ( option & ZDP_MGMT_LEAVE_REQ_REJOIN )
   \                     ??ZDO_ProcessMgmtLeaveReq_3:
   \   000054   E8           MOV       A,R0
   \   000055   A2E7         MOV       C,0xE0 /* A   */.7
   \   000057   5008         JNC       ??ZDO_ProcessMgmtLeaveReq_4
   1618            {
   1619               req.rejoin = TRUE;
   \   000059   7404         MOV       A,#0x4
   \   00005B   12....       LCALL     ?XSTACK_DISP0_8
   \   00005E   7401         MOV       A,#0x1
   \   000060   F0           MOVX      @DPTR,A
   1620            }
   1621          
   1622            req.silent = FALSE;
   \                     ??ZDO_ProcessMgmtLeaveReq_4:
   \   000061   7405         MOV       A,#0x5
   \   000063   12....       LCALL     ?XSTACK_DISP0_8
   \   000066   E4           CLR       A
   \   000067   F0           MOVX      @DPTR,A
   1623          
   1624            status = NLME_LeaveReq( &req );
   \   000068                ; Setup parameters for call to function NLME_LeaveReq
   \   000068   04           INC       A
   \   000069   12....       LCALL     ?XSTACK_DISP101_8
   \   00006C   12....       LCALL     `??NLME_LeaveReq::?relay`; Banked call to: NLME_LeaveReq
   \   00006F   E9           MOV       A,R1
   \   000070   85..82       MOV       DPL,?XSP + 0
   \   000073   85..83       MOV       DPH,?XSP + 1
   \   000076   F0           MOVX      @DPTR,A
   1625          
   1626            ZDP_MgmtLeaveRsp( inMsg->TransSeq, &(inMsg->srcAddr), status, FALSE );
   \   000077                ; Setup parameters for call to function ZDP_SendData
   \   000077   75..00       MOV       ?V2,#0x0
   \   00007A   78..         MOV       R0,#?V2
   \   00007C   12....       LCALL     ?PUSH_XSTACK_I_ONE
   \   00007F   7401         MOV       A,#0x1
   \   000081   12....       LCALL     ?XSTACK_DISP100_8
   \   000084   88..         MOV       ?V2,R0
   \   000086   89..         MOV       ?V3,R1
   \   000088   78..         MOV       R0,#?V2
   \   00008A   12....       LCALL     ?PUSH_XSTACK_I_TWO
   \   00008D   75..34       MOV       ?V2,#0x34
   \   000090   75..80       MOV       ?V3,#-0x80
   \   000093   78..         MOV       R0,#?V2
   \   000095   12....       LCALL     ?PUSH_XSTACK_I_TWO
   \   000098   7901         MOV       R1,#0x1
   \   00009A   E5..         MOV       A,?V0
   \   00009C   2402         ADD       A,#0x2
   \   00009E   FC           MOV       R4,A
   \   00009F   E4           CLR       A
   \   0000A0   35..         ADDC      A,?V1
   \   0000A2   FD           MOV       R5,A
   \   0000A3   E5..         MOV       A,?V0
   \   0000A5   240F         ADD       A,#0xf
   \   0000A7   FA           MOV       R2,A
   \   0000A8   E4           CLR       A
   \   0000A9   35..         ADDC      A,?V1
   \   0000AB   12....       LCALL     ?Subroutine139 & 0xFFFF
   \                     ??CrossCallReturnLabel_297:
   \   0000AE   12....       LCALL     ?DEALLOC_XSTACK8
   1627          }
   \   0000B1   7406         MOV       A,#0x6
   \   0000B3   12....       LCALL     ?DEALLOC_XSTACK8
   \   0000B6                REQUIRE ?Subroutine1
   \   0000B6                ; // Fall through to label ?Subroutine1

   \                                 In  segment BANKED_CODE, align 1, keep-with-next
   \                     ?Subroutine103:
   \   000000   F583         MOV       DPH,A
   \   000002                REQUIRE ??Subroutine237_0
   \   000002                ; // Fall through to label ??Subroutine237_0

   \                                 In  segment BANKED_CODE, align 1, keep-with-next
   \                     ?Subroutine18:
   \   000000   12....       LCALL     ?Subroutine151 & 0xFFFF
   \                     ??CrossCallReturnLabel_239:
   \   000003   A3           INC       DPTR
   \   000004   A3           INC       DPTR
   \   000005   A3           INC       DPTR
   \   000006   E0           MOVX      A,@DPTR
   \   000007   22           RET
   1628          
   1629          
   1630          /*********************************************************************
   1631           * @fn          ZDO_ProcessMgmtPermitJoinReq
   1632           *
   1633           * @brief       This function processes a Management Permit Join Request
   1634           *              and generates the response.
   1635           *
   1636           * @param       inMsg - incoming message (request)
   1637           *
   1638           * @return      none
   1639           */

   \                                 In  segment BANKED_CODE, align 1, keep-with-next
   1640          void ZDO_ProcessMgmtPermitJoinReq( zdoIncomingMsg_t *inMsg )
   \                     ZDO_ProcessMgmtPermitJoinReq:
   1641          {
   \   000000                REQUIRE ?V0
   \   000000                REQUIRE ?V1
   \   000000   74F6         MOV       A,#-0xa
   \   000002   12....       LCALL     ?BANKED_ENTER_XDATA
   \   000005                ; Saved register size: 10
   \   000005                ; Auto size: 1
   \   000005   74FF         MOV       A,#-0x1
   \   000007   12....       LCALL     ?ALLOC_XSTACK8
   \   00000A   EA           MOV       A,R2
   \   00000B   FE           MOV       R6,A
   \   00000C   EB           MOV       A,R3
   \   00000D   FF           MOV       R7,A
   1642            uint8 stat;
   1643            uint8 duration;
   1644            uint8 tcsig;
   1645          
   1646            duration = inMsg->asdu[ZDP_MGMT_PERMIT_JOIN_REQ_DURATION];
   1647            tcsig    = inMsg->asdu[ZDP_MGMT_PERMIT_JOIN_REQ_TC_SIG];
   1648          
   1649            // Set the network layer permit join duration
   1650            stat = (byte) NLME_PermitJoiningRequest( duration );
   \   00000E                ; Setup parameters for call to function NLME_PermitJoiningRequest
   \   00000E   12....       LCALL     ?Subroutine123 & 0xFFFF
   \                     ??CrossCallReturnLabel_186:
   \   000011   3F           ADDC      A,R7
   \   000012   12....       LCALL     ?Subroutine60 & 0xFFFF
   \                     ??CrossCallReturnLabel_352:
   \   000015   F9           MOV       R1,A
   \   000016   12....       LCALL     `??NLME_PermitJoiningRequest::?relay`; Banked call to: NLME_PermitJoiningRequest
   \   000019   E9           MOV       A,R1
   \   00001A   85..82       MOV       DPL,?XSP + 0
   \   00001D   85..83       MOV       DPH,?XSP + 1
   \   000020   F0           MOVX      @DPTR,A
   1651          
   1652            // Handle the Trust Center Significance
   1653            if ( ZG_SECURE_ENABLED && ZG_BUILD_COORDINATOR_TYPE && ZG_DEVICE_COORDINATOR_TYPE )
   1654            {
   1655              if ( tcsig == TRUE )
   1656              {
   1657                ZDSecMgrPermitJoining( duration );
   1658              }
   1659            }
   1660          
   1661            // Send a response if unicast
   1662            if (inMsg->srcAddr.addr.shortAddr != NWK_BROADCAST_SHORTADDR)
   \   000021   EE           MOV       A,R6
   \   000022   2402         ADD       A,#0x2
   \   000024   FC           MOV       R4,A
   \   000025   E4           CLR       A
   \   000026   3F           ADDC      A,R7
   \   000027   FD           MOV       R5,A
   \   000028   8C82         MOV       DPL,R4
   \   00002A   F583         MOV       DPH,A
   \   00002C   E0           MOVX      A,@DPTR
   \   00002D   F4           CPL       A
   \   00002E   7003         JNZ       ??ZDO_ProcessMgmtPermitJoinReq_0
   \   000030   A3           INC       DPTR
   \   000031   E0           MOVX      A,@DPTR
   \   000032   F4           CPL       A
   \                     ??ZDO_ProcessMgmtPermitJoinReq_0:
   \   000033   6029         JZ        ??ZDO_ProcessMgmtPermitJoinReq_1
   1663            {
   1664              ZDP_MgmtPermitJoinRsp( inMsg->TransSeq, &(inMsg->srcAddr), stat, false );
   \   000035                ; Setup parameters for call to function ZDP_SendData
   \   000035   75..00       MOV       ?V0,#0x0
   \   000038   78..         MOV       R0,#?V0
   \   00003A   12....       LCALL     ?PUSH_XSTACK_I_ONE
   \   00003D   7401         MOV       A,#0x1
   \   00003F   12....       LCALL     ?XSTACK_DISP100_8
   \   000042   88..         MOV       ?V0,R0
   \   000044   89..         MOV       ?V1,R1
   \   000046   78..         MOV       R0,#?V0
   \   000048   12....       LCALL     ?PUSH_XSTACK_I_TWO
   \   00004B   75..36       MOV       ?V0,#0x36
   \   00004E   75..80       MOV       ?V1,#-0x80
   \   000051   78..         MOV       R0,#?V0
   \   000053   12....       LCALL     ?PUSH_XSTACK_I_TWO
   \   000056   7901         MOV       R1,#0x1
   \   000058   12....       LCALL     ?Subroutine129 & 0xFFFF
   1665            }
   \                     ??CrossCallReturnLabel_199:
   \   00005B   12....       LCALL     ?DEALLOC_XSTACK8
   1666          }
   \                     ??ZDO_ProcessMgmtPermitJoinReq_1:
   \   00005E   02....       LJMP      ?Subroutine7 & 0xFFFF
   1667          
   1668          /*
   1669           * This function stub allows the next higher layer to be notified of
   1670           * a permit joining timeout.
   1671           */
   1672          /*********************************************************************
   1673           * @fn          ZDO_ProcessMgmtPermitJoinTimeout
   1674           *
   1675           * @brief       This function stub allows the next higher layer to be
   1676           *              notified of a permit joining timeout. Currently, this
   1677           *              directly bypasses the APS layer.
   1678           *
   1679           * @param       none
   1680           *
   1681           * @return      none
   1682           */

   \                                 In  segment BANKED_CODE, align 1, keep-with-next
   1683          void ZDO_ProcessMgmtPermitJoinTimeout( void )
   \                     NLME_PermitJoiningTimeout:
   1684          {
   \   000000                ; Saved register size: 0
   \   000000                ; Auto size: 0
   1685            #if defined( ZDO_MGMT_PERMIT_JOIN_RESPONSE )
   1686            // Currently, only the ZDSecMgr needs to be notified
   1687            if ( ZG_SECURE_ENABLED && ZG_BUILD_COORDINATOR_TYPE && ZG_DEVICE_COORDINATOR_TYPE )
   1688            {
   1689              ZDSecMgrPermitJoiningTimeout();
   1690            }
   1691            #endif
   1692          }
   \   000000   02....       LJMP      ?BRET
   1693          
   1694          /*********************************************************************
   1695           * @fn          ZDO_ProcessUserDescReq
   1696           *
   1697           * @brief       This function finishes the processing of the User
   1698           *              Descriptor Request and generates the response.
   1699           *
   1700           * @param       inMsg - incoming message (request)
   1701           *
   1702           * @return      none
   1703           */

   \                                 In  segment BANKED_CODE, align 1, keep-with-next
   1704          void ZDO_ProcessUserDescReq( zdoIncomingMsg_t *inMsg )
   \                     ZDO_ProcessUserDescReq:
   1705          {
   \   000000                REQUIRE ?V0
   \   000000                REQUIRE ?V1
   \   000000                REQUIRE ?V2
   \   000000                REQUIRE ?V3
   \   000000                REQUIRE ?V4
   \   000000                REQUIRE ?V5
   \   000000                REQUIRE ?V6
   \   000000                REQUIRE ?V7
   \   000000   74F0         MOV       A,#-0x10
   \   000002   12....       LCALL     ?BANKED_ENTER_XDATA
   \   000005                ; Saved register size: 16
   \   000005                ; Auto size: 17
   \   000005   74EF         MOV       A,#-0x11
   \   000007   12....       LCALL     ?ALLOC_XSTACK8
   \   00000A   12....       LCALL     ?Subroutine113 & 0xFFFF
   1706            uint16 aoi = BUILD_UINT16( inMsg->asdu[0], inMsg->asdu[1] );
   \                     ??CrossCallReturnLabel_167:
   \   00000D   12....       LCALL     ?Subroutine54 & 0xFFFF
   1707            UserDescriptorFormat_t userDesc;
   1708          
   1709            if ( (aoi == ZDAppNwkAddr.addr.shortAddr) && (ZSUCCESS == osal_nv_read(
   1710                       ZCD_NV_USERDESC, 0, sizeof(UserDescriptorFormat_t), &userDesc )) )
   \                     ??CrossCallReturnLabel_66:
   \   000010   E5..         MOV       A,?V0
   \   000012   240F         ADD       A,#0xf
   \   000014   F5..         MOV       ?V6,A
   \   000016   E4           CLR       A
   \   000017   35..         ADDC      A,?V1
   \   000019   F5..         MOV       ?V7,A
   \   00001B   E5..         MOV       A,?V0
   \   00001D   2402         ADD       A,#0x2
   \   00001F   F5..         MOV       ?V2,A
   \   000021   E4           CLR       A
   \   000022   35..         ADDC      A,?V1
   \   000024   F5..         MOV       ?V3,A
   \   000026   90....       MOV       DPTR,#ZDAppNwkAddr
   \   000029   E0           MOVX      A,@DPTR
   \   00002A   6E           XRL       A,R6
   \   00002B   7003         JNZ       ??ZDO_ProcessUserDescReq_0
   \   00002D   A3           INC       DPTR
   \   00002E   E0           MOVX      A,@DPTR
   \   00002F   6F           XRL       A,R7
   \                     ??ZDO_ProcessUserDescReq_0:
   \   000030   705B         JNZ       ??ZDO_ProcessUserDescReq_1
   \   000032                ; Setup parameters for call to function osal_nv_read
   \   000032   A8..         MOV       R0,?XSP + 0
   \   000034   A9..         MOV       R1,?XSP + 1
   \   000036   88..         MOV       ?V4,R0
   \   000038   89..         MOV       ?V5,R1
   \   00003A   78..         MOV       R0,#?V4
   \   00003C   12....       LCALL     ?PUSH_XSTACK_I_TWO
   \   00003F   75..11       MOV       ?V4,#0x11
   \   000042   75..00       MOV       ?V5,#0x0
   \   000045   78..         MOV       R0,#?V4
   \   000047   12....       LCALL     ?PUSH_XSTACK_I_TWO
   \   00004A   7C00         MOV       R4,#0x0
   \   00004C   7D00         MOV       R5,#0x0
   \   00004E   7A81         MOV       R2,#-0x7f
   \   000050   7B00         MOV       R3,#0x0
   \   000052   12....       LCALL     `??osal_nv_read::?relay`; Banked call to: osal_nv_read
   \   000055   7404         MOV       A,#0x4
   \   000057   12....       LCALL     ?DEALLOC_XSTACK8
   \   00005A   E9           MOV       A,R1
   \   00005B   7030         JNZ       ??ZDO_ProcessUserDescReq_1
   1711            {
   1712              ZDP_UserDescRsp( inMsg->TransSeq, &(inMsg->srcAddr), aoi, &userDesc, false );
   \   00005D                ; Setup parameters for call to function ZDP_UserDescRsp
   \   00005D   75..00       MOV       ?V0,#0x0
   \   000060   78..         MOV       R0,#?V0
   \   000062   12....       LCALL     ?PUSH_XSTACK_I_ONE
   \   000065   7401         MOV       A,#0x1
   \   000067   12....       LCALL     ?XSTACK_DISP100_8
   \   00006A   88..         MOV       ?V0,R0
   \   00006C   89..         MOV       ?V1,R1
   \   00006E   78..         MOV       R0,#?V0
   \   000070   12....       LCALL     ?PUSH_XSTACK_I_TWO
   \   000073   EE           MOV       A,R6
   \   000074   FC           MOV       R4,A
   \   000075   EF           MOV       A,R7
   \   000076   FD           MOV       R5,A
   \   000077   AA..         MOV       R2,?V2
   \   000079   AB..         MOV       R3,?V3
   \   00007B   85..82       MOV       DPL,?V6
   \   00007E   85..83       MOV       DPH,?V7
   \   000081   E0           MOVX      A,@DPTR
   \   000082   F9           MOV       R1,A
   \   000083   12....       LCALL     `??ZDP_UserDescRsp::?relay`; Banked call to: ZDP_UserDescRsp
   \   000086   7403         MOV       A,#0x3
   \   000088   12....       LCALL     ?DEALLOC_XSTACK8
   \   00008B   802F         SJMP      ??ZDO_ProcessUserDescReq_2
   1713            }
   1714            else
   1715            {
   1716              ZDP_GenericRsp(inMsg->TransSeq, &(inMsg->srcAddr), 
   1717                     ZDP_NOT_SUPPORTED, aoi, User_Desc_rsp, inMsg->SecurityUse );
   \                     ??ZDO_ProcessUserDescReq_1:
   \   00008D                ; Setup parameters for call to function ZDP_GenericRsp
   \   00008D   75..11       MOV       ?V4,#0x11
   \   000090   75..80       MOV       ?V5,#-0x80
   \   000093   78..         MOV       R0,#?V4
   \   000095   12....       LCALL     ?PUSH_XSTACK_I_TWO
   \   000098   8E..         MOV       ?V4,R6
   \   00009A   8F..         MOV       ?V5,R7
   \   00009C   78..         MOV       R0,#?V4
   \   00009E   12....       LCALL     ?PUSH_XSTACK_I_TWO
   \   0000A1   12....       LCALL     ?Subroutine124 & 0xFFFF
   1718            }
   \                     ??CrossCallReturnLabel_188:
   \   0000A4   E0           MOVX      A,@DPTR
   \   0000A5   FD           MOV       R5,A
   \   0000A6   7C84         MOV       R4,#-0x7c
   \   0000A8   AA..         MOV       R2,?V2
   \   0000AA   AB..         MOV       R3,?V3
   \   0000AC   85..82       MOV       DPL,?V6
   \   0000AF   85..83       MOV       DPH,?V7
   \   0000B2   E0           MOVX      A,@DPTR
   \   0000B3   F9           MOV       R1,A
   \   0000B4   12....       LCALL     `??ZDP_GenericRsp::?relay`; Banked call to: ZDP_GenericRsp
   \   0000B7   7404         MOV       A,#0x4
   \   0000B9   12....       LCALL     ?DEALLOC_XSTACK8
   1719          }
   \                     ??ZDO_ProcessUserDescReq_2:
   \   0000BC   7411         MOV       A,#0x11
   \   0000BE   02....       LJMP      ?Subroutine6 & 0xFFFF

   \                                 In  segment BANKED_CODE, align 1, keep-with-next
   \                     ?Subroutine124:
   \   000000   E5..         MOV       A,?V0
   \   000002   240E         ADD       A,#0xe
   \   000004   12....       LCALL     ?Subroutine184 & 0xFFFF
   \                     ??CrossCallReturnLabel_578:
   \   000007   22           RET
   1720          
   1721          /*********************************************************************
   1722           * @fn          ZDO_ProcessUserDescSet
   1723           *
   1724           * @brief       This function finishes the processing of the User
   1725           *              Descriptor Set and generates the response.
   1726           *
   1727           * @param       inMsg - incoming message (request)
   1728           *
   1729           * @return      none
   1730           */

   \                                 In  segment BANKED_CODE, align 1, keep-with-next
   1731          void ZDO_ProcessUserDescSet( zdoIncomingMsg_t *inMsg )
   \                     ZDO_ProcessUserDescSet:
   1732          {
   \   000000                REQUIRE ?V0
   \   000000                REQUIRE ?V1
   \   000000                REQUIRE ?V2
   \   000000                REQUIRE ?V3
   \   000000                REQUIRE ?V4
   \   000000                REQUIRE ?V5
   \   000000   74F2         MOV       A,#-0xe
   \   000002   12....       LCALL     ?BANKED_ENTER_XDATA
   \   000005                ; Saved register size: 14
   \   000005                ; Auto size: 21
   \   000005   74EB         MOV       A,#-0x15
   \   000007   12....       LCALL     ?ALLOC_XSTACK8
   \   00000A   8A..         MOV       ?V4,R2
   \   00000C   8B..         MOV       ?V5,R3
   1733            uint8 *msg;
   1734            uint16 aoi;
   1735            UserDescriptorFormat_t userDesc;
   1736            uint8 outMsg[3];
   1737            uint8 status;
   1738          
   1739            msg = inMsg->asdu;
   \   00000E   12....       LCALL     ?Subroutine123 & 0xFFFF
   \                     ??CrossCallReturnLabel_187:
   \   000011   35..         ADDC      A,?V5
   \   000013   12....       LCALL     ?Subroutine71 & 0xFFFF
   1740            aoi = BUILD_UINT16( msg[0], msg[1] );
   \                     ??CrossCallReturnLabel_94:
   \   000016   FA           MOV       R2,A
   \   000017   E4           CLR       A
   \   000018   CA           XCH       A,R2
   \   000019   FB           MOV       R3,A
   \   00001A   EC           MOV       A,R4
   \   00001B   2A           ADD       A,R2
   \   00001C   FE           MOV       R6,A
   \   00001D   E4           CLR       A
   \   00001E   3B           ADDC      A,R3
   \   00001F   FF           MOV       R7,A
   1741          
   1742            if ( aoi == ZDAppNwkAddr.addr.shortAddr )
   \   000020   90....       MOV       DPTR,#ZDAppNwkAddr
   \   000023   E0           MOVX      A,@DPTR
   \   000024   6E           XRL       A,R6
   \   000025   7003         JNZ       ??ZDO_ProcessUserDescSet_0
   \   000027   A3           INC       DPTR
   \   000028   E0           MOVX      A,@DPTR
   \   000029   6F           XRL       A,R7
   \                     ??ZDO_ProcessUserDescSet_0:
   \   00002A   6003         JZ        $+5
   \   00002C   02....       LJMP      ??ZDO_ProcessUserDescSet_1 & 0xFFFF
   1743            {
   1744              userDesc.len = (msg[2] < AF_MAX_USER_DESCRIPTOR_LEN) ? msg[2] : AF_MAX_USER_DESCRIPTOR_LEN;
   \   00002F   8882         MOV       DPL,R0
   \   000031   8983         MOV       DPH,R1
   \   000033   A3           INC       DPTR
   \   000034   A3           INC       DPTR
   \   000035   E0           MOVX      A,@DPTR
   \   000036   FA           MOV       R2,A
   \   000037   9410         SUBB      A,#0x10
   \   000039   5004         JNC       ??ZDO_ProcessUserDescSet_2
   \   00003B   8A..         MOV       ?V3,R2
   \   00003D   8003         SJMP      ??ZDO_ProcessUserDescSet_3
   \                     ??ZDO_ProcessUserDescSet_2:
   \   00003F   75..10       MOV       ?V3,#0x10
   \                     ??ZDO_ProcessUserDescSet_3:
   \   000042   7404         MOV       A,#0x4
   \   000044   12....       LCALL     ?XSTACK_DISP0_8
   \   000047   E5..         MOV       A,?V3
   \   000049   12....       LCALL     ?Subroutine32 & 0xFFFF
   1745              msg ++;  // increment one for the length field
   1746              
   1747              osal_memcpy( userDesc.desc, &msg[2], userDesc.len );
   \                     ??CrossCallReturnLabel_33:
   \   00004C   A982         MOV       R1,DPL
   \   00004E   AA83         MOV       R2,DPH
   \   000050   89..         MOV       ?V0,R1
   \   000052   8A..         MOV       ?V1,R2
   \   000054   75..00       MOV       ?V2,#0x0
   \   000057   78..         MOV       R0,#?V0
   \   000059   12....       LCALL     ?PUSH_XSTACK_I_THREE
   \   00005C   7407         MOV       A,#0x7
   \   00005E   12....       LCALL     ?XSTACK_DISP0_8
   \   000061   E0           MOVX      A,@DPTR
   \   000062   FC           MOV       R4,A
   \   000063   7D00         MOV       R5,#0x0
   \   000065   7408         MOV       A,#0x8
   \   000067   12....       LCALL     ?XSTACK_DISP0_8
   \   00006A   AA82         MOV       R2,DPL
   \   00006C   AB83         MOV       R3,DPH
   \   00006E   12....       LCALL     ??Subroutine244_0 & 0xFFFF
   \                     ??CrossCallReturnLabel_564:
   \   000071   12....       LCALL     ?DEALLOC_XSTACK8
   1748              osal_nv_write( ZCD_NV_USERDESC, 0, sizeof(UserDescriptorFormat_t), &userDesc );
   \   000074                ; Setup parameters for call to function osal_nv_write
   \   000074   7404         MOV       A,#0x4
   \   000076   12....       LCALL     ?XSTACK_DISP100_8
   \   000079   88..         MOV       ?V0,R0
   \   00007B   89..         MOV       ?V1,R1
   \   00007D   78..         MOV       R0,#?V0
   \   00007F   12....       LCALL     ?PUSH_XSTACK_I_TWO
   \   000082   75..11       MOV       ?V0,#0x11
   \   000085   75..00       MOV       ?V1,#0x0
   \   000088   78..         MOV       R0,#?V0
   \   00008A   12....       LCALL     ?PUSH_XSTACK_I_TWO
   \   00008D   7C00         MOV       R4,#0x0
   \   00008F   7D00         MOV       R5,#0x0
   \   000091   7A81         MOV       R2,#-0x7f
   \   000093   7B00         MOV       R3,#0x0
   \   000095   12....       LCALL     `??osal_nv_write::?relay`; Banked call to: osal_nv_write
   \   000098   7404         MOV       A,#0x4
   \   00009A   12....       LCALL     ?DEALLOC_XSTACK8
   1749              if ( userDesc.len != 0 )
   \   00009D   7404         MOV       A,#0x4
   \   00009F   12....       LCALL     ?XSTACK_DISP0_8
   \   0000A2   E0           MOVX      A,@DPTR
   \   0000A3   90....       MOV       DPTR,#ZDO_Config_Node_Descriptor
   \   0000A6   6005         JZ        ??ZDO_ProcessUserDescSet_4
   1750              {
   1751                ZDO_Config_Node_Descriptor.UserDescAvail = TRUE;
   \   0000A8   E0           MOVX      A,@DPTR
   \   0000A9   D2E4         SETB      0xE0 /* A   */.4
   \   0000AB   8003         SJMP      ??ZDO_ProcessUserDescSet_5
   1752              }
   1753              else
   1754              {
   1755                ZDO_Config_Node_Descriptor.UserDescAvail = FALSE;
   \                     ??ZDO_ProcessUserDescSet_4:
   \   0000AD   E0           MOVX      A,@DPTR
   \   0000AE   C2E4         CLR       0xE0 /* A   */.4
   \                     ??ZDO_ProcessUserDescSet_5:
   \   0000B0   F0           MOVX      @DPTR,A
   1756              }
   1757          
   1758              status = ZDP_SUCCESS;
   \   0000B1   85..82       MOV       DPL,?XSP + 0
   \   0000B4   85..83       MOV       DPH,?XSP + 1
   \   0000B7   E4           CLR       A
   \   0000B8   8008         SJMP      ??ZDO_ProcessUserDescSet_6
   1759            }
   1760            else
   1761            {
   1762              status =  ZDP_NOT_SUPPORTED;
   \                     ??ZDO_ProcessUserDescSet_1:
   \   0000BA   85..82       MOV       DPL,?XSP + 0
   \   0000BD   85..83       MOV       DPH,?XSP + 1
   \   0000C0   7484         MOV       A,#-0x7c
   \                     ??ZDO_ProcessUserDescSet_6:
   \   0000C2   F0           MOVX      @DPTR,A
   1763            }
   1764          
   1765            outMsg[0] = status;
   \   0000C3   E0           MOVX      A,@DPTR
   \   0000C4   C0E0         PUSH      A
   \   0000C6   7401         MOV       A,#0x1
   \   0000C8   12....       LCALL     ?XSTACK_DISP0_8
   \   0000CB   D0E0         POP       A
   \   0000CD   F0           MOVX      @DPTR,A
   1766            outMsg[1] = LO_UINT16( aoi );
   \   0000CE   7402         MOV       A,#0x2
   \   0000D0   12....       LCALL     ?XSTACK_DISP0_8
   \   0000D3   EE           MOV       A,R6
   \   0000D4   F0           MOVX      @DPTR,A
   1767            outMsg[2] = LO_UINT16( aoi );
   \   0000D5   7403         MOV       A,#0x3
   \   0000D7   12....       LCALL     ?XSTACK_DISP0_8
   \   0000DA   EE           MOV       A,R6
   \   0000DB   F0           MOVX      @DPTR,A
   1768          
   1769            ZDP_SendData( &(inMsg->TransSeq), &(inMsg->srcAddr), User_Desc_conf, 3, outMsg, 
   1770                         inMsg->SecurityUse );
   \   0000DC                ; Setup parameters for call to function ZDP_SendData
   \   0000DC   12....       LCALL     ?Subroutine125 & 0xFFFF
   \                     ??CrossCallReturnLabel_457:
   \   0000DF   35..         ADDC      A,?V5
   \   0000E1   12....       LCALL     ??Subroutine216_0 & 0xFFFF
   \                     ??CrossCallReturnLabel_381:
   \   0000E4   12....       LCALL     ?PUSH_XSTACK_I_ONE
   \   0000E7   7402         MOV       A,#0x2
   \   0000E9   12....       LCALL     ?XSTACK_DISP100_8
   \   0000EC   88..         MOV       ?V0,R0
   \   0000EE   89..         MOV       ?V1,R1
   \   0000F0   78..         MOV       R0,#?V0
   \   0000F2   12....       LCALL     ?PUSH_XSTACK_I_TWO
   \   0000F5   75..14       MOV       ?V0,#0x14
   \   0000F8   75..80       MOV       ?V1,#-0x80
   \   0000FB   78..         MOV       R0,#?V0
   \   0000FD   12....       LCALL     ?PUSH_XSTACK_I_TWO
   \   000100   7903         MOV       R1,#0x3
   \   000102   12....       LCALL     ?Subroutine128 & 0xFFFF
   \                     ??CrossCallReturnLabel_197:
   \   000105   FA           MOV       R2,A
   \   000106   E4           CLR       A
   \   000107   35..         ADDC      A,?V5
   \   000109   12....       LCALL     ?Subroutine139 & 0xFFFF
   \                     ??CrossCallReturnLabel_298:
   \   00010C   12....       LCALL     ?DEALLOC_XSTACK8
   1771          }
   \   00010F   7415         MOV       A,#0x15
   \   000111   02....       LJMP      ?Subroutine4 & 0xFFFF

   \                                 In  segment BANKED_CODE, align 1, keep-with-next
   \                     ?Subroutine32:
   \   000000   12....       LCALL     ?Subroutine156 & 0xFFFF
   \                     ??CrossCallReturnLabel_245:
   \   000003   22           RET

   \                                 In  segment BANKED_CODE, align 1, keep-with-next
   \                     ?Subroutine156:
   \   000000   12....       LCALL     ?Subroutine189 & 0xFFFF
   \                     ??CrossCallReturnLabel_282:
   \   000003   22           RET

   \                                 In  segment BANKED_CODE, align 1, keep-with-next
   \                     ?Subroutine189:
   \   000000   F0           MOVX      @DPTR,A
   \   000001                ; Setup parameters for call to function osal_memcpy
   \   000001   8882         MOV       DPL,R0
   \   000003   8983         MOV       DPH,R1
   \   000005   A3           INC       DPTR
   \   000006   A3           INC       DPTR
   \   000007   A3           INC       DPTR
   \   000008   22           RET

   \                                 In  segment BANKED_CODE, align 1, keep-with-next
   \                     ??Subroutine244_0:
   \   000000   12....       LCALL     `??osal_memcpy::?relay`; Banked call to: osal_memcpy
   \   000003   7403         MOV       A,#0x3
   \   000005   22           RET
   1772          
   1773          /*********************************************************************
   1774           * @fn          ZDO_ProcessDeviceAnnce
   1775           *
   1776           * @brief       This function processes a device annouce message.
   1777           *
   1778           * @param       inMsg - incoming message
   1779           *
   1780           * @return      none
   1781           */

   \                                 In  segment BANKED_CODE, align 1, keep-with-next
   \                     ?Subroutine89:
   \   000000   AC82         MOV       R4,DPL
   \   000002   AD83         MOV       R5,DPH
   \   000004                REQUIRE ??Subroutine211_0
   \   000004                ; // Fall through to label ??Subroutine211_0

   \                                 In  segment BANKED_CODE, align 1, keep-with-next
   \                     ??Subroutine211_0:
   \   000000   85..82       MOV       DPL,?XSP + 0
   \   000003   85..83       MOV       DPH,?XSP + 1
   \   000006                REQUIRE ??Subroutine212_0
   \   000006                ; // Fall through to label ??Subroutine212_0

   \                                 In  segment BANKED_CODE, align 1, keep-with-next
   1782          void ZDO_ProcessDeviceAnnce( zdoIncomingMsg_t *inMsg )
   \                     ZDO_ProcessDeviceAnnce:
   1783          {
   \   000000                REQUIRE ?V0
   \   000000                REQUIRE ?V1
   \   000000   74F6         MOV       A,#-0xa
   \   000002   12....       LCALL     ?BANKED_ENTER_XDATA
   \   000005                ; Saved register size: 10
   \   000005                ; Auto size: 32
   \   000005   74E0         MOV       A,#-0x20
   \   000007   12....       LCALL     ?ALLOC_XSTACK8
   \   00000A   EA           MOV       A,R2
   \   00000B   FE           MOV       R6,A
   \   00000C   EB           MOV       A,R3
   \   00000D   FF           MOV       R7,A
   1784            ZDO_DeviceAnnce_t Annce;
   1785            AddrMgrEntry_t addrEntry;
   1786            uint8 parentExt[Z_EXTADDR_LEN];
   1787          
   1788            // Parse incoming message
   1789            ZDO_ParseDeviceAnnce( inMsg, &Annce );
   \   00000E                ; Setup parameters for call to function ZDO_ParseDeviceAnnce
   \   00000E   AC..         MOV       R4,?XSP + 0
   \   000010   AD..         MOV       R5,?XSP + 1
   \   000012   12....       LCALL     `??ZDO_ParseDeviceAnnce::?relay`; Banked call to: ZDO_ParseDeviceAnnce
   1790          
   1791            if ( ZSTACK_END_DEVICE_BUILD )
   1792            {
   1793              // Make sure the message didn't come from myself - end device only
   1794              if ( osal_ExtAddrEqual( NLME_GetExtAddr(), Annce.extAddr ) && Annce.nwkAddr == NLME_GetShortAddr() )
   1795              {
   1796                return;
   1797              }
   1798            }
   1799            
   1800          #if defined ( ZIGBEE_STOCHASTIC_ADDRESSING )
   1801            // Clean up the neighbor table
   1802            nwkNeighborRemoveAllStranded();
   \   000015                ; Setup parameters for call to function nwkNeighborRemoveAllStranded
   \   000015   12....       LCALL     `??nwkNeighborRemoveAllStranded::?relay`; Banked call to: nwkNeighborRemoveAllStranded
   1803            
   1804            // If address conflict is detected, no need to update the address manager
   1805            if ( NLME_CheckNewAddrSet( Annce.nwkAddr, Annce.extAddr )== ZFailure )
   \   000018                ; Setup parameters for call to function NLME_CheckNewAddrSet
   \   000018   7402         MOV       A,#0x2
   \   00001A   12....       LCALL     ?XSTACK_DISP0_8
   \   00001D   12....       LCALL     ?Subroutine89 & 0xFFFF
   \                     ??CrossCallReturnLabel_367:
   \   000020   12....       LCALL     `??NLME_CheckNewAddrSet::?relay`; Banked call to: NLME_CheckNewAddrSet
   \   000023   E9           MOV       A,R1
   \   000024   6401         XRL       A,#0x1
   \   000026   7003         JNZ       $+5
   \   000028   02....       LJMP      ??ZDO_ProcessDeviceAnnce_0 & 0xFFFF
   1806            {
   1807              return;
   1808            }
   1809          #endif  
   1810          
   1811          #if defined ( ZIGBEE_STOCHASTIC_ADDRESSING )
   1812            // Check for parent's address
   1813            NLME_GetCoordExtAddr( parentExt );
   \   00002B                ; Setup parameters for call to function NLME_GetCoordExtAddr
   \   00002B   740B         MOV       A,#0xb
   \   00002D   12....       LCALL     ?XSTACK_DISP101_8
   \   000030   12....       LCALL     `??NLME_GetCoordExtAddr::?relay`; Banked call to: NLME_GetCoordExtAddr
   1814            if ( osal_ExtAddrEqual( parentExt, Annce.extAddr ) )
   \   000033                ; Setup parameters for call to function sAddrExtCmp
   \   000033   7402         MOV       A,#0x2
   \   000035   12....       LCALL     ?XSTACK_DISP0_8
   \   000038   AC82         MOV       R4,DPL
   \   00003A   AD83         MOV       R5,DPH
   \   00003C   740B         MOV       A,#0xb
   \   00003E   12....       LCALL     ?XSTACK_DISP101_8
   \   000041   12....       LCALL     `??sAddrExtCmp::?relay`; Banked call to: sAddrExtCmp
   \   000044   E9           MOV       A,R1
   \   000045   602C         JZ        ??ZDO_ProcessDeviceAnnce_1
   1815            {
   1816              if ( Annce.nwkAddr != NLME_GetCoordShortAddr() )
   \   000047                ; Setup parameters for call to function NLME_GetCoordShortAddr
   \   000047   12....       LCALL     `??NLME_GetCoordShortAddr::?relay`; Banked call to: NLME_GetCoordShortAddr
   \   00004A   8A..         MOV       ?V0,R2
   \   00004C   8B..         MOV       ?V1,R3
   \   00004E   A8..         MOV       R0,?V0
   \   000050   A9..         MOV       R1,?V1
   \   000052   85..82       MOV       DPL,?XSP + 0
   \   000055   85..83       MOV       DPH,?XSP + 1
   \   000058   E0           MOVX      A,@DPTR
   \   000059   68           XRL       A,R0
   \   00005A   7003         JNZ       ??ZDO_ProcessDeviceAnnce_2
   \   00005C   A3           INC       DPTR
   \   00005D   E0           MOVX      A,@DPTR
   \   00005E   69           XRL       A,R1
   \                     ??ZDO_ProcessDeviceAnnce_2:
   \   00005F   6012         JZ        ??ZDO_ProcessDeviceAnnce_1
   1817              {
   1818                // Set the Parent's MAC's new short address
   1819                _NIB.nwkCoordAddress = Annce.nwkAddr;
   \   000061   12....       LCALL     ?Subroutine72 & 0xFFFF
   \                     ??CrossCallReturnLabel_467:
   \   000064   90....       MOV       DPTR,#_NIB + 23
   \   000067   12....       LCALL     ??Subroutine254_0 & 0xFFFF
   1820                ZMacSetReq( ZMacCoordShortAddress, (byte*)&(_NIB.nwkCoordAddress) );
   \                     ??CrossCallReturnLabel_617:
   \   00006A                ; Setup parameters for call to function ZMacSetReq
   \   00006A   7A..         MOV       R2,#(_NIB + 23) & 0xff
   \   00006C   7B..         MOV       R3,#((_NIB + 23) >> 8) & 0xff
   \   00006E   794B         MOV       R1,#0x4b
   \   000070   12....       LCALL     `??ZMacSetReq::?relay`; Banked call to: ZMacSetReq
   1821              }
   1822            }
   1823            
   1824            if ( ZSTACK_ROUTER_BUILD )
   1825            {
   1826              // If the device annce comes from a end device child that has moved 
   1827              // to another parent, remove it from associated device list
   1828          
   1829              // If the dev annce is coming from other device's children,
   1830              // (The dev annce from its own children shall be unicast to itself, 
   1831              // So check the mac destination address)
   1832              // Remove it from the associated device list. If it is not
   1833              // a child, no action will be taken in AssocRemove() anyway.
   1834              if ( inMsg->macDestAddr != NLME_GetShortAddr() )
   \                     ??ZDO_ProcessDeviceAnnce_1:
   \   000073                ; Setup parameters for call to function NLME_GetShortAddr
   \   000073   12....       LCALL     ?Subroutine109 & 0xFFFF
   \                     ??CrossCallReturnLabel_157:
   \   000076   EE           MOV       A,R6
   \   000077   2411         ADD       A,#0x11
   \   000079   12....       LCALL     ?Subroutine177 & 0xFFFF
   \                     ??CrossCallReturnLabel_304:
   \   00007C   68           XRL       A,R0
   \   00007D   7003         JNZ       ??ZDO_ProcessDeviceAnnce_3
   \   00007F   A3           INC       DPTR
   \   000080   E0           MOVX      A,@DPTR
   \   000081   69           XRL       A,R1
   \                     ??ZDO_ProcessDeviceAnnce_3:
   \   000082   6032         JZ        ??ZDO_ProcessDeviceAnnce_4
   1835              {
   1836                associated_devices_t *dev_ptr;
   1837          
   1838                // If it's an end device child
   1839                dev_ptr = AssocGetWithExt( Annce.extAddr );
   \   000084                ; Setup parameters for call to function AssocGetWithExt
   \   000084   7402         MOV       A,#0x2
   \   000086   12....       LCALL     ?XSTACK_DISP0_8
   \   000089   AA82         MOV       R2,DPL
   \   00008B   AB83         MOV       R3,DPH
   \   00008D   12....       LCALL     `??AssocGetWithExt::?relay`; Banked call to: AssocGetWithExt
   \   000090   8A82         MOV       DPL,R2
   \   000092   8B83         MOV       DPH,R3
   1840                if ( dev_ptr )
   \   000094   E582         MOV       A,DPL
   \   000096   4583         ORL       A,DPH
   \   000098   601C         JZ        ??ZDO_ProcessDeviceAnnce_4
   1841                {
   1842                  if ( dev_ptr->nodeRelation == CHILD_RFD ||
   1843                       dev_ptr->nodeRelation == CHILD_RFD_RX_IDLE )
   \   00009A   A3           INC       DPTR
   \   00009B   A3           INC       DPTR
   \   00009C   A3           INC       DPTR
   \   00009D   A3           INC       DPTR
   \   00009E   E0           MOVX      A,@DPTR
   \   00009F   F8           MOV       R0,A
   \   0000A0   7401         MOV       A,#0x1
   \   0000A2   68           XRL       A,R0
   \   0000A3   6005         JZ        ??ZDO_ProcessDeviceAnnce_5
   \   0000A5   7402         MOV       A,#0x2
   \   0000A7   68           XRL       A,R0
   \   0000A8   700C         JNZ       ??ZDO_ProcessDeviceAnnce_4
   1844                  {
   1845                    AssocRemove( Annce.extAddr );
   \                     ??ZDO_ProcessDeviceAnnce_5:
   \   0000AA                ; Setup parameters for call to function AssocRemove
   \   0000AA   7402         MOV       A,#0x2
   \   0000AC   12....       LCALL     ?XSTACK_DISP0_8
   \   0000AF   AA82         MOV       R2,DPL
   \   0000B1   AB83         MOV       R3,DPH
   \   0000B3   12....       LCALL     `??AssocRemove::?relay`; Banked call to: AssocRemove
   1846                  }        
   1847                }
   1848              }
   1849          
   1850              if ( Annce.nwkAddr != NLME_GetShortAddr() )
   \                     ??ZDO_ProcessDeviceAnnce_4:
   \   0000B6                ; Setup parameters for call to function NLME_GetShortAddr
   \   0000B6   12....       LCALL     ?Subroutine109 & 0xFFFF
   \                     ??CrossCallReturnLabel_158:
   \   0000B9   85..82       MOV       DPL,?XSP + 0
   \   0000BC   85..83       MOV       DPH,?XSP + 1
   \   0000BF   E0           MOVX      A,@DPTR
   \   0000C0   68           XRL       A,R0
   \   0000C1   7003         JNZ       ??ZDO_ProcessDeviceAnnce_6
   \   0000C3   A3           INC       DPTR
   \   0000C4   E0           MOVX      A,@DPTR
   \   0000C5   69           XRL       A,R1
   \                     ??ZDO_ProcessDeviceAnnce_6:
   \   0000C6   601C         JZ        ??ZDO_ProcessDeviceAnnce_7
   1851              {
   1852                // If an associated device is found with matched extended Address, 
   1853                // update its short address
   1854                if ( AssocChangeNwkAddr( Annce.nwkAddr, Annce.extAddr ) )
   \   0000C8                ; Setup parameters for call to function AssocChangeNwkAddr
   \   0000C8   7402         MOV       A,#0x2
   \   0000CA   12....       LCALL     ?XSTACK_DISP0_8
   \   0000CD   12....       LCALL     ?Subroutine89 & 0xFFFF
   \                     ??CrossCallReturnLabel_368:
   \   0000D0   12....       LCALL     `??AssocChangeNwkAddr::?relay`; Banked call to: AssocChangeNwkAddr
   \   0000D3   E9           MOV       A,R1
   \   0000D4   600E         JZ        ??ZDO_ProcessDeviceAnnce_7
   1855                {
   1856                  // Update the neighbor table
   1857                  nwkNeighborUpdateNwkAddr( Annce.nwkAddr, Annce.extAddr );
   \   0000D6                ; Setup parameters for call to function nwkNeighborUpdateNwkAddr
   \   0000D6   7402         MOV       A,#0x2
   \   0000D8   12....       LCALL     ?XSTACK_DISP0_8
   \   0000DB   12....       LCALL     ?Subroutine89 & 0xFFFF
   \                     ??CrossCallReturnLabel_369:
   \   0000DE   12....       LCALL     `??nwkNeighborUpdateNwkAddr::?relay`; Banked call to: nwkNeighborUpdateNwkAddr
   1858                
   1859                  // Set event to save NV 
   1860                  ZDApp_NVUpdate();
   \   0000E1                ; Setup parameters for call to function ZDApp_NVUpdate
   \   0000E1   12....       LCALL     `??ZDApp_NVUpdate::?relay`; Banked call to: ZDApp_NVUpdate
   1861                }
   1862              }
   1863            }
   1864          #endif // ZIGBEE_STOCHASTIC_ADDRESSING
   1865            
   1866            
   1867            // Fill in the extended address in address manager if we don't have it already.
   1868            addrEntry.user = ADDRMGR_USER_DEFAULT;
   \                     ??ZDO_ProcessDeviceAnnce_7:
   \   0000E4   7413         MOV       A,#0x13
   \   0000E6   12....       LCALL     ?XSTACK_DISP0_8
   \   0000E9   E4           CLR       A
   \   0000EA   12....       LCALL     ?Subroutine27 & 0xFFFF
   1869            addrEntry.nwkAddr = Annce.nwkAddr;
   \                     ??CrossCallReturnLabel_23:
   \   0000ED   F8           MOV       R0,A
   \   0000EE   A3           INC       DPTR
   \   0000EF   E0           MOVX      A,@DPTR
   \   0000F0   F9           MOV       R1,A
   \   0000F1   7414         MOV       A,#0x14
   \   0000F3   12....       LCALL     ?XSTACK_DISP0_8
   \   0000F6   12....       LCALL     ??Subroutine254_0 & 0xFFFF
   1870            if ( AddrMgrEntryLookupNwk( &addrEntry ) )
   \                     ??CrossCallReturnLabel_618:
   \   0000F9                ; Setup parameters for call to function AddrMgrEntryLookupNwk
   \   0000F9   7413         MOV       A,#0x13
   \   0000FB   12....       LCALL     ?XSTACK_DISP101_8
   \   0000FE   12....       LCALL     `??AddrMgrEntryLookupNwk::?relay`; Banked call to: AddrMgrEntryLookupNwk
   \   000101   E9           MOV       A,R1
   \   000102   603F         JZ        ??ZDO_ProcessDeviceAnnce_0
   1871            {
   1872              osal_memset( parentExt, 0, Z_EXTADDR_LEN );
   \   000104                ; Setup parameters for call to function osal_memset
   \   000104   7C08         MOV       R4,#0x8
   \   000106   7D00         MOV       R5,#0x0
   \   000108   7900         MOV       R1,#0x0
   \   00010A   740B         MOV       A,#0xb
   \   00010C   12....       LCALL     ?XSTACK_DISP101_8
   \   00010F   12....       LCALL     `??osal_memset::?relay`; Banked call to: osal_memset
   1873              if ( osal_ExtAddrEqual( parentExt, addrEntry.extAddr ) )
   \   000112                ; Setup parameters for call to function sAddrExtCmp
   \   000112   7416         MOV       A,#0x16
   \   000114   12....       LCALL     ?XSTACK_DISP0_8
   \   000117   AC82         MOV       R4,DPL
   \   000119   AD83         MOV       R5,DPH
   \   00011B   740B         MOV       A,#0xb
   \   00011D   12....       LCALL     ?XSTACK_DISP101_8
   \   000120   12....       LCALL     `??sAddrExtCmp::?relay`; Banked call to: sAddrExtCmp
   \   000123   E9           MOV       A,R1
   \   000124   601D         JZ        ??ZDO_ProcessDeviceAnnce_0
   1874              {
   1875                AddrMgrExtAddrSet( addrEntry.extAddr, Annce.extAddr );
   \   000126                ; Setup parameters for call to function AddrMgrExtAddrSet
   \   000126   7402         MOV       A,#0x2
   \   000128   12....       LCALL     ?XSTACK_DISP0_8
   \   00012B   AC82         MOV       R4,DPL
   \   00012D   AD83         MOV       R5,DPH
   \   00012F   7416         MOV       A,#0x16
   \   000131   12....       LCALL     ?XSTACK_DISP0_8
   \   000134   AA82         MOV       R2,DPL
   \   000136   AB83         MOV       R3,DPH
   \   000138   12....       LCALL     `??AddrMgrExtAddrSet::?relay`; Banked call to: AddrMgrExtAddrSet
   1876                AddrMgrEntryUpdate( &addrEntry );
   \   00013B                ; Setup parameters for call to function AddrMgrEntryUpdate
   \   00013B   7413         MOV       A,#0x13
   \   00013D   12....       LCALL     ?XSTACK_DISP101_8
   \   000140   12....       LCALL     `??AddrMgrEntryUpdate::?relay`; Banked call to: AddrMgrEntryUpdate
   1877              }
   1878            }
   1879          }
   \                     ??ZDO_ProcessDeviceAnnce_0:
   \   000143   7420         MOV       A,#0x20
   \   000145   02....       LJMP      ??Subroutine197_0 & 0xFFFF

   \                                 In  segment BANKED_CODE, align 1, keep-with-next
   \                     ?Subroutine109:
   \   000000   12....       LCALL     `??NLME_GetShortAddr::?relay`; Banked call to: NLME_GetShortAddr
   \   000003   8A..         MOV       ?V0,R2
   \   000005   8B..         MOV       ?V1,R3
   \   000007   A8..         MOV       R0,?V0
   \   000009   A9..         MOV       R1,?V1
   \   00000B   22           RET

   \                                 In  segment BANKED_CODE, align 1, keep-with-next
   \                     ?Subroutine27:
   \   000000   12....       LCALL     ??Subroutine264_0 & 0xFFFF
   \                     ??CrossCallReturnLabel_659:
   \   000003   22           RET

   \                                 In  segment BANKED_CODE, align 1, keep-with-next
   \                     ??Subroutine264_0:
   \   000000   F0           MOVX      @DPTR,A
   \   000001   85..82       MOV       DPL,?XSP + 0
   \   000004   85..83       MOV       DPH,?XSP + 1
   \   000007   E0           MOVX      A,@DPTR
   \   000008   22           RET
   1880          
   1881          /*********************************************************************
   1882           * @fn          ZDO_BuildSimpleDescBuf
   1883           *
   1884           * @brief       Build a byte sequence representation of a Simple Descriptor.
   1885           *
   1886           * @param       buf  - pointer to a byte array big enough for data.
   1887           * @param       desc - SimpleDescriptionFormat_t *
   1888           *
   1889           * @return      none
   1890           */

   \                                 In  segment BANKED_CODE, align 1, keep-with-next
   1891          void ZDO_BuildSimpleDescBuf( uint8 *buf, SimpleDescriptionFormat_t *desc )
   \                     ZDO_BuildSimpleDescBuf:
   1892          {
   \   000000                REQUIRE ?V0
   \   000000                REQUIRE ?V1
   \   000000                REQUIRE ?V2
   \   000000                REQUIRE ?V3
   \   000000                REQUIRE ?V4
   \   000000                REQUIRE ?V5
   \   000000   74F2         MOV       A,#-0xe
   \   000002   12....       LCALL     ?BANKED_ENTER_XDATA
   \   000005                ; Saved register size: 14
   \   000005                ; Auto size: 0
   1893            byte cnt;
   1894            uint16 *ptr;
   1895          
   1896            *buf++ = desc->EndPoint;
   \   000005   8C82         MOV       DPL,R4
   \   000007   8D83         MOV       DPH,R5
   \   000009   12....       LCALL     ?Subroutine98 & 0xFFFF
   1897            *buf++ = HI_UINT16( desc->AppProfId );
   \                     ??CrossCallReturnLabel_138:
   \   00000C   8C82         MOV       DPL,R4
   \   00000E   8D83         MOV       DPH,R5
   \   000010   A3           INC       DPTR
   \   000011   A882         MOV       R0,DPL
   \   000013   A983         MOV       R1,DPH
   \   000015   12....       LCALL     ?Subroutine99 & 0xFFFF
   \                     ??CrossCallReturnLabel_509:
   \   000018   12....       LCALL     ?Subroutine23 & 0xFFFF
   1898            *buf++ = LO_UINT16( desc->AppProfId );
   \                     ??CrossCallReturnLabel_19:
   \   00001B   F0           MOVX      @DPTR,A
   1899            *buf++ = HI_UINT16( desc->AppDeviceId );
   \   00001C   EC           MOV       A,R4
   \   00001D   2403         ADD       A,#0x3
   \   00001F   F8           MOV       R0,A
   \   000020   E4           CLR       A
   \   000021   3D           ADDC      A,R5
   \   000022   F9           MOV       R1,A
   \   000023   8882         MOV       DPL,R0
   \   000025   F583         MOV       DPH,A
   \   000027   12....       LCALL     ?Subroutine99 & 0xFFFF
   \                     ??CrossCallReturnLabel_510:
   \   00002A   A3           INC       DPTR
   \   00002B   A3           INC       DPTR
   \   00002C   12....       LCALL     ?Subroutine23 & 0xFFFF
   1900            *buf++ = LO_UINT16( desc->AppDeviceId );
   \                     ??CrossCallReturnLabel_20:
   \   00002F   A3           INC       DPTR
   \   000030   A3           INC       DPTR
   \   000031   F0           MOVX      @DPTR,A
   1901          
   1902            *buf++ = (byte)(desc->AppDevVer << 4);
   \   000032   8C82         MOV       DPL,R4
   \   000034   8D83         MOV       DPH,R5
   \   000036   A3           INC       DPTR
   \   000037   A3           INC       DPTR
   \   000038   A3           INC       DPTR
   \   000039   A3           INC       DPTR
   \   00003A   A3           INC       DPTR
   \   00003B   E0           MOVX      A,@DPTR
   \   00003C   C4           SWAP      A
   \   00003D   54F0         ANL       A,#0xf0
   \   00003F   8A82         MOV       DPL,R2
   \   000041   8B83         MOV       DPH,R3
   \   000043   A3           INC       DPTR
   \   000044   A3           INC       DPTR
   \   000045   A3           INC       DPTR
   \   000046   A3           INC       DPTR
   \   000047   A3           INC       DPTR
   \   000048   F0           MOVX      @DPTR,A
   1903          
   1904            *buf++ = desc->AppNumInClusters;
   \   000049   EC           MOV       A,R4
   \   00004A   2406         ADD       A,#0x6
   \   00004C   12....       LCALL     ?Subroutine119 & 0xFFFF
   \                     ??CrossCallReturnLabel_177:
   \   00004F   12....       LCALL     ??Subroutine238_0 & 0xFFFF
   \                     ??CrossCallReturnLabel_508:
   \   000052   A3           INC       DPTR
   \   000053   A3           INC       DPTR
   \   000054   A3           INC       DPTR
   \   000055   A3           INC       DPTR
   \   000056   A3           INC       DPTR
   \   000057   A3           INC       DPTR
   \   000058   F0           MOVX      @DPTR,A
   \   000059   EA           MOV       A,R2
   \   00005A   2407         ADD       A,#0x7
   \   00005C   FA           MOV       R2,A
   \   00005D   5001         JNC       ??ZDO_BuildSimpleDescBuf_0
   \   00005F   0B           INC       R3
   1905            ptr = desc->pAppInClusterList;
   \                     ??ZDO_BuildSimpleDescBuf_0:
   \   000060   8C82         MOV       DPL,R4
   \   000062   8D83         MOV       DPH,R5
   \   000064   12....       LCALL     ?Subroutine102 & 0xFFFF
   1906            for ( cnt = 0; cnt < desc->AppNumInClusters; ptr++, cnt++ )
   \                     ??CrossCallReturnLabel_145:
   \   000067   8018         SJMP      ??ZDO_BuildSimpleDescBuf_1
   1907            {
   1908              *buf++ = HI_UINT16( *ptr );
   \                     ??ZDO_BuildSimpleDescBuf_2:
   \   000069   12....       LCALL     ?Subroutine22 & 0xFFFF
   1909              *buf++ = LO_UINT16( *ptr );
   1910            }
   \                     ??CrossCallReturnLabel_557:
   \   00006C   8882         MOV       DPL,R0
   \   00006E   8983         MOV       DPH,R1
   \   000070   F0           MOVX      @DPTR,A
   \   000071   EA           MOV       A,R2
   \   000072   2402         ADD       A,#0x2
   \   000074   FA           MOV       R2,A
   \   000075   5001         JNC       ??ZDO_BuildSimpleDescBuf_3
   \   000077   0B           INC       R3
   \                     ??ZDO_BuildSimpleDescBuf_3:
   \   000078   EE           MOV       A,R6
   \   000079   2402         ADD       A,#0x2
   \   00007B   FE           MOV       R6,A
   \   00007C   5001         JNC       ??ZDO_BuildSimpleDescBuf_4
   \   00007E   0F           INC       R7
   \                     ??ZDO_BuildSimpleDescBuf_4:
   \   00007F   05..         INC       ?V0
   \                     ??ZDO_BuildSimpleDescBuf_1:
   \   000081   8A82         MOV       DPL,R2
   \   000083   8B83         MOV       DPH,R3
   \   000085   A3           INC       DPTR
   \   000086   A882         MOV       R0,DPL
   \   000088   A983         MOV       R1,DPH
   \   00008A   85..82       MOV       DPL,?V2
   \   00008D   85..83       MOV       DPH,?V3
   \   000090   E0           MOVX      A,@DPTR
   \   000091   F5..         MOV       ?V1,A
   \   000093   E5..         MOV       A,?V0
   \   000095   C3           CLR       C
   \   000096   95..         SUBB      A,?V1
   \   000098   40CF         JC        ??ZDO_BuildSimpleDescBuf_2
   1911          
   1912            *buf++ = desc->AppNumOutClusters;
   \   00009A   EC           MOV       A,R4
   \   00009B   2409         ADD       A,#0x9
   \   00009D   12....       LCALL     ?Subroutine119 & 0xFFFF
   \                     ??CrossCallReturnLabel_178:
   \   0000A0   12....       LCALL     ?Subroutine98 & 0xFFFF
   \                     ??CrossCallReturnLabel_139:
   \   0000A3   E8           MOV       A,R0
   \   0000A4   FA           MOV       R2,A
   \   0000A5   E9           MOV       A,R1
   \   0000A6   FB           MOV       R3,A
   1913            ptr = desc->pAppOutClusterList;
   \   0000A7   8C82         MOV       DPL,R4
   \   0000A9   8D83         MOV       DPH,R5
   \   0000AB   A3           INC       DPTR
   \   0000AC   A3           INC       DPTR
   \   0000AD   A3           INC       DPTR
   \   0000AE   12....       LCALL     ?Subroutine102 & 0xFFFF
   1914            for ( cnt = 0; cnt < desc->AppNumOutClusters; ptr++, cnt++ )
   \                     ??CrossCallReturnLabel_146:
   \   0000B1   8019         SJMP      ??ZDO_BuildSimpleDescBuf_5
   1915            {
   1916              *buf++ = HI_UINT16( *ptr );
   \                     ??ZDO_BuildSimpleDescBuf_6:
   \   0000B3   12....       LCALL     ?Subroutine22 & 0xFFFF
   1917              *buf++ = LO_UINT16( *ptr );
   1918            }
   \                     ??CrossCallReturnLabel_558:
   \   0000B6   8A82         MOV       DPL,R2
   \   0000B8   8B83         MOV       DPH,R3
   \   0000BA   A3           INC       DPTR
   \   0000BB   F0           MOVX      @DPTR,A
   \   0000BC   EA           MOV       A,R2
   \   0000BD   2402         ADD       A,#0x2
   \   0000BF   FA           MOV       R2,A
   \   0000C0   5001         JNC       ??ZDO_BuildSimpleDescBuf_7
   \   0000C2   0B           INC       R3
   \                     ??ZDO_BuildSimpleDescBuf_7:
   \   0000C3   EE           MOV       A,R6
   \   0000C4   2402         ADD       A,#0x2
   \   0000C6   FE           MOV       R6,A
   \   0000C7   5001         JNC       ??ZDO_BuildSimpleDescBuf_8
   \   0000C9   0F           INC       R7
   \                     ??ZDO_BuildSimpleDescBuf_8:
   \   0000CA   05..         INC       ?V0
   \                     ??ZDO_BuildSimpleDescBuf_5:
   \   0000CC   85..82       MOV       DPL,?V2
   \   0000CF   85..83       MOV       DPH,?V3
   \   0000D2   E0           MOVX      A,@DPTR
   \   0000D3   F8           MOV       R0,A
   \   0000D4   E5..         MOV       A,?V0
   \   0000D6   C3           CLR       C
   \   0000D7   98           SUBB      A,R0
   \   0000D8   40D9         JC        ??ZDO_BuildSimpleDescBuf_6
   1919          }
   \   0000DA   80..         SJMP      ??Subroutine218_0

   \                                 In  segment BANKED_CODE, align 1, keep-with-next
   \                     ?Subroutine119:
   \   000000   F5..         MOV       ?V2,A
   \   000002   E4           CLR       A
   \   000003   3D           ADDC      A,R5
   \   000004   F5..         MOV       ?V3,A
   \   000006   85..82       MOV       DPL,?V2
   \   000009   F583         MOV       DPH,A
   \   00000B   22           RET

   \                                 In  segment BANKED_CODE, align 1, keep-with-next
   \                     ?Subroutine102:
   \   000000   A3           INC       DPTR
   \   000001   A3           INC       DPTR
   \   000002   A3           INC       DPTR
   \   000003   A3           INC       DPTR
   \   000004   A3           INC       DPTR
   \   000005   A3           INC       DPTR
   \   000006   A3           INC       DPTR
   \   000007   12....       LCALL     ?Subroutine174 & 0xFFFF
   \                     ??CrossCallReturnLabel_506:
   \   00000A   FF           MOV       R7,A
   \   00000B   75..00       MOV       ?V0,#0x0
   \   00000E   22           RET

   \                                 In  segment BANKED_CODE, align 1, keep-with-next
   \                     ?Subroutine23:
   \   000000   A3           INC       DPTR
   \   000001   12....       LCALL     ?Subroutine154 & 0xFFFF
   \                     ??CrossCallReturnLabel_240:
   \   000004   8A82         MOV       DPL,R2
   \   000006   8B83         MOV       DPH,R3
   \   000008   A3           INC       DPTR
   \   000009   A3           INC       DPTR
   \   00000A   22           RET

   \                                 In  segment BANKED_CODE, align 1, keep-with-next
   \                     ?Subroutine99:
   \   000000   A3           INC       DPTR
   \   000001                REQUIRE ??Subroutine238_0
   \   000001                ; // Fall through to label ??Subroutine238_0

   \                                 In  segment BANKED_CODE, align 1, keep-with-next
   \                     ??Subroutine238_0:
   \   000000   E0           MOVX      A,@DPTR
   \   000001   8A82         MOV       DPL,R2
   \   000003   8B83         MOV       DPH,R3
   \   000005   22           RET

   \                                 In  segment BANKED_CODE, align 1, keep-with-next
   \                     ?Subroutine22:
   \   000000   8E82         MOV       DPL,R6
   \   000002   8F83         MOV       DPH,R7
   \   000004   A3           INC       DPTR
   \   000005   E0           MOVX      A,@DPTR
   \   000006   8A82         MOV       DPL,R2
   \   000008   8B83         MOV       DPH,R3
   \   00000A                REQUIRE ??Subroutine243_0
   \   00000A                ; // Fall through to label ??Subroutine243_0

   \                                 In  segment BANKED_CODE, align 1, keep-with-next
   \                     ?Subroutine98:
   \   000000   E0           MOVX      A,@DPTR
   \   000001   8A82         MOV       DPL,R2
   \   000003   8B83         MOV       DPH,R3
   \   000005   F0           MOVX      @DPTR,A
   \   000006   22           RET
   1920          
   1921          /*********************************************************************
   1922           * @fn      ZDO_MatchEndDeviceBind()
   1923           *
   1924           * @brief
   1925           *
   1926           *   Called to match end device binding requests
   1927           *
   1928           * @param  bindReq  - binding request information
   1929           * @param  SecurityUse - Security enable/disable
   1930           *
   1931           * @return  none
   1932           */

   \                                 In  segment BANKED_CODE, align 1, keep-with-next
   1933          void ZDO_MatchEndDeviceBind( ZDEndDeviceBind_t *bindReq )
   \                     ZDO_MatchEndDeviceBind:
   1934          {
   \   000000                REQUIRE ?V0
   \   000000                REQUIRE ?V1
   \   000000                REQUIRE ?V2
   \   000000                REQUIRE ?V4
   \   000000                REQUIRE ?V5
   \   000000                REQUIRE ?V6
   \   000000                REQUIRE ?V7
   \   000000   74F0         MOV       A,#-0x10
   \   000002   12....       LCALL     ?BANKED_ENTER_XDATA
   \   000005                ; Saved register size: 16
   \   000005                ; Auto size: 10
   \   000005   74F6         MOV       A,#-0xa
   \   000007   12....       LCALL     ?ALLOC_XSTACK8
   \   00000A   8A..         MOV       ?V6,R2
   \   00000C   8B..         MOV       ?V7,R3
   1935            zAddrType_t dstAddr;
   1936            uint8 sendRsp = FALSE;
   \   00000E   7E00         MOV       R6,#0x0
   1937            uint8 status;
   1938          
   1939            // Is this the first request?
   1940            if ( matchED == NULL )
   \   000010   90....       MOV       DPTR,#matchED
   \   000013   12....       LCALL     ??Subroutine221_0 & 0xFFFF
   \                     ??CrossCallReturnLabel_401:
   \   000016   7045         JNZ       ??ZDO_MatchEndDeviceBind_0
   1941            {
   1942              // Create match info structure
   1943              matchED = (ZDMatchEndDeviceBind_t *)osal_mem_alloc( sizeof ( ZDMatchEndDeviceBind_t ) );
   \   000018                ; Setup parameters for call to function osal_mem_alloc
   \   000018   7A37         MOV       R2,#0x37
   \   00001A   7B00         MOV       R3,#0x0
   \   00001C   12....       LCALL     `??osal_mem_alloc::?relay`; Banked call to: osal_mem_alloc
   \   00001F   90....       MOV       DPTR,#matchED
   \   000022   12....       LCALL     ??Subroutine206_0 & 0xFFFF
   1944              if ( matchED )
   \                     ??CrossCallReturnLabel_339:
   \   000025   F9           MOV       R1,A
   \   000026   EA           MOV       A,R2
   \   000027   49           ORL       A,R1
   \   000028   6019         JZ        ??ZDO_MatchEndDeviceBind_1
   1945              {
   1946                // Clear the structure
   1947                osal_memset( (uint8 *)matchED, 0, sizeof ( ZDMatchEndDeviceBind_t ) );
   \   00002A                ; Setup parameters for call to function osal_memset
   \   00002A   7C37         MOV       R4,#0x37
   \   00002C   7D00         MOV       R5,#0x0
   \   00002E   7900         MOV       R1,#0x0
   \   000030   12....       LCALL     `??osal_memset::?relay`; Banked call to: osal_memset
   1948          
   1949                // Copy the first request's information
   1950                if ( !ZDO_CopyMatchInfo( &(matchED->ed1), bindReq ) )
   \   000033                ; Setup parameters for call to function ZDO_CopyMatchInfo
   \   000033   AC..         MOV       R4,?V6
   \   000035   AD..         MOV       R5,?V7
   \   000037   90....       MOV       DPTR,#matchED
   \   00003A   12....       LCALL     ??Subroutine212_0 & 0xFFFF
   1951                {
   1952          
   1953                  status = ZDP_NO_ENTRY;
   1954                  sendRsp = TRUE;
   1955                }
   1956              }
   \                     ??CrossCallReturnLabel_363:
   \   00003D   12....       LCALL     `??ZDO_CopyMatchInfo::?relay`; Banked call to: ZDO_CopyMatchInfo
   \   000040   E9           MOV       A,R1
   \   000041   700B         JNZ       ??ZDO_MatchEndDeviceBind_2
   1957              else
   1958              {
   1959                status = ZDP_NO_ENTRY;
   \                     ??ZDO_MatchEndDeviceBind_1:
   \   000043   85..82       MOV       DPL,?XSP + 0
   \   000046   85..83       MOV       DPH,?XSP + 1
   \   000049   7488         MOV       A,#-0x78
   \   00004B   02....       LJMP      ??ZDO_MatchEndDeviceBind_3 & 0xFFFF
   1960                sendRsp = TRUE;
   1961              }
   1962          
   1963              if ( !sendRsp )
   1964              {
   1965                // Set into the correct state
   1966                matchED->state = ZDMATCH_WAIT_REQ;
   \                     ??ZDO_MatchEndDeviceBind_2:
   \   00004E   12....       LCALL     ??Subroutine239_0 & 0xFFFF
   \                     ??CrossCallReturnLabel_519:
   \   000051   12....       LCALL     ?Subroutine187 & 0xFFFF
   \                     ??CrossCallReturnLabel_278:
   \   000054   7401         MOV       A,#0x1
   \   000056   F0           MOVX      @DPTR,A
   1967          
   1968                // Setup the timeout
   1969                APS_SetEndDeviceBindTimeout( AIB_MaxBindingTime, ZDO_EndDeviceBindMatchTimeoutCB );
   \   000057                ; Setup parameters for call to function APS_SetEndDeviceBindTimeout
   \   000057   12....       LCALL     ?Subroutine88 & 0xFFFF
   1970              }
   1971            }
   \                     ??CrossCallReturnLabel_124:
   \   00005A   02....       LJMP      ??ZDO_MatchEndDeviceBind_4 & 0xFFFF
   1972            else
   1973            {
   1974                matchED->state = ZDMATCH_SENDING_BINDS;
   \                     ??ZDO_MatchEndDeviceBind_0:
   \   00005D   E8           MOV       A,R0
   \   00005E   242E         ADD       A,#0x2e
   \   000060   F582         MOV       DPL,A
   \   000062   E4           CLR       A
   \   000063   39           ADDC      A,R1
   \   000064   F583         MOV       DPH,A
   \   000066   7402         MOV       A,#0x2
   \   000068   F0           MOVX      @DPTR,A
   1975          
   1976                // Copy the 2nd request's information
   1977                if ( !ZDO_CopyMatchInfo( &(matchED->ed2), bindReq ) )
   \   000069                ; Setup parameters for call to function ZDO_CopyMatchInfo
   \   000069   AC..         MOV       R4,?V6
   \   00006B   AD..         MOV       R5,?V7
   \   00006D   12....       LCALL     ?Subroutine101 & 0xFFFF
   \                     ??CrossCallReturnLabel_143:
   \   000070   12....       LCALL     `??ZDO_CopyMatchInfo::?relay`; Banked call to: ZDO_CopyMatchInfo
   \   000073   E9           MOV       A,R1
   \   000074   700B         JNZ       ??ZDO_MatchEndDeviceBind_5
   1978                {
   1979                  status = ZDP_NO_ENTRY;
   \   000076   85..82       MOV       DPL,?XSP + 0
   \   000079   85..83       MOV       DPH,?XSP + 1
   \   00007C   7488         MOV       A,#-0x78
   \   00007E   F0           MOVX      @DPTR,A
   1980                  sendRsp = TRUE;
   \   00007F   7E01         MOV       R6,#0x1
   1981                }
   1982          
   1983                // Make a source match for ed1
   1984                matchED->ed1numMatched = ZDO_CompareClusterLists(
   1985                            matchED->ed1.numOutClusters, matchED->ed1.outClusters,
   1986                            matchED->ed2.numInClusters, matchED->ed2.inClusters, ZDOBuildBuf );
   \                     ??ZDO_MatchEndDeviceBind_5:
   \   000081                ; Setup parameters for call to function ZDO_CompareClusterLists
   \   000081   75....       MOV       ?V0,#ZDOBuildBuf & 0xff
   \   000084   75....       MOV       ?V1,#(ZDOBuildBuf >> 8) & 0xff
   \   000087   78..         MOV       R0,#?V0
   \   000089   12....       LCALL     ?PUSH_XSTACK_I_TWO
   \   00008C   12....       LCALL     ??Subroutine239_0 & 0xFFFF
   \                     ??CrossCallReturnLabel_520:
   \   00008F   2429         ADD       A,#0x29
   \   000091   F582         MOV       DPL,A
   \   000093   E4           CLR       A
   \   000094   38           ADDC      A,R0
   \   000095   F583         MOV       DPH,A
   \   000097   12....       LCALL     ?PUSH_XSTACK8_X_TWO
   \   00009A   12....       LCALL     ??Subroutine239_0 & 0xFFFF
   \                     ??CrossCallReturnLabel_521:
   \   00009D   2428         ADD       A,#0x28
   \   00009F   12....       LCALL     ?Subroutine133 & 0xFFFF
   \                     ??CrossCallReturnLabel_207:
   \   0000A2   FC           MOV       R4,A
   \   0000A3   12....       LCALL     ??Subroutine239_0 & 0xFFFF
   \                     ??CrossCallReturnLabel_522:
   \   0000A6   2415         ADD       A,#0x15
   \   0000A8   12....       LCALL     ?Subroutine70 & 0xFFFF
   \                     ??CrossCallReturnLabel_92:
   \   0000AB   2414         ADD       A,#0x14
   \   0000AD   12....       LCALL     ?Subroutine132 & 0xFFFF
   \                     ??CrossCallReturnLabel_204:
   \   0000B0   12....       LCALL     ?DEALLOC_XSTACK8
   \   0000B3   E9           MOV       A,R1
   \   0000B4   F8           MOV       R0,A
   \   0000B5   12....       LCALL     ??Subroutine239_0 & 0xFFFF
   \                     ??CrossCallReturnLabel_523:
   \   0000B8   2431         ADD       A,#0x31
   \   0000BA   12....       LCALL     ?Subroutine11 & 0xFFFF
   1987                if ( matchED->ed1numMatched )
   \                     ??CrossCallReturnLabel_407:
   \   0000BD   2431         ADD       A,#0x31
   \   0000BF   12....       LCALL     ?Subroutine133 & 0xFFFF
   \                     ??CrossCallReturnLabel_208:
   \   0000C2   F8           MOV       R0,A
   \   0000C3   75..00       MOV       ?V2,#0x0
   \   0000C6   602F         JZ        ??ZDO_MatchEndDeviceBind_6
   1988                {
   1989                  // Save the match list
   1990                  matchED->ed1Matched = osal_mem_alloc( (short)(matchED->ed1numMatched * sizeof ( uint16 )) );
   \   0000C8                ; Setup parameters for call to function osal_mem_alloc
   \   0000C8   12....       LCALL     ?Subroutine81 & 0xFFFF
   \                     ??CrossCallReturnLabel_512:
   \   0000CB   2432         ADD       A,#0x32
   \   0000CD   F582         MOV       DPL,A
   \   0000CF   E4           CLR       A
   \   0000D0   38           ADDC      A,R0
   \   0000D1   12....       LCALL     ??Subroutine229_0 & 0xFFFF
   1991                  if ( matchED->ed1Matched )
   \                     ??CrossCallReturnLabel_445:
   \   0000D4   6016         JZ        ??ZDO_MatchEndDeviceBind_7
   1992                  {
   1993                    osal_memcpy( matchED->ed1Matched, ZDOBuildBuf, (matchED->ed1numMatched * sizeof ( uint16 )) );
   \   0000D6                ; Setup parameters for call to function osal_memcpy
   \   0000D6   78..         MOV       R0,#?V0
   \   0000D8   12....       LCALL     ?PUSH_XSTACK_I_THREE
   \   0000DB   12....       LCALL     ??Subroutine239_0 & 0xFFFF
   1994                  }
   \                     ??CrossCallReturnLabel_524:
   \   0000DE   2431         ADD       A,#0x31
   \   0000E0   F582         MOV       DPL,A
   \   0000E2   E4           CLR       A
   \   0000E3   38           ADDC      A,R0
   \   0000E4   12....       LCALL     ??Subroutine228_0 & 0xFFFF
   \                     ??CrossCallReturnLabel_441:
   \   0000E7   12....       LCALL     ?DEALLOC_XSTACK8
   \   0000EA   800B         SJMP      ??ZDO_MatchEndDeviceBind_6
   1995                  else
   1996                  {
   1997                    // Allocation error, stop
   1998                    status = ZDP_NO_ENTRY;
   \                     ??ZDO_MatchEndDeviceBind_7:
   \   0000EC   85..82       MOV       DPL,?XSP + 0
   \   0000EF   85..83       MOV       DPH,?XSP + 1
   \   0000F2   7488         MOV       A,#-0x78
   \   0000F4   F0           MOVX      @DPTR,A
   1999                    sendRsp = TRUE;
   \   0000F5   7E01         MOV       R6,#0x1
   2000                  }
   2001                }
   2002          
   2003                // Make a source match for ed2
   2004                matchED->ed2numMatched = ZDO_CompareClusterLists(
   2005                            matchED->ed2.numOutClusters, matchED->ed2.outClusters,
   2006                            matchED->ed1.numInClusters, matchED->ed1.inClusters, ZDOBuildBuf );
   \                     ??ZDO_MatchEndDeviceBind_6:
   \   0000F7                ; Setup parameters for call to function ZDO_CompareClusterLists
   \   0000F7   75....       MOV       ?V4,#ZDOBuildBuf & 0xff
   \   0000FA   75....       MOV       ?V5,#(ZDOBuildBuf >> 8) & 0xff
   \   0000FD   78..         MOV       R0,#?V4
   \   0000FF   12....       LCALL     ?PUSH_XSTACK_I_TWO
   \   000102   12....       LCALL     ??Subroutine239_0 & 0xFFFF
   \                     ??CrossCallReturnLabel_525:
   \   000105   12....       LCALL     ??Subroutine219_0 & 0xFFFF
   \                     ??CrossCallReturnLabel_387:
   \   000108   38           ADDC      A,R0
   \   000109   F583         MOV       DPH,A
   \   00010B   12....       LCALL     ?PUSH_XSTACK8_X_TWO
   \   00010E   12....       LCALL     ??Subroutine239_0 & 0xFFFF
   \                     ??CrossCallReturnLabel_526:
   \   000111   2411         ADD       A,#0x11
   \   000113   12....       LCALL     ?Subroutine133 & 0xFFFF
   \                     ??CrossCallReturnLabel_209:
   \   000116   FC           MOV       R4,A
   \   000117   12....       LCALL     ??Subroutine239_0 & 0xFFFF
   \                     ??CrossCallReturnLabel_527:
   \   00011A   242C         ADD       A,#0x2c
   \   00011C   12....       LCALL     ?Subroutine70 & 0xFFFF
   \                     ??CrossCallReturnLabel_93:
   \   00011F   242B         ADD       A,#0x2b
   \   000121   12....       LCALL     ?Subroutine132 & 0xFFFF
   \                     ??CrossCallReturnLabel_205:
   \   000124   12....       LCALL     ?DEALLOC_XSTACK8
   \   000127   E9           MOV       A,R1
   \   000128   F8           MOV       R0,A
   \   000129   12....       LCALL     ??Subroutine239_0 & 0xFFFF
   \                     ??CrossCallReturnLabel_528:
   \   00012C   2434         ADD       A,#0x34
   \   00012E   12....       LCALL     ?Subroutine11 & 0xFFFF
   2007                if ( matchED->ed2numMatched )
   \                     ??CrossCallReturnLabel_408:
   \   000131   2434         ADD       A,#0x34
   \   000133   12....       LCALL     ?Subroutine133 & 0xFFFF
   \                     ??CrossCallReturnLabel_210:
   \   000136   6022         JZ        ??ZDO_MatchEndDeviceBind_8
   2008                {
   2009                  // Save the match list
   2010                  matchED->ed2Matched = osal_mem_alloc( (short)(matchED->ed2numMatched * sizeof ( uint16 )) );
   \   000138                ; Setup parameters for call to function osal_mem_alloc
   \   000138   12....       LCALL     ?Subroutine81 & 0xFFFF
   \                     ??CrossCallReturnLabel_513:
   \   00013B   2435         ADD       A,#0x35
   \   00013D   F582         MOV       DPL,A
   \   00013F   E4           CLR       A
   \   000140   38           ADDC      A,R0
   \   000141   12....       LCALL     ??Subroutine229_0 & 0xFFFF
   2011                  if ( matchED->ed2Matched )
   \                     ??CrossCallReturnLabel_446:
   \   000144   6032         JZ        ??ZDO_MatchEndDeviceBind_9
   2012                  {
   2013                    osal_memcpy( matchED->ed2Matched, ZDOBuildBuf, (matchED->ed2numMatched * sizeof ( uint16 )) );
   \   000146                ; Setup parameters for call to function osal_memcpy
   \   000146   78..         MOV       R0,#?V0
   \   000148   12....       LCALL     ?PUSH_XSTACK_I_THREE
   \   00014B   12....       LCALL     ??Subroutine239_0 & 0xFFFF
   2014                  }
   \                     ??CrossCallReturnLabel_529:
   \   00014E   2434         ADD       A,#0x34
   \   000150   F582         MOV       DPL,A
   \   000152   E4           CLR       A
   \   000153   38           ADDC      A,R0
   \   000154   12....       LCALL     ??Subroutine228_0 & 0xFFFF
   \                     ??CrossCallReturnLabel_442:
   \   000157   12....       LCALL     ?DEALLOC_XSTACK8
   2015                  else
   2016                  {
   2017                    // Allocation error, stop
   2018                    status = ZDP_NO_ENTRY;
   2019                    sendRsp = TRUE;
   2020                  }
   2021                }
   2022          
   2023                if ( (sendRsp == FALSE) && (matchED->ed1numMatched || matchED->ed2numMatched) )
   \                     ??ZDO_MatchEndDeviceBind_8:
   \   00015A   EE           MOV       A,R6
   \   00015B   A2E0         MOV       C,0xE0 /* A   */.0
   \   00015D   4022         JC        ??ZDO_MatchEndDeviceBind_10
   \   00015F   12....       LCALL     ?Subroutine68 & 0xFFFF
   \                     ??CrossCallReturnLabel_88:
   \   000162   7008         JNZ       ??ZDO_MatchEndDeviceBind_11
   \   000164   90....       MOV       DPTR,#matchED
   \   000167   12....       LCALL     ?Subroutine69 & 0xFFFF
   \                     ??CrossCallReturnLabel_90:
   \   00016A   6015         JZ        ??ZDO_MatchEndDeviceBind_10
   2024                {
   2025                  // Do the first unbind/bind state
   2026                  ZDMatchSendState( ZDMATCH_REASON_START, ZDP_SUCCESS, 0 );
   \                     ??ZDO_MatchEndDeviceBind_11:
   \   00016C                ; Setup parameters for call to function ZDMatchSendState
   \   00016C   7B00         MOV       R3,#0x0
   \   00016E   7A00         MOV       R2,#0x0
   \   000170   7900         MOV       R1,#0x0
   \   000172   12....       LCALL     `??ZDMatchSendState::?relay`; Banked call to: ZDMatchSendState
   2027                }
   2028                else
   2029                {
   2030                  status = ZDP_NO_MATCH;
   2031                  sendRsp = TRUE;
   2032                }
   2033            }
   2034          
   2035            if ( sendRsp )
   \   000175   02....       LJMP      ??ZDO_MatchEndDeviceBind_4 & 0xFFFF
   \                     ??ZDO_MatchEndDeviceBind_9:
   \   000178   85..82       MOV       DPL,?XSP + 0
   \   00017B   85..83       MOV       DPH,?XSP + 1
   \   00017E   7488         MOV       A,#-0x78
   \   000180   F0           MOVX      @DPTR,A
   \                     ??ZDO_MatchEndDeviceBind_10:
   \   000181   85..82       MOV       DPL,?XSP + 0
   \   000184   85..83       MOV       DPH,?XSP + 1
   \   000187   7486         MOV       A,#-0x7a
   \                     ??ZDO_MatchEndDeviceBind_3:
   \   000189   F0           MOVX      @DPTR,A
   2036            {
   2037              // send response to this requester
   2038              dstAddr.addrMode = Addr16Bit;
   \   00018A   7409         MOV       A,#0x9
   \   00018C   12....       LCALL     ?XSTACK_DISP0_8
   \   00018F   7402         MOV       A,#0x2
   \   000191   F0           MOVX      @DPTR,A
   2039              dstAddr.addr.shortAddr = bindReq->srcAddr;
   \   000192   85..82       MOV       DPL,?V6
   \   000195   85..83       MOV       DPH,?V7
   \   000198   A3           INC       DPTR
   \   000199   A3           INC       DPTR
   \   00019A   12....       LCALL     ??Subroutine233_0 & 0xFFFF
   \                     ??CrossCallReturnLabel_460:
   \   00019D   7401         MOV       A,#0x1
   \   00019F   12....       LCALL     ?XSTACK_DISP0_8
   \   0001A2   12....       LCALL     ??Subroutine254_0 & 0xFFFF
   2040              ZDP_EndDeviceBindRsp( bindReq->TransSeq, &dstAddr, status, bindReq->SecurityUse );
   \                     ??CrossCallReturnLabel_619:
   \   0001A5                ; Setup parameters for call to function ZDP_SendData
   \   0001A5   85..82       MOV       DPL,?V6
   \   0001A8   85..83       MOV       DPH,?V7
   \   0001AB   A3           INC       DPTR
   \   0001AC   12....       LCALL     ??Subroutine217_0 & 0xFFFF
   \                     ??CrossCallReturnLabel_379:
   \   0001AF   12....       LCALL     ?PUSH_XSTACK_I_ONE
   \   0001B2   7401         MOV       A,#0x1
   \   0001B4   12....       LCALL     ?XSTACK_DISP100_8
   \   0001B7   88..         MOV       ?V0,R0
   \   0001B9   89..         MOV       ?V1,R1
   \   0001BB   78..         MOV       R0,#?V0
   \   0001BD   12....       LCALL     ?PUSH_XSTACK_I_TWO
   \   0001C0   75..20       MOV       ?V0,#0x20
   \   0001C3   75..80       MOV       ?V1,#-0x80
   \   0001C6   78..         MOV       R0,#?V0
   \   0001C8   12....       LCALL     ?PUSH_XSTACK_I_TWO
   \   0001CB   7901         MOV       R1,#0x1
   \   0001CD   7406         MOV       A,#0x6
   \   0001CF   12....       LCALL     ?XSTACK_DISP102_8
   \   0001D2   AA..         MOV       R2,?V6
   \   0001D4   AB..         MOV       R3,?V7
   \   0001D6   12....       LCALL     ??Subroutine199_0 & 0xFFFF
   \                     ??CrossCallReturnLabel_300:
   \   0001D9   12....       LCALL     ?DEALLOC_XSTACK8
   2041          
   2042              if ( matchED->state == ZDMATCH_SENDING_BINDS )
   \   0001DC   12....       LCALL     ?Subroutine63 & 0xFFFF
   \                     ??CrossCallReturnLabel_78:
   \   0001DF   7044         JNZ       ??ZDO_MatchEndDeviceBind_12
   2043              {
   2044                // send response to first requester
   2045                dstAddr.addrMode = Addr16Bit;
   \   0001E1   7409         MOV       A,#0x9
   \   0001E3   12....       LCALL     ?XSTACK_DISP0_8
   \   0001E6   7402         MOV       A,#0x2
   \   0001E8   12....       LCALL     ?Subroutine43 & 0xFFFF
   2046                dstAddr.addr.shortAddr = matchED->ed1.srcAddr;
   2047                ZDP_EndDeviceBindRsp( matchED->ed1.TransSeq, &dstAddr, status, matchED->ed1.SecurityUse );
   2048              }
   \                     ??CrossCallReturnLabel_53:
   \   0001EB   F583         MOV       DPH,A
   \   0001ED   8882         MOV       DPL,R0
   \   0001EF   A3           INC       DPTR
   \   0001F0   A3           INC       DPTR
   \   0001F1   12....       LCALL     ??Subroutine233_0 & 0xFFFF
   \                     ??CrossCallReturnLabel_461:
   \   0001F4   7401         MOV       A,#0x1
   \   0001F6   12....       LCALL     ?XSTACK_DISP0_8
   \   0001F9   12....       LCALL     ?Subroutine13 & 0xFFFF
   \                     ??CrossCallReturnLabel_8:
   \   0001FC   12....       LCALL     ?PUSH_XSTACK_I_ONE
   \   0001FF   7401         MOV       A,#0x1
   \   000201   12....       LCALL     ?XSTACK_DISP100_8
   \   000204   88..         MOV       ?V0,R0
   \   000206   89..         MOV       ?V1,R1
   \   000208   78..         MOV       R0,#?V0
   \   00020A   12....       LCALL     ?PUSH_XSTACK_I_TWO
   \   00020D   75..20       MOV       ?V0,#0x20
   \   000210   75..80       MOV       ?V1,#-0x80
   \   000213   78..         MOV       R0,#?V0
   \   000215   12....       LCALL     ?PUSH_XSTACK_I_TWO
   \   000218   7901         MOV       R1,#0x1
   \   00021A   7406         MOV       A,#0x6
   \   00021C   12....       LCALL     ?XSTACK_DISP102_8
   \   00021F   12....       LCALL     ?Subroutine84 & 0xFFFF
   \                     ??CrossCallReturnLabel_116:
   \   000222   12....       LCALL     ?DEALLOC_XSTACK8
   2049          
   2050              // Process ended - release memory used
   2051              ZDO_RemoveMatchMemory();
   \                     ??ZDO_MatchEndDeviceBind_12:
   \   000225                ; Setup parameters for call to function ZDO_RemoveMatchMemory
   \   000225   12....       LCALL     `??ZDO_RemoveMatchMemory::?relay`; Banked call to: ZDO_RemoveMatchMemory
   2052            }
   2053          }
   \                     ??ZDO_MatchEndDeviceBind_4:
   \   000228   740A         MOV       A,#0xa
   \   00022A   02....       LJMP      ?Subroutine6 & 0xFFFF

   \                                 In  segment BANKED_CODE, align 1, keep-with-next
   \                     ?Subroutine132:
   \   000000   F582         MOV       DPL,A
   \   000002   E4           CLR       A
   \   000003   38           ADDC      A,R0
   \   000004   F583         MOV       DPH,A
   \   000006   E0           MOVX      A,@DPTR
   \   000007   F9           MOV       R1,A
   \   000008   12....       LCALL     `??ZDO_CompareClusterLists::?relay`; Banked call to: ZDO_CompareClusterLists
   \   00000B   7404         MOV       A,#0x4
   \   00000D   22           RET

   \                                 In  segment BANKED_CODE, align 1, keep-with-next
   \                     ?Subroutine70:
   \   000000   F582         MOV       DPL,A
   \   000002   E4           CLR       A
   \   000003   38           ADDC      A,R0
   \   000004   F583         MOV       DPH,A
   \   000006   12....       LCALL     ?Subroutine161 & 0xFFFF
   \                     ??CrossCallReturnLabel_426:
   \   000009   12....       LCALL     ?Subroutine163 & 0xFFFF
   \                     ??CrossCallReturnLabel_544:
   \   00000C   22           RET

   \                                 In  segment BANKED_CODE, align 1, keep-with-next
   \                     ?Subroutine163:
   \   000000   90....       MOV       DPTR,#matchED
   \   000003                REQUIRE ??Subroutine220_0
   \   000003                ; // Fall through to label ??Subroutine220_0

   \                                 In  segment BANKED_CODE, align 1, keep-with-next
   \                     ?Subroutine11:
   \   000000   F582         MOV       DPL,A
   \   000002   E4           CLR       A
   \   000003   38           ADDC      A,R0
   \   000004   F583         MOV       DPH,A
   \   000006                REQUIRE ??Subroutine222_0
   \   000006                ; // Fall through to label ??Subroutine222_0

   \                                 In  segment BANKED_CODE, align 1, keep-with-next
   \                     ??Subroutine222_0:
   \   000000   12....       LCALL     ?Subroutine149 & 0xFFFF
   \                     ??CrossCallReturnLabel_412:
   \   000003   C8           XCH       A,R0
   \   000004   22           RET

   \                                 In  segment BANKED_CODE, align 1, keep-with-next
   \                     ?Subroutine149:
   \   000000   E9           MOV       A,R1
   \   000001                REQUIRE ??Subroutine223_0
   \   000001                ; // Fall through to label ??Subroutine223_0

   \                                 In  segment BANKED_CODE, align 1, keep-with-next
   \                     ??Subroutine223_0:
   \   000000   F0           MOVX      @DPTR,A
   \   000001                ; Setup parameters for call to function ZDP_SendData
   \   000001                ; Setup parameters for call to function ZDP_SendData
   \   000001                ; Setup parameters for call to function ZDP_SendData
   \   000001   90....       MOV       DPTR,#matchED
   \   000004   12....       LCALL     ?Subroutine192 & 0xFFFF
   \                     ??CrossCallReturnLabel_550:
   \   000007   22           RET

   \                                 In  segment BANKED_CODE, align 1, keep-with-next
   \                     ??Subroutine228_0:
   \   000000   F583         MOV       DPH,A
   \   000002   E0           MOVX      A,@DPTR
   \   000003   25E0         ADD       A,0xE0 /* A   */
   \   000005   FC           MOV       R4,A
   \   000006   E4           CLR       A
   \   000007   33           RLC       A
   \   000008   FD           MOV       R5,A
   \   000009   12....       LCALL     `??osal_memcpy::?relay`; Banked call to: osal_memcpy
   \   00000C   7403         MOV       A,#0x3
   \   00000E   22           RET

   \                                 In  segment BANKED_CODE, align 1, keep-with-next
   \                     ??Subroutine229_0:
   \   000000   F583         MOV       DPH,A
   \   000002   EA           MOV       A,R2
   \   000003   F0           MOVX      @DPTR,A
   \   000004   A3           INC       DPTR
   \   000005   EB           MOV       A,R3
   \   000006   F0           MOVX      @DPTR,A
   \   000007   EA           MOV       A,R2
   \   000008   4B           ORL       A,R3
   \   000009   22           RET

   \                                 In  segment BANKED_CODE, align 1, keep-with-next
   \                     ?Subroutine101:
   \   000000   90....       MOV       DPTR,#matchED
   \   000003   E0           MOVX      A,@DPTR
   \   000004   2417         ADD       A,#0x17
   \   000006   FA           MOV       R2,A
   \   000007   A3           INC       DPTR
   \   000008   E0           MOVX      A,@DPTR
   \   000009   3400         ADDC      A,#0x0
   \   00000B   FB           MOV       R3,A
   \   00000C   22           RET

   \                                 In  segment BANKED_CODE, align 1, keep-with-next
   \                     ?Subroutine88:
   \   000000   7C..         MOV       R4,#`??ZDO_EndDeviceBindMatchTimeoutCB::?relay` & 0xff
   \   000002   7D..         MOV       R5,#(`??ZDO_EndDeviceBindMatchTimeoutCB::?relay` >> 8) & 0xff
   \   000004   90....       MOV       DPTR,#AIB_MaxBindingTime
   \   000007   12....       LCALL     ?Subroutine161 & 0xFFFF
   \                     ??CrossCallReturnLabel_428:
   \   00000A   12....       LCALL     `??APS_SetEndDeviceBindTimeout::?relay`; Banked call to: APS_SetEndDeviceBindTimeout
   \   00000D   22           RET

   \                                 In  segment BANKED_CODE, align 1, keep-with-next
   \                     ?Subroutine84:
   \   000000   90....       MOV       DPTR,#matchED
   \   000003   12....       LCALL     ?Subroutine161 & 0xFFFF
   \                     ??CrossCallReturnLabel_427:
   \   000006   12....       LCALL     `??ZDP_SendData::?relay`; Banked call to: ZDP_SendData
   \   000009   7405         MOV       A,#0x5
   \   00000B   22           RET

   \                                 In  segment BANKED_CODE, align 1, keep-with-next
   \                     ?Subroutine69:
   \   000000   12....       LCALL     ??Subroutine220_0 & 0xFFFF
   \                     ??CrossCallReturnLabel_538:
   \   000003   2434         ADD       A,#0x34
   \   000005   F582         MOV       DPL,A
   \   000007   E4           CLR       A
   \   000008   38           ADDC      A,R0
   \   000009   F583         MOV       DPH,A
   \   00000B   E0           MOVX      A,@DPTR
   \   00000C   22           RET

   \                                 In  segment BANKED_CODE, align 1, keep-with-next
   \                     ?Subroutine68:
   \   000000   12....       LCALL     ?Subroutine163 & 0xFFFF
   \                     ??CrossCallReturnLabel_543:
   \   000003   2431         ADD       A,#0x31
   \   000005   F582         MOV       DPL,A
   \   000007   E4           CLR       A
   \   000008   38           ADDC      A,R0
   \   000009   F583         MOV       DPH,A
   \   00000B   E0           MOVX      A,@DPTR
   \   00000C   22           RET

   \                                 In  segment BANKED_CODE, align 1, keep-with-next
   \                     ?Subroutine63:
   \   000000   12....       LCALL     ?Subroutine163 & 0xFFFF
   \                     ??CrossCallReturnLabel_542:
   \   000003   12....       LCALL     ?Subroutine187 & 0xFFFF
   \                     ??CrossCallReturnLabel_279:
   \   000006   E0           MOVX      A,@DPTR
   \   000007   6402         XRL       A,#0x2
   \   000009   22           RET

   \                                 In  segment BANKED_CODE, align 1, keep-with-next
   \                     ?Subroutine187:
   \   000000   242E         ADD       A,#0x2e
   \   000002   F582         MOV       DPL,A
   \   000004   E4           CLR       A
   \   000005   38           ADDC      A,R0
   \   000006   F583         MOV       DPH,A
   \   000008   22           RET

   \                                 In  segment BANKED_CODE, align 1, keep-with-next
   \                     ?Subroutine43:
   \   000000   12....       LCALL     ??Subroutine223_0 & 0xFFFF
   \                     ??CrossCallReturnLabel_414:
   \   000003   22           RET

   \                                 In  segment BANKED_CODE, align 1, keep-with-next
   \                     ?Subroutine13:
   \   000000   E8           MOV       A,R0
   \   000001   F0           MOVX      @DPTR,A
   \   000002   A3           INC       DPTR
   \   000003   12....       LCALL     ?Subroutine149 & 0xFFFF
   \                     ??CrossCallReturnLabel_413:
   \   000006   F583         MOV       DPH,A
   \   000008   8882         MOV       DPL,R0
   \   00000A   A3           INC       DPTR
   \   00000B   E0           MOVX      A,@DPTR
   \   00000C   F5..         MOV       ?V0,A
   \   00000E   78..         MOV       R0,#?V0
   \   000010   22           RET

   \                                 In  segment BANKED_CODE, align 1, keep-with-next
   \                     ?Subroutine81:
   \   000000   12....       LCALL     ?Subroutine179 & 0xFFFF
   \                     ??CrossCallReturnLabel_270:
   \   000003                REQUIRE ??Subroutine239_0
   \   000003                ; // Fall through to label ??Subroutine239_0

   \                                 In  segment BANKED_CODE, align 1, keep-with-next
   \                     ??Subroutine239_0:
   \   000000   90....       MOV       DPTR,#matchED
   \   000003                REQUIRE ??Subroutine240_0
   \   000003                ; // Fall through to label ??Subroutine240_0
   2054          
   2055          /*********************************************************************
   2056           * @fn      ZDO_RemoveMatchMemory()
   2057           *
   2058           * @brief   Called to clear the memory used for the end device bind.
   2059           *
   2060           * @param  none
   2061           *
   2062           * @return  none
   2063           */

   \                                 In  segment BANKED_CODE, align 1, keep-with-next
   2064          static void ZDO_RemoveMatchMemory( void )
   \                     ZDO_RemoveMatchMemory:
   2065          {
   \   000000   C082         PUSH      DPL
   \   000002   C083         PUSH      DPH
   \   000004                ; Saved register size: 2
   \   000004                ; Auto size: 0
   2066            if ( matchED != NULL )
   \   000004   90....       MOV       DPTR,#matchED
   \   000007   12....       LCALL     ??Subroutine221_0 & 0xFFFF
   \                     ??CrossCallReturnLabel_402:
   \   00000A   605D         JZ        ??ZDO_RemoveMatchMemory_0
   2067            {
   2068              if ( matchED->ed2Matched != NULL )
   \   00000C   E8           MOV       A,R0
   \   00000D   2435         ADD       A,#0x35
   \   00000F   F582         MOV       DPL,A
   \   000011   E4           CLR       A
   \   000012   39           ADDC      A,R1
   \   000013   12....       LCALL     ??Subroutine224_0 & 0xFFFF
   \                     ??CrossCallReturnLabel_417:
   \   000016   6003         JZ        ??ZDO_RemoveMatchMemory_1
   2069                osal_mem_free( matchED->ed2Matched );
   \   000018                ; Setup parameters for call to function osal_mem_free
   \   000018   12....       LCALL     `??osal_mem_free::?relay`; Banked call to: osal_mem_free
   2070              if ( matchED->ed1Matched != NULL )
   \                     ??ZDO_RemoveMatchMemory_1:
   \   00001B   12....       LCALL     ??Subroutine239_0 & 0xFFFF
   \                     ??CrossCallReturnLabel_530:
   \   00001E   2432         ADD       A,#0x32
   \   000020   12....       LCALL     ?Subroutine46 & 0xFFFF
   \                     ??CrossCallReturnLabel_421:
   \   000023   6003         JZ        ??ZDO_RemoveMatchMemory_2
   2071                osal_mem_free( matchED->ed1Matched );
   \   000025                ; Setup parameters for call to function osal_mem_free
   \   000025   12....       LCALL     `??osal_mem_free::?relay`; Banked call to: osal_mem_free
   2072          
   2073              if ( matchED->ed1.inClusters != NULL )
   \                     ??ZDO_RemoveMatchMemory_2:
   \   000028   12....       LCALL     ??Subroutine239_0 & 0xFFFF
   \                     ??CrossCallReturnLabel_531:
   \   00002B   2412         ADD       A,#0x12
   \   00002D   12....       LCALL     ?Subroutine46 & 0xFFFF
   \                     ??CrossCallReturnLabel_422:
   \   000030   6003         JZ        ??ZDO_RemoveMatchMemory_3
   2074                osal_mem_free( matchED->ed1.inClusters );
   \   000032                ; Setup parameters for call to function osal_mem_free
   \   000032   12....       LCALL     `??osal_mem_free::?relay`; Banked call to: osal_mem_free
   2075          
   2076              if ( matchED->ed1.outClusters != NULL )
   \                     ??ZDO_RemoveMatchMemory_3:
   \   000035   12....       LCALL     ??Subroutine239_0 & 0xFFFF
   \                     ??CrossCallReturnLabel_532:
   \   000038   2415         ADD       A,#0x15
   \   00003A   12....       LCALL     ?Subroutine46 & 0xFFFF
   \                     ??CrossCallReturnLabel_423:
   \   00003D   6003         JZ        ??ZDO_RemoveMatchMemory_4
   2077                osal_mem_free( matchED->ed1.outClusters );
   \   00003F                ; Setup parameters for call to function osal_mem_free
   \   00003F   12....       LCALL     `??osal_mem_free::?relay`; Banked call to: osal_mem_free
   2078          
   2079              if ( matchED->ed2.inClusters != NULL )
   \                     ??ZDO_RemoveMatchMemory_4:
   \   000042   12....       LCALL     ??Subroutine239_0 & 0xFFFF
   \                     ??CrossCallReturnLabel_533:
   \   000045   2429         ADD       A,#0x29
   \   000047   12....       LCALL     ?Subroutine46 & 0xFFFF
   \                     ??CrossCallReturnLabel_424:
   \   00004A   6003         JZ        ??ZDO_RemoveMatchMemory_5
   2080                osal_mem_free( matchED->ed2.inClusters );
   \   00004C                ; Setup parameters for call to function osal_mem_free
   \   00004C   12....       LCALL     `??osal_mem_free::?relay`; Banked call to: osal_mem_free
   2081          
   2082              if ( matchED->ed2.outClusters != NULL )
   \                     ??ZDO_RemoveMatchMemory_5:
   \   00004F   12....       LCALL     ??Subroutine239_0 & 0xFFFF
   \                     ??CrossCallReturnLabel_534:
   \   000052   242C         ADD       A,#0x2c
   \   000054   12....       LCALL     ?Subroutine46 & 0xFFFF
   \                     ??CrossCallReturnLabel_425:
   \   000057   6003         JZ        ??ZDO_RemoveMatchMemory_6
   2083                osal_mem_free( matchED->ed2.outClusters );
   \   000059                ; Setup parameters for call to function osal_mem_free
   \   000059   12....       LCALL     `??osal_mem_free::?relay`; Banked call to: osal_mem_free
   2084          
   2085              osal_mem_free( matchED );
   \                     ??ZDO_RemoveMatchMemory_6:
   \   00005C                ; Setup parameters for call to function osal_mem_free
   \   00005C   90....       MOV       DPTR,#matchED
   \   00005F   12....       LCALL     ??Subroutine205_0 & 0xFFFF
   2086          
   2087              matchED = (ZDMatchEndDeviceBind_t *)NULL;
   \                     ??CrossCallReturnLabel_323:
   \   000062   90....       MOV       DPTR,#matchED
   \   000065   E4           CLR       A
   \   000066   F0           MOVX      @DPTR,A
   \   000067   A3           INC       DPTR
   \   000068   F0           MOVX      @DPTR,A
   2088            }
   2089          }
   \                     ??ZDO_RemoveMatchMemory_0:
   \   000069                REQUIRE ?Subroutine0
   \   000069                ; // Fall through to label ?Subroutine0
   2090          
   2091          /*********************************************************************
   2092           * @fn      ZDO_CopyMatchInfo()
   2093           *
   2094           * @brief   Called to copy memory used for the end device bind.
   2095           *
   2096           * @param  srcReq - source information
   2097           * @param  dstReq - destination location
   2098           *
   2099           * @return  TRUE if copy was successful.
   2100           */

   \                                 In  segment BANKED_CODE, align 1, keep-with-next
   \                     ?Subroutine144:
   \   000000   E5..         MOV       A,?V6
   \   000002                REQUIRE ??Subroutine219_0
   \   000002                ; // Fall through to label ??Subroutine219_0

   \                                 In  segment BANKED_CODE, align 1, keep-with-next
   2101          static uint8 ZDO_CopyMatchInfo( ZDEndDeviceBind_t *destReq, ZDEndDeviceBind_t *srcReq )
   \                     ZDO_CopyMatchInfo:
   2102          {
   \   000000                REQUIRE ?V0
   \   000000                REQUIRE ?V1
   \   000000                REQUIRE ?V2
   \   000000                REQUIRE ?V4
   \   000000                REQUIRE ?V5
   \   000000                REQUIRE ?V6
   \   000000                REQUIRE ?V7
   \   000000   74F0         MOV       A,#-0x10
   \   000002   12....       LCALL     ?BANKED_ENTER_XDATA
   \   000005                ; Saved register size: 16
   \   000005                ; Auto size: 0
   \   000005   8A..         MOV       ?V6,R2
   \   000007   8B..         MOV       ?V7,R3
   \   000009   8C..         MOV       ?V4,R4
   \   00000B   8D..         MOV       ?V5,R5
   2103            uint8 allOK = TRUE;
   \   00000D   7E01         MOV       R6,#0x1
   2104          
   2105            // Copy bind information into the match info structure
   2106            osal_memcpy( (uint8 *)destReq, srcReq, sizeof ( ZDEndDeviceBind_t ) );
   \   00000F                ; Setup parameters for call to function osal_memcpy
   \   00000F   8C..         MOV       ?V0,R4
   \   000011   8D..         MOV       ?V1,R5
   \   000013   75..00       MOV       ?V2,#0x0
   \   000016   78..         MOV       R0,#?V0
   \   000018   12....       LCALL     ?PUSH_XSTACK_I_THREE
   \   00001B   7C17         MOV       R4,#0x17
   \   00001D   7D00         MOV       R5,#0x0
   \   00001F   12....       LCALL     ??Subroutine244_0 & 0xFFFF
   \                     ??CrossCallReturnLabel_565:
   \   000022   12....       LCALL     ?DEALLOC_XSTACK8
   \   000025   12....       LCALL     ?Subroutine144 & 0xFFFF
   \                     ??CrossCallReturnLabel_388:
   \   000028   12....       LCALL     ?Subroutine146 & 0xFFFF
   \                     ??CrossCallReturnLabel_232:
   \   00002B   12....       LCALL     ?Subroutine183 & 0xFFFF
   \                     ??CrossCallReturnLabel_449:
   \   00002E   12....       LCALL     ?Subroutine146 & 0xFFFF
   \                     ??CrossCallReturnLabel_233:
   \   000031   E5..         MOV       A,?V4
   \   000033   2411         ADD       A,#0x11
   \   000035   12....       LCALL     ?Subroutine131 & 0xFFFF
   \                     ??CrossCallReturnLabel_434:
   \   000038   6022         JZ        ??ZDO_CopyMatchInfo_0
   2107          
   2108            // Initialize the destination cluster pointers
   2109            destReq->inClusters = NULL;
   2110            destReq->outClusters = NULL;
   2111          
   2112            // Copy input cluster IDs
   2113            if ( srcReq->numInClusters )
   2114            {
   2115              destReq->inClusters = osal_mem_alloc( (short)(srcReq->numInClusters * sizeof ( uint16 )) );
   \   00003A                ; Setup parameters for call to function osal_mem_alloc
   \   00003A   12....       LCALL     ?Subroutine112 & 0xFFFF
   \                     ??CrossCallReturnLabel_163:
   \   00003D   2412         ADD       A,#0x12
   \   00003F   12....       LCALL     ?Subroutine21 & 0xFFFF
   2116              if ( destReq->inClusters )
   \                     ??CrossCallReturnLabel_443:
   \   000042   6016         JZ        ??ZDO_CopyMatchInfo_1
   2117              {
   2118                // Copy the clusters
   2119                osal_memcpy( (uint8*)(destReq->inClusters), (uint8 *)(srcReq->inClusters),
   2120                                (srcReq->numInClusters * sizeof ( uint16 )) );
   \   000044                ; Setup parameters for call to function osal_memcpy
   \   000044   E5..         MOV       A,?V4
   \   000046   2412         ADD       A,#0x12
   \   000048   12....       LCALL     ?Subroutine92 & 0xFFFF
   2121              }
   \                     ??CrossCallReturnLabel_130:
   \   00004B   12....       LCALL     ?PUSH_XSTACK_I_THREE
   \   00004E   E5..         MOV       A,?V4
   \   000050   2411         ADD       A,#0x11
   \   000052   12....       LCALL     ?Subroutine48 & 0xFFFF
   \                     ??CrossCallReturnLabel_439:
   \   000055   12....       LCALL     ?DEALLOC_XSTACK8
   \   000058   8002         SJMP      ??ZDO_CopyMatchInfo_0
   2122              else
   2123                allOK = FALSE;
   \                     ??ZDO_CopyMatchInfo_1:
   \   00005A   7E00         MOV       R6,#0x0
   \                     ??ZDO_CopyMatchInfo_0:
   \   00005C   E5..         MOV       A,?V4
   \   00005E   2414         ADD       A,#0x14
   2124            }
   \   000060   12....       LCALL     ?Subroutine131 & 0xFFFF
   \                     ??CrossCallReturnLabel_435:
   \   000063   601E         JZ        ??ZDO_CopyMatchInfo_2
   2125          
   2126            // Copy output cluster IDs
   2127            if ( srcReq->numOutClusters )
   2128            {
   2129              destReq->outClusters = osal_mem_alloc( (short)(srcReq->numOutClusters * sizeof ( uint16 )) );
   \   000065                ; Setup parameters for call to function osal_mem_alloc
   \   000065   12....       LCALL     ?Subroutine112 & 0xFFFF
   \                     ??CrossCallReturnLabel_164:
   \   000068   2415         ADD       A,#0x15
   \   00006A   12....       LCALL     ?Subroutine21 & 0xFFFF
   2130              if ( destReq->outClusters )
   \                     ??CrossCallReturnLabel_444:
   \   00006D   6038         JZ        ??ZDO_CopyMatchInfo_3
   2131              {
   2132                // Copy the clusters
   2133                osal_memcpy( (uint8 *)(destReq->outClusters), (uint8 *)(srcReq->outClusters),
   2134                                (srcReq->numOutClusters * sizeof ( uint16 )) );
   \   00006F                ; Setup parameters for call to function osal_memcpy
   \   00006F   E5..         MOV       A,?V4
   \   000071   2415         ADD       A,#0x15
   \   000073   12....       LCALL     ?Subroutine92 & 0xFFFF
   2135              }
   \                     ??CrossCallReturnLabel_131:
   \   000076   12....       LCALL     ?PUSH_XSTACK_I_THREE
   \   000079   E5..         MOV       A,?V4
   \   00007B   2414         ADD       A,#0x14
   \   00007D   12....       LCALL     ?Subroutine48 & 0xFFFF
   \                     ??CrossCallReturnLabel_440:
   \   000080   12....       LCALL     ?DEALLOC_XSTACK8
   2136              else
   2137                allOK = FALSE;
   2138            }
   2139          
   2140            if ( !allOK )
   \                     ??ZDO_CopyMatchInfo_2:
   \   000083   EE           MOV       A,R6
   \   000084   A2E0         MOV       C,0xE0 /* A   */.0
   \   000086   401A         JC        ??ZDO_CopyMatchInfo_4
   2141            {
   2142              if ( destReq->inClusters != NULL )
   \                     ??ZDO_CopyMatchInfo_5:
   \   000088   12....       LCALL     ?Subroutine144 & 0xFFFF
   \                     ??CrossCallReturnLabel_389:
   \   00008B   35..         ADDC      A,?V7
   \   00008D   12....       LCALL     ??Subroutine224_0 & 0xFFFF
   \                     ??CrossCallReturnLabel_418:
   \   000090   6003         JZ        ??ZDO_CopyMatchInfo_6
   2143                osal_mem_free( destReq->inClusters );
   \   000092                ; Setup parameters for call to function osal_mem_free
   \   000092   12....       LCALL     `??osal_mem_free::?relay`; Banked call to: osal_mem_free
   2144              if ( destReq->outClusters != NULL )
   \                     ??ZDO_CopyMatchInfo_6:
   \   000095   12....       LCALL     ?Subroutine183 & 0xFFFF
   \                     ??CrossCallReturnLabel_450:
   \   000098   35..         ADDC      A,?V7
   \   00009A   12....       LCALL     ??Subroutine224_0 & 0xFFFF
   \                     ??CrossCallReturnLabel_419:
   \   00009D   6003         JZ        ??ZDO_CopyMatchInfo_4
   2145                osal_mem_free( destReq->outClusters );
   \   00009F                ; Setup parameters for call to function osal_mem_free
   \   00009F   12....       LCALL     `??osal_mem_free::?relay`; Banked call to: osal_mem_free
   2146            }
   2147          
   2148            return ( allOK );
   \                     ??ZDO_CopyMatchInfo_4:
   \   0000A2   EE           MOV       A,R6
   \   0000A3   F9           MOV       R1,A
   \   0000A4   02....       LJMP      ??Subroutine210_0 & 0xFFFF
   \                     ??ZDO_CopyMatchInfo_3:
   \   0000A7   7E00         MOV       R6,#0x0
   \   0000A9   80DD         SJMP      ??ZDO_CopyMatchInfo_5
   2149          }

   \                                 In  segment BANKED_CODE, align 1, keep-with-next
   \                     ?Subroutine146:
   \   000000   35..         ADDC      A,?V7
   \   000002   F583         MOV       DPH,A
   \   000004   E4           CLR       A
   \   000005   F0           MOVX      @DPTR,A
   \   000006   A3           INC       DPTR
   \   000007   F0           MOVX      @DPTR,A
   \   000008   22           RET

   \                                 In  segment BANKED_CODE, align 1, keep-with-next
   \                     ?Subroutine112:
   \   000000   12....       LCALL     ?Subroutine179 & 0xFFFF
   \                     ??CrossCallReturnLabel_269:
   \   000003   E5..         MOV       A,?V6
   \   000005   22           RET

   \                                 In  segment BANKED_CODE, align 1, keep-with-next
   \                     ?Subroutine92:
   \   000000   F582         MOV       DPL,A
   \   000002   E4           CLR       A
   \   000003   35..         ADDC      A,?V5
   \   000005   12....       LCALL     ?Subroutine168 & 0xFFFF
   \                     ??CrossCallReturnLabel_438:
   \   000008   78..         MOV       R0,#?V0
   \   00000A   22           RET

   \                                 In  segment BANKED_CODE, align 1, keep-with-next
   \                     ?Subroutine168:
   \   000000   F583         MOV       DPH,A
   \   000002                REQUIRE ??Subroutine227_0
   \   000002                ; // Fall through to label ??Subroutine227_0

   \                                 In  segment BANKED_CODE, align 1, keep-with-next
   \                     ?Subroutine48:
   \   000000   F582         MOV       DPL,A
   \   000002   E4           CLR       A
   \   000003   35..         ADDC      A,?V5
   \   000005                REQUIRE ??Subroutine228_0
   \   000005                ; // Fall through to label ??Subroutine228_0

   \                                 In  segment BANKED_CODE, align 1, keep-with-next
   \                     ?Subroutine21:
   \   000000   F582         MOV       DPL,A
   \   000002   E4           CLR       A
   \   000003   35..         ADDC      A,?V7
   \   000005                REQUIRE ??Subroutine229_0
   \   000005                ; // Fall through to label ??Subroutine229_0

   \                                 In  segment BANKED_CODE, align 1, keep-with-next
   \                     ?Subroutine183:
   \   000000   E5..         MOV       A,?V6
   \   000002                REQUIRE ??Subroutine231_0
   \   000002                ; // Fall through to label ??Subroutine231_0
   2150          
   2151          /*********************************************************************
   2152           * @fn      ZDMatchSendState()
   2153           *
   2154           * @brief   State machine for the End device match message algorithm.
   2155           *
   2156           * @param  reason - state of algoritm
   2157           * @param  status - initial message status
   2158           * @param  TransSeq - next transaction sequence number
   2159           *
   2160           * @return  FALSE if error and we are not currently matching, TRUE
   2161           *          if success.
   2162           */

   \                                 In  segment BANKED_CODE, align 1, keep-with-next
   2163          uint8 ZDMatchSendState( uint8 reason, uint8 status, uint8 TransSeq )
   \                     ZDMatchSendState:
   2164          {
   \   000000                REQUIRE ?V0
   \   000000                REQUIRE ?V1
   \   000000                REQUIRE ?V2
   \   000000                REQUIRE ?V3
   \   000000                REQUIRE ?V4
   \   000000                REQUIRE ?V5
   \   000000                REQUIRE ?V6
   \   000000                REQUIRE ?V7
   \   000000   74F0         MOV       A,#-0x10
   \   000002   12....       LCALL     ?BANKED_ENTER_XDATA
   \   000005                ; Saved register size: 16
   \   000005                ; Auto size: 22
   \   000005   74EA         MOV       A,#-0x16
   \   000007   12....       LCALL     ?ALLOC_XSTACK8
   \   00000A   7403         MOV       A,#0x3
   \   00000C   12....       LCALL     ?XSTACK_DISP0_8
   \   00000F   EB           MOV       A,R3
   \   000010   F0           MOVX      @DPTR,A
   \   000011   89..         MOV       ?V6,R1
   \   000013   8A..         MOV       ?V7,R2
   2165            uint8 *dstIEEEAddr;
   2166            uint8 dstEP;
   2167            zAddrType_t dstAddr;
   2168            zAddrType_t destinationAddr;
   2169            uint16 msgType;
   2170            uint16 clusterID;
   2171            ZDEndDeviceBind_t *ed = NULL;
   \   000015   75..00       MOV       ?V2,#0x0
   \   000018   75..00       MOV       ?V3,#0x0
   2172            uint8 rspStatus = ZDP_SUCCESS;
   \   00001B   85..82       MOV       DPL,?XSP + 0
   \   00001E   85..83       MOV       DPH,?XSP + 1
   \   000021   E4           CLR       A
   \   000022   12....       LCALL     ?Subroutine43 & 0xFFFF
   2173          
   2174            if ( matchED == NULL )
   \                     ??CrossCallReturnLabel_54:
   \   000025   F9           MOV       R1,A
   \   000026   E8           MOV       A,R0
   \   000027   49           ORL       A,R1
   \   000028   6020         JZ        ??ZDMatchSendState_0
   2175              return ( FALSE );
   2176          
   2177            // Check sequence number
   2178            if ( reason == ZDMATCH_REASON_BIND_RSP || reason == ZDMATCH_REASON_UNBIND_RSP )
   \   00002A   7403         MOV       A,#0x3
   \   00002C   65..         XRL       A,?V6
   \   00002E   6006         JZ        ??ZDMatchSendState_1
   \   000030   7402         MOV       A,#0x2
   \   000032   65..         XRL       A,?V6
   \   000034   7019         JNZ       ??ZDMatchSendState_2
   2179            {
   2180              if ( TransSeq != matchED->transSeq )
   \                     ??ZDMatchSendState_1:
   \   000036   7403         MOV       A,#0x3
   \   000038   12....       LCALL     ?XSTACK_DISP0_8
   \   00003B   E0           MOVX      A,@DPTR
   \   00003C   F9           MOV       R1,A
   \   00003D   90....       MOV       DPTR,#matchED + 1
   \   000040   E0           MOVX      A,@DPTR
   \   000041   C8           XCH       A,R0
   \   000042   2430         ADD       A,#0x30
   \   000044   12....       LCALL     ?Subroutine133 & 0xFFFF
   \                     ??CrossCallReturnLabel_211:
   \   000047   69           XRL       A,R1
   \   000048   6005         JZ        ??ZDMatchSendState_2
   2181                return( FALSE ); // ignore the message
   \                     ??ZDMatchSendState_0:
   \   00004A   7900         MOV       R1,#0x0
   \   00004C   02....       LJMP      ??ZDMatchSendState_3 & 0xFFFF
   2182            }
   2183          
   2184            // turn off timer
   2185            APS_SetEndDeviceBindTimeout( 0, ZDO_EndDeviceBindMatchTimeoutCB );
   \                     ??ZDMatchSendState_2:
   \   00004F                ; Setup parameters for call to function APS_SetEndDeviceBindTimeout
   \   00004F   7C..         MOV       R4,#`??ZDO_EndDeviceBindMatchTimeoutCB::?relay` & 0xff
   \   000051   7D..         MOV       R5,#(`??ZDO_EndDeviceBindMatchTimeoutCB::?relay` >> 8) & 0xff
   \   000053   7A00         MOV       R2,#0x0
   \   000055   7B00         MOV       R3,#0x0
   \   000057   12....       LCALL     `??APS_SetEndDeviceBindTimeout::?relay`; Banked call to: APS_SetEndDeviceBindTimeout
   2186          
   2187            if ( reason == ZDMATCH_REASON_TIMEOUT )
   \   00005A   7401         MOV       A,#0x1
   \   00005C   65..         XRL       A,?V6
   \   00005E   700A         JNZ       ??ZDMatchSendState_4
   2188            {
   2189              rspStatus = ZDP_TIMEOUT;    // The process will stop
   \   000060   85..82       MOV       DPL,?XSP + 0
   \   000063   85..83       MOV       DPH,?XSP + 1
   \   000066   7485         MOV       A,#-0x7b
   \   000068   803D         SJMP      ??ZDMatchSendState_5
   2190            }
   2191          
   2192            if ( reason == ZDMATCH_REASON_START || reason == ZDMATCH_REASON_BIND_RSP )
   \                     ??ZDMatchSendState_4:
   \   00006A   E5..         MOV       A,?V6
   \   00006C   6006         JZ        ??ZDMatchSendState_6
   \   00006E   7403         MOV       A,#0x3
   \   000070   65..         XRL       A,?V6
   \   000072   7019         JNZ       ??ZDMatchSendState_7
   2193            {
   2194              matchED->sending = ZDMATCH_SENDING_UNBIND;
   \                     ??ZDMatchSendState_6:
   \   000074   90....       MOV       DPTR,#matchED
   \   000077   12....       LCALL     ?Subroutine66 & 0xFFFF
   \                     ??CrossCallReturnLabel_84:
   \   00007A   F0           MOVX      @DPTR,A
   2195          
   2196              if ( reason == ZDMATCH_REASON_BIND_RSP && status != ZDP_SUCCESS )
   \   00007B   7403         MOV       A,#0x3
   \   00007D   65..         XRL       A,?V6
   \   00007F   7029         JNZ       ??ZDMatchSendState_8
   \   000081   E5..         MOV       A,?V7
   \   000083   6029         JZ        ??ZDMatchSendState_9
   2197              {
   2198                rspStatus = status;
   \   000085   85..82       MOV       DPL,?XSP + 0
   \   000088   85..83       MOV       DPH,?XSP + 1
   \   00008B   801A         SJMP      ??ZDMatchSendState_5
   2199              }
   2200            }
   2201            else if ( reason == ZDMATCH_REASON_UNBIND_RSP )
   \                     ??ZDMatchSendState_7:
   \   00008D   7402         MOV       A,#0x2
   \   00008F   65..         XRL       A,?V6
   \   000091   701B         JNZ       ??ZDMatchSendState_9
   2202            {
   2203              if ( status == ZDP_SUCCESS )
   \   000093   E5..         MOV       A,?V7
   \   000095   90....       MOV       DPTR,#matchED
   \   000098   7005         JNZ       ??ZDMatchSendState_10
   2204              {
   2205                matchED->sending = ZDMATCH_SENDING_UNBIND;
   \   00009A   12....       LCALL     ?Subroutine66 & 0xFFFF
   2206              }
   \                     ??CrossCallReturnLabel_85:
   \   00009D   8008         SJMP      ??ZDMatchSendState_5
   2207              else
   2208              {
   2209                matchED->sending = ZDMATCH_SENDING_BIND;
   \                     ??ZDMatchSendState_10:
   \   00009F   12....       LCALL     ??Subroutine240_0 & 0xFFFF
   2210              }
   2211            }
   \                     ??CrossCallReturnLabel_516:
   \   0000A2   12....       LCALL     ?Subroutine194 & 0xFFFF
   \                     ??CrossCallReturnLabel_288:
   \   0000A5   7402         MOV       A,#0x2
   \                     ??ZDMatchSendState_5:
   \   0000A7   F0           MOVX      @DPTR,A
   \   0000A8   8004         SJMP      ??ZDMatchSendState_9
   2212          
   2213            if ( reason != ZDMATCH_REASON_START && matchED->sending == ZDMATCH_SENDING_UNBIND )
   \                     ??ZDMatchSendState_8:
   \   0000AA   E5..         MOV       A,?V6
   \   0000AC   601D         JZ        ??ZDMatchSendState_11
   \                     ??ZDMatchSendState_9:
   \   0000AE   12....       LCALL     ?Subroutine64 & 0xFFFF
   \                     ??CrossCallReturnLabel_80:
   \   0000B1   7018         JNZ       ??ZDMatchSendState_11
   2214            {
   2215              // Move to the next cluster ID
   2216              if ( matchED->ed1numMatched )
   \   0000B3   90....       MOV       DPTR,#matchED
   \   0000B6   E0           MOVX      A,@DPTR
   \   0000B7   2431         ADD       A,#0x31
   \   0000B9   12....       LCALL     ?Subroutine106 & 0xFFFF
   \                     ??CrossCallReturnLabel_151:
   \   0000BC   700B         JNZ       ??ZDMatchSendState_12
   2217                matchED->ed1numMatched--;
   2218              else if ( matchED->ed2numMatched )
   \   0000BE   90....       MOV       DPTR,#matchED
   \   0000C1   E0           MOVX      A,@DPTR
   \   0000C2   2434         ADD       A,#0x34
   \   0000C4   12....       LCALL     ?Subroutine106 & 0xFFFF
   \                     ??CrossCallReturnLabel_152:
   \   0000C7   6002         JZ        ??ZDMatchSendState_11
   2219                matchED->ed2numMatched--;
   \                     ??ZDMatchSendState_12:
   \   0000C9   14           DEC       A
   \   0000CA   F0           MOVX      @DPTR,A
   2220            }
   2221          
   2222            // What message do we send now
   2223            if ( matchED->ed1numMatched )
   \                     ??ZDMatchSendState_11:
   \   0000CB   12....       LCALL     ?Subroutine68 & 0xFFFF
   \                     ??CrossCallReturnLabel_89:
   \   0000CE   F8           MOV       R0,A
   \   0000CF   90....       MOV       DPTR,#matchED
   \   0000D2   6022         JZ        ??ZDMatchSendState_13
   2224            {
   2225              ed = &(matchED->ed1);
   \   0000D4   12....       LCALL     ??Subroutine196_0 & 0xFFFF
   2226              clusterID = matchED->ed1Matched[matchED->ed1numMatched-1];
   \                     ??CrossCallReturnLabel_293:
   \   0000D7   12....       LCALL     ?Subroutine108 & 0xFFFF
   2227              dstIEEEAddr = matchED->ed2.ieeeAddr;
   2228              dstEP = matchED->ed2.endpoint;
   2229            }
   \                     ??CrossCallReturnLabel_155:
   \   0000DA   2432         ADD       A,#0x32
   \   0000DC   12....       LCALL     ?Subroutine49 & 0xFFFF
   \                     ??CrossCallReturnLabel_55:
   \   0000DF   241D         ADD       A,#0x1d
   \   0000E1   F8           MOV       R0,A
   \   0000E2   A3           INC       DPTR
   \   0000E3   E0           MOVX      A,@DPTR
   \   0000E4   3400         ADDC      A,#0x0
   \   0000E6   F9           MOV       R1,A
   \   0000E7   7401         MOV       A,#0x1
   \   0000E9   12....       LCALL     ?XSTACK_DISP0_8
   \   0000EC   E8           MOV       A,R0
   \   0000ED   F0           MOVX      @DPTR,A
   \   0000EE   A3           INC       DPTR
   \   0000EF   12....       LCALL     ??Subroutine222_0 & 0xFFFF
   \                     ??CrossCallReturnLabel_409:
   \   0000F2   2425         ADD       A,#0x25
   \   0000F4   8031         SJMP      ??ZDMatchSendState_14
   2230            else if ( matchED->ed2numMatched )
   \                     ??ZDMatchSendState_13:
   \   0000F6   12....       LCALL     ?Subroutine69 & 0xFFFF
   \                     ??CrossCallReturnLabel_91:
   \   0000F9   F8           MOV       R0,A
   \   0000FA   6030         JZ        ??ZDMatchSendState_15
   2231            {
   2232              ed = &(matchED->ed2);
   \   0000FC   90....       MOV       DPTR,#matchED
   \   0000FF   E0           MOVX      A,@DPTR
   \   000100   2417         ADD       A,#0x17
   \   000102   F5..         MOV       ?V2,A
   \   000104   A3           INC       DPTR
   \   000105   E0           MOVX      A,@DPTR
   \   000106   3400         ADDC      A,#0x0
   \   000108   F5..         MOV       ?V3,A
   2233              clusterID = matchED->ed2Matched[matchED->ed2numMatched-1];
   \   00010A   12....       LCALL     ?Subroutine108 & 0xFFFF
   2234              dstIEEEAddr = matchED->ed1.ieeeAddr;
   2235              dstEP = matchED->ed1.endpoint;
   2236            }
   \                     ??CrossCallReturnLabel_156:
   \   00010D   2435         ADD       A,#0x35
   \   00010F   12....       LCALL     ?Subroutine49 & 0xFFFF
   \                     ??CrossCallReturnLabel_56:
   \   000112   2406         ADD       A,#0x6
   \   000114   F8           MOV       R0,A
   \   000115   A3           INC       DPTR
   \   000116   E0           MOVX      A,@DPTR
   \   000117   3400         ADDC      A,#0x0
   \   000119   F9           MOV       R1,A
   \   00011A   7401         MOV       A,#0x1
   \   00011C   12....       LCALL     ?XSTACK_DISP0_8
   \   00011F   E8           MOV       A,R0
   \   000120   F0           MOVX      @DPTR,A
   \   000121   A3           INC       DPTR
   \   000122   12....       LCALL     ??Subroutine222_0 & 0xFFFF
   \                     ??CrossCallReturnLabel_410:
   \   000125   240E         ADD       A,#0xe
   \                     ??ZDMatchSendState_14:
   \   000127   12....       LCALL     ?Subroutine133 & 0xFFFF
   \                     ??CrossCallReturnLabel_212:
   \   00012A   F5..         MOV       ?V5,A
   2237          
   2238            dstAddr.addrMode = Addr16Bit;
   \                     ??ZDMatchSendState_15:
   \   00012C   740C         MOV       A,#0xc
   \   00012E   12....       LCALL     ?XSTACK_DISP0_8
   \   000131   7402         MOV       A,#0x2
   \   000133   12....       LCALL     ?Subroutine27 & 0xFFFF
   2239          
   2240            // Send the next message
   2241            if ( rspStatus == ZDP_SUCCESS && ed )
   \                     ??CrossCallReturnLabel_24:
   \   000136   6003         JZ        $+5
   \   000138   02....       LJMP      ??ZDMatchSendState_16 & 0xFFFF
   \   00013B   E5..         MOV       A,?V2
   \   00013D   45..         ORL       A,?V3
   \   00013F   7003         JNZ       $+5
   \   000141   02....       LJMP      ??ZDMatchSendState_16 & 0xFFFF
   2242            {
   2243              // Send unbind/bind message to source
   2244              if ( matchED->sending == ZDMATCH_SENDING_UNBIND )
   \   000144   12....       LCALL     ?Subroutine64 & 0xFFFF
   \                     ??CrossCallReturnLabel_81:
   \   000147   7004         JNZ       ??ZDMatchSendState_17
   2245                msgType = Unbind_req;
   \   000149   7E22         MOV       R6,#0x22
   \   00014B   8002         SJMP      ??ZDMatchSendState_18
   2246              else
   2247                msgType = Bind_req;
   \                     ??ZDMatchSendState_17:
   \   00014D   7E21         MOV       R6,#0x21
   2248          
   2249              dstAddr.addr.shortAddr = ed->srcAddr;
   \                     ??ZDMatchSendState_18:
   \   00014F   85..82       MOV       DPL,?V2
   \   000152   85..83       MOV       DPH,?V3
   \   000155   A3           INC       DPTR
   \   000156   A3           INC       DPTR
   \   000157   12....       LCALL     ??Subroutine233_0 & 0xFFFF
   \                     ??CrossCallReturnLabel_462:
   \   00015A   7404         MOV       A,#0x4
   \   00015C   12....       LCALL     ?XSTACK_DISP0_8
   \   00015F   12....       LCALL     ??Subroutine254_0 & 0xFFFF
   2250          
   2251              // Save off the transaction sequence number
   2252              matchED->transSeq = ZDP_TransID;
   \                     ??CrossCallReturnLabel_620:
   \   000162   90....       MOV       DPTR,#ZDP_TransID
   \   000165   E0           MOVX      A,@DPTR
   \   000166   C0E0         PUSH      A
   \   000168   12....       LCALL     ??Subroutine239_0 & 0xFFFF
   \                     ??CrossCallReturnLabel_535:
   \   00016B   2430         ADD       A,#0x30
   \   00016D   F582         MOV       DPL,A
   \   00016F   E4           CLR       A
   \   000170   38           ADDC      A,R0
   \   000171   F583         MOV       DPH,A
   \   000173   D0E0         POP       A
   \   000175   F0           MOVX      @DPTR,A
   2253          
   2254              destinationAddr.addrMode = Addr64Bit;
   \   000176   7415         MOV       A,#0x15
   \   000178   12....       LCALL     ?XSTACK_DISP0_8
   \   00017B   7403         MOV       A,#0x3
   \   00017D   F0           MOVX      @DPTR,A
   2255              osal_cpyExtAddr( destinationAddr.addr.extAddr, dstIEEEAddr );
   \   00017E                ; Setup parameters for call to function sAddrExtCpy
   \   00017E   7401         MOV       A,#0x1
   \   000180   12....       LCALL     ?XSTACK_DISP0_8
   \   000183   12....       LCALL     ?Subroutine169 & 0xFFFF
   \                     ??CrossCallReturnLabel_257:
   \   000186   740D         MOV       A,#0xd
   \   000188   12....       LCALL     ?XSTACK_DISP101_8
   \   00018B   12....       LCALL     `??sAddrExtCpy::?relay`; Banked call to: sAddrExtCpy
   2256          
   2257              ZDP_BindUnbindReq( msgType, &dstAddr, ed->ieeeAddr, ed->endpoint, clusterID,
   2258                  &destinationAddr, dstEP, ed->SecurityUse );
   \   00018E                ; Setup parameters for call to function ZDP_BindUnbindReq
   \   00018E   85..82       MOV       DPL,?V2
   \   000191   85..83       MOV       DPH,?V3
   \   000194   A3           INC       DPTR
   \   000195   E0           MOVX      A,@DPTR
   \   000196   F5..         MOV       ?V4,A
   \   000198   78..         MOV       R0,#?V4
   \   00019A   12....       LCALL     ?PUSH_XSTACK_I_ONE
   \   00019D   E5..         MOV       A,?V5
   \   00019F   F5..         MOV       ?V4,A
   \   0001A1   78..         MOV       R0,#?V4
   \   0001A3   12....       LCALL     ?PUSH_XSTACK_I_ONE
   \   0001A6   740F         MOV       A,#0xf
   \   0001A8   12....       LCALL     ?XSTACK_DISP100_8
   \   0001AB   88..         MOV       ?V4,R0
   \   0001AD   89..         MOV       ?V5,R1
   \   0001AF   78..         MOV       R0,#?V4
   \   0001B1   12....       LCALL     ?PUSH_XSTACK_I_TWO
   \   0001B4   78..         MOV       R0,#?V0
   \   0001B6   12....       LCALL     ?PUSH_XSTACK_I_TWO
   \   0001B9   E5..         MOV       A,?V2
   \   0001BB   2406         ADD       A,#0x6
   \   0001BD   F5..         MOV       ?V0,A
   \   0001BF   E4           CLR       A
   \   0001C0   35..         ADDC      A,?V3
   \   0001C2   F5..         MOV       ?V1,A
   \   0001C4   78..         MOV       R0,#?V0
   \   0001C6   12....       LCALL     ?PUSH_XSTACK_I_TWO
   \   0001C9   E5..         MOV       A,?V2
   \   0001CB   12....       LCALL     ??Subroutine232_0 & 0xFFFF
   \                     ??CrossCallReturnLabel_453:
   \   0001CE   35..         ADDC      A,?V3
   \   0001D0   F583         MOV       DPH,A
   \   0001D2   E0           MOVX      A,@DPTR
   \   0001D3   F9           MOV       R1,A
   \   0001D4   740C         MOV       A,#0xc
   \   0001D6   12....       LCALL     ?XSTACK_DISP102_8
   \   0001D9   EE           MOV       A,R6
   \   0001DA   FA           MOV       R2,A
   \   0001DB   7B00         MOV       R3,#0x0
   \   0001DD   12....       LCALL     `??ZDP_BindUnbindReq::?relay`; Banked call to: ZDP_BindUnbindReq
   \   0001E0   7408         MOV       A,#0x8
   \   0001E2   12....       LCALL     ?DEALLOC_XSTACK8
   2259          
   2260              // Set timeout for response
   2261              APS_SetEndDeviceBindTimeout( AIB_MaxBindingTime, ZDO_EndDeviceBindMatchTimeoutCB );
   \   0001E5                ; Setup parameters for call to function APS_SetEndDeviceBindTimeout
   \   0001E5   12....       LCALL     ?Subroutine88 & 0xFFFF
   2262            }
   \                     ??CrossCallReturnLabel_125:
   \   0001E8   02....       LJMP      ??ZDMatchSendState_19 & 0xFFFF
   2263            else
   2264            {
   2265              // Send the response messages to requesting devices
   2266              // send response to first requester
   2267              dstAddr.addr.shortAddr = matchED->ed1.srcAddr;
   \                     ??ZDMatchSendState_16:
   \   0001EB   90....       MOV       DPTR,#matchED
   \   0001EE   12....       LCALL     ?Subroutine67 & 0xFFFF
   \                     ??CrossCallReturnLabel_87:
   \   0001F1   7404         MOV       A,#0x4
   \   0001F3   12....       LCALL     ?XSTACK_DISP0_8
   \   0001F6   12....       LCALL     ?Subroutine13 & 0xFFFF
   2268              ZDP_EndDeviceBindRsp( matchED->ed1.TransSeq, &dstAddr, rspStatus, matchED->ed1.SecurityUse );
   \                     ??CrossCallReturnLabel_9:
   \   0001F9   12....       LCALL     ?PUSH_XSTACK_I_ONE
   \   0001FC   7401         MOV       A,#0x1
   \   0001FE   12....       LCALL     ?XSTACK_DISP100_8
   \   000201   88..         MOV       ?V0,R0
   \   000203   89..         MOV       ?V1,R1
   \   000205   78..         MOV       R0,#?V0
   \   000207   12....       LCALL     ?PUSH_XSTACK_I_TWO
   \   00020A   75..20       MOV       ?V0,#0x20
   \   00020D   75..80       MOV       ?V1,#-0x80
   \   000210   78..         MOV       R0,#?V0
   \   000212   12....       LCALL     ?PUSH_XSTACK_I_TWO
   \   000215   7901         MOV       R1,#0x1
   \   000217   7409         MOV       A,#0x9
   \   000219   12....       LCALL     ?XSTACK_DISP102_8
   \   00021C   12....       LCALL     ?Subroutine84 & 0xFFFF
   \                     ??CrossCallReturnLabel_117:
   \   00021F   12....       LCALL     ?DEALLOC_XSTACK8
   2269          
   2270              // send response to second requester
   2271              if ( matchED->state == ZDMATCH_SENDING_BINDS )
   \   000222   12....       LCALL     ?Subroutine63 & 0xFFFF
   \                     ??CrossCallReturnLabel_79:
   \   000225   704A         JNZ       ??ZDMatchSendState_20
   2272              {
   2273                dstAddr.addr.shortAddr = matchED->ed2.srcAddr;
   \   000227   12....       LCALL     ??Subroutine239_0 & 0xFFFF
   2274                ZDP_EndDeviceBindRsp( matchED->ed2.TransSeq, &dstAddr, rspStatus, matchED->ed2.SecurityUse );
   2275              }
   \                     ??CrossCallReturnLabel_536:
   \   00022A   2419         ADD       A,#0x19
   \   00022C   F582         MOV       DPL,A
   \   00022E   E4           CLR       A
   \   00022F   38           ADDC      A,R0
   \   000230   F583         MOV       DPH,A
   \   000232   12....       LCALL     ??Subroutine233_0 & 0xFFFF
   \                     ??CrossCallReturnLabel_463:
   \   000235   7404         MOV       A,#0x4
   \   000237   12....       LCALL     ?XSTACK_DISP0_8
   \   00023A   E8           MOV       A,R0
   \   00023B   F0           MOVX      @DPTR,A
   \   00023C   A3           INC       DPTR
   \   00023D   12....       LCALL     ??Subroutine222_0 & 0xFFFF
   \                     ??CrossCallReturnLabel_411:
   \   000240   2418         ADD       A,#0x18
   \   000242   12....       LCALL     ??Subroutine215_0 & 0xFFFF
   \                     ??CrossCallReturnLabel_383:
   \   000245   12....       LCALL     ?PUSH_XSTACK_I_ONE
   \   000248   7401         MOV       A,#0x1
   \   00024A   12....       LCALL     ?XSTACK_DISP100_8
   \   00024D   88..         MOV       ?V0,R0
   \   00024F   89..         MOV       ?V1,R1
   \   000251   78..         MOV       R0,#?V0
   \   000253   12....       LCALL     ?PUSH_XSTACK_I_TWO
   \   000256   75..20       MOV       ?V0,#0x20
   \   000259   75..80       MOV       ?V1,#-0x80
   \   00025C   78..         MOV       R0,#?V0
   \   00025E   12....       LCALL     ?PUSH_XSTACK_I_TWO
   \   000261   7901         MOV       R1,#0x1
   \   000263   7409         MOV       A,#0x9
   \   000265   12....       LCALL     ?XSTACK_DISP102_8
   \   000268   12....       LCALL     ?Subroutine101 & 0xFFFF
   \                     ??CrossCallReturnLabel_144:
   \   00026B   12....       LCALL     ??Subroutine199_0 & 0xFFFF
   \                     ??CrossCallReturnLabel_301:
   \   00026E   12....       LCALL     ?DEALLOC_XSTACK8
   2276          
   2277              // Process ended - release memory used
   2278              ZDO_RemoveMatchMemory();
   \                     ??ZDMatchSendState_20:
   \   000271                ; Setup parameters for call to function ZDO_RemoveMatchMemory
   \   000271   12....       LCALL     `??ZDO_RemoveMatchMemory::?relay`; Banked call to: ZDO_RemoveMatchMemory
   2279            }
   2280          
   2281            return ( TRUE );
   \                     ??ZDMatchSendState_19:
   \   000274   7901         MOV       R1,#0x1
   \                     ??ZDMatchSendState_3:
   \   000276   7416         MOV       A,#0x16
   \   000278   02....       LJMP      ?Subroutine6 & 0xFFFF
   2282          }

   \                                 In  segment BANKED_CODE, align 1, keep-with-next
   \                     ?Subroutine108:
   \   000000   12....       LCALL     ?Subroutine175 & 0xFFFF
   \                     ??CrossCallReturnLabel_264:
   \   000003   90....       MOV       DPTR,#matchED
   \   000006   12....       LCALL     ??Subroutine259_0 & 0xFFFF
   \                     ??CrossCallReturnLabel_639:
   \   000009   CA           XCH       A,R2
   \   00000A   22           RET

   \                                 In  segment BANKED_CODE, align 1, keep-with-next
   \                     ?Subroutine106:
   \   000000   F8           MOV       R0,A
   \   000001   A3           INC       DPTR
   \   000002   E0           MOVX      A,@DPTR
   \   000003   3400         ADDC      A,#0x0
   \   000005   8882         MOV       DPL,R0
   \   000007   F583         MOV       DPH,A
   \   000009   E0           MOVX      A,@DPTR
   \   00000A   22           RET

   \                                 In  segment BANKED_CODE, align 1, keep-with-next
   \                     ?Subroutine66:
   \   000000   12....       LCALL     ?Subroutine162 & 0xFFFF
   \                     ??CrossCallReturnLabel_254:
   \   000003   7401         MOV       A,#0x1
   \   000005   22           RET

   \                                 In  segment BANKED_CODE, align 1, keep-with-next
   \                     ?Subroutine64:
   \   000000   90....       MOV       DPTR,#matchED
   \   000003   12....       LCALL     ?Subroutine162 & 0xFFFF
   \                     ??CrossCallReturnLabel_253:
   \   000006   E0           MOVX      A,@DPTR
   \   000007   6401         XRL       A,#0x1
   \   000009   22           RET

   \                                 In  segment BANKED_CODE, align 1, keep-with-next
   \                     ?Subroutine162:
   \   000000   12....       LCALL     ?Subroutine192 & 0xFFFF
   \                     ??CrossCallReturnLabel_549:
   \   000003   C8           XCH       A,R0
   \   000004   12....       LCALL     ?Subroutine194 & 0xFFFF
   \                     ??CrossCallReturnLabel_289:
   \   000007   22           RET

   \                                 In  segment BANKED_CODE, align 1, keep-with-next
   \                     ?Subroutine194:
   \   000000   242F         ADD       A,#0x2f
   \   000002   F582         MOV       DPL,A
   \   000004   E4           CLR       A
   \   000005   38           ADDC      A,R0
   \   000006   F583         MOV       DPH,A
   \   000008   22           RET

   \                                 In  segment BANKED_CODE, align 1, keep-with-next
   \                     ?Subroutine49:
   \   000000   F582         MOV       DPL,A
   \   000002   E4           CLR       A
   \   000003   3A           ADDC      A,R2
   \   000004   F583         MOV       DPH,A
   \   000006   E0           MOVX      A,@DPTR
   \   000007   28           ADD       A,R0
   \   000008   F8           MOV       R0,A
   \   000009   A3           INC       DPTR
   \   00000A   E0           MOVX      A,@DPTR
   \   00000B   39           ADDC      A,R1
   \   00000C   F9           MOV       R1,A
   \   00000D   E8           MOV       A,R0
   \   00000E   24FE         ADD       A,#-0x2
   \   000010   F582         MOV       DPL,A
   \   000012   E9           MOV       A,R1
   \   000013   34FF         ADDC      A,#-0x1
   \   000015   12....       LCALL     ?Subroutine168 & 0xFFFF
   \                     ??CrossCallReturnLabel_437:
   \   000018   90....       MOV       DPTR,#matchED
   \   00001B   E0           MOVX      A,@DPTR
   \   00001C   22           RET
   2283          
   2284          /*********************************************************************
   2285           * @fn      ZDO_EndDeviceBindMatchTimeoutCB()
   2286           *
   2287           * @brief   End device bind timeout.
   2288           *
   2289           * @param  none
   2290           *
   2291           * @return  none
   2292           */

   \                                 In  segment BANKED_CODE, align 1, keep-with-next
   2293          static void ZDO_EndDeviceBindMatchTimeoutCB( void )
   \                     ZDO_EndDeviceBindMatchTimeoutCB:
   2294          {
   \   000000   C082         PUSH      DPL
   \   000002   C083         PUSH      DPH
   \   000004                ; Saved register size: 2
   \   000004                ; Auto size: 0
   2295            ZDMatchSendState( ZDMATCH_REASON_TIMEOUT, ZDP_TIMEOUT, 0 );
   \   000004                ; Setup parameters for call to function ZDMatchSendState
   \   000004   7B00         MOV       R3,#0x0
   \   000006   7A85         MOV       R2,#-0x7b
   \   000008   7901         MOV       R1,#0x1
   \   00000A   12....       LCALL     `??ZDMatchSendState::?relay`; Banked call to: ZDMatchSendState
   2296          }
   \   00000D   02....       LJMP      ?Subroutine0 & 0xFFFF
   2297          
   2298          /*********************************************************************
   2299           * ZDO MESSAGE PARSING API FUNCTIONS
   2300           */
   2301          
   2302          /*********************************************************************
   2303           * @fn          ZDO_ParseEndDeviceBindReq
   2304           *
   2305           * @brief       This function parses the End_Device_Bind_req message.
   2306           * 
   2307           *     NOTE:  The clusters lists in bindReq are allocated in this
   2308           *            function and must be freed by that calling function.
   2309           *
   2310           * @param       inMsg  - incoming message (request)
   2311           * @param       bindReq - pointer to place to parse message to
   2312           *
   2313           * @return      none
   2314           */

   \                                 In  segment BANKED_CODE, align 1, keep-with-next
   2315          void ZDO_ParseEndDeviceBindReq( zdoIncomingMsg_t *inMsg, ZDEndDeviceBind_t *bindReq )
   \                     ZDO_ParseEndDeviceBindReq:
   2316          {
   \   000000                REQUIRE ?V0
   \   000000                REQUIRE ?V1
   \   000000                REQUIRE ?V2
   \   000000                REQUIRE ?V3
   \   000000                REQUIRE ?V4
   \   000000                REQUIRE ?V5
   \   000000                REQUIRE ?V6
   \   000000                REQUIRE ?V7
   \   000000   74F0         MOV       A,#-0x10
   \   000002   12....       LCALL     ?BANKED_ENTER_XDATA
   \   000005                ; Saved register size: 16
   \   000005                ; Auto size: 0
   \   000005   8C..         MOV       ?V0,R4
   \   000007   8D..         MOV       ?V1,R5
   2317            uint8 *msg;
   2318          
   2319            // Parse the message
   2320            bindReq->TransSeq = inMsg->TransSeq;
   \   000009   EA           MOV       A,R2
   \   00000A   12....       LCALL     ?Subroutine130 & 0xFFFF
   \                     ??CrossCallReturnLabel_202:
   \   00000D   3B           ADDC      A,R3
   \   00000E   12....       LCALL     ??Subroutine241_0 & 0xFFFF
   2321            bindReq->srcAddr = inMsg->srcAddr.addr.shortAddr;
   \                     ??CrossCallReturnLabel_553:
   \   000011   A3           INC       DPTR
   \   000012   12....       LCALL     ??Subroutine233_0 & 0xFFFF
   \                     ??CrossCallReturnLabel_464:
   \   000015   8C82         MOV       DPL,R4
   \   000017   8D83         MOV       DPH,R5
   \   000019   A3           INC       DPTR
   \   00001A   A3           INC       DPTR
   \   00001B   12....       LCALL     ??Subroutine254_0 & 0xFFFF
   2322            bindReq->SecurityUse = inMsg->SecurityUse;
   \                     ??CrossCallReturnLabel_621:
   \   00001E   EA           MOV       A,R2
   \   00001F   12....       LCALL     ??Subroutine232_0 & 0xFFFF
   \                     ??CrossCallReturnLabel_454:
   \   000022   3B           ADDC      A,R3
   \   000023   F583         MOV       DPH,A
   \   000025   12....       LCALL     ?Subroutine77 & 0xFFFF
   \                     ??CrossCallReturnLabel_104:
   \   000028   12....       LCALL     ?Subroutine29 & 0xFFFF
   2323            msg = inMsg->asdu;
   \                     ??CrossCallReturnLabel_27:
   \   00002B   12....       LCALL     ?Subroutine62 & 0xFFFF
   2324          
   2325            bindReq->localCoordinator = BUILD_UINT16( msg[0], msg[1] );
   \                     ??CrossCallReturnLabel_76:
   \   00002E   A3           INC       DPTR
   \   00002F   A3           INC       DPTR
   \   000030   A3           INC       DPTR
   \   000031   12....       LCALL     ?Subroutine16 & 0xFFFF
   2326            msg += 2;
   \                     ??CrossCallReturnLabel_481:
   \   000034   5001         JNC       ??ZDO_ParseEndDeviceBindReq_0
   \   000036   0F           INC       R7
   2327          
   2328            osal_cpyExtAddr( bindReq->ieeeAddr, msg );
   \                     ??ZDO_ParseEndDeviceBindReq_0:
   \   000037                ; Setup parameters for call to function sAddrExtCpy
   \   000037   FC           MOV       R4,A
   \   000038   EF           MOV       A,R7
   \   000039   FD           MOV       R5,A
   \   00003A   E5..         MOV       A,?V0
   \   00003C   2406         ADD       A,#0x6
   \   00003E   12....       LCALL     ?Subroutine44 & 0xFFFF
   2329            msg += Z_EXTADDR_LEN;
   2330          
   2331            bindReq->endpoint = *msg++;
   \                     ??CrossCallReturnLabel_475:
   \   000041   C0E0         PUSH      A
   \   000043   12....       LCALL     ?Subroutine124 & 0xFFFF
   \                     ??CrossCallReturnLabel_189:
   \   000046   D0E0         POP       A
   \   000048   12....       LCALL     ??Subroutine251_0 & 0xFFFF
   \                     ??CrossCallReturnLabel_595:
   \   00004B   5001         JNC       ??ZDO_ParseEndDeviceBindReq_1
   \   00004D   0F           INC       R7
   2332            bindReq->profileID = BUILD_UINT16( msg[0], msg[1] );
   \                     ??ZDO_ParseEndDeviceBindReq_1:
   \   00004E   12....       LCALL     ?Subroutine173 & 0xFFFF
   \                     ??CrossCallReturnLabel_640:
   \   000051   F9           MOV       R1,A
   \   000052   12....       LCALL     ?Subroutine127 & 0xFFFF
   \                     ??CrossCallReturnLabel_194:
   \   000055   EA           MOV       A,R2
   \   000056   12....       LCALL     ??Subroutine255_0 & 0xFFFF
   2333            msg += 2;
   2334          
   2335            bindReq->inClusters = NULL;
   \                     ??CrossCallReturnLabel_605:
   \   000059   E5..         MOV       A,?V0
   \   00005B   2412         ADD       A,#0x12
   \   00005D   F5..         MOV       ?V6,A
   \   00005F   E4           CLR       A
   \   000060   35..         ADDC      A,?V1
   \   000062   F5..         MOV       ?V7,A
   \   000064   85..82       MOV       DPL,?V6
   \   000067   F583         MOV       DPH,A
   \   000069   E4           CLR       A
   \   00006A   F0           MOVX      @DPTR,A
   \   00006B   A3           INC       DPTR
   \   00006C   F0           MOVX      @DPTR,A
   \   00006D   12....       LCALL     ?Subroutine141 & 0xFFFF
   \                     ??CrossCallReturnLabel_223:
   \   000070   E4           CLR       A
   \   000071   F0           MOVX      @DPTR,A
   \   000072   A3           INC       DPTR
   \   000073   12....       LCALL     ?Subroutine19 & 0xFFFF
   2336            bindReq->outClusters = NULL;
   2337            
   2338            if ((bindReq->numInClusters = *msg++) &&
   2339                (bindReq->inClusters = (uint16*)osal_mem_alloc( (bindReq->numInClusters * sizeof( uint16 )))))
   \                     ??CrossCallReturnLabel_14:
   \   000076   F8           MOV       R0,A
   \   000077   E5..         MOV       A,?V0
   \   000079   2411         ADD       A,#0x11
   \   00007B   12....       LCALL     ?Subroutine143 & 0xFFFF
   \                     ??CrossCallReturnLabel_228:
   \   00007E   F0           MOVX      @DPTR,A
   \   00007F   EE           MOV       A,R6
   \   000080   2403         ADD       A,#0x3
   \   000082   FE           MOV       R6,A
   \   000083   5001         JNC       ??ZDO_ParseEndDeviceBindReq_2
   \   000085   0F           INC       R7
   \                     ??ZDO_ParseEndDeviceBindReq_2:
   \   000086   E8           MOV       A,R0
   \   000087   6022         JZ        ??ZDO_ParseEndDeviceBindReq_3
   \   000089                ; Setup parameters for call to function osal_mem_alloc
   \   000089   12....       LCALL     ?Subroutine107 & 0xFFFF
   \                     ??CrossCallReturnLabel_153:
   \   00008C   12....       LCALL     ?Subroutine34 & 0xFFFF
   \                     ??CrossCallReturnLabel_631:
   \   00008F   4D           ORL       A,R5
   \   000090   6019         JZ        ??ZDO_ParseEndDeviceBindReq_3
   2340            {
   2341              msg = ZDO_ConvertOTAClusters( bindReq->numInClusters, msg, bindReq->inClusters );
   \   000092                ; Setup parameters for call to function ZDO_ConvertOTAClusters
   \   000092   EE           MOV       A,R6
   \   000093   FA           MOV       R2,A
   \   000094   EF           MOV       A,R7
   \   000095   FB           MOV       R3,A
   \   000096   85..82       MOV       DPL,?V2
   \   000099   85..83       MOV       DPH,?V3
   \   00009C   E0           MOVX      A,@DPTR
   \   00009D   F9           MOV       R1,A
   \   00009E   12....       LCALL     `??ZDO_ConvertOTAClusters::?relay`; Banked call to: ZDO_ConvertOTAClusters
   \   0000A1   8A..         MOV       ?V2,R2
   \   0000A3   8B..         MOV       ?V3,R3
   \   0000A5   AE..         MOV       R6,?V2
   \   0000A7   AF..         MOV       R7,?V3
   \   0000A9   8008         SJMP      ??ZDO_ParseEndDeviceBindReq_4
   2342            }
   2343            else
   2344            {
   2345              bindReq->numInClusters = 0;
   \                     ??ZDO_ParseEndDeviceBindReq_3:
   \   0000AB   85..82       MOV       DPL,?V2
   \   0000AE   85..83       MOV       DPH,?V3
   \   0000B1   E4           CLR       A
   \   0000B2   F0           MOVX      @DPTR,A
   2346            }
   2347          
   2348            if ((bindReq->numOutClusters = *msg++) &&
   2349                (bindReq->outClusters = (uint16*)osal_mem_alloc((bindReq->numOutClusters * sizeof(uint16)))))
   \                     ??ZDO_ParseEndDeviceBindReq_4:
   \   0000B3   8E82         MOV       DPL,R6
   \   0000B5   8F83         MOV       DPH,R7
   \   0000B7   E0           MOVX      A,@DPTR
   \   0000B8   F8           MOV       R0,A
   \   0000B9   E5..         MOV       A,?V0
   \   0000BB   2414         ADD       A,#0x14
   \   0000BD   12....       LCALL     ?Subroutine143 & 0xFFFF
   \                     ??CrossCallReturnLabel_229:
   \   0000C0   12....       LCALL     ?Subroutine33 & 0xFFFF
   \                     ??CrossCallReturnLabel_36:
   \   0000C3   601D         JZ        ??ZDO_ParseEndDeviceBindReq_5
   \   0000C5                ; Setup parameters for call to function osal_mem_alloc
   \   0000C5   12....       LCALL     ?Subroutine107 & 0xFFFF
   \                     ??CrossCallReturnLabel_154:
   \   0000C8   12....       LCALL     ?Subroutine141 & 0xFFFF
   \                     ??CrossCallReturnLabel_224:
   \   0000CB   12....       LCALL     ??Subroutine257_0 & 0xFFFF
   \                     ??CrossCallReturnLabel_629:
   \   0000CE   4D           ORL       A,R5
   \   0000CF   6011         JZ        ??ZDO_ParseEndDeviceBindReq_5
   2350            {
   2351              msg = ZDO_ConvertOTAClusters( bindReq->numOutClusters, msg, bindReq->outClusters );
   \   0000D1                ; Setup parameters for call to function ZDO_ConvertOTAClusters
   \   0000D1   EE           MOV       A,R6
   \   0000D2   FA           MOV       R2,A
   \   0000D3   EF           MOV       A,R7
   \   0000D4   FB           MOV       R3,A
   \   0000D5   85..82       MOV       DPL,?V2
   \   0000D8   85..83       MOV       DPH,?V3
   \   0000DB   E0           MOVX      A,@DPTR
   \   0000DC   F9           MOV       R1,A
   \   0000DD   12....       LCALL     `??ZDO_ConvertOTAClusters::?relay`; Banked call to: ZDO_ConvertOTAClusters
   \   0000E0   8008         SJMP      ??ZDO_ParseEndDeviceBindReq_6
   2352            }
   2353            else
   2354            {
   2355              bindReq->numOutClusters = 0;
   \                     ??ZDO_ParseEndDeviceBindReq_5:
   \   0000E2   85..82       MOV       DPL,?V2
   \   0000E5   85..83       MOV       DPH,?V3
   \   0000E8   E4           CLR       A
   \   0000E9   F0           MOVX      @DPTR,A
   2356            }
   2357          }
   \                     ??ZDO_ParseEndDeviceBindReq_6:
   \   0000EA   02....       LJMP      ??Subroutine210_0 & 0xFFFF

   \                                 In  segment BANKED_CODE, align 1, keep-with-next
   \                     ?Subroutine143:
   \   000000   F5..         MOV       ?V2,A
   \   000002   E4           CLR       A
   \   000003   35..         ADDC      A,?V1
   \   000005   F5..         MOV       ?V3,A
   \   000007   E8           MOV       A,R0
   \   000008   85..82       MOV       DPL,?V2
   \   00000B   85..83       MOV       DPH,?V3
   \   00000E   22           RET

   \                                 In  segment BANKED_CODE, align 1, keep-with-next
   \                     ?Subroutine141:
   \   000000   E5..         MOV       A,?V0
   \   000002   12....       LCALL     ??Subroutine231_0 & 0xFFFF
   \                     ??CrossCallReturnLabel_448:
   \   000005   12....       LCALL     ??Subroutine247_0 & 0xFFFF
   \                     ??CrossCallReturnLabel_576:
   \   000008   22           RET

   \                                 In  segment BANKED_CODE, align 1, keep-with-next
   \                     ?Subroutine107:
   \   000000   28           ADD       A,R0
   \   000001   FA           MOV       R2,A
   \   000002   E4           CLR       A
   \   000003   33           RLC       A
   \   000004   FB           MOV       R3,A
   \   000005   12....       LCALL     `??osal_mem_alloc::?relay`; Banked call to: osal_mem_alloc
   \   000008   8A..         MOV       ?V4,R2
   \   00000A   8B..         MOV       ?V5,R3
   \   00000C   AC..         MOV       R4,?V4
   \   00000E   AD..         MOV       R5,?V5
   \   000010   22           RET

   \                                 In  segment BANKED_CODE, align 1, keep-with-next
   \                     ?Subroutine44:
   \   000000   FA           MOV       R2,A
   \   000001   E4           CLR       A
   \   000002   35..         ADDC      A,?V1
   \   000004   FB           MOV       R3,A
   \   000005                REQUIRE ??Subroutine234_0
   \   000005                ; // Fall through to label ??Subroutine234_0

   \                                 In  segment BANKED_CODE, align 1, keep-with-next
   \                     ??Subroutine234_0:
   \   000000   12....       LCALL     ?Subroutine157 & 0xFFFF
   \                     ??CrossCallReturnLabel_479:
   \   000003   22           RET

   \                                 In  segment BANKED_CODE, align 1, keep-with-next
   \                     ?Subroutine157:
   \   000000   12....       LCALL     `??sAddrExtCpy::?relay`; Banked call to: sAddrExtCpy
   \   000003   8E82         MOV       DPL,R6
   \   000005   8F83         MOV       DPH,R7
   \   000007   A3           INC       DPTR
   \   000008   A3           INC       DPTR
   \   000009   A3           INC       DPTR
   \   00000A   A3           INC       DPTR
   \   00000B   A3           INC       DPTR
   \   00000C   A3           INC       DPTR
   \   00000D   A3           INC       DPTR
   \   00000E   A3           INC       DPTR
   \   00000F   E0           MOVX      A,@DPTR
   \   000010   22           RET

   \                                 In  segment BANKED_CODE, align 1, keep-with-next
   \                     ?Subroutine16:
   \   000000   A3           INC       DPTR
   \   000001                REQUIRE ??Subroutine235_0
   \   000001                ; // Fall through to label ??Subroutine235_0

   \                                 In  segment BANKED_CODE, align 1, keep-with-next
   \                     ??Subroutine235_0:
   \   000000   F0           MOVX      @DPTR,A
   \   000001   A3           INC       DPTR
   \   000002   E9           MOV       A,R1
   \   000003   12....       LCALL     ?Subroutine153 & 0xFFFF
   \                     ??CrossCallReturnLabel_485:
   \   000006   22           RET

   \                                 In  segment BANKED_CODE, align 1, keep-with-next
   \                     ?Subroutine153:
   \   000000   F0           MOVX      @DPTR,A
   \   000001   EE           MOV       A,R6
   \   000002   2402         ADD       A,#0x2
   \   000004   FE           MOV       R6,A
   \   000005   22           RET

   \                                 In  segment BANKED_CODE, align 1, keep-with-next
   \                     ?Subroutine33:
   \   000000   12....       LCALL     ?Subroutine195 & 0xFFFF
   \                     ??CrossCallReturnLabel_292:
   \   000003   AE82         MOV       R6,DPL
   \   000005   AF83         MOV       R7,DPH
   \   000007   22           RET

   \                                 In  segment BANKED_CODE, align 1, keep-with-next
   \                     ?Subroutine77:
   \   000000   12....       LCALL     ??Subroutine246_0 & 0xFFFF
   \                     ??CrossCallReturnLabel_572:
   \   000003   A3           INC       DPTR
   \   000004   22           RET

   \                                 In  segment BANKED_CODE, align 1, keep-with-next
   \                     ??Subroutine241_0:
   \   000000   12....       LCALL     ?Subroutine164 & 0xFFFF
   \                     ??CrossCallReturnLabel_574:
   \   000003                REQUIRE ??Subroutine242_0
   \   000003                ; // Fall through to label ??Subroutine242_0

   \                                 In  segment BANKED_CODE, align 1, keep-with-next
   \                     ??Subroutine242_0:
   \   000000   12....       LCALL     ?Subroutine152 & 0xFFFF
   \                     ??CrossCallReturnLabel_602:
   \   000003   22           RET

   \                                 In  segment BANKED_CODE, align 1, keep-with-next
   \                     ?Subroutine164:
   \   000000   F583         MOV       DPH,A
   \   000002                REQUIRE ??Subroutine246_0
   \   000002                ; // Fall through to label ??Subroutine246_0

   \                                 In  segment BANKED_CODE, align 1, keep-with-next
   \                     ??Subroutine246_0:
   \   000000   E0           MOVX      A,@DPTR
   \   000001   8C82         MOV       DPL,R4
   \   000003   8D83         MOV       DPH,R5
   \   000005   22           RET

   \                                 In  segment BANKED_CODE, align 1, keep-with-next
   \                     ?Subroutine19:
   \   000000   12....       LCALL     ?Subroutine155 & 0xFFFF
   \                     ??CrossCallReturnLabel_243:
   \   000003   22           RET

   \                                 In  segment BANKED_CODE, align 1, keep-with-next
   \                     ?Subroutine155:
   \   000000   12....       LCALL     ?Subroutine195 & 0xFFFF
   \                     ??CrossCallReturnLabel_290:
   \   000003   A3           INC       DPTR
   \   000004   E0           MOVX      A,@DPTR
   \   000005   22           RET

   \                                 In  segment BANKED_CODE, align 1, keep-with-next
   \                     ??Subroutine251_0:
   \   000000   F0           MOVX      @DPTR,A
   \   000001   EE           MOV       A,R6
   \   000002   2409         ADD       A,#0x9
   \   000004   FE           MOV       R6,A
   \   000005   22           RET

   \                                 In  segment BANKED_CODE, align 1, keep-with-next
   \                     ?Subroutine34:
   \   000000   85..82       MOV       DPL,?V6
   \   000003   85..83       MOV       DPH,?V7
   \   000006                REQUIRE ??Subroutine257_0
   \   000006                ; // Fall through to label ??Subroutine257_0

   \                                 In  segment BANKED_CODE, align 1, keep-with-next
   \                     ??Subroutine257_0:
   \   000000   EA           MOV       A,R2
   \   000001   F0           MOVX      @DPTR,A
   \   000002   A3           INC       DPTR
   \   000003   EB           MOV       A,R3
   \   000004   F0           MOVX      @DPTR,A
   \   000005   EA           MOV       A,R2
   \   000006   22           RET

   \                                 In  segment BANKED_CODE, align 1, keep-with-next
   \                     ?Subroutine180:
   \   000000   12....       LCALL     ?Subroutine193 & 0xFFFF
   \                     ??CrossCallReturnLabel_287:
   \   000003   22           RET

   \                                 In  segment BANKED_CODE, align 1, keep-with-next
   \                     ?Subroutine193:
   \   000000   EA           MOV       A,R2
   \   000001   2413         ADD       A,#0x13
   \   000003   F582         MOV       DPL,A
   \   000005   E4           CLR       A
   \   000006   3B           ADDC      A,R3
   \   000007   F583         MOV       DPH,A
   \   000009   22           RET

   \                                 In  segment BANKED_CODE, align 1, keep-with-next
   \                     ?Subroutine62:
   \   000000   FE           MOV       R6,A
   \   000001   A3           INC       DPTR
   \   000002   E0           MOVX      A,@DPTR
   \   000003   FF           MOV       R7,A
   \   000004   8E82         MOV       DPL,R6
   \   000006   F583         MOV       DPH,A
   \   000008   12....       LCALL     ?Subroutine167 & 0xFFFF
   \                     ??CrossCallReturnLabel_634:
   \   00000B   22           RET

   \                                 In  segment BANKED_CODE, align 1, keep-with-next
   \                     ?Subroutine167:
   \   000000   E0           MOVX      A,@DPTR
   \   000001   FA           MOV       R2,A
   \   000002                REQUIRE ??Subroutine258_0
   \   000002                ; // Fall through to label ??Subroutine258_0

   \                                 In  segment BANKED_CODE, align 1, keep-with-next
   \                     ??Subroutine258_0:
   \   000000   A3           INC       DPTR
   \   000001   E0           MOVX      A,@DPTR
   \   000002   F9           MOV       R1,A
   \   000003   EA           MOV       A,R2
   \   000004   8C82         MOV       DPL,R4
   \   000006   8D83         MOV       DPH,R5
   \   000008   22           RET

   \                                 In  segment BANKED_CODE, align 1, keep-with-next
   \                     ?Subroutine173:
   \   000000   F582         MOV       DPL,A
   \   000002   8F83         MOV       DPH,R7
   \   000004                REQUIRE ??Subroutine259_0
   \   000004                ; // Fall through to label ??Subroutine259_0

   \                                 In  segment BANKED_CODE, align 1, keep-with-next
   \                     ?Subroutine29:
   \   000000   F0           MOVX      @DPTR,A
   \   000001   12....       LCALL     ?Subroutine180 & 0xFFFF
   \                     ??CrossCallReturnLabel_272:
   \   000004   E0           MOVX      A,@DPTR
   \   000005   22           RET
   2358          
   2359          /*********************************************************************
   2360           * @fn          ZDO_ParseBindUnbindReq
   2361           *
   2362           * @brief       This function parses the Bind_req or Unbind_req message.
   2363           *
   2364           * @param       inMsg  - incoming message (request)
   2365           * @param       pReq - place to put parsed information
   2366           *
   2367           * @return      none
   2368           */

   \                                 In  segment BANKED_CODE, align 1, keep-with-next
   2369          void ZDO_ParseBindUnbindReq( zdoIncomingMsg_t *inMsg, ZDO_BindUnbindReq_t *pReq )
   \                     ZDO_ParseBindUnbindReq:
   2370          {
   \   000000                REQUIRE ?V0
   \   000000                REQUIRE ?V1
   \   000000   74F6         MOV       A,#-0xa
   \   000002   12....       LCALL     ?BANKED_ENTER_XDATA
   \   000005                ; Saved register size: 10
   \   000005                ; Auto size: 0
   \   000005   12....       LCALL     ?Subroutine122 & 0xFFFF
   2371            uint8 *msg;
   2372          
   2373            msg = inMsg->asdu;
   \                     ??CrossCallReturnLabel_489:
   \   000008   12....       LCALL     ?Subroutine103 & 0xFFFF
   2374            osal_cpyExtAddr( pReq->srcAddress, msg );
   \                     ??CrossCallReturnLabel_501:
   \   00000B                ; Setup parameters for call to function sAddrExtCpy
   \   00000B   12....       LCALL     ?Subroutine36 & 0xFFFF
   2375            msg += Z_EXTADDR_LEN;
   2376            pReq->srcEndpoint = *msg++;
   \                     ??CrossCallReturnLabel_593:
   \   00000E   5001         JNC       ??ZDO_ParseBindUnbindReq_0
   \   000010   0F           INC       R7
   2377            pReq->clusterID = BUILD_UINT16( msg[0], msg[1] );
   \                     ??ZDO_ParseBindUnbindReq_0:
   \   000011   12....       LCALL     ?Subroutine10 & 0xFFFF
   2378            msg += 2;
   2379            pReq->dstAddress.addrMode = *msg++;
   \                     ??CrossCallReturnLabel_4:
   \   000014   5001         JNC       ??ZDO_ParseBindUnbindReq_1
   \   000016   0F           INC       R7
   2380            if ( pReq->dstAddress.addrMode == Addr64Bit )
   \                     ??ZDO_ParseBindUnbindReq_1:
   \   000017   12....       LCALL     ?Subroutine140 & 0xFFFF
   \                     ??CrossCallReturnLabel_221:
   \   00001A   7010         JNZ       ??ZDO_ParseBindUnbindReq_2
   2381            {
   2382              osal_cpyExtAddr( pReq->dstAddress.addr.extAddr, msg );
   \   00001C                ; Setup parameters for call to function sAddrExtCpy
   \   00001C   EE           MOV       A,R6
   \   00001D   FC           MOV       R4,A
   \   00001E   EF           MOV       A,R7
   \   00001F   FD           MOV       R5,A
   \   000020   12....       LCALL     ??Subroutine234_0 & 0xFFFF
   2383              msg += Z_EXTADDR_LEN;
   2384              pReq->dstEndpoint = *msg;
   2385            }
   \                     ??CrossCallReturnLabel_477:
   \   000023   C0E0         PUSH      A
   \   000025   12....       LCALL     ?Subroutine137 & 0xFFFF
   \                     ??CrossCallReturnLabel_216:
   \   000028   D0E0         POP       A
   \   00002A   8006         SJMP      ??ZDO_ParseBindUnbindReq_3
   2386            else
   2387            {
   2388              // copy group address
   2389              pReq->dstAddress.addr.shortAddr = BUILD_UINT16( msg[0], msg[1] );
   \                     ??ZDO_ParseBindUnbindReq_2:
   \   00002C   12....       LCALL     ?Subroutine86 & 0xFFFF
   2390            }
   \                     ??CrossCallReturnLabel_120:
   \   00002F   F0           MOVX      @DPTR,A
   \   000030   A3           INC       DPTR
   \   000031   E9           MOV       A,R1
   \                     ??ZDO_ParseBindUnbindReq_3:
   \   000032   F0           MOVX      @DPTR,A
   2391          }
   \   000033   02....       LJMP      ??Subroutine198_0 & 0xFFFF

   \                                 In  segment BANKED_CODE, align 1, keep-with-next
   \                     ?Subroutine122:
   \   000000   8C..         MOV       ?V0,R4
   \   000002   8D..         MOV       ?V1,R5
   \   000004   EA           MOV       A,R2
   \   000005                REQUIRE ??Subroutine236_0
   \   000005                ; // Fall through to label ??Subroutine236_0

   \                                 In  segment BANKED_CODE, align 1, keep-with-next
   \                     ?Subroutine140:
   \   000000   E5..         MOV       A,?V0
   \   000002   240B         ADD       A,#0xb
   \   000004   FA           MOV       R2,A
   \   000005   E4           CLR       A
   \   000006   35..         ADDC      A,?V1
   \   000008   FB           MOV       R3,A
   \   000009   7403         MOV       A,#0x3
   \   00000B   68           XRL       A,R0
   \   00000C   22           RET

   \                                 In  segment BANKED_CODE, align 1, keep-with-next
   \                     ?Subroutine137:
   \   000000   E5..         MOV       A,?V0
   \   000002   2414         ADD       A,#0x14
   \   000004   12....       LCALL     ?Subroutine184 & 0xFFFF
   \                     ??CrossCallReturnLabel_580:
   \   000007   22           RET

   \                                 In  segment BANKED_CODE, align 1, keep-with-next
   \                     ?Subroutine86:
   \   000000   8E82         MOV       DPL,R6
   \   000002   8F83         MOV       DPH,R7
   \   000004   E0           MOVX      A,@DPTR
   \   000005   FC           MOV       R4,A
   \   000006   A3           INC       DPTR
   \   000007   E0           MOVX      A,@DPTR
   \   000008   F9           MOV       R1,A
   \   000009   EC           MOV       A,R4
   \   00000A   8A82         MOV       DPL,R2
   \   00000C   8B83         MOV       DPH,R3
   \   00000E   22           RET

   \                                 In  segment BANKED_CODE, align 1, keep-with-next
   \                     ?Subroutine36:
   \   000000   EE           MOV       A,R6
   \   000001   FC           MOV       R4,A
   \   000002   EF           MOV       A,R7
   \   000003   FD           MOV       R5,A
   \   000004   AA..         MOV       R2,?V0
   \   000006   AB..         MOV       R3,?V1
   \   000008   12....       LCALL     ?Subroutine157 & 0xFFFF
   \                     ??CrossCallReturnLabel_480:
   \   00000B   85..82       MOV       DPL,?V0
   \   00000E   85..83       MOV       DPH,?V1
   \   000011   A3           INC       DPTR
   \   000012   A3           INC       DPTR
   \   000013   A3           INC       DPTR
   \   000014   A3           INC       DPTR
   \   000015   A3           INC       DPTR
   \   000016   A3           INC       DPTR
   \   000017   A3           INC       DPTR
   \   000018   A3           INC       DPTR
   \   000019                REQUIRE ??Subroutine251_0
   \   000019                ; // Fall through to label ??Subroutine251_0

   \                                 In  segment BANKED_CODE, align 1, keep-with-next
   \                     ?Subroutine10:
   \   000000   F582         MOV       DPL,A
   \   000002   12....       LCALL     ?Subroutine158 & 0xFFFF
   \                     ??CrossCallReturnLabel_247:
   \   000005   A3           INC       DPTR
   \   000006   A3           INC       DPTR
   \   000007   F0           MOVX      @DPTR,A
   \   000008   A3           INC       DPTR
   \   000009   E9           MOV       A,R1
   \   00000A   12....       LCALL     ?Subroutine155 & 0xFFFF
   \                     ??CrossCallReturnLabel_244:
   \   00000D   F8           MOV       R0,A
   \   00000E   E5..         MOV       A,?V0
   \   000010   12....       LCALL     ??Subroutine214_0 & 0xFFFF
   \                     ??CrossCallReturnLabel_372:
   \   000013   12....       LCALL     ??Subroutine247_0 & 0xFFFF
   \                     ??CrossCallReturnLabel_575:
   \   000016   E8           MOV       A,R0
   \   000017   F0           MOVX      @DPTR,A
   \   000018   EE           MOV       A,R6
   \   000019   2403         ADD       A,#0x3
   \   00001B   FE           MOV       R6,A
   \   00001C   22           RET

   \                                 In  segment BANKED_CODE, align 1, keep-with-next
   \                     ?Subroutine158:
   \   000000   8F83         MOV       DPH,R7
   \   000002   E0           MOVX      A,@DPTR
   \   000003   FA           MOV       R2,A
   \   000004   A3           INC       DPTR
   \   000005   E0           MOVX      A,@DPTR
   \   000006   F9           MOV       R1,A
   \   000007   EA           MOV       A,R2
   \   000008   85..82       MOV       DPL,?V0
   \   00000B   85..83       MOV       DPH,?V1
   \   00000E   A3           INC       DPTR
   \   00000F   A3           INC       DPTR
   \   000010   A3           INC       DPTR
   \   000011   A3           INC       DPTR
   \   000012   A3           INC       DPTR
   \   000013   A3           INC       DPTR
   \   000014   A3           INC       DPTR
   \   000015   22           RET
   2392          
   2393          /*********************************************************************
   2394           * @fn      ZDO_ParseAddrRsp
   2395           *
   2396           * @brief   Turns the inMsg (incoming message) into the out parsed
   2397           *          structure.
   2398           *
   2399           * @param   inMsg - incoming message
   2400           *
   2401           * @return  pointer to parsed structures.  This structure was 
   2402           *          allocated using osal_mem_alloc, so it must be freed
   2403           *          by the calling function [osal_mem_free()].
   2404           */

   \                                 In  segment BANKED_CODE, align 1, keep-with-next
   2405          ZDO_NwkIEEEAddrResp_t *ZDO_ParseAddrRsp( zdoIncomingMsg_t *inMsg )
   \                     ZDO_ParseAddrRsp:
   2406          {
   \   000000                REQUIRE ?V0
   \   000000                REQUIRE ?V1
   \   000000                REQUIRE ?V2
   \   000000                REQUIRE ?V3
   \   000000                REQUIRE ?V4
   \   000000                REQUIRE ?V5
   \   000000   74F2         MOV       A,#-0xe
   \   000002   12....       LCALL     ?BANKED_ENTER_XDATA
   \   000005                ; Saved register size: 14
   \   000005                ; Auto size: 0
   2407            ZDO_NwkIEEEAddrResp_t *rsp;
   2408            uint8 *msg;
   2409            byte cnt = 0;
   \   000005   75..00       MOV       ?V2,#0x0
   2410            
   2411            // Calculate the number of items in the list
   2412            if ( inMsg->asduLen > (1 + Z_EXTADDR_LEN + 2) )
   \   000008   EA           MOV       A,R2
   \   000009   2413         ADD       A,#0x13
   \   00000B   FE           MOV       R6,A
   \   00000C   E4           CLR       A
   \   00000D   3B           ADDC      A,R3
   \   00000E   FF           MOV       R7,A
   \   00000F   EA           MOV       A,R2
   \   000010   2410         ADD       A,#0x10
   \   000012   F582         MOV       DPL,A
   \   000014   E4           CLR       A
   \   000015   3B           ADDC      A,R3
   \   000016   F583         MOV       DPH,A
   \   000018   E0           MOVX      A,@DPTR
   \   000019   C3           CLR       C
   \   00001A   940C         SUBB      A,#0xc
   \   00001C   400E         JC        ??ZDO_ParseAddrRsp_0
   2413              cnt = inMsg->asdu[1 + Z_EXTADDR_LEN + 2];
   \   00001E   8E82         MOV       DPL,R6
   \   000020   8F83         MOV       DPH,R7
   \   000022   12....       LCALL     ??Subroutine240_0 & 0xFFFF
   \                     ??CrossCallReturnLabel_517:
   \   000025   240B         ADD       A,#0xb
   \   000027   12....       LCALL     ?Subroutine133 & 0xFFFF
   \                     ??CrossCallReturnLabel_213:
   \   00002A   F5..         MOV       ?V2,A
   2414            else 
   2415              cnt = 0;
   2416           
   2417            // Make buffer
   2418            rsp = (ZDO_NwkIEEEAddrResp_t *)osal_mem_alloc( sizeof(ZDO_NwkIEEEAddrResp_t) + (cnt * sizeof ( uint16 )) );
   \                     ??ZDO_ParseAddrRsp_0:
   \   00002C                ; Setup parameters for call to function osal_mem_alloc
   \   00002C   A8..         MOV       R0,?V2
   \   00002E   12....       LCALL     ?Subroutine175 & 0xFFFF
   \                     ??CrossCallReturnLabel_263:
   \   000031   E8           MOV       A,R0
   \   000032   240D         ADD       A,#0xd
   \   000034   12....       LCALL     ??Subroutine249_0 & 0xFFFF
   \                     ??CrossCallReturnLabel_588:
   \   000037   8A..         MOV       ?V0,R2
   \   000039   8B..         MOV       ?V1,R3
   2419            
   2420            if ( rsp )
   \   00003B   EA           MOV       A,R2
   \   00003C   4B           ORL       A,R3
   \   00003D   7003         JNZ       $+5
   \   00003F   02....       LJMP      ??ZDO_ParseAddrRsp_1 & 0xFFFF
   2421            {
   2422              msg = inMsg->asdu;
   \   000042   8E82         MOV       DPL,R6
   \   000044   8F83         MOV       DPH,R7
   \   000046   12....       LCALL     ??Subroutine237_0 & 0xFFFF
   2423            
   2424              rsp->status = *msg++;
   \                     ??CrossCallReturnLabel_499:
   \   000049   8E82         MOV       DPL,R6
   \   00004B   F583         MOV       DPH,A
   \   00004D   E0           MOVX      A,@DPTR
   \   00004E   F8           MOV       R0,A
   \   00004F   8A82         MOV       DPL,R2
   \   000051   8B83         MOV       DPH,R3
   \   000053   12....       LCALL     ?Subroutine33 & 0xFFFF
   2425              if ( rsp->status == ZDO_SUCCESS )
   \                     ??CrossCallReturnLabel_37:
   \   000056   707E         JNZ       ??ZDO_ParseAddrRsp_1
   2426              {
   2427                osal_cpyExtAddr( rsp->extAddr, msg );
   \   000058                ; Setup parameters for call to function sAddrExtCpy
   \   000058   EE           MOV       A,R6
   \   000059   FC           MOV       R4,A
   \   00005A   EF           MOV       A,R7
   \   00005B   FD           MOV       R5,A
   \   00005C   EA           MOV       A,R2
   \   00005D   2403         ADD       A,#0x3
   \   00005F   FA           MOV       R2,A
   \   000060   E4           CLR       A
   \   000061   35..         ADDC      A,?V1
   \   000063   FB           MOV       R3,A
   \   000064   12....       LCALL     `??sAddrExtCpy::?relay`; Banked call to: sAddrExtCpy
   2428                msg += Z_EXTADDR_LEN;
   \   000067   EE           MOV       A,R6
   \   000068   2408         ADD       A,#0x8
   \   00006A   FE           MOV       R6,A
   \   00006B   5001         JNC       ??ZDO_ParseAddrRsp_2
   \   00006D   0F           INC       R7
   2429                rsp->nwkAddr = BUILD_UINT16( msg[0], msg[1] );
   \                     ??ZDO_ParseAddrRsp_2:
   \   00006E   12....       LCALL     ?Subroutine76 & 0xFFFF
   \                     ??CrossCallReturnLabel_102:
   \   000071   A3           INC       DPTR
   \   000072   12....       LCALL     ??Subroutine255_0 & 0xFFFF
   2430          
   2431                msg += 2;
   2432                rsp->numAssocDevs = 0;
   \                     ??CrossCallReturnLabel_606:
   \   000075   E5..         MOV       A,?V0
   \   000077   240B         ADD       A,#0xb
   \   000079   F8           MOV       R0,A
   \   00007A   E4           CLR       A
   \   00007B   35..         ADDC      A,?V1
   \   00007D   F9           MOV       R1,A
   \   00007E   E8           MOV       A,R0
   \   00007F   FA           MOV       R2,A
   \   000080   E9           MOV       A,R1
   \   000081   FB           MOV       R3,A
   \   000082   8882         MOV       DPL,R0
   \   000084   F583         MOV       DPH,A
   \   000086   E4           CLR       A
   \   000087   F0           MOVX      @DPTR,A
   2433                
   2434                // StartIndex field is only present if NumAssocDev field is non-zero.
   2435                if ( cnt > 0 )
   \   000088   E5..         MOV       A,?V2
   \   00008A   604A         JZ        ??ZDO_ParseAddrRsp_1
   2436                {
   2437                  uint16 *pList = &(rsp->devList[0]);
   \   00008C   E5..         MOV       A,?V0
   \   00008E   240D         ADD       A,#0xd
   \   000090   F8           MOV       R0,A
   \   000091   E4           CLR       A
   \   000092   35..         ADDC      A,?V1
   \   000094   F9           MOV       R1,A
   2438                  byte n = cnt;
   2439                  
   2440                  rsp->numAssocDevs = *msg++;
   \   000095   8E82         MOV       DPL,R6
   \   000097   8F83         MOV       DPH,R7
   \   000099   A3           INC       DPTR
   \   00009A   12....       LCALL     ?Subroutine99 & 0xFFFF
   \                     ??CrossCallReturnLabel_511:
   \   00009D   12....       LCALL     ?Subroutine40 & 0xFFFF
   2441                  rsp->startIndex = *msg++;
   \                     ??CrossCallReturnLabel_47:
   \   0000A0   C0E0         PUSH      A
   \   0000A2   12....       LCALL     ?Subroutine138 & 0xFFFF
   \                     ??CrossCallReturnLabel_218:
   \   0000A5   D0E0         POP       A
   \   0000A7   F0           MOVX      @DPTR,A
   \   0000A8   EE           MOV       A,R6
   \   0000A9   2404         ADD       A,#0x4
   \   0000AB   FE           MOV       R6,A
   \   0000AC   5001         JNC       ??ZDO_ParseAddrRsp_3
   \   0000AE   0F           INC       R7
   \                     ??ZDO_ParseAddrRsp_3:
   \   0000AF   AC..         MOV       R4,?V2
   2442                  
   2443                  while ( n != 0 )
   2444                  {
   2445                    *pList++ = BUILD_UINT16( msg[0], msg[1] );
   \                     ??ZDO_ParseAddrRsp_4:
   \   0000B1   8E82         MOV       DPL,R6
   \   0000B3   8F83         MOV       DPH,R7
   \   0000B5   E0           MOVX      A,@DPTR
   \   0000B6   F5..         MOV       ?V2,A
   \   0000B8   A3           INC       DPTR
   \   0000B9   E0           MOVX      A,@DPTR
   \   0000BA   FB           MOV       R3,A
   \   0000BB   E5..         MOV       A,?V2
   \   0000BD   8882         MOV       DPL,R0
   \   0000BF   8983         MOV       DPH,R1
   \   0000C1   12....       LCALL     ??Subroutine207_0 & 0xFFFF
   \                     ??CrossCallReturnLabel_325:
   \   0000C4   E8           MOV       A,R0
   \   0000C5   2402         ADD       A,#0x2
   \   0000C7   F8           MOV       R0,A
   \   0000C8   5001         JNC       ??ZDO_ParseAddrRsp_5
   \   0000CA   09           INC       R1
   2446                    msg += sizeof( uint16 );
   \                     ??ZDO_ParseAddrRsp_5:
   \   0000CB   EE           MOV       A,R6
   \   0000CC   2402         ADD       A,#0x2
   \   0000CE   FE           MOV       R6,A
   \   0000CF   5001         JNC       ??ZDO_ParseAddrRsp_6
   \   0000D1   0F           INC       R7
   2447                    n--;
   2448                  }
   \                     ??ZDO_ParseAddrRsp_6:
   \   0000D2   1C           DEC       R4
   \   0000D3   EC           MOV       A,R4
   \   0000D4   70DB         JNZ       ??ZDO_ParseAddrRsp_4
   2449                }
   2450              }
   2451            }
   2452            return ( rsp );
   \                     ??ZDO_ParseAddrRsp_1:
   \   0000D6   AA..         MOV       R2,?V0
   \   0000D8   AB..         MOV       R3,?V1
   \   0000DA   02....       LJMP      ??Subroutine218_0 & 0xFFFF
   2453          }

   \                                 In  segment BANKED_CODE, align 1, keep-with-next
   \                     ?Subroutine138:
   \   000000   E5..         MOV       A,?V0
   \   000002   240C         ADD       A,#0xc
   \   000004   12....       LCALL     ?Subroutine184 & 0xFFFF
   \                     ??CrossCallReturnLabel_581:
   \   000007   22           RET

   \                                 In  segment BANKED_CODE, align 1, keep-with-next
   \                     ?Subroutine76:
   \   000000   12....       LCALL     ?Subroutine173 & 0xFFFF
   \                     ??CrossCallReturnLabel_641:
   \   000003   F9           MOV       R1,A
   \   000004   EA           MOV       A,R2
   \   000005   85..82       MOV       DPL,?V0
   \   000008   85..83       MOV       DPH,?V1
   \   00000B   22           RET

   \                                 In  segment BANKED_CODE, align 1, keep-with-next
   \                     ??Subroutine249_0:
   \   000000   FA           MOV       R2,A
   \   000001   E4           CLR       A
   \   000002   39           ADDC      A,R1
   \   000003   FB           MOV       R3,A
   \   000004   12....       LCALL     `??osal_mem_alloc::?relay`; Banked call to: osal_mem_alloc
   \   000007   22           RET

   \                                 In  segment BANKED_CODE, align 1, keep-with-next
   \                     ?Subroutine40:
   \   000000   12....       LCALL     ?Subroutine188 & 0xFFFF
   \                     ??CrossCallReturnLabel_281:
   \   000003   E0           MOVX      A,@DPTR
   \   000004   22           RET
   2454          
   2455          /*********************************************************************
   2456           * @fn          ZDO_ParseNodeDescRsp
   2457           *
   2458           * @brief       This function parses the Node_Desc_rsp message.
   2459           *
   2460           * @param       inMsg - incoming message
   2461           * @param       pNDRsp - place to parse the message into
   2462           *
   2463           * @return      none
   2464           */

   \                                 In  segment BANKED_CODE, align 1, keep-with-next
   \                     ?Subroutine181:
   \   000000   EA           MOV       A,R2
   \   000001                REQUIRE ??Subroutine203_0
   \   000001                ; // Fall through to label ??Subroutine203_0

   \                                 In  segment BANKED_CODE, align 1, keep-with-next
   2465          void ZDO_ParseNodeDescRsp( zdoIncomingMsg_t *inMsg, ZDO_NodeDescRsp_t *pNDRsp )
   \                     ZDO_ParseNodeDescRsp:
   2466          {
   \   000000                REQUIRE ?V0
   \   000000                REQUIRE ?V1
   \   000000   74F6         MOV       A,#-0xa
   \   000002   12....       LCALL     ?BANKED_ENTER_XDATA
   \   000005                ; Saved register size: 10
   \   000005                ; Auto size: 0
   2467            uint8 *msg;
   2468            
   2469            msg = inMsg->asdu;
   \   000005   12....       LCALL     ?Subroutine9 & 0xFFFF
   2470            
   2471            pNDRsp->status = *msg++;
   2472            pNDRsp->nwkAddr = BUILD_UINT16( msg[0], msg[1] );
   2473          
   2474            if ( pNDRsp->status == ZDP_SUCCESS )
   \                     ??CrossCallReturnLabel_2:
   \   000008   6003         JZ        $+5
   \   00000A   02....       LJMP      ??ZDO_ParseNodeDescRsp_0 & 0xFFFF
   2475            {
   2476              msg += 2;
   2477              pNDRsp->nodeDesc.LogicalType = *msg & 0x07;
   \   00000D   E8           MOV       A,R0
   \   00000E   2402         ADD       A,#0x2
   \   000010   FA           MOV       R2,A
   \   000011   E4           CLR       A
   \   000012   39           ADDC      A,R1
   \   000013   FB           MOV       R3,A
   \   000014   EC           MOV       A,R4
   \   000015   2403         ADD       A,#0x3
   \   000017   FE           MOV       R6,A
   \   000018   E4           CLR       A
   \   000019   3D           ADDC      A,R5
   \   00001A   FF           MOV       R7,A
   \   00001B   8A82         MOV       DPL,R2
   \   00001D   8B83         MOV       DPH,R3
   \   00001F   E0           MOVX      A,@DPTR
   \   000020   5407         ANL       A,#0x7
   \   000022   F5..         MOV       ?V0,A
   \   000024   8E82         MOV       DPL,R6
   \   000026   8F83         MOV       DPH,R7
   \   000028   E0           MOVX      A,@DPTR
   \   000029   54F8         ANL       A,#0xf8
   \   00002B   45..         ORL       A,?V0
   \   00002D   F5..         MOV       ?V1,A
   \   00002F   12....       LCALL     ?Subroutine37 & 0xFFFF
   2478          
   2479              pNDRsp->nodeDesc.ComplexDescAvail = ( *msg & 0x08 ) >> 3;
   \                     ??CrossCallReturnLabel_38:
   \   000032   A2E3         MOV       C,0xE0 /* A   */.3
   \   000034   E4           CLR       A
   \   000035   33           RLC       A
   \   000036   F5..         MOV       ?V0,A
   \   000038   A2E0         MOV       C,0xE0 /* A   */.0
   \   00003A   E4           CLR       A
   \   00003B   33           RLC       A
   \   00003C   33           RLC       A
   \   00003D   33           RLC       A
   \   00003E   33           RLC       A
   \   00003F   F5..         MOV       ?V0,A
   \   000041   74F7         MOV       A,#-0x9
   \   000043   55..         ANL       A,?V1
   \   000045   45..         ORL       A,?V0
   \   000047   8E82         MOV       DPL,R6
   \   000049   8F83         MOV       DPH,R7
   \   00004B   12....       LCALL     ?Subroutine37 & 0xFFFF
   2480              pNDRsp->nodeDesc.UserDescAvail = ( *msg & 0x10 ) >> 4;
   \                     ??CrossCallReturnLabel_39:
   \   00004E   A2E4         MOV       C,0xE0 /* A   */.4
   \   000050   E4           CLR       A
   \   000051   33           RLC       A
   \   000052   FA           MOV       R2,A
   \   000053   A2E0         MOV       C,0xE0 /* A   */.0
   \   000055   E4           CLR       A
   \   000056   33           RLC       A
   \   000057   C4           SWAP      A
   \   000058   FA           MOV       R2,A
   \   000059   8E82         MOV       DPL,R6
   \   00005B   8F83         MOV       DPH,R7
   \   00005D   E0           MOVX      A,@DPTR
   \   00005E   54EF         ANL       A,#0xef
   \   000060   4A           ORL       A,R2
   \   000061   F0           MOVX      @DPTR,A
   2481              
   2482              msg++;  // Reserved bits.
   2483              pNDRsp->nodeDesc.FrequencyBand = (*msg >> 3) & 0x1f;
   \   000062   E8           MOV       A,R0
   \   000063   2403         ADD       A,#0x3
   \   000065   FA           MOV       R2,A
   \   000066   E4           CLR       A
   \   000067   39           ADDC      A,R1
   \   000068   FB           MOV       R3,A
   \   000069   EC           MOV       A,R4
   \   00006A   2404         ADD       A,#0x4
   \   00006C   0E           INC       R6
   \   00006D   E4           CLR       A
   \   00006E   3D           ADDC      A,R5
   \   00006F   FF           MOV       R7,A
   \   000070   8A82         MOV       DPL,R2
   \   000072   8B83         MOV       DPH,R3
   \   000074   E0           MOVX      A,@DPTR
   \   000075   54F8         ANL       A,#0xf8
   \   000077   F5..         MOV       ?V0,A
   \   000079   8E82         MOV       DPL,R6
   \   00007B   8F83         MOV       DPH,R7
   \   00007D   E0           MOVX      A,@DPTR
   \   00007E   5407         ANL       A,#0x7
   \   000080   45..         ORL       A,?V0
   \   000082   F5..         MOV       ?V0,A
   \   000084   12....       LCALL     ?Subroutine37 & 0xFFFF
   2484              pNDRsp->nodeDesc.APSFlags = *msg++ & 0x07;
   \                     ??CrossCallReturnLabel_40:
   \   000087   5407         ANL       A,#0x7
   \   000089   FA           MOV       R2,A
   \   00008A   74F8         MOV       A,#-0x8
   \   00008C   55..         ANL       A,?V0
   \   00008E   4A           ORL       A,R2
   \   00008F   8E82         MOV       DPL,R6
   \   000091   8F83         MOV       DPH,R7
   \   000093   12....       LCALL     ?Subroutine31 & 0xFFFF
   2485              pNDRsp->nodeDesc.CapabilityFlags = *msg++;
   \                     ??CrossCallReturnLabel_31:
   \   000096   8C82         MOV       DPL,R4
   \   000098   8D83         MOV       DPH,R5
   \   00009A   A3           INC       DPTR
   \   00009B   A3           INC       DPTR
   \   00009C   A3           INC       DPTR
   \   00009D   A3           INC       DPTR
   \   00009E   A3           INC       DPTR
   \   00009F   12....       LCALL     ?Subroutine32 & 0xFFFF
   2486              pNDRsp->nodeDesc.ManufacturerCode[0] = *msg++;
   \                     ??CrossCallReturnLabel_34:
   \   0000A2   A3           INC       DPTR
   \   0000A3   A3           INC       DPTR
   \   0000A4   12....       LCALL     ??Subroutine246_0 & 0xFFFF
   \                     ??CrossCallReturnLabel_569:
   \   0000A7   12....       LCALL     ?Subroutine30 & 0xFFFF
   2487              pNDRsp->nodeDesc.ManufacturerCode[1] = *msg++;
   \                     ??CrossCallReturnLabel_29:
   \   0000AA   12....       LCALL     ?Subroutine77 & 0xFFFF
   \                     ??CrossCallReturnLabel_105:
   \   0000AD   12....       LCALL     ?Subroutine30 & 0xFFFF
   2488              pNDRsp->nodeDesc.MaxBufferSize = *msg++;
   \                     ??CrossCallReturnLabel_30:
   \   0000B0   A3           INC       DPTR
   \   0000B1   12....       LCALL     ??Subroutine246_0 & 0xFFFF
   \                     ??CrossCallReturnLabel_570:
   \   0000B4   12....       LCALL     ?Subroutine20 & 0xFFFF
   2489              pNDRsp->nodeDesc.MaxInTransferSize[0] = *msg++;
   \                     ??CrossCallReturnLabel_17:
   \   0000B7   12....       LCALL     ?Subroutine77 & 0xFFFF
   \                     ??CrossCallReturnLabel_106:
   \   0000BA   12....       LCALL     ?Subroutine20 & 0xFFFF
   2490              pNDRsp->nodeDesc.MaxInTransferSize[1] = *msg++;
   \                     ??CrossCallReturnLabel_18:
   \   0000BD   A3           INC       DPTR
   \   0000BE   12....       LCALL     ?Subroutine77 & 0xFFFF
   \                     ??CrossCallReturnLabel_107:
   \   0000C1   A3           INC       DPTR
   \   0000C2   A3           INC       DPTR
   \   0000C3   A3           INC       DPTR
   \   0000C4   A3           INC       DPTR
   \   0000C5   A3           INC       DPTR
   \   0000C6   A3           INC       DPTR
   \   0000C7   A3           INC       DPTR
   \   0000C8   A3           INC       DPTR
   \   0000C9   A3           INC       DPTR
   \   0000CA   F0           MOVX      @DPTR,A
   \   0000CB   E8           MOV       A,R0
   \   0000CC   240A         ADD       A,#0xa
   \   0000CE   F8           MOV       R0,A
   \   0000CF   5001         JNC       ??ZDO_ParseNodeDescRsp_1
   \   0000D1   09           INC       R1
   2491              pNDRsp->nodeDesc.ServerMask = BUILD_UINT16( msg[0], msg[1] );
   \                     ??ZDO_ParseNodeDescRsp_1:
   \   0000D2   F582         MOV       DPL,A
   \   0000D4   8983         MOV       DPH,R1
   \   0000D6   12....       LCALL     ?Subroutine174 & 0xFFFF
   \                     ??CrossCallReturnLabel_502:
   \   0000D9   FB           MOV       R3,A
   \   0000DA   EC           MOV       A,R4
   \   0000DB   240B         ADD       A,#0xb
   \   0000DD   F582         MOV       DPL,A
   \   0000DF   E4           CLR       A
   \   0000E0   3D           ADDC      A,R5
   \   0000E1   F583         MOV       DPH,A
   \   0000E3   EE           MOV       A,R6
   \   0000E4   12....       LCALL     ??Subroutine207_0 & 0xFFFF
   2492              msg += 2;
   2493              pNDRsp->nodeDesc.MaxOutTransferSize[0] = *msg++;
   \                     ??CrossCallReturnLabel_326:
   \   0000E7   8882         MOV       DPL,R0
   \   0000E9   8983         MOV       DPH,R1
   \   0000EB   A3           INC       DPTR
   \   0000EC   A3           INC       DPTR
   \   0000ED   E0           MOVX      A,@DPTR
   \   0000EE   C0E0         PUSH      A
   \   0000F0   EC           MOV       A,R4
   \   0000F1   240D         ADD       A,#0xd
   \   0000F3   F582         MOV       DPL,A
   \   0000F5   E4           CLR       A
   \   0000F6   3D           ADDC      A,R5
   \   0000F7   F583         MOV       DPH,A
   \   0000F9   D0E0         POP       A
   \   0000FB   12....       LCALL     ?Subroutine32 & 0xFFFF
   2494              pNDRsp->nodeDesc.MaxOutTransferSize[1] = *msg++;
   2495              pNDRsp->nodeDesc.DescriptorCapability = *msg;
   2496            }
   \                     ??CrossCallReturnLabel_35:
   \   0000FE   E0           MOVX      A,@DPTR
   \   0000FF   C0E0         PUSH      A
   \   000101   EC           MOV       A,R4
   \   000102   12....       LCALL     ??Subroutine232_0 & 0xFFFF
   \                     ??CrossCallReturnLabel_455:
   \   000105   3D           ADDC      A,R5
   \   000106   F583         MOV       DPH,A
   \   000108   D0E0         POP       A
   \   00010A   12....       LCALL     ?Subroutine31 & 0xFFFF
   \                     ??CrossCallReturnLabel_32:
   \   00010D   C0E0         PUSH      A
   \   00010F   EC           MOV       A,R4
   \   000110   12....       LCALL     ?Subroutine130 & 0xFFFF
   \                     ??CrossCallReturnLabel_203:
   \   000113   3D           ADDC      A,R5
   \   000114   F583         MOV       DPH,A
   \   000116   D0E0         POP       A
   \   000118   F0           MOVX      @DPTR,A
   2497          }
   \                     ??ZDO_ParseNodeDescRsp_0:
   \   000119   02....       LJMP      ??Subroutine198_0 & 0xFFFF

   \                                 In  segment BANKED_CODE, align 1, keep-with-next
   \                     ?Subroutine37:
   \   000000   F0           MOVX      @DPTR,A
   \   000001   8A82         MOV       DPL,R2
   \   000003   8B83         MOV       DPH,R3
   \   000005   E0           MOVX      A,@DPTR
   \   000006   22           RET

   \                                 In  segment BANKED_CODE, align 1, keep-with-next
   \                     ?Subroutine31:
   \   000000   12....       LCALL     ?Subroutine156 & 0xFFFF
   \                     ??CrossCallReturnLabel_246:
   \   000003   A3           INC       DPTR
   \   000004   E0           MOVX      A,@DPTR
   \   000005   22           RET

   \                                 In  segment BANKED_CODE, align 1, keep-with-next
   \                     ?Subroutine30:
   \   000000   12....       LCALL     ?Subroutine150 & 0xFFFF
   \                     ??CrossCallReturnLabel_236:
   \   000003   22           RET

   \                                 In  segment BANKED_CODE, align 1, keep-with-next
   \                     ?Subroutine150:
   \   000000   A3           INC       DPTR
   \   000001   A3           INC       DPTR
   \   000002   A3           INC       DPTR
   \   000003   A3           INC       DPTR
   \   000004   A3           INC       DPTR
   \   000005   A3           INC       DPTR
   \   000006   12....       LCALL     ?Subroutine189 & 0xFFFF
   \                     ??CrossCallReturnLabel_283:
   \   000009   A3           INC       DPTR
   \   00000A   A3           INC       DPTR
   \   00000B   A3           INC       DPTR
   \   00000C   22           RET

   \                                 In  segment BANKED_CODE, align 1, keep-with-next
   \                     ?Subroutine20:
   \   000000   A3           INC       DPTR
   \   000001   A3           INC       DPTR
   \   000002   12....       LCALL     ?Subroutine150 & 0xFFFF
   \                     ??CrossCallReturnLabel_237:
   \   000005   A3           INC       DPTR
   \   000006   A3           INC       DPTR
   \   000007   22           RET

   \                                 In  segment BANKED_CODE, align 1, keep-with-next
   \                     ?Subroutine9:
   \   000000   12....       LCALL     ?Subroutine181 & 0xFFFF
   \                     ??CrossCallReturnLabel_492:
   \   000003   12....       LCALL     ?Subroutine165 & 0xFFFF
   \                     ??CrossCallReturnLabel_470:
   \   000006   8882         MOV       DPL,R0
   \   000008   12....       LCALL     ?Subroutine164 & 0xFFFF
   \                     ??CrossCallReturnLabel_573:
   \   00000B   F0           MOVX      @DPTR,A
   \   00000C   8882         MOV       DPL,R0
   \   00000E   8983         MOV       DPH,R1
   \   000010   A3           INC       DPTR
   \   000011   A882         MOV       R0,DPL
   \   000013   A983         MOV       R1,DPH
   \   000015   12....       LCALL     ?Subroutine174 & 0xFFFF
   \                     ??CrossCallReturnLabel_504:
   \   000018   FB           MOV       R3,A
   \   000019   EE           MOV       A,R6
   \   00001A   8C82         MOV       DPL,R4
   \   00001C   8D83         MOV       DPH,R5
   \   00001E   A3           INC       DPTR
   \   00001F   F0           MOVX      @DPTR,A
   \   000020   A3           INC       DPTR
   \   000021   EB           MOV       A,R3
   \   000022   F0           MOVX      @DPTR,A
   \   000023   8C82         MOV       DPL,R4
   \   000025   8D83         MOV       DPH,R5
   \   000027   E0           MOVX      A,@DPTR
   \   000028   22           RET
   2498          
   2499          /*********************************************************************
   2500           * @fn          ZDO_ParesPowerDescRsp
   2501           *
   2502           * @brief       This function parses the Power_Desc_rsp message.
   2503           *
   2504           * @param       inMsg  - incoming message
   2505           * @param       pNPRsp - place to parse the message into
   2506           *
   2507           * @return      none
   2508           */

   \                                 In  segment BANKED_CODE, align 1, keep-with-next
   2509          void ZDO_ParsePowerDescRsp( zdoIncomingMsg_t *inMsg, ZDO_PowerRsp_t *pNPRsp )
   \                     ZDO_ParsePowerDescRsp:
   2510          {
   \   000000                REQUIRE ?V0
   \   000000                REQUIRE ?V1
   \   000000                REQUIRE ?V2
   \   000000                REQUIRE ?V3
   \   000000   74F4         MOV       A,#-0xc
   \   000002   12....       LCALL     ?BANKED_ENTER_XDATA
   \   000005                ; Saved register size: 12
   \   000005                ; Auto size: 0
   2511            uint8 *msg;
   2512            
   2513            msg = inMsg->asdu;
   \   000005   12....       LCALL     ?Subroutine121 & 0xFFFF
   \                     ??CrossCallReturnLabel_181:
   \   000008   12....       LCALL     ??Subroutine212_0 & 0xFFFF
   2514            pNPRsp->status = *msg++;
   \                     ??CrossCallReturnLabel_364:
   \   00000B   12....       LCALL     ?Subroutine28 & 0xFFFF
   \                     ??CrossCallReturnLabel_555:
   \   00000E   AA82         MOV       R2,DPL
   \   000010   AB83         MOV       R3,DPH
   2515            pNPRsp->nwkAddr = BUILD_UINT16( msg[0], msg[1] );
   \   000012   12....       LCALL     ?Subroutine174 & 0xFFFF
   \                     ??CrossCallReturnLabel_503:
   \   000015   F9           MOV       R1,A
   \   000016   EE           MOV       A,R6
   \   000017   8C82         MOV       DPL,R4
   \   000019   8D83         MOV       DPH,R5
   \   00001B   A3           INC       DPTR
   \   00001C   12....       LCALL     ??Subroutine255_0 & 0xFFFF
   2516          
   2517            if ( pNPRsp->status == ZDP_SUCCESS )
   \                     ??CrossCallReturnLabel_607:
   \   00001F   8C82         MOV       DPL,R4
   \   000021   8D83         MOV       DPH,R5
   \   000023   E0           MOVX      A,@DPTR
   \   000024   6003         JZ        $+5
   \   000026   02....       LJMP      ??ZDO_ParsePowerDescRsp_0 & 0xFFFF
   2518            {
   2519              msg += 2;
   2520              pNPRsp->pwrDesc.AvailablePowerSources = *msg >> 4;
   \   000029   EA           MOV       A,R2
   \   00002A   2402         ADD       A,#0x2
   \   00002C   F8           MOV       R0,A
   \   00002D   E4           CLR       A
   \   00002E   3B           ADDC      A,R3
   \   00002F   F9           MOV       R1,A
   \   000030   E8           MOV       A,R0
   \   000031   FE           MOV       R6,A
   \   000032   E9           MOV       A,R1
   \   000033   FF           MOV       R7,A
   \   000034   EC           MOV       A,R4
   \   000035   2403         ADD       A,#0x3
   \   000037   E4           CLR       A
   \   000038   3D           ADDC      A,R5
   \   000039   0C           INC       R4
   \   00003A   0C           INC       R4
   \   00003B   0C           INC       R4
   \   00003C   FD           MOV       R5,A
   \   00003D   8C82         MOV       DPL,R4
   \   00003F   F583         MOV       DPH,A
   \   000041   E0           MOVX      A,@DPTR
   \   000042   540F         ANL       A,#0xf
   \   000044   F5..         MOV       ?V2,A
   \   000046   A3           INC       DPTR
   \   000047   E0           MOVX      A,@DPTR
   \   000048   12....       LCALL     ?Subroutine100 & 0xFFFF
   \                     ??CrossCallReturnLabel_141:
   \   00004B   7404         MOV       A,#0x4
   \   00004D   78..         MOV       R0,#?V0
   \   00004F   12....       LCALL     ?S_SHL
   \   000052   E5..         MOV       A,?V2
   \   000054   45..         ORL       A,?V0
   \   000056   F8           MOV       R0,A
   \   000057   A9..         MOV       R1,?V3
   \   000059   8C82         MOV       DPL,R4
   \   00005B   8D83         MOV       DPH,R5
   \   00005D   12....       LCALL     ??Subroutine255_0 & 0xFFFF
   2521              pNPRsp->pwrDesc.PowerMode = *msg++ & 0x0F;
   \                     ??CrossCallReturnLabel_608:
   \   000060   E8           MOV       A,R0
   \   000061   54F0         ANL       A,#0xf0
   \   000063   F8           MOV       R0,A
   \   000064   8E82         MOV       DPL,R6
   \   000066   8F83         MOV       DPH,R7
   \   000068   E0           MOVX      A,@DPTR
   \   000069   540F         ANL       A,#0xf
   \   00006B   FE           MOV       R6,A
   \   00006C   E8           MOV       A,R0
   \   00006D   4E           ORL       A,R6
   \   00006E   F5..         MOV       ?V0,A
   \   000070   E9           MOV       A,R1
   \   000071   F5..         MOV       ?V1,A
   \   000073   8C82         MOV       DPL,R4
   \   000075   8D83         MOV       DPH,R5
   \   000077   E5..         MOV       A,?V0
   \   000079   12....       LCALL     ??Subroutine255_0 & 0xFFFF
   2522              pNPRsp->pwrDesc.CurrentPowerSourceLevel = *msg >> 4;
   \                     ??CrossCallReturnLabel_609:
   \   00007C   EA           MOV       A,R2
   \   00007D   2403         ADD       A,#0x3
   \   00007F   F8           MOV       R0,A
   \   000080   E4           CLR       A
   \   000081   3B           ADDC      A,R3
   \   000082   F9           MOV       R1,A
   \   000083   E8           MOV       A,R0
   \   000084   FE           MOV       R6,A
   \   000085   E9           MOV       A,R1
   \   000086   FF           MOV       R7,A
   \   000087   E5..         MOV       A,?V0
   \   000089   F5..         MOV       ?V2,A
   \   00008B   E5..         MOV       A,?V1
   \   00008D   540F         ANL       A,#0xf
   \   00008F   12....       LCALL     ?Subroutine100 & 0xFFFF
   2523              pNPRsp->pwrDesc.CurrentPowerSource = *msg++ & 0x0F;
   2524            }
   \                     ??CrossCallReturnLabel_142:
   \   000092   740C         MOV       A,#0xc
   \   000094   78..         MOV       R0,#?V0
   \   000096   12....       LCALL     ?S_SHL
   \   000099   E5..         MOV       A,?V3
   \   00009B   45..         ORL       A,?V1
   \   00009D   F9           MOV       R1,A
   \   00009E   8C82         MOV       DPL,R4
   \   0000A0   8D83         MOV       DPH,R5
   \   0000A2   E5..         MOV       A,?V2
   \   0000A4   F0           MOVX      @DPTR,A
   \   0000A5   A3           INC       DPTR
   \   0000A6   E9           MOV       A,R1
   \   0000A7   12....       LCALL     ??Subroutine243_0 & 0xFFFF
   \                     ??CrossCallReturnLabel_560:
   \   0000AA   540F         ANL       A,#0xf
   \   0000AC   F8           MOV       R0,A
   \   0000AD   EA           MOV       A,R2
   \   0000AE   2404         ADD       A,#0x4
   \   0000B0   8C82         MOV       DPL,R4
   \   0000B2   8D83         MOV       DPH,R5
   \   0000B4   A3           INC       DPTR
   \   0000B5   E0           MOVX      A,@DPTR
   \   0000B6   54F0         ANL       A,#0xf0
   \   0000B8   F0           MOVX      @DPTR,A
   \   0000B9   E8           MOV       A,R0
   \   0000BA   F9           MOV       R1,A
   \   0000BB   8C82         MOV       DPL,R4
   \   0000BD   8D83         MOV       DPH,R5
   \   0000BF   A3           INC       DPTR
   \   0000C0   E0           MOVX      A,@DPTR
   \   0000C1   49           ORL       A,R1
   \   0000C2   F0           MOVX      @DPTR,A
   2525          }
   \                     ??ZDO_ParsePowerDescRsp_0:
   \   0000C3   02....       LJMP      ?Subroutine1 & 0xFFFF

   \                                 In  segment BANKED_CODE, align 1, keep-with-next
   \                     ?Subroutine100:
   \   000000   F5..         MOV       ?V3,A
   \   000002   8882         MOV       DPL,R0
   \   000004   8983         MOV       DPH,R1
   \   000006   E0           MOVX      A,@DPTR
   \   000007   C4           SWAP      A
   \   000008   540F         ANL       A,#0xf
   \   00000A   F5..         MOV       ?V0,A
   \   00000C   75..00       MOV       ?V1,#0x0
   \   00000F   22           RET

   \                                 In  segment BANKED_CODE, align 1, keep-with-next
   \                     ?Subroutine28:
   \   000000   8A82         MOV       DPL,R2
   \   000002                REQUIRE ??Subroutine241_0
   \   000002                ; // Fall through to label ??Subroutine241_0

   \                                 In  segment BANKED_CODE, align 1, keep-with-next
   \                     ?Subroutine121:
   \   000000   12....       LCALL     ?Subroutine180 & 0xFFFF
   \                     ??CrossCallReturnLabel_273:
   \   000003   22           RET
   2526          
   2527          /*********************************************************************
   2528           * @fn          ZDO_ParseSimpleDescRsp
   2529           *
   2530           * @brief       This function parse the Simple_Desc_rsp message.
   2531           *
   2532           *   NOTE: The pAppInClusterList and pAppOutClusterList fields
   2533           *         in the SimpleDescriptionFormat_t structure are allocated
   2534           *         and the calling function needs to free [osal_msg_free()]
   2535           *         these buffers.
   2536           *
   2537           * @param       inMsg  - incoming message
   2538           * @param       pSimpleDescRsp - place to parse the message into
   2539           *
   2540           * @return      none
   2541           */

   \                                 In  segment BANKED_CODE, align 1, keep-with-next
   2542          void ZDO_ParseSimpleDescRsp( zdoIncomingMsg_t *inMsg, ZDO_SimpleDescRsp_t *pSimpleDescRsp )
   \                     ZDO_ParseSimpleDescRsp:
   2543          {
   \   000000   74F7         MOV       A,#-0x9
   \   000002   12....       LCALL     ?BANKED_ENTER_XDATA
   \   000005                ; Saved register size: 9
   \   000005                ; Auto size: 0
   2544            uint8 *msg;
   2545          
   2546            msg = inMsg->asdu;
   \   000005   12....       LCALL     ?Subroutine9 & 0xFFFF
   2547            pSimpleDescRsp->status = *msg++;
   2548            pSimpleDescRsp->nwkAddr = BUILD_UINT16( msg[0], msg[1] );
   2549            msg += sizeof ( uint16 );
   2550            msg++; // Skip past the length field.
   2551            
   2552            if ( pSimpleDescRsp->status == ZDP_SUCCESS )
   \                     ??CrossCallReturnLabel_3:
   \   000008   7011         JNZ       ??ZDO_ParseSimpleDescRsp_0
   2553            {
   2554              ZDO_ParseSimpleDescBuf( msg, &(pSimpleDescRsp->simpleDesc) );
   \   00000A                ; Setup parameters for call to function ZDO_ParseSimpleDescBuf
   \   00000A   EC           MOV       A,R4
   \   00000B   2403         ADD       A,#0x3
   \   00000D   FC           MOV       R4,A
   \   00000E   5001         JNC       ??ZDO_ParseSimpleDescRsp_1
   \   000010   0D           INC       R5
   \                     ??ZDO_ParseSimpleDescRsp_1:
   \   000011   E8           MOV       A,R0
   \   000012   2403         ADD       A,#0x3
   \   000014   FA           MOV       R2,A
   \   000015   E4           CLR       A
   \   000016   39           ADDC      A,R1
   \   000017   FB           MOV       R3,A
   \   000018   12....       LCALL     `??ZDO_ParseSimpleDescBuf::?relay`; Banked call to: ZDO_ParseSimpleDescBuf
   2555            }
   2556          }
   \                     ??ZDO_ParseSimpleDescRsp_0:
   \   00001B                REQUIRE ?Subroutine5
   \   00001B                ; // Fall through to label ?Subroutine5

   \                                 In  segment BANKED_CODE, align 1, keep-with-next
   \                     ?Subroutine5:
   \   000000   7F01         MOV       R7,#0x1
   \   000002   02....       LJMP      ?BANKED_LEAVE_XDATA
   2557          
   2558          /*********************************************************************
   2559           * @fn          ZDO_ParseEPListRsp
   2560           *
   2561           * @brief       This parse the Active_EP_rsp or Match_Desc_rsp message.
   2562           *
   2563           * @param       inMsg  - incoming message
   2564           *
   2565           * @return      none
   2566           */

   \                                 In  segment BANKED_CODE, align 1, keep-with-next
   \                     ?Subroutine93:
   \   000000   12....       LCALL     ?Subroutine181 & 0xFFFF
   \                     ??CrossCallReturnLabel_493:
   \   000003                REQUIRE ??Subroutine201_0
   \   000003                ; // Fall through to label ??Subroutine201_0

   \                                 In  segment BANKED_CODE, align 1, keep-with-next
   2567          ZDO_ActiveEndpointRsp_t *ZDO_ParseEPListRsp( zdoIncomingMsg_t *inMsg )
   \                     ZDO_ParseEPListRsp:
   2568          {
   \   000000                REQUIRE ?V0
   \   000000                REQUIRE ?V1
   \   000000                REQUIRE ?V2
   \   000000                REQUIRE ?V3
   \   000000                REQUIRE ?V4
   \   000000                REQUIRE ?V5
   \   000000                REQUIRE ?V6
   \   000000                REQUIRE ?V7
   \   000000   74F0         MOV       A,#-0x10
   \   000002   12....       LCALL     ?BANKED_ENTER_XDATA
   \   000005                ; Saved register size: 16
   \   000005                ; Auto size: 0
   2569            ZDO_ActiveEndpointRsp_t *pRsp;
   2570            uint8 *msg;
   2571            uint8 Status;
   2572            uint8 cnt;
   2573            
   2574            msg = inMsg->asdu;
   \   000005   12....       LCALL     ?Subroutine93 & 0xFFFF
   2575            Status = *msg++;
   \                     ??CrossCallReturnLabel_313:
   \   000008   85..82       MOV       DPL,?V0
   \   00000B   F583         MOV       DPH,A
   \   00000D   E0           MOVX      A,@DPTR
   \   00000E   F5..         MOV       ?V7,A
   \   000010   A3           INC       DPTR
   \   000011   8582..       MOV       ?V0,DPL
   \   000014   8583..       MOV       ?V1,DPH
   2576            cnt = msg[2];
   \   000017   A3           INC       DPTR
   \   000018   A3           INC       DPTR
   \   000019   E0           MOVX      A,@DPTR
   \   00001A   F5..         MOV       ?V6,A
   2577            
   2578            pRsp = (ZDO_ActiveEndpointRsp_t *)osal_mem_alloc( sizeof(  ZDO_ActiveEndpointRsp_t ) + cnt );
   \   00001C   FE           MOV       R6,A
   \   00001D                ; Setup parameters for call to function osal_mem_alloc
   \   00001D   12....       LCALL     ?Subroutine134 & 0xFFFF
   \                     ??CrossCallReturnLabel_566:
   \   000020   8A..         MOV       ?V4,R2
   \   000022   8B..         MOV       ?V5,R3
   2579            if ( pRsp )
   \   000024   EA           MOV       A,R2
   \   000025   4B           ORL       A,R3
   \   000026   6047         JZ        ??ZDO_ParseEPListRsp_0
   2580            {
   2581              pRsp->status = Status;
   \   000028   8A82         MOV       DPL,R2
   \   00002A   8B83         MOV       DPH,R3
   \   00002C   E5..         MOV       A,?V7
   \   00002E   F0           MOVX      @DPTR,A
   2582              pRsp->nwkAddr = BUILD_UINT16( msg[0], msg[1] );
   \   00002F   85..82       MOV       DPL,?V0
   \   000032   85..83       MOV       DPH,?V1
   \   000035   12....       LCALL     ?Subroutine94 & 0xFFFF
   \                     ??CrossCallReturnLabel_133:
   \   000038   85..82       MOV       DPL,?V4
   \   00003B   8B83         MOV       DPH,R3
   \   00003D   A3           INC       DPTR
   \   00003E   12....       LCALL     ??Subroutine255_0 & 0xFFFF
   2583              msg += sizeof( uint16 );
   2584              pRsp->cnt = cnt;
   \                     ??CrossCallReturnLabel_610:
   \   000041   85..82       MOV       DPL,?V4
   \   000044   8B83         MOV       DPH,R3
   \   000046   A3           INC       DPTR
   \   000047   A3           INC       DPTR
   \   000048   A3           INC       DPTR
   \   000049   EE           MOV       A,R6
   \   00004A   12....       LCALL     ?Subroutine41 & 0xFFFF
   2585              msg++; // pass cnt
   2586              osal_memcpy( pRsp->epList, msg, cnt );
   2587            }
   \                     ??CrossCallReturnLabel_50:
   \   00004D   A3           INC       DPTR
   \   00004E   A982         MOV       R1,DPL
   \   000050   AA83         MOV       R2,DPH
   \   000052   89..         MOV       ?V0,R1
   \   000054   8A..         MOV       ?V1,R2
   \   000056   88..         MOV       ?V2,R0
   \   000058   78..         MOV       R0,#?V0
   \   00005A   12....       LCALL     ?PUSH_XSTACK_I_THREE
   \   00005D   EE           MOV       A,R6
   \   00005E   FC           MOV       R4,A
   \   00005F   7D00         MOV       R5,#0x0
   \   000061   E5..         MOV       A,?V4
   \   000063   2404         ADD       A,#0x4
   \   000065   FA           MOV       R2,A
   \   000066   E4           CLR       A
   \   000067   35..         ADDC      A,?V5
   \   000069   12....       LCALL     ?Subroutine135 & 0xFFFF
   \                     ??CrossCallReturnLabel_561:
   \   00006C   12....       LCALL     ?DEALLOC_XSTACK8
   2588            
   2589            return ( pRsp );
   \                     ??ZDO_ParseEPListRsp_0:
   \   00006F   AA..         MOV       R2,?V4
   \   000071   AB..         MOV       R3,?V5
   \   000073   02....       LJMP      ??Subroutine210_0 & 0xFFFF
   2590          }

   \                                 In  segment BANKED_CODE, align 1, keep-with-next
   \                     ?Subroutine135:
   \   000000   FB           MOV       R3,A
   \   000001                REQUIRE ??Subroutine244_0
   \   000001                ; // Fall through to label ??Subroutine244_0

   \                                 In  segment BANKED_CODE, align 1, keep-with-next
   \                     ?Subroutine134:
   \   000000   2404         ADD       A,#0x4
   \   000002                REQUIRE ??Subroutine245_0
   \   000002                ; // Fall through to label ??Subroutine245_0

   \                                 In  segment BANKED_CODE, align 1, keep-with-next
   \                     ??Subroutine245_0:
   \   000000   FA           MOV       R2,A
   \   000001   E4           CLR       A
   \   000002   3400         ADDC      A,#0x0
   \   000004   FB           MOV       R3,A
   \   000005   12....       LCALL     `??osal_mem_alloc::?relay`; Banked call to: osal_mem_alloc
   \   000008   22           RET
   2591          
   2592          /*********************************************************************
   2593           * @fn          ZDO_ParseServerDiscRsp
   2594           *
   2595           * @brief       Parse the Server_Discovery_rsp message.
   2596           *
   2597           * @param       inMsg - incoming message.
   2598           * @param       pRsp - place to put the parsed information.
   2599           *
   2600           * @return      none
   2601           */

   \                                 In  segment BANKED_CODE, align 1, keep-with-next
   2602          void ZDO_ParseServerDiscRsp( zdoIncomingMsg_t *inMsg, ZDO_ServerDiscRsp_t *pRsp )
   \                     ZDO_ParseServerDiscRsp:
   2603          {
   \   000000   74F7         MOV       A,#-0x9
   \   000002   12....       LCALL     ?BANKED_ENTER_XDATA
   \   000005                ; Saved register size: 9
   \   000005                ; Auto size: 0
   2604            pRsp->status = inMsg->asdu[0];
   \   000005   EA           MOV       A,R2
   \   000006   2413         ADD       A,#0x13
   \   000008   F8           MOV       R0,A
   \   000009   E4           CLR       A
   \   00000A   3B           ADDC      A,R3
   \   00000B   F9           MOV       R1,A
   \   00000C   8882         MOV       DPL,R0
   \   00000E   F583         MOV       DPH,A
   \   000010   12....       LCALL     ?Subroutine104 & 0xFFFF
   \                     ??CrossCallReturnLabel_147:
   \   000013   12....       LCALL     ??Subroutine246_0 & 0xFFFF
   \                     ??CrossCallReturnLabel_571:
   \   000016   12....       LCALL     ?Subroutine39 & 0xFFFF
   2605            pRsp->serverMask = BUILD_UINT16( inMsg->asdu[1], inMsg->asdu[2] );
   \                     ??CrossCallReturnLabel_46:
   \   000019   F8           MOV       R0,A
   \   00001A   A3           INC       DPTR
   \   00001B   E0           MOVX      A,@DPTR
   \   00001C   F9           MOV       R1,A
   \   00001D   8882         MOV       DPL,R0
   \   00001F   F583         MOV       DPH,A
   \   000021   A3           INC       DPTR
   \   000022   E0           MOVX      A,@DPTR
   \   000023   FA           MOV       R2,A
   \   000024   8882         MOV       DPL,R0
   \   000026   8983         MOV       DPH,R1
   \   000028   A3           INC       DPTR
   \   000029   12....       LCALL     ??Subroutine258_0 & 0xFFFF
   \                     ??CrossCallReturnLabel_633:
   \   00002C   A3           INC       DPTR
   \   00002D   12....       LCALL     ??Subroutine255_0 & 0xFFFF
   2606          }
   \                     ??CrossCallReturnLabel_611:
   \   000030   02....       LJMP      ?Subroutine5 & 0xFFFF

   \                                 In  segment BANKED_CODE, align 1, keep-with-next
   \                     ?Subroutine104:
   \   000000   12....       LCALL     ??Subroutine259_0 & 0xFFFF
   \                     ??CrossCallReturnLabel_638:
   \   000003   F583         MOV       DPH,A
   \   000005   8A82         MOV       DPL,R2
   \   000007   22           RET
   2607          
   2608          /*********************************************************************
   2609           * @fn          ZDO_ParseMgmtLqiRsp
   2610           *
   2611           * @brief       This function parses the incoming Management
   2612           *              LQI response
   2613           *
   2614           * @param       inMsg - incoming message
   2615           *
   2616           * @return      a pointer to parsed response structure (NULL if not allocated).  
   2617           *          This structure was allocated using osal_mem_alloc, so it must be freed
   2618           *          by the calling function [osal_mem_free()].
   2619           */

   \                                 In  segment BANKED_CODE, align 1, keep-with-next
   \                     ?Subroutine2:
   \   000000   AA..         MOV       R2,?V2
   \   000002   AB..         MOV       R3,?V3
   \   000004                REQUIRE ??Subroutine210_0
   \   000004                ; // Fall through to label ??Subroutine210_0

   \                                 In  segment BANKED_CODE, align 1, keep-with-next
   2620          ZDO_MgmtLqiRsp_t *ZDO_ParseMgmtLqiRsp( zdoIncomingMsg_t *inMsg )
   \                     ZDO_ParseMgmtLqiRsp:
   2621          {
   \   000000                REQUIRE ?V0
   \   000000                REQUIRE ?V1
   \   000000                REQUIRE ?V2
   \   000000                REQUIRE ?V3
   \   000000                REQUIRE ?V4
   \   000000                REQUIRE ?V5
   \   000000                REQUIRE ?V6
   \   000000                REQUIRE ?V7
   \   000000   74F0         MOV       A,#-0x10
   \   000002   12....       LCALL     ?BANKED_ENTER_XDATA
   \   000005                ; Saved register size: 16
   \   000005                ; Auto size: 0
   2622            ZDO_MgmtLqiRsp_t *pRsp;
   2623            uint8 status;
   2624            uint8 startIndex = 0;
   \   000005   75..00       MOV       ?V6,#0x0
   2625            uint8 neighborLqiCount = 0;
   \   000008   75..00       MOV       ?V5,#0x0
   2626            uint8 neighborLqiEntries = 0;
   \   00000B   75..00       MOV       ?V4,#0x0
   2627            uint8 *msg;
   2628            
   2629            msg = inMsg->asdu;
   \   00000E   12....       LCALL     ?Subroutine61 & 0xFFFF
   2630          
   2631            status = *msg++;
   2632            if ( status == ZSuccess )
   \                     ??CrossCallReturnLabel_74:
   \   000011   7015         JNZ       ??ZDO_ParseMgmtLqiRsp_0
   2633            {
   2634              neighborLqiEntries = *msg++;
   \   000013   12....       LCALL     ??Subroutine250_0 & 0xFFFF
   2635              startIndex = *msg++;
   \                     ??CrossCallReturnLabel_589:
   \   000016   F5..         MOV       ?V6,A
   2636              neighborLqiCount = *msg++;
   \   000018   8E82         MOV       DPL,R6
   \   00001A   8F83         MOV       DPH,R7
   \   00001C   A3           INC       DPTR
   \   00001D   A3           INC       DPTR
   \   00001E   E0           MOVX      A,@DPTR
   \   00001F   F5..         MOV       ?V5,A
   \   000021   EE           MOV       A,R6
   \   000022   2403         ADD       A,#0x3
   \   000024   FE           MOV       R6,A
   \   000025   5001         JNC       ??ZDO_ParseMgmtLqiRsp_0
   \   000027   0F           INC       R7
   2637            }
   2638          
   2639            // Allocate a buffer big enough to handle the list.
   2640            pRsp = (ZDO_MgmtLqiRsp_t *)osal_mem_alloc( 
   2641                      sizeof( ZDO_MgmtLqiRsp_t ) + (neighborLqiCount * sizeof( neighborLqiItem_t )) );
   \                     ??ZDO_ParseMgmtLqiRsp_0:
   \   000028                ; Setup parameters for call to function osal_mem_alloc
   \   000028   E5..         MOV       A,?V5
   \   00002A   75F00E       MOV       B,#0xe
   \   00002D   12....       LCALL     ?Subroutine110 & 0xFFFF
   2642            if ( pRsp )
   \                     ??CrossCallReturnLabel_159:
   \   000030   605E         JZ        ??ZDO_ParseMgmtLqiRsp_1
   2643            {
   2644              uint8 x;
   2645              neighborLqiItem_t *pList = pRsp->list;
   \   000032   12....       LCALL     ?Subroutine15 & 0xFFFF
   2646              pRsp->status = status;
   2647              pRsp->neighborLqiEntries = neighborLqiEntries;
   2648              pRsp->startIndex = startIndex;
   \                     ??CrossCallReturnLabel_583:
   \   000035   E5..         MOV       A,?V6
   \   000037   12....       LCALL     ??Subroutine252_0 & 0xFFFF
   2649              pRsp->neighborLqiCount = neighborLqiCount;
   \                     ??CrossCallReturnLabel_600:
   \   00003A   E5..         MOV       A,?V5
   \   00003C   F0           MOVX      @DPTR,A
   2650          
   2651              for ( x = 0; x < neighborLqiCount; x++ )
   \   00003D   75..00       MOV       ?V4,#0x0
   \   000040   8047         SJMP      ??ZDO_ParseMgmtLqiRsp_2
   2652              {
   2653                osal_cpyExtAddr(pList->extPANId, msg);   //Copy extended PAN ID
   \                     ??ZDO_ParseMgmtLqiRsp_3:
   \   000042                ; Setup parameters for call to function sAddrExtCpy
   \   000042   EE           MOV       A,R6
   \   000043   FC           MOV       R4,A
   \   000044   EF           MOV       A,R7
   \   000045   FD           MOV       R5,A
   \   000046   E5..         MOV       A,?V0
   \   000048   2404         ADD       A,#0x4
   \   00004A   FA           MOV       R2,A
   \   00004B   E4           CLR       A
   \   00004C   35..         ADDC      A,?V1
   \   00004E   FB           MOV       R3,A
   \   00004F   12....       LCALL     `??sAddrExtCpy::?relay`; Banked call to: sAddrExtCpy
   2654                msg += Z_EXTADDR_LEN;
   2655              
   2656                msg += Z_EXTADDR_LEN;  // Throwing away IEEE.
   \   000052   EE           MOV       A,R6
   \   000053   2410         ADD       A,#0x10
   \   000055   FE           MOV       R6,A
   \   000056   5001         JNC       ??ZDO_ParseMgmtLqiRsp_4
   \   000058   0F           INC       R7
   2657                pList->nwkAddr = BUILD_UINT16( msg[0], msg[1] );
   \                     ??ZDO_ParseMgmtLqiRsp_4:
   \   000059   12....       LCALL     ?Subroutine76 & 0xFFFF
   \                     ??CrossCallReturnLabel_103:
   \   00005C   12....       LCALL     ??Subroutine255_0 & 0xFFFF
   2658                msg += 2 + 1 + 1 + 1;      // Skip DeviceType, RxOnIdle, Rlationship, PermitJoining and Depth
   2659                pList->rxLqi = *msg++;
   \                     ??CrossCallReturnLabel_612:
   \   00005F   8E82         MOV       DPL,R6
   \   000061   8F83         MOV       DPH,R7
   \   000063   A3           INC       DPTR
   \   000064   A3           INC       DPTR
   \   000065   A3           INC       DPTR
   \   000066   A3           INC       DPTR
   \   000067   A3           INC       DPTR
   \   000068   E0           MOVX      A,@DPTR
   \   000069   C0E0         PUSH      A
   \   00006B   12....       LCALL     ?Subroutine147 & 0xFFFF
   \                     ??CrossCallReturnLabel_234:
   \   00006E   D0E0         POP       A
   \   000070   F0           MOVX      @DPTR,A
   \   000071   EE           MOV       A,R6
   \   000072   2406         ADD       A,#0x6
   \   000074   FE           MOV       R6,A
   \   000075   5001         JNC       ??ZDO_ParseMgmtLqiRsp_5
   \   000077   0F           INC       R7
   2660                pList->txQuality = 0;  // This is not specified OTA by ZigBee 1.1.
   \                     ??ZDO_ParseMgmtLqiRsp_5:
   \   000078   12....       LCALL     ?Subroutine138 & 0xFFFF
   \                     ??CrossCallReturnLabel_219:
   \   00007B   E4           CLR       A
   \   00007C   F0           MOVX      @DPTR,A
   2661                pList++;
   \   00007D   E5..         MOV       A,?V0
   \   00007F   240E         ADD       A,#0xe
   \   000081   F5..         MOV       ?V0,A
   \   000083   5002         JNC       ??ZDO_ParseMgmtLqiRsp_6
   \   000085   05..         INC       ?V1
   2662              }
   \                     ??ZDO_ParseMgmtLqiRsp_6:
   \   000087   05..         INC       ?V4
   \                     ??ZDO_ParseMgmtLqiRsp_2:
   \   000089   E5..         MOV       A,?V4
   \   00008B   C3           CLR       C
   \   00008C   95..         SUBB      A,?V5
   \   00008E   40B2         JC        ??ZDO_ParseMgmtLqiRsp_3
   2663            }
   2664            
   2665            return ( pRsp );
   \                     ??ZDO_ParseMgmtLqiRsp_1:
   \   000090   02....       LJMP      ?Subroutine2 & 0xFFFF
   2666          }

   \                                 In  segment BANKED_CODE, align 1, keep-with-next
   \                     ?Subroutine15:
   \   000000   12....       LCALL     ?Subroutine185 & 0xFFFF
   \                     ??CrossCallReturnLabel_275:
   \   000003   8A82         MOV       DPL,R2
   \   000005   8B83         MOV       DPH,R3
   \   000007   E5..         MOV       A,?V7
   \   000009                REQUIRE ??Subroutine248_0
   \   000009                ; // Fall through to label ??Subroutine248_0

   \                                 In  segment BANKED_CODE, align 1, keep-with-next
   \                     ??Subroutine248_0:
   \   000000   F0           MOVX      @DPTR,A
   \   000001   A3           INC       DPTR
   \   000002   E5..         MOV       A,?V4
   \   000004   12....       LCALL     ?Subroutine152 & 0xFFFF
   \                     ??CrossCallReturnLabel_603:
   \   000007   A3           INC       DPTR
   \   000008   22           RET

   \                                 In  segment BANKED_CODE, align 1, keep-with-next
   \                     ?Subroutine185:
   \   000000   EA           MOV       A,R2
   \   000001   2404         ADD       A,#0x4
   \   000003   F5..         MOV       ?V0,A
   \   000005   E4           CLR       A
   \   000006   35..         ADDC      A,?V3
   \   000008   F5..         MOV       ?V1,A
   \   00000A   22           RET

   \                                 In  segment BANKED_CODE, align 1, keep-with-next
   \                     ?Subroutine147:
   \   000000   E5..         MOV       A,?V0
   \   000002   240D         ADD       A,#0xd
   \   000004   12....       LCALL     ?Subroutine184 & 0xFFFF
   \                     ??CrossCallReturnLabel_582:
   \   000007   22           RET

   \                                 In  segment BANKED_CODE, align 1, keep-with-next
   \                     ?Subroutine176:
   \   000000   A4           MUL       AB
   \   000001   A9F0         MOV       R1,B
   \   000003   2404         ADD       A,#0x4
   \   000005                REQUIRE ??Subroutine249_0
   \   000005                ; // Fall through to label ??Subroutine249_0

   \                                 In  segment BANKED_CODE, align 1, keep-with-next
   \                     ?Subroutine171:
   \   000000   12....       LCALL     ?Subroutine193 & 0xFFFF
   \                     ??CrossCallReturnLabel_286:
   \   000003   E0           MOVX      A,@DPTR
   \   000004   FE           MOV       R6,A
   \   000005   A3           INC       DPTR
   \   000006   E0           MOVX      A,@DPTR
   \   000007   8E82         MOV       DPL,R6
   \   000009   F583         MOV       DPH,A
   \   00000B   E0           MOVX      A,@DPTR
   \   00000C   22           RET

   \                                 In  segment BANKED_CODE, align 1, keep-with-next
   \                     ??Subroutine250_0:
   \   000000   E0           MOVX      A,@DPTR
   \   000001   F5..         MOV       ?V4,A
   \   000003   A3           INC       DPTR
   \   000004   E0           MOVX      A,@DPTR
   \   000005   22           RET

   \                                 In  segment BANKED_CODE, align 1, keep-with-next
   \                     ?Subroutine110:
   \   000000   12....       LCALL     ?Subroutine176 & 0xFFFF
   \                     ??CrossCallReturnLabel_587:
   \   000003   8A..         MOV       ?V2,R2
   \   000005   8B..         MOV       ?V3,R3
   \   000007   EA           MOV       A,R2
   \   000008   4B           ORL       A,R3
   \   000009   22           RET

   \                                 In  segment BANKED_CODE, align 1, keep-with-next
   \                     ?Subroutine61:
   \   000000   12....       LCALL     ?Subroutine171 & 0xFFFF
   \                     ??CrossCallReturnLabel_260:
   \   000003   F5..         MOV       ?V7,A
   \   000005   A3           INC       DPTR
   \   000006   AE82         MOV       R6,DPL
   \   000008   AF83         MOV       R7,DPH
   \   00000A   22           RET
   2667          
   2668          /*********************************************************************
   2669           * @fn          ZDO_ParseMgmNwkDiscRsp
   2670           *
   2671           * @brief       This function parses the incoming Management
   2672           *              Network Discover response.
   2673           *
   2674           * @param       inMsg - incoming message
   2675           *
   2676           * @return      pointer to parsed response.  This structure was 
   2677           *          allocated using osal_mem_alloc, so it must be freed
   2678           *          by the calling function [osal_mem_free()].
   2679           */

   \                                 In  segment BANKED_CODE, align 1, keep-with-next
   2680          ZDO_MgmNwkDiscRsp_t *ZDO_ParseMgmNwkDiscRsp( zdoIncomingMsg_t *inMsg )
   \                     ZDO_ParseMgmNwkDiscRsp:
   2681          {
   \   000000                REQUIRE ?V0
   \   000000                REQUIRE ?V1
   \   000000                REQUIRE ?V2
   \   000000                REQUIRE ?V3
   \   000000                REQUIRE ?V4
   \   000000                REQUIRE ?V5
   \   000000                REQUIRE ?V6
   \   000000                REQUIRE ?V7
   \   000000   74F0         MOV       A,#-0x10
   \   000002   12....       LCALL     ?BANKED_ENTER_XDATA
   \   000005                ; Saved register size: 16
   \   000005                ; Auto size: 0
   2682            ZDO_MgmNwkDiscRsp_t *pRsp;
   2683            uint8 status;
   2684            uint8 networkCount = 0;
   \   000005   75..00       MOV       ?V0,#0x0
   2685            uint8 startIndex = 0;
   \   000008   75..00       MOV       ?V1,#0x0
   2686            uint8 networkListCount = 0;
   \   00000B   75..00       MOV       ?V7,#0x0
   2687            uint8 *msg;
   2688            
   2689            msg = inMsg->asdu;
   \   00000E   12....       LCALL     ?Subroutine90 & 0xFFFF
   2690            status = *msg++;
   \                     ??CrossCallReturnLabel_126:
   \   000011   F5..         MOV       ?V6,A
   \   000013   A3           INC       DPTR
   \   000014   AE82         MOV       R6,DPL
   \   000016   AF83         MOV       R7,DPH
   2691            
   2692            if ( status == ZSuccess )
   \   000018   700F         JNZ       ??ZDO_ParseMgmNwkDiscRsp_0
   2693            {
   2694              networkCount = *msg++;
   \   00001A   E0           MOVX      A,@DPTR
   \   00001B   F5..         MOV       ?V0,A
   2695              startIndex = *msg++;
   \   00001D   12....       LCALL     ?Subroutine87 & 0xFFFF
   2696              networkListCount = *msg++;
   2697            }
   \                     ??CrossCallReturnLabel_122:
   \   000020   F5..         MOV       ?V7,A
   \   000022   EE           MOV       A,R6
   \   000023   2403         ADD       A,#0x3
   \   000025   FE           MOV       R6,A
   \   000026   5001         JNC       ??ZDO_ParseMgmNwkDiscRsp_0
   \   000028   0F           INC       R7
   2698          
   2699            // Allocate a buffer big enough to handle the list.
   2700            pRsp = (ZDO_MgmNwkDiscRsp_t *)osal_mem_alloc( sizeof( ZDO_MgmNwkDiscRsp_t ) 
   2701                                            + (networkListCount * sizeof( mgmtNwkDiscItem_t )) );
   \                     ??ZDO_ParseMgmNwkDiscRsp_0:
   \   000029                ; Setup parameters for call to function osal_mem_alloc
   \   000029   E5..         MOV       A,?V7
   \   00002B   F5..         MOV       ?V2,A
   \   00002D   75..00       MOV       ?V3,#0x0
   \   000030   7404         MOV       A,#0x4
   \   000032   78..         MOV       R0,#?V2
   \   000034   12....       LCALL     ?S_SHL
   \   000037   E5..         MOV       A,?V2
   \   000039   2404         ADD       A,#0x4
   \   00003B   FA           MOV       R2,A
   \   00003C   E4           CLR       A
   \   00003D   35..         ADDC      A,?V3
   \   00003F   12....       LCALL     ?Subroutine136 & 0xFFFF
   2702            if ( pRsp )
   \                     ??CrossCallReturnLabel_215:
   \   000042   7003         JNZ       $+5
   \   000044   02....       LJMP      ??ZDO_ParseMgmNwkDiscRsp_1 & 0xFFFF
   2703            {
   2704              uint8 x;
   2705              mgmtNwkDiscItem_t *pList;
   2706              
   2707              pRsp->status = status;
   \   000047   8A82         MOV       DPL,R2
   \   000049   8B83         MOV       DPH,R3
   \   00004B   E5..         MOV       A,?V6
   \   00004D   F0           MOVX      @DPTR,A
   2708              pRsp->networkCount = networkCount;
   \   00004E   A3           INC       DPTR
   \   00004F   E5..         MOV       A,?V0
   \   000051   12....       LCALL     ??Subroutine242_0 & 0xFFFF
   2709              pRsp->startIndex = startIndex;
   \                     ??CrossCallReturnLabel_554:
   \   000054   A3           INC       DPTR
   \   000055   12....       LCALL     ?Subroutine26 & 0xFFFF
   2710              pRsp->networkListCount = networkListCount;
   \                     ??CrossCallReturnLabel_597:
   \   000058   E5..         MOV       A,?V7
   \   00005A   F0           MOVX      @DPTR,A
   2711              pList = pRsp->list;
   \   00005B   12....       LCALL     ?Subroutine185 & 0xFFFF
   2712              
   2713              for ( x = 0; x < networkListCount; x++ )
   \                     ??CrossCallReturnLabel_274:
   \   00005E   75..00       MOV       ?V4,#0x0
   \   000061   807D         SJMP      ??ZDO_ParseMgmNwkDiscRsp_2
   2714              {
   2715                osal_cpyExtAddr(pList->extendedPANID, msg);   //Copy extended PAN ID
   \                     ??ZDO_ParseMgmNwkDiscRsp_3:
   \   000063                ; Setup parameters for call to function sAddrExtCpy
   \   000063   EE           MOV       A,R6
   \   000064   FC           MOV       R4,A
   \   000065   EF           MOV       A,R7
   \   000066   FD           MOV       R5,A
   \   000067   AA..         MOV       R2,?V0
   \   000069   AB..         MOV       R3,?V1
   \   00006B   12....       LCALL     `??sAddrExtCpy::?relay`; Banked call to: sAddrExtCpy
   2716                pList->PANId = BUILD_UINT16( msg[0], msg[1] );
   \   00006E   12....       LCALL     ?Subroutine58 & 0xFFFF
   \                     ??CrossCallReturnLabel_72:
   \   000071   A3           INC       DPTR
   \   000072   F0           MOVX      @DPTR,A
   \   000073   A3           INC       DPTR
   \   000074   E9           MOV       A,R1
   \   000075   12....       LCALL     ?Subroutine18 & 0xFFFF
   2717                msg += Z_EXTADDR_LEN;
   2718          
   2719                pList->logicalChannel = *msg++;
   \                     ??CrossCallReturnLabel_13:
   \   000078   85..82       MOV       DPL,?V0
   \   00007B   85..83       MOV       DPH,?V1
   \   00007E   A3           INC       DPTR
   \   00007F   A3           INC       DPTR
   \   000080   A3           INC       DPTR
   \   000081   A3           INC       DPTR
   \   000082   A3           INC       DPTR
   \   000083   A3           INC       DPTR
   \   000084   A3           INC       DPTR
   \   000085   A3           INC       DPTR
   \   000086   A3           INC       DPTR
   \   000087   A3           INC       DPTR
   \   000088   F0           MOVX      @DPTR,A
   2720                pList->stackProfile = (*msg) & 0x0F;
   \   000089   EE           MOV       A,R6
   \   00008A   2409         ADD       A,#0x9
   \   00008C   F8           MOV       R0,A
   \   00008D   12....       LCALL     ?Subroutine126 & 0xFFFF
   \                     ??CrossCallReturnLabel_191:
   \   000090   C0E0         PUSH      A
   \   000092   E5..         MOV       A,?V0
   \   000094   240B         ADD       A,#0xb
   \   000096   12....       LCALL     ?Subroutine184 & 0xFFFF
   \                     ??CrossCallReturnLabel_577:
   \   000099   D0E0         POP       A
   \   00009B   12....       LCALL     ?Subroutine38 & 0xFFFF
   2721                pList->version = (*msg++ >> 4) & 0x0F;
   \                     ??CrossCallReturnLabel_41:
   \   00009E   C0E0         PUSH      A
   \   0000A0   12....       LCALL     ?Subroutine138 & 0xFFFF
   \                     ??CrossCallReturnLabel_220:
   \   0000A3   D0E0         POP       A
   \   0000A5   F0           MOVX      @DPTR,A
   2722                pList->beaconOrder = (*msg) & 0x0F;
   \   0000A6   EE           MOV       A,R6
   \   0000A7   240A         ADD       A,#0xa
   \   0000A9   08           INC       R0
   \   0000AA   12....       LCALL     ?Subroutine126 & 0xFFFF
   \                     ??CrossCallReturnLabel_192:
   \   0000AD   C0E0         PUSH      A
   \   0000AF   12....       LCALL     ?Subroutine147 & 0xFFFF
   \                     ??CrossCallReturnLabel_235:
   \   0000B2   D0E0         POP       A
   \   0000B4   12....       LCALL     ?Subroutine38 & 0xFFFF
   2723                pList->superFrameOrder = (*msg++ >> 4) & 0x0F;
   \                     ??CrossCallReturnLabel_42:
   \   0000B7   C0E0         PUSH      A
   \   0000B9   12....       LCALL     ?Subroutine124 & 0xFFFF
   \                     ??CrossCallReturnLabel_190:
   \   0000BC   D0E0         POP       A
   \   0000BE   F0           MOVX      @DPTR,A
   2724                pList->permitJoining = *msg++;
   \   0000BF   EE           MOV       A,R6
   \   0000C0   240B         ADD       A,#0xb
   \   0000C2   12....       LCALL     ?Subroutine177 & 0xFFFF
   \                     ??CrossCallReturnLabel_305:
   \   0000C5   C0E0         PUSH      A
   \   0000C7   12....       LCALL     ?Subroutine127 & 0xFFFF
   \                     ??CrossCallReturnLabel_195:
   \   0000CA   D0E0         POP       A
   \   0000CC   F0           MOVX      @DPTR,A
   \   0000CD   EE           MOV       A,R6
   \   0000CE   240C         ADD       A,#0xc
   \   0000D0   FE           MOV       R6,A
   \   0000D1   5001         JNC       ??ZDO_ParseMgmNwkDiscRsp_4
   \   0000D3   0F           INC       R7
   2725                pList++;
   \                     ??ZDO_ParseMgmNwkDiscRsp_4:
   \   0000D4   E5..         MOV       A,?V0
   \   0000D6   2410         ADD       A,#0x10
   \   0000D8   F5..         MOV       ?V0,A
   \   0000DA   5002         JNC       ??ZDO_ParseMgmNwkDiscRsp_5
   \   0000DC   05..         INC       ?V1
   2726              }
   \                     ??ZDO_ParseMgmNwkDiscRsp_5:
   \   0000DE   05..         INC       ?V4
   \                     ??ZDO_ParseMgmNwkDiscRsp_2:
   \   0000E0   E5..         MOV       A,?V4
   \   0000E2   C3           CLR       C
   \   0000E3   95..         SUBB      A,?V7
   \   0000E5   5003         JNC       $+5
   \   0000E7   02....       LJMP      ??ZDO_ParseMgmNwkDiscRsp_3 & 0xFFFF
   2727            }
   2728            
   2729            return ( pRsp );
   \                     ??ZDO_ParseMgmNwkDiscRsp_1:
   \   0000EA   02....       LJMP      ?Subroutine2 & 0xFFFF
   2730          }

   \                                 In  segment BANKED_CODE, align 1, keep-with-next
   \                     ?Subroutine126:
   \   000000   E4           CLR       A
   \   000001   3F           ADDC      A,R7
   \   000002   F9           MOV       R1,A
   \   000003   8882         MOV       DPL,R0
   \   000005   F583         MOV       DPH,A
   \   000007   E0           MOVX      A,@DPTR
   \   000008   540F         ANL       A,#0xf
   \   00000A   22           RET

   \                                 In  segment BANKED_CODE, align 1, keep-with-next
   \                     ?Subroutine38:
   \   000000   12....       LCALL     ?Subroutine154 & 0xFFFF
   \                     ??CrossCallReturnLabel_242:
   \   000003   C4           SWAP      A
   \   000004   540F         ANL       A,#0xf
   \   000006   22           RET

   \                                 In  segment BANKED_CODE, align 1, keep-with-next
   \                     ?Subroutine90:
   \   000000   12....       LCALL     ?Subroutine171 & 0xFFFF
   \                     ??CrossCallReturnLabel_259:
   \   000003   22           RET

   \                                 In  segment BANKED_CODE, align 1, keep-with-next
   \                     ?Subroutine87:
   \   000000   A3           INC       DPTR
   \   000001   E0           MOVX      A,@DPTR
   \   000002   F5..         MOV       ?V1,A
   \   000004   8E82         MOV       DPL,R6
   \   000006   8F83         MOV       DPH,R7
   \   000008   A3           INC       DPTR
   \   000009   A3           INC       DPTR
   \   00000A   E0           MOVX      A,@DPTR
   \   00000B   22           RET

   \                                 In  segment BANKED_CODE, align 1, keep-with-next
   \                     ?Subroutine26:
   \   000000   E5..         MOV       A,?V1
   \   000002                REQUIRE ??Subroutine252_0
   \   000002                ; // Fall through to label ??Subroutine252_0

   \                                 In  segment BANKED_CODE, align 1, keep-with-next
   \                     ?Subroutine58:
   \   000000   8E82         MOV       DPL,R6
   \   000002   12....       LCALL     ?Subroutine158 & 0xFFFF
   \                     ??CrossCallReturnLabel_248:
   \   000005   22           RET
   2731          
   2732          /*********************************************************************
   2733           * @fn          ZDO_ParseMgmtRtgRsp
   2734           *
   2735           * @brief       This function parses the incoming Management
   2736           *              Routing response.
   2737           *
   2738           * @param       inMsg - incoming message
   2739           *
   2740           * @return      a pointer to parsed response structure (NULL if not allocated).  
   2741           *          This structure was allocated using osal_mem_alloc, so it must be freed
   2742           *          by the calling function [osal_mem_free()].
   2743           */

   \                                 In  segment BANKED_CODE, align 1, keep-with-next
   2744          ZDO_MgmtRtgRsp_t *ZDO_ParseMgmtRtgRsp( zdoIncomingMsg_t *inMsg )
   \                     ZDO_ParseMgmtRtgRsp:
   2745          {
   \   000000                REQUIRE ?V0
   \   000000                REQUIRE ?V1
   \   000000                REQUIRE ?V2
   \   000000                REQUIRE ?V3
   \   000000                REQUIRE ?V4
   \   000000                REQUIRE ?V5
   \   000000   74F2         MOV       A,#-0xe
   \   000002   12....       LCALL     ?BANKED_ENTER_XDATA
   \   000005                ; Saved register size: 14
   \   000005                ; Auto size: 0
   2746            ZDO_MgmtRtgRsp_t *pRsp;
   2747            uint8 status;
   2748            uint8 rtgCount = 0;
   \   000005   75..00       MOV       ?V4,#0x0
   2749            uint8 startIndex = 0;
   \   000008   75..00       MOV       ?V1,#0x0
   2750            uint8 rtgListCount = 0;
   \   00000B   75..00       MOV       ?V0,#0x0
   2751            uint8 *msg;
   2752            
   2753            msg = inMsg->asdu;
   \   00000E   12....       LCALL     ?Subroutine90 & 0xFFFF
   2754          
   2755            status = *msg++;
   \                     ??CrossCallReturnLabel_127:
   \   000011   F5..         MOV       ?V5,A
   \   000013   A3           INC       DPTR
   \   000014   AE82         MOV       R6,DPL
   \   000016   AF83         MOV       R7,DPH
   2756            if ( status == ZSuccess )
   \   000018   700F         JNZ       ??ZDO_ParseMgmtRtgRsp_0
   2757            {
   2758              rtgCount = *msg++;
   \   00001A   E0           MOVX      A,@DPTR
   \   00001B   F5..         MOV       ?V4,A
   2759              startIndex = *msg++;
   \   00001D   12....       LCALL     ?Subroutine87 & 0xFFFF
   2760              rtgListCount = *msg++;
   2761            }
   \                     ??CrossCallReturnLabel_123:
   \   000020   F5..         MOV       ?V0,A
   \   000022   EE           MOV       A,R6
   \   000023   2403         ADD       A,#0x3
   \   000025   FE           MOV       R6,A
   \   000026   5001         JNC       ??ZDO_ParseMgmtRtgRsp_0
   \   000028   0F           INC       R7
   2762             
   2763            // Allocate a buffer big enough to handle the list
   2764            pRsp = (ZDO_MgmtRtgRsp_t *)osal_mem_alloc( 
   2765                    sizeof( ZDO_MgmtRtgRsp_t ) + (rtgListCount * sizeof( rtgItem_t )) );
   \                     ??ZDO_ParseMgmtRtgRsp_0:
   \   000029                ; Setup parameters for call to function osal_mem_alloc
   \   000029   E5..         MOV       A,?V0
   \   00002B   75F006       MOV       B,#0x6
   \   00002E   12....       LCALL     ?Subroutine176 & 0xFFFF
   2766            if ( pRsp )
   \                     ??CrossCallReturnLabel_586:
   \   000031   EA           MOV       A,R2
   \   000032   4B           ORL       A,R3
   \   000033   6056         JZ        ??ZDO_ParseMgmtRtgRsp_1
   2767            {
   2768              uint8 x;
   2769              rtgItem_t *pList = pRsp->list;
   \   000035   EA           MOV       A,R2
   \   000036   2404         ADD       A,#0x4
   \   000038   F8           MOV       R0,A
   \   000039   E4           CLR       A
   \   00003A   3B           ADDC      A,R3
   \   00003B   F9           MOV       R1,A
   2770              pRsp->status = status;
   \   00003C   8A82         MOV       DPL,R2
   \   00003E   8B83         MOV       DPH,R3
   \   000040   E5..         MOV       A,?V5
   \   000042   12....       LCALL     ??Subroutine248_0 & 0xFFFF
   2771              pRsp->rtgCount = rtgCount;
   2772              pRsp->startIndex = startIndex;
   \                     ??CrossCallReturnLabel_585:
   \   000045   12....       LCALL     ?Subroutine26 & 0xFFFF
   2773              pRsp->rtgListCount = rtgListCount;
   \                     ??CrossCallReturnLabel_598:
   \   000048   E5..         MOV       A,?V0
   \   00004A   F0           MOVX      @DPTR,A
   2774              
   2775              for ( x = 0; x < rtgListCount; x++ )
   \   00004B   7C00         MOV       R4,#0x0
   \   00004D   8036         SJMP      ??ZDO_ParseMgmtRtgRsp_2
   2776              {
   2777                pList->dstAddress = BUILD_UINT16( msg[0], msg[1] );
   \                     ??ZDO_ParseMgmtRtgRsp_3:
   \   00004F   8E82         MOV       DPL,R6
   \   000051   12....       LCALL     ?Subroutine75 & 0xFFFF
   \                     ??CrossCallReturnLabel_100:
   \   000054   F0           MOVX      @DPTR,A
   \   000055   A3           INC       DPTR
   \   000056   E5..         MOV       A,?V3
   \   000058   12....       LCALL     ?Subroutine19 & 0xFFFF
   2778                msg += 2;
   2779                pList->status = *msg++;
   \                     ??CrossCallReturnLabel_15:
   \   00005B   8882         MOV       DPL,R0
   \   00005D   8983         MOV       DPH,R1
   \   00005F   A3           INC       DPTR
   \   000060   A3           INC       DPTR
   \   000061   A3           INC       DPTR
   \   000062   A3           INC       DPTR
   \   000063   A3           INC       DPTR
   \   000064   F0           MOVX      @DPTR,A
   \   000065   EE           MOV       A,R6
   \   000066   2403         ADD       A,#0x3
   \   000068   FE           MOV       R6,A
   \   000069   5001         JNC       ??ZDO_ParseMgmtRtgRsp_4
   \   00006B   0F           INC       R7
   2780                pList->nextHopAddress = BUILD_UINT16( msg[0], msg[1] );
   \                     ??ZDO_ParseMgmtRtgRsp_4:
   \   00006C   F582         MOV       DPL,A
   \   00006E   12....       LCALL     ?Subroutine75 & 0xFFFF
   \                     ??CrossCallReturnLabel_101:
   \   000071   A3           INC       DPTR
   \   000072   A3           INC       DPTR
   \   000073   F0           MOVX      @DPTR,A
   \   000074   A3           INC       DPTR
   \   000075   E5..         MOV       A,?V3
   \   000077   12....       LCALL     ?Subroutine153 & 0xFFFF
   2781                msg += 2;
   \                     ??CrossCallReturnLabel_486:
   \   00007A   5001         JNC       ??ZDO_ParseMgmtRtgRsp_5
   \   00007C   0F           INC       R7
   2782                pList++;
   \                     ??ZDO_ParseMgmtRtgRsp_5:
   \   00007D   E8           MOV       A,R0
   \   00007E   2406         ADD       A,#0x6
   \   000080   F8           MOV       R0,A
   \   000081   5001         JNC       ??ZDO_ParseMgmtRtgRsp_6
   \   000083   09           INC       R1
   2783              }
   \                     ??ZDO_ParseMgmtRtgRsp_6:
   \   000084   0C           INC       R4
   \                     ??ZDO_ParseMgmtRtgRsp_2:
   \   000085   EC           MOV       A,R4
   \   000086   C3           CLR       C
   \   000087   95..         SUBB      A,?V0
   \   000089   40C4         JC        ??ZDO_ParseMgmtRtgRsp_3
   2784            }
   2785            
   2786            return ( pRsp );
   \                     ??ZDO_ParseMgmtRtgRsp_1:
   \   00008B   02....       LJMP      ??Subroutine218_0 & 0xFFFF
   2787          }

   \                                 In  segment BANKED_CODE, align 1, keep-with-next
   \                     ?Subroutine75:
   \   000000   12....       LCALL     ?Subroutine172 & 0xFFFF
   \                     ??CrossCallReturnLabel_592:
   \   000003   F5..         MOV       ?V3,A
   \   000005   E5..         MOV       A,?V4
   \   000007   8882         MOV       DPL,R0
   \   000009   8983         MOV       DPH,R1
   \   00000B   22           RET

   \                                 In  segment BANKED_CODE, align 1, keep-with-next
   \                     ?Subroutine172:
   \   000000   8F83         MOV       DPH,R7
   \   000002                REQUIRE ??Subroutine250_0
   \   000002                ; // Fall through to label ??Subroutine250_0
   2788          
   2789          /*********************************************************************
   2790           * @fn          ZDO_ParseMgmtBindRsp
   2791           *
   2792           * @brief       This function parses the incoming Management
   2793           *              Binding response.
   2794           *
   2795           * @param       inMsg - pointer to message to parse
   2796           *
   2797           * @return      a pointer to parsed response structure (NULL if not allocated).  
   2798           *          This structure was allocated using osal_mem_alloc, so it must be freed
   2799           *          by the calling function [osal_mem_free()].
   2800           */

   \                                 In  segment BANKED_CODE, align 1, keep-with-next
   2801          ZDO_MgmtBindRsp_t *ZDO_ParseMgmtBindRsp( zdoIncomingMsg_t *inMsg )
   \                     ZDO_ParseMgmtBindRsp:
   2802          {
   \   000000                REQUIRE ?V0
   \   000000                REQUIRE ?V1
   \   000000                REQUIRE ?V2
   \   000000                REQUIRE ?V3
   \   000000                REQUIRE ?V4
   \   000000                REQUIRE ?V5
   \   000000                REQUIRE ?V6
   \   000000                REQUIRE ?V7
   \   000000   74F0         MOV       A,#-0x10
   \   000002   12....       LCALL     ?BANKED_ENTER_XDATA
   \   000005                ; Saved register size: 16
   \   000005                ; Auto size: 0
   2803            ZDO_MgmtBindRsp_t *pRsp;
   2804            uint8 status;
   2805            uint8 bindingCount = 0;
   \   000005   75..00       MOV       ?V4,#0x0
   2806            uint8 startIndex = 0;
   \   000008   75..00       MOV       ?V5,#0x0
   2807            uint8 bindingListCount = 0;
   \   00000B   75..00       MOV       ?V6,#0x0
   2808            uint8 *msg;
   2809            
   2810            msg = inMsg->asdu;
   \   00000E   12....       LCALL     ?Subroutine61 & 0xFFFF
   2811          
   2812            status = *msg++;
   2813            if ( status == ZSuccess )
   \                     ??CrossCallReturnLabel_75:
   \   000011   7015         JNZ       ??ZDO_ParseMgmtBindRsp_0
   2814            {
   2815              bindingCount = *msg++;
   \   000013   12....       LCALL     ??Subroutine250_0 & 0xFFFF
   2816              startIndex = *msg++;
   \                     ??CrossCallReturnLabel_590:
   \   000016   F5..         MOV       ?V5,A
   2817              bindingListCount = *msg++;
   \   000018   8E82         MOV       DPL,R6
   \   00001A   8F83         MOV       DPH,R7
   \   00001C   A3           INC       DPTR
   \   00001D   A3           INC       DPTR
   \   00001E   E0           MOVX      A,@DPTR
   \   00001F   F5..         MOV       ?V6,A
   \   000021   EE           MOV       A,R6
   \   000022   2403         ADD       A,#0x3
   \   000024   FE           MOV       R6,A
   \   000025   5001         JNC       ??ZDO_ParseMgmtBindRsp_0
   \   000027   0F           INC       R7
   2818            }
   2819          
   2820            // Allocate a buffer big enough to handle the list
   2821            pRsp = (ZDO_MgmtBindRsp_t *)osal_mem_alloc( 
   2822                    (sizeof ( ZDO_MgmtBindRsp_t ) + (bindingListCount * sizeof( apsBindingItem_t ))) );
   \                     ??ZDO_ParseMgmtBindRsp_0:
   \   000028                ; Setup parameters for call to function osal_mem_alloc
   \   000028   E5..         MOV       A,?V6
   \   00002A   75F015       MOV       B,#0x15
   \   00002D   12....       LCALL     ?Subroutine110 & 0xFFFF
   2823            if ( pRsp )
   \                     ??CrossCallReturnLabel_160:
   \   000030   6053         JZ        ??ZDO_ParseMgmtBindRsp_1
   2824            {
   2825              uint8 x;
   2826              apsBindingItem_t *pList = pRsp->list;
   \   000032   12....       LCALL     ?Subroutine15 & 0xFFFF
   2827              pRsp->status = status;
   2828              pRsp->bindingCount = bindingCount;
   2829              pRsp->startIndex = startIndex;
   \                     ??CrossCallReturnLabel_584:
   \   000035   E5..         MOV       A,?V5
   \   000037   12....       LCALL     ??Subroutine252_0 & 0xFFFF
   2830              pRsp->bindingListCount = bindingListCount;
   \                     ??CrossCallReturnLabel_601:
   \   00003A   E5..         MOV       A,?V6
   \   00003C   F0           MOVX      @DPTR,A
   2831              
   2832              for ( x = 0; x < bindingListCount; x++ )
   \   00003D   75..00       MOV       ?V4,#0x0
   \   000040   8015         SJMP      ??ZDO_ParseMgmtBindRsp_2
   2833              {
   2834                osal_cpyExtAddr( pList->srcAddr, msg );
   2835                msg += Z_EXTADDR_LEN;
   2836                pList->srcEP = *msg++;
   2837          
   2838                // Get the Cluster ID
   2839          
   2840                pList->clusterID = BUILD_UINT16( msg[0], msg[1] );
   2841                msg += 2;
   2842                pList->dstAddr.addrMode = *msg++;
   2843                if ( pList->dstAddr.addrMode == Addr64Bit )
   2844                {
   2845                  osal_cpyExtAddr( pList->dstAddr.addr.extAddr, msg );
   2846                  msg += Z_EXTADDR_LEN;
   2847                  pList->dstEP = *msg++;
   2848                }
   2849                else
   2850                {
   2851                  pList->dstAddr.addr.shortAddr = BUILD_UINT16( msg[0], msg[1] );
   \                     ??ZDO_ParseMgmtBindRsp_3:
   \   000042   12....       LCALL     ?Subroutine86 & 0xFFFF
   2852                  msg += 2;
   2853                }
   \                     ??CrossCallReturnLabel_121:
   \   000045   12....       LCALL     ??Subroutine235_0 & 0xFFFF
   \                     ??CrossCallReturnLabel_483:
   \   000048   5001         JNC       ??ZDO_ParseMgmtBindRsp_4
   \   00004A   0F           INC       R7
   2854                   
   2855                pList++;
   \                     ??ZDO_ParseMgmtBindRsp_4:
   \   00004B   E5..         MOV       A,?V0
   \   00004D   2415         ADD       A,#0x15
   \   00004F   F5..         MOV       ?V0,A
   \   000051   5002         JNC       ??ZDO_ParseMgmtBindRsp_5
   \   000053   05..         INC       ?V1
   \                     ??ZDO_ParseMgmtBindRsp_5:
   \   000055   05..         INC       ?V4
   \                     ??ZDO_ParseMgmtBindRsp_2:
   \   000057   E5..         MOV       A,?V4
   \   000059   C3           CLR       C
   \   00005A   95..         SUBB      A,?V6
   \   00005C   5027         JNC       ??ZDO_ParseMgmtBindRsp_1
   \   00005E                ; Setup parameters for call to function sAddrExtCpy
   \   00005E   12....       LCALL     ?Subroutine36 & 0xFFFF
   \                     ??CrossCallReturnLabel_594:
   \   000061   5001         JNC       ??ZDO_ParseMgmtBindRsp_6
   \   000063   0F           INC       R7
   \                     ??ZDO_ParseMgmtBindRsp_6:
   \   000064   12....       LCALL     ?Subroutine10 & 0xFFFF
   \                     ??CrossCallReturnLabel_5:
   \   000067   5001         JNC       ??ZDO_ParseMgmtBindRsp_7
   \   000069   0F           INC       R7
   \                     ??ZDO_ParseMgmtBindRsp_7:
   \   00006A   12....       LCALL     ?Subroutine140 & 0xFFFF
   \                     ??CrossCallReturnLabel_222:
   \   00006D   70D3         JNZ       ??ZDO_ParseMgmtBindRsp_3
   \   00006F                ; Setup parameters for call to function sAddrExtCpy
   \   00006F   EE           MOV       A,R6
   \   000070   FC           MOV       R4,A
   \   000071   EF           MOV       A,R7
   \   000072   FD           MOV       R5,A
   \   000073   12....       LCALL     ??Subroutine234_0 & 0xFFFF
   2856              }
   2857            }
   \                     ??CrossCallReturnLabel_478:
   \   000076   C0E0         PUSH      A
   \   000078   12....       LCALL     ?Subroutine137 & 0xFFFF
   \                     ??CrossCallReturnLabel_217:
   \   00007B   D0E0         POP       A
   \   00007D   12....       LCALL     ??Subroutine251_0 & 0xFFFF
   \                     ??CrossCallReturnLabel_596:
   \   000080   50C9         JNC       ??ZDO_ParseMgmtBindRsp_4
   \   000082   0F           INC       R7
   \                     ??ZDO_ParseMgmtBindRsp_8:
   \   000083   80C6         SJMP      ??ZDO_ParseMgmtBindRsp_4
   2858            
   2859            return ( pRsp );
   \                     ??ZDO_ParseMgmtBindRsp_1:
   \   000085   02....       LJMP      ?Subroutine2 & 0xFFFF
   2860          }
   2861          
   2862          /*********************************************************************
   2863           * @fn          ZDO_ParseUserDescRsp
   2864           *
   2865           * @brief       This function parses the incoming User
   2866           *              Descriptor Response.
   2867           *
   2868           * @param       inMsg - incoming response message
   2869           *
   2870           * @return      a pointer to parsed response structure (NULL if not allocated).  
   2871           *          This structure was allocated using osal_mem_alloc, so it must be freed
   2872           *          by the calling function [osal_mem_free()].
   2873           */

   \                                 In  segment BANKED_CODE, align 1, keep-with-next
   2874          ZDO_UserDescRsp_t *ZDO_ParseUserDescRsp( zdoIncomingMsg_t *inMsg )
   \                     ZDO_ParseUserDescRsp:
   2875          {
   \   000000                REQUIRE ?V0
   \   000000                REQUIRE ?V1
   \   000000                REQUIRE ?V2
   \   000000                REQUIRE ?V4
   \   000000                REQUIRE ?V5
   \   000000                REQUIRE ?V6
   \   000000                REQUIRE ?V7
   \   000000   74F0         MOV       A,#-0x10
   \   000002   12....       LCALL     ?BANKED_ENTER_XDATA
   \   000005                ; Saved register size: 16
   \   000005                ; Auto size: 0
   2876            ZDO_UserDescRsp_t *pRsp;
   2877            uint8 *msg;
   2878            uint8 descLen = 0;
   \   000005   75..00       MOV       ?V2,#0x0
   2879            
   2880            msg = inMsg->asdu;
   \   000008   12....       LCALL     ?Subroutine93 & 0xFFFF
   \                     ??CrossCallReturnLabel_314:
   \   00000B   F5..         MOV       ?V1,A
   2881            
   2882            if ( msg[0] == ZSuccess )
   \   00000D   85..82       MOV       DPL,?V0
   \   000010   F583         MOV       DPH,A
   \   000012   E0           MOVX      A,@DPTR
   \   000013   7006         JNZ       ??ZDO_ParseUserDescRsp_0
   2883              descLen = msg[3];
   \   000015   A3           INC       DPTR
   \   000016   A3           INC       DPTR
   \   000017   A3           INC       DPTR
   \   000018   E0           MOVX      A,@DPTR
   \   000019   F5..         MOV       ?V2,A
   2884            
   2885            pRsp = (ZDO_UserDescRsp_t *)osal_mem_alloc( sizeof ( ZDO_UserDescRsp_t ) + descLen );
   \                     ??ZDO_ParseUserDescRsp_0:
   \   00001B   AE..         MOV       R6,?V2
   \   00001D                ; Setup parameters for call to function osal_mem_alloc
   \   00001D   EE           MOV       A,R6
   \   00001E   12....       LCALL     ?Subroutine134 & 0xFFFF
   \                     ??CrossCallReturnLabel_567:
   \   000021   8A..         MOV       ?V6,R2
   \   000023   8B..         MOV       ?V7,R3
   2886            if ( pRsp )
   \   000025   EA           MOV       A,R2
   \   000026   4B           ORL       A,R3
   \   000027   6058         JZ        ??ZDO_ParseUserDescRsp_1
   2887            {
   2888              pRsp->status = msg[0];
   \   000029   85..82       MOV       DPL,?V0
   \   00002C   85..83       MOV       DPH,?V1
   \   00002F   12....       LCALL     ?Subroutine98 & 0xFFFF
   2889              pRsp->nwkAddr = BUILD_UINT16( msg[1], msg[2] );
   \                     ??CrossCallReturnLabel_140:
   \   000032   85..82       MOV       DPL,?V0
   \   000035   85..83       MOV       DPH,?V1
   \   000038   A3           INC       DPTR
   \   000039   E0           MOVX      A,@DPTR
   \   00003A   FA           MOV       R2,A
   \   00003B   85..82       MOV       DPL,?V0
   \   00003E   85..83       MOV       DPH,?V1
   \   000041   A3           INC       DPTR
   \   000042   A3           INC       DPTR
   \   000043   E0           MOVX      A,@DPTR
   \   000044   F8           MOV       R0,A
   \   000045   E4           CLR       A
   \   000046   C8           XCH       A,R0
   \   000047   F9           MOV       R1,A
   \   000048   EA           MOV       A,R2
   \   000049   85..82       MOV       DPL,?V6
   \   00004C   8B83         MOV       DPH,R3
   \   00004E   A3           INC       DPTR
   \   00004F   12....       LCALL     ??Subroutine255_0 & 0xFFFF
   2890              pRsp->length = descLen;
   \                     ??CrossCallReturnLabel_613:
   \   000052   85..82       MOV       DPL,?V6
   \   000055   8B83         MOV       DPH,R3
   \   000057   A3           INC       DPTR
   \   000058   A3           INC       DPTR
   \   000059   A3           INC       DPTR
   \   00005A   EE           MOV       A,R6
   \   00005B   F0           MOVX      @DPTR,A
   2891              if ( descLen )
   \   00005C   6023         JZ        ??ZDO_ParseUserDescRsp_1
   2892                osal_memcpy( pRsp->desc, &msg[4], descLen );
   \   00005E                ; Setup parameters for call to function osal_memcpy
   \   00005E   E5..         MOV       A,?V0
   \   000060   2404         ADD       A,#0x4
   \   000062   F5..         MOV       ?V0,A
   \   000064   5002         JNC       ??ZDO_ParseUserDescRsp_2
   \   000066   05..         INC       ?V1
   \                     ??ZDO_ParseUserDescRsp_2:
   \   000068   88..         MOV       ?V2,R0
   \   00006A   78..         MOV       R0,#?V0
   \   00006C   12....       LCALL     ?PUSH_XSTACK_I_THREE
   \   00006F   EE           MOV       A,R6
   \   000070   FC           MOV       R4,A
   \   000071   7D00         MOV       R5,#0x0
   \   000073   E5..         MOV       A,?V6
   \   000075   2404         ADD       A,#0x4
   \   000077   FA           MOV       R2,A
   \   000078   E4           CLR       A
   \   000079   35..         ADDC      A,?V7
   \   00007B   12....       LCALL     ?Subroutine135 & 0xFFFF
   2893            }
   \                     ??CrossCallReturnLabel_562:
   \   00007E   12....       LCALL     ?DEALLOC_XSTACK8
   2894            
   2895            return ( pRsp );
   \                     ??ZDO_ParseUserDescRsp_1:
   \   000081   AA..         MOV       R2,?V6
   \   000083   AB..         MOV       R3,?V7
   \   000085   02....       LJMP      ??Subroutine210_0 & 0xFFFF
   2896          }
   2897          
   2898          /*********************************************************************
   2899           * @fn          ZDO_ParseSimpleDescBuf
   2900           *
   2901           * @brief       Parse a byte sequence representation of a Simple Descriptor.
   2902           *
   2903           * @param       buf  - pointer to a byte array representing a Simple Desc.
   2904           * @param       desc - SimpleDescriptionFormat_t *
   2905           *
   2906           *              This routine allocates storage for the cluster IDs because
   2907           *              they are 16-bit and need to be aligned to be properly processed.
   2908           *              This routine returns non-zero if an allocation fails.
   2909           *
   2910           *              NOTE: This means that the caller or user of the input structure
   2911           *                    is responsible for freeing the memory
   2912           *
   2913           * @return      0: success
   2914           *              1: failure due to malloc failure.
   2915           */

   \                                 In  segment BANKED_CODE, align 1, keep-with-next
   2916          uint8 ZDO_ParseSimpleDescBuf( uint8 *buf, SimpleDescriptionFormat_t *desc )
   \                     ZDO_ParseSimpleDescBuf:
   2917          {
   \   000000                REQUIRE ?V0
   \   000000                REQUIRE ?V1
   \   000000                REQUIRE ?V2
   \   000000                REQUIRE ?V4
   \   000000                REQUIRE ?V5
   \   000000                REQUIRE ?V6
   \   000000                REQUIRE ?V7
   \   000000   74F0         MOV       A,#-0x10
   \   000002   12....       LCALL     ?BANKED_ENTER_XDATA
   \   000005                ; Saved register size: 16
   \   000005                ; Auto size: 0
   \   000005   EB           MOV       A,R3
   \   000006   8C..         MOV       ?V0,R4
   \   000008   8D..         MOV       ?V1,R5
   2918            uint8 num, i;
   2919          
   2920            desc->EndPoint = *buf++;
   \   00000A   12....       LCALL     ?Subroutine28 & 0xFFFF
   \                     ??CrossCallReturnLabel_556:
   \   00000D   AE82         MOV       R6,DPL
   \   00000F   AF83         MOV       R7,DPH
   2921            desc->AppProfId = BUILD_UINT16( buf[0], buf[1] );
   \   000011   12....       LCALL     ?Subroutine85 & 0xFFFF
   \                     ??CrossCallReturnLabel_118:
   \   000014   12....       LCALL     ?Subroutine16 & 0xFFFF
   2922            buf += 2;
   \                     ??CrossCallReturnLabel_482:
   \   000017   5001         JNC       ??ZDO_ParseSimpleDescBuf_0
   \   000019   0F           INC       R7
   2923            desc->AppDeviceId = BUILD_UINT16( buf[0], buf[1] );
   \                     ??ZDO_ParseSimpleDescBuf_0:
   \   00001A   F582         MOV       DPL,A
   \   00001C   8F83         MOV       DPH,R7
   \   00001E   12....       LCALL     ?Subroutine85 & 0xFFFF
   \                     ??CrossCallReturnLabel_119:
   \   000021   A3           INC       DPTR
   \   000022   A3           INC       DPTR
   \   000023   A3           INC       DPTR
   \   000024   F0           MOVX      @DPTR,A
   \   000025   A3           INC       DPTR
   \   000026   E9           MOV       A,R1
   \   000027   12....       LCALL     ?Subroutine19 & 0xFFFF
   2924            buf += 2;
   2925            desc->AppDevVer = *buf >> 4;
   \                     ??CrossCallReturnLabel_16:
   \   00002A   C4           SWAP      A
   \   00002B   540F         ANL       A,#0xf
   2926          
   2927            desc->Reserved = 0;
   \   00002D   8C82         MOV       DPL,R4
   \   00002F   8D83         MOV       DPH,R5
   \   000031   A3           INC       DPTR
   \   000032   A3           INC       DPTR
   \   000033   A3           INC       DPTR
   \   000034   A3           INC       DPTR
   \   000035   A3           INC       DPTR
   \   000036   12....       LCALL     ?Subroutine40 & 0xFFFF
   2928            buf++;
   2929          
   2930            // move in input cluster list (if any). allocate aligned memory.
   2931            num = desc->AppNumInClusters = *buf++;
   \                     ??CrossCallReturnLabel_48:
   \   000039   F5..         MOV       ?V2,A
   \   00003B   EE           MOV       A,R6
   \   00003C   2404         ADD       A,#0x4
   \   00003E   FE           MOV       R6,A
   \   00003F   5001         JNC       ??ZDO_ParseSimpleDescBuf_1
   \   000041   0F           INC       R7
   \                     ??ZDO_ParseSimpleDescBuf_1:
   \   000042   8C82         MOV       DPL,R4
   \   000044   8D83         MOV       DPH,R5
   \   000046   A3           INC       DPTR
   \   000047   A3           INC       DPTR
   \   000048   A3           INC       DPTR
   \   000049   A3           INC       DPTR
   \   00004A   A3           INC       DPTR
   \   00004B   A3           INC       DPTR
   \   00004C   E5..         MOV       A,?V2
   \   00004E   F0           MOVX      @DPTR,A
   2932            if ( num )  
   \   00004F   EC           MOV       A,R4
   \   000050   2407         ADD       A,#0x7
   \   000052   F5..         MOV       ?V6,A
   \   000054   E4           CLR       A
   \   000055   35..         ADDC      A,?V1
   \   000057   F5..         MOV       ?V7,A
   \   000059   E5..         MOV       A,?V2
   \   00005B   603F         JZ        ??ZDO_ParseSimpleDescBuf_2
   2933            {
   2934              if (!(desc->pAppInClusterList = (uint16 *)osal_mem_alloc(num*sizeof(uint16))))  
   \   00005D                ; Setup parameters for call to function osal_mem_alloc
   \   00005D   12....       LCALL     ?Subroutine111 & 0xFFFF
   \                     ??CrossCallReturnLabel_161:
   \   000060   A8..         MOV       R0,?V4
   \   000062   A9..         MOV       R1,?V5
   \   000064   12....       LCALL     ?Subroutine34 & 0xFFFF
   \                     ??CrossCallReturnLabel_632:
   \   000067   49           ORL       A,R1
   \   000068   6079         JZ        ??ZDO_ParseSimpleDescBuf_3
   2935              {
   2936                // malloc failed. we're done.
   2937                return 1;
   2938              }
   2939              for (i=0; i<num; ++i)  
   \   00006A   7A00         MOV       R2,#0x0
   \   00006C   8028         SJMP      ??ZDO_ParseSimpleDescBuf_4
   2940              {
   2941                desc->pAppInClusterList[i] = BUILD_UINT16( buf[0], buf[1] );
   \                     ??ZDO_ParseSimpleDescBuf_5:
   \   00006E   8E82         MOV       DPL,R6
   \   000070   12....       LCALL     ?Subroutine172 & 0xFFFF
   2942                buf += 2;
   2943              }
   \                     ??CrossCallReturnLabel_591:
   \   000073   FC           MOV       R4,A
   \   000074   E4           CLR       A
   \   000075   CC           XCH       A,R4
   \   000076   FD           MOV       R5,A
   \   000077   E5..         MOV       A,?V4
   \   000079   2C           ADD       A,R4
   \   00007A   E4           CLR       A
   \   00007B   3D           ADDC      A,R5
   \   00007C   F5..         MOV       ?V5,A
   \   00007E   12....       LCALL     ?Subroutine117 & 0xFFFF
   \                     ??CrossCallReturnLabel_627:
   \   000081   E8           MOV       A,R0
   \   000082   2C           ADD       A,R4
   \   000083   F582         MOV       DPL,A
   \   000085   EB           MOV       A,R3
   \   000086   3D           ADDC      A,R5
   \   000087   F583         MOV       DPH,A
   \   000089   E5..         MOV       A,?V4
   \   00008B   F0           MOVX      @DPTR,A
   \   00008C   A3           INC       DPTR
   \   00008D   E5..         MOV       A,?V5
   \   00008F   12....       LCALL     ?Subroutine153 & 0xFFFF
   \                     ??CrossCallReturnLabel_487:
   \   000092   5001         JNC       ??ZDO_ParseSimpleDescBuf_6
   \   000094   0F           INC       R7
   \                     ??ZDO_ParseSimpleDescBuf_6:
   \   000095   0A           INC       R2
   \                     ??ZDO_ParseSimpleDescBuf_4:
   \   000096   EA           MOV       A,R2
   \   000097   C3           CLR       C
   \   000098   95..         SUBB      A,?V2
   \   00009A   40D2         JC        ??ZDO_ParseSimpleDescBuf_5
   2944            }
   2945          
   2946            // move in output cluster list (if any). allocate aligned memory.
   2947            num = desc->AppNumOutClusters = *buf++;
   \                     ??ZDO_ParseSimpleDescBuf_2:
   \   00009C   8E82         MOV       DPL,R6
   \   00009E   8F83         MOV       DPH,R7
   \   0000A0   E0           MOVX      A,@DPTR
   \   0000A1   F5..         MOV       ?V2,A
   \   0000A3   A3           INC       DPTR
   \   0000A4   AE82         MOV       R6,DPL
   \   0000A6   AF83         MOV       R7,DPH
   \   0000A8   85..82       MOV       DPL,?V0
   \   0000AB   85..83       MOV       DPH,?V1
   \   0000AE   A3           INC       DPTR
   \   0000AF   A3           INC       DPTR
   \   0000B0   A3           INC       DPTR
   \   0000B1   A3           INC       DPTR
   \   0000B2   A3           INC       DPTR
   \   0000B3   A3           INC       DPTR
   \   0000B4   A3           INC       DPTR
   \   0000B5   A3           INC       DPTR
   \   0000B6   A3           INC       DPTR
   \   0000B7   F0           MOVX      @DPTR,A
   2948            if (num)  
   \   0000B8   6062         JZ        ??ZDO_ParseSimpleDescBuf_7
   2949            {
   2950              if (!(desc->pAppOutClusterList = (uint16 *)osal_mem_alloc(num*sizeof(uint16))))  
   \   0000BA                ; Setup parameters for call to function osal_mem_alloc
   \   0000BA   12....       LCALL     ?Subroutine111 & 0xFFFF
   \                     ??CrossCallReturnLabel_162:
   \   0000BD   A9..         MOV       R1,?V5
   \   0000BF   85..82       MOV       DPL,?V0
   \   0000C2   85..83       MOV       DPH,?V1
   \   0000C5   A3           INC       DPTR
   \   0000C6   A3           INC       DPTR
   \   0000C7   A3           INC       DPTR
   \   0000C8   A3           INC       DPTR
   \   0000C9   A3           INC       DPTR
   \   0000CA   A3           INC       DPTR
   \   0000CB   A3           INC       DPTR
   \   0000CC   A3           INC       DPTR
   \   0000CD   A3           INC       DPTR
   \   0000CE   A3           INC       DPTR
   \   0000CF   12....       LCALL     ??Subroutine257_0 & 0xFFFF
   \                     ??CrossCallReturnLabel_630:
   \   0000D2   49           ORL       A,R1
   \   0000D3   7012         JNZ       ??ZDO_ParseSimpleDescBuf_8
   2951              {
   2952                // malloc failed. free input cluster list memory if there is any
   2953                if ( desc->pAppInClusterList != NULL )  
   \   0000D5   85..82       MOV       DPL,?V6
   \   0000D8   85..83       MOV       DPH,?V7
   \   0000DB   12....       LCALL     ??Subroutine225_0 & 0xFFFF
   \                     ??CrossCallReturnLabel_415:
   \   0000DE   6003         JZ        ??ZDO_ParseSimpleDescBuf_3
   2954                {
   2955                  osal_mem_free(desc->pAppInClusterList);
   \   0000E0                ; Setup parameters for call to function osal_mem_free
   \   0000E0   12....       LCALL     `??osal_mem_free::?relay`; Banked call to: osal_mem_free
   2956                }
   2957                return 1;
   \                     ??ZDO_ParseSimpleDescBuf_3:
   \   0000E3   7901         MOV       R1,#0x1
   \   0000E5   8037         SJMP      ??ZDO_ParseSimpleDescBuf_9
   2958              }
   2959              for (i=0; i<num; ++i)  
   \                     ??ZDO_ParseSimpleDescBuf_8:
   \   0000E7   7A00         MOV       R2,#0x0
   \   0000E9   802B         SJMP      ??ZDO_ParseSimpleDescBuf_10
   2960              {
   2961                desc->pAppOutClusterList[i] = BUILD_UINT16( buf[0], buf[1] );
   \                     ??ZDO_ParseSimpleDescBuf_11:
   \   0000EB   8E82         MOV       DPL,R6
   \   0000ED   8F83         MOV       DPH,R7
   \   0000EF   12....       LCALL     ??Subroutine202_0 & 0xFFFF
   2962                buf += 2;
   2963              }
   \                     ??CrossCallReturnLabel_310:
   \   0000F2   FC           MOV       R4,A
   \   0000F3   E4           CLR       A
   \   0000F4   CC           XCH       A,R4
   \   0000F5   FD           MOV       R5,A
   \   0000F6   E5..         MOV       A,?V0
   \   0000F8   2C           ADD       A,R4
   \   0000F9   E4           CLR       A
   \   0000FA   3D           ADDC      A,R5
   \   0000FB   F5..         MOV       ?V1,A
   \   0000FD   12....       LCALL     ?Subroutine117 & 0xFFFF
   \                     ??CrossCallReturnLabel_628:
   \   000100   E5..         MOV       A,?V4
   \   000102   2C           ADD       A,R4
   \   000103   F582         MOV       DPL,A
   \   000105   EB           MOV       A,R3
   \   000106   3D           ADDC      A,R5
   \   000107   F583         MOV       DPH,A
   \   000109   E5..         MOV       A,?V0
   \   00010B   F0           MOVX      @DPTR,A
   \   00010C   A3           INC       DPTR
   \   00010D   E5..         MOV       A,?V1
   \   00010F   12....       LCALL     ?Subroutine153 & 0xFFFF
   \                     ??CrossCallReturnLabel_488:
   \   000112   5001         JNC       ??ZDO_ParseSimpleDescBuf_12
   \   000114   0F           INC       R7
   \                     ??ZDO_ParseSimpleDescBuf_12:
   \   000115   0A           INC       R2
   \                     ??ZDO_ParseSimpleDescBuf_10:
   \   000116   EA           MOV       A,R2
   \   000117   C3           CLR       C
   \   000118   95..         SUBB      A,?V2
   \   00011A   40CF         JC        ??ZDO_ParseSimpleDescBuf_11
   2964            }
   2965            return 0;
   \                     ??ZDO_ParseSimpleDescBuf_7:
   \   00011C   7900         MOV       R1,#0x0
   \                     ??ZDO_ParseSimpleDescBuf_9:
   \   00011E   02....       LJMP      ??Subroutine210_0 & 0xFFFF
   2966          }

   \                                 In  segment BANKED_CODE, align 1, keep-with-next
   \                     ?Subroutine117:
   \   000000   EA           MOV       A,R2
   \   000001                REQUIRE ??Subroutine256_0
   \   000001                ; // Fall through to label ??Subroutine256_0

   \                                 In  segment BANKED_CODE, align 1, keep-with-next
   \                     ?Subroutine111:
   \   000000   12....       LCALL     ?Subroutine179 & 0xFFFF
   \                     ??CrossCallReturnLabel_271:
   \   000003   8A..         MOV       ?V4,R2
   \   000005   8B..         MOV       ?V5,R3
   \   000007   22           RET

   \                                 In  segment BANKED_CODE, align 1, keep-with-next
   \                     ?Subroutine85:
   \   000000   12....       LCALL     ?Subroutine167 & 0xFFFF
   \                     ??CrossCallReturnLabel_635:
   \   000003   22           RET
   2967          
   2968          /*********************************************************************
   2969           * @fn          ZDO_ParseDeviceAnnce
   2970           *
   2971           * @brief       Parse a Device Announce message.
   2972           *
   2973           * @param       inMsg - Incoming message
   2974           * @param       pAnnce - place to put the parsed information
   2975           *
   2976           * @return      none
   2977           */

   \                                 In  segment BANKED_CODE, align 1, keep-with-next
   2978          void ZDO_ParseDeviceAnnce( zdoIncomingMsg_t *inMsg, ZDO_DeviceAnnce_t *pAnnce )
   \                     ZDO_ParseDeviceAnnce:
   2979          {
   \   000000                REQUIRE ?V0
   \   000000                REQUIRE ?V1
   \   000000   74F6         MOV       A,#-0xa
   \   000002   12....       LCALL     ?BANKED_ENTER_XDATA
   \   000005                ; Saved register size: 10
   \   000005                ; Auto size: 0
   \   000005   8C..         MOV       ?V0,R4
   \   000007   8D..         MOV       ?V1,R5
   2980            uint8 *msg;
   2981          
   2982            // Parse incoming message
   2983            msg = inMsg->asdu;
   \   000009   12....       LCALL     ?Subroutine121 & 0xFFFF
   \                     ??CrossCallReturnLabel_182:
   \   00000C   E0           MOVX      A,@DPTR
   \   00000D   12....       LCALL     ?Subroutine62 & 0xFFFF
   2984            pAnnce->nwkAddr = BUILD_UINT16( msg[0], msg[1] );
   \                     ??CrossCallReturnLabel_77:
   \   000010   12....       LCALL     ??Subroutine235_0 & 0xFFFF
   2985            msg += 2;
   \                     ??CrossCallReturnLabel_484:
   \   000013   5001         JNC       ??ZDO_ParseDeviceAnnce_0
   \   000015   0F           INC       R7
   2986            osal_cpyExtAddr( pAnnce->extAddr, msg );
   \                     ??ZDO_ParseDeviceAnnce_0:
   \   000016                ; Setup parameters for call to function sAddrExtCpy
   \   000016   FC           MOV       R4,A
   \   000017   EF           MOV       A,R7
   \   000018   FD           MOV       R5,A
   \   000019   E5..         MOV       A,?V0
   \   00001B   2402         ADD       A,#0x2
   \   00001D   12....       LCALL     ?Subroutine44 & 0xFFFF
   2987            msg += Z_EXTADDR_LEN;
   2988            pAnnce->capabilities = *msg;
   \                     ??CrossCallReturnLabel_476:
   \   000020   85..82       MOV       DPL,?V0
   \   000023   85..83       MOV       DPH,?V1
   \   000026   A3           INC       DPTR
   \   000027   A3           INC       DPTR
   \   000028   A3           INC       DPTR
   \   000029   A3           INC       DPTR
   \   00002A   A3           INC       DPTR
   \   00002B   A3           INC       DPTR
   \   00002C   A3           INC       DPTR
   \   00002D   A3           INC       DPTR
   \   00002E   A3           INC       DPTR
   \   00002F   A3           INC       DPTR
   \   000030   F0           MOVX      @DPTR,A
   2989          }
   \   000031   02....       LJMP      ??Subroutine198_0 & 0xFFFF
   2990          
   2991          /*********************************************************************
   2992           * @fn          ZDO_ParseMgmtNwkUpdateNotify
   2993           *
   2994           * @brief       This function handles parsing of the incoming Management
   2995           *              Network Update notify.
   2996           *
   2997           * @param       inMsg - incoming message (request)
   2998           *
   2999           * @return      a pointer to parsed response structure (NULL if not allocated).  
   3000           *          This structure was allocated using osal_mem_alloc, so it must be freed
   3001           *          by the calling function [osal_mem_free()].
   3002           */

   \                                 In  segment BANKED_CODE, align 1, keep-with-next
   \                     ?Subroutine25:
   \   000000   F8           MOV       R0,A
   \   000001   A3           INC       DPTR
   \   000002   E0           MOVX      A,@DPTR
   \   000003   3400         ADDC      A,#0x0
   \   000005                REQUIRE ??Subroutine253_0
   \   000005                ; // Fall through to label ??Subroutine253_0

   \                                 In  segment BANKED_CODE, align 1, keep-with-next
   3003          ZDO_MgmtNwkUpdateNotify_t *ZDO_ParseMgmtNwkUpdateNotify( zdoIncomingMsg_t *inMsg )
   \                     ZDO_ParseMgmtNwkUpdateNotify:
   3004          {
   \   000000                REQUIRE ?V0
   \   000000                REQUIRE ?V1
   \   000000                REQUIRE ?V2
   \   000000                REQUIRE ?V3
   \   000000                REQUIRE ?V4
   \   000000                REQUIRE ?V5
   \   000000   74F2         MOV       A,#-0xe
   \   000002   12....       LCALL     ?BANKED_ENTER_XDATA
   \   000005                ; Saved register size: 14
   \   000005                ; Auto size: 8
   \   000005   74F8         MOV       A,#-0x8
   \   000007   12....       LCALL     ?ALLOC_XSTACK8
   3005            uint8 status;
   3006            uint32 scannedChannels = 0;
   \   00000A   75..00       MOV       ?V0,#0x0
   \   00000D   75..00       MOV       ?V1,#0x0
   \   000010   75..00       MOV       ?V2,#0x0
   \   000013   75..00       MOV       ?V3,#0x0
   3007            uint16 totalTransmissions = 0;
   \   000016   7406         MOV       A,#0x6
   \   000018   12....       LCALL     ?XSTACK_DISP0_8
   \   00001B   E4           CLR       A
   \   00001C   F0           MOVX      @DPTR,A
   \   00001D   A3           INC       DPTR
   \   00001E   F0           MOVX      @DPTR,A
   3008            uint16 transmissionFailures = 0;
   \   00001F   F5..         MOV       ?V4,A
   \   000021   F5..         MOV       ?V5,A
   3009            uint8 listCount = 0;
   \   000023   7402         MOV       A,#0x2
   \   000025   12....       LCALL     ?XSTACK_DISP0_8
   \   000028   E4           CLR       A
   \   000029   12....       LCALL     ?Subroutine29 & 0xFFFF
   3010            uint8 *msg = inMsg->asdu;
   \                     ??CrossCallReturnLabel_28:
   \   00002C   F8           MOV       R0,A
   \   00002D   A3           INC       DPTR
   \   00002E   E0           MOVX      A,@DPTR
   \   00002F   F9           MOV       R1,A
   \   000030   85..82       MOV       DPL,?XSP + 0
   \   000033   85..83       MOV       DPH,?XSP + 1
   \   000036   E8           MOV       A,R0
   \   000037   12....       LCALL     ?Subroutine24 & 0xFFFF
   3011            ZDO_MgmtNwkUpdateNotify_t *pRsp;
   3012          
   3013            status = *msg++;
   \                     ??CrossCallReturnLabel_21:
   \   00003A   12....       LCALL     ?Subroutine96 & 0xFFFF
   \                     ??CrossCallReturnLabel_646:
   \   00003D   E0           MOVX      A,@DPTR
   \   00003E   C0E0         PUSH      A
   \   000040   7405         MOV       A,#0x5
   \   000042   12....       LCALL     ?XSTACK_DISP0_8
   \   000045   D0E0         POP       A
   \   000047   12....       LCALL     ?Subroutine27 & 0xFFFF
   \                     ??CrossCallReturnLabel_25:
   \   00004A   2401         ADD       A,#0x1
   \   00004C   12....       LCALL     ?Subroutine25 & 0xFFFF
   3014            if ( status == ZSuccess )
   \                     ??CrossCallReturnLabel_624:
   \   00004F   7405         MOV       A,#0x5
   \   000051   12....       LCALL     ?XSTACK_DISP0_8
   \   000054   E0           MOVX      A,@DPTR
   \   000055   7051         JNZ       ??CrossCallReturnLabel_625
   3015            {
   3016              scannedChannels = osal_build_uint32( msg, 4 );
   \   000057                ; Setup parameters for call to function osal_build_uint32
   \   000057   7904         MOV       R1,#0x4
   \   000059   12....       LCALL     ??Subroutine211_0 & 0xFFFF
   \                     ??CrossCallReturnLabel_366:
   \   00005C   12....       LCALL     `??osal_build_uint32::?relay`; Banked call to: osal_build_uint32
   \   00005F   8A..         MOV       ?V0,R2
   \   000061   8B..         MOV       ?V1,R3
   \   000063   8C..         MOV       ?V2,R4
   \   000065   8D..         MOV       ?V3,R5
   3017              msg += 4;
   \   000067   85..82       MOV       DPL,?XSP + 0
   \   00006A   85..83       MOV       DPH,?XSP + 1
   \   00006D   E0           MOVX      A,@DPTR
   \   00006E   2404         ADD       A,#0x4
   \   000070   12....       LCALL     ?Subroutine8 & 0xFFFF
   3018              totalTransmissions = BUILD_UINT16( msg[0], msg[1] );
   \                     ??CrossCallReturnLabel_0:
   \   000073   F9           MOV       R1,A
   \   000074   7406         MOV       A,#0x6
   \   000076   12....       LCALL     ?XSTACK_DISP0_8
   \   000079   EA           MOV       A,R2
   \   00007A   12....       LCALL     ?Subroutine24 & 0xFFFF
   3019              msg += 2;
   \                     ??CrossCallReturnLabel_22:
   \   00007D   2402         ADD       A,#0x2
   \   00007F   12....       LCALL     ?Subroutine8 & 0xFFFF
   3020              transmissionFailures = BUILD_UINT16( msg[0], msg[1] );
   \                     ??CrossCallReturnLabel_1:
   \   000082   F8           MOV       R0,A
   \   000083   E4           CLR       A
   \   000084   C8           XCH       A,R0
   \   000085   F9           MOV       R1,A
   \   000086   EA           MOV       A,R2
   \   000087   28           ADD       A,R0
   \   000088   F5..         MOV       ?V4,A
   \   00008A   E4           CLR       A
   \   00008B   39           ADDC      A,R1
   \   00008C   F5..         MOV       ?V5,A
   3021              msg += 2;
   3022              listCount = *msg++;
   \   00008E   85..82       MOV       DPL,?XSP + 0
   \   000091   85..83       MOV       DPH,?XSP + 1
   \   000094   12....       LCALL     ?Subroutine82 & 0xFFFF
   3023            }
   \                     ??CrossCallReturnLabel_113:
   \   000097   C0E0         PUSH      A
   \   000099   7402         MOV       A,#0x2
   \   00009B   12....       LCALL     ?XSTACK_DISP0_8
   \   00009E   D0E0         POP       A
   \   0000A0   12....       LCALL     ?Subroutine27 & 0xFFFF
   \                     ??CrossCallReturnLabel_26:
   \   0000A3   2403         ADD       A,#0x3
   \   0000A5   12....       LCALL     ?Subroutine25 & 0xFFFF
   3024            
   3025            pRsp = (ZDO_MgmtNwkUpdateNotify_t *)osal_mem_alloc( sizeof ( ZDO_MgmtNwkUpdateNotify_t ) + listCount );
   \                     ??CrossCallReturnLabel_625:
   \   0000A8   7402         MOV       A,#0x2
   \   0000AA   12....       LCALL     ?XSTACK_DISP0_8
   \   0000AD   E0           MOVX      A,@DPTR
   \   0000AE   FE           MOV       R6,A
   \   0000AF                ; Setup parameters for call to function osal_mem_alloc
   \   0000AF   240A         ADD       A,#0xa
   \   0000B1   12....       LCALL     ??Subroutine245_0 & 0xFFFF
   \                     ??CrossCallReturnLabel_568:
   \   0000B4   7403         MOV       A,#0x3
   \   0000B6   12....       LCALL     ?XSTACK_DISP0_8
   \   0000B9   12....       LCALL     ??Subroutine206_0 & 0xFFFF
   3026          
   3027            if ( pRsp )
   \                     ??CrossCallReturnLabel_340:
   \   0000BC   7403         MOV       A,#0x3
   \   0000BE   12....       LCALL     ?XSTACK_DISP0_8
   \   0000C1   12....       LCALL     ??Subroutine221_0 & 0xFFFF
   \                     ??CrossCallReturnLabel_403:
   \   0000C4   7003         JNZ       $+5
   \   0000C6   02....       LJMP      ??ZDO_ParseMgmtNwkUpdateNotify_0 & 0xFFFF
   3028            {
   3029              pRsp->status = status;
   \   0000C9   7405         MOV       A,#0x5
   \   0000CB   12....       LCALL     ?XSTACK_DISP0_8
   \   0000CE   E0           MOVX      A,@DPTR
   \   0000CF   C0E0         PUSH      A
   \   0000D1   7403         MOV       A,#0x3
   \   0000D3   12....       LCALL     ?XSTACK_DISP0_8
   \   0000D6   12....       LCALL     ??Subroutine260_0 & 0xFFFF
   \                     ??CrossCallReturnLabel_644:
   \   0000D9   D0E0         POP       A
   \   0000DB   F0           MOVX      @DPTR,A
   3030              pRsp->scannedChannels = scannedChannels;
   \   0000DC   7403         MOV       A,#0x3
   \   0000DE   12....       LCALL     ?XSTACK_DISP0_8
   \   0000E1   12....       LCALL     ?Subroutine95 & 0xFFFF
   \                     ??CrossCallReturnLabel_135:
   \   0000E4   78..         MOV       R0,#?V0
   \   0000E6   12....       LCALL     ?L_MOV_TO_X
   3031              pRsp->totalTransmissions = totalTransmissions;
   \   0000E9   7406         MOV       A,#0x6
   \   0000EB   12....       LCALL     ?XSTACK_DISP0_8
   \   0000EE   12....       LCALL     ??Subroutine233_0 & 0xFFFF
   \                     ??CrossCallReturnLabel_465:
   \   0000F1   7403         MOV       A,#0x3
   \   0000F3   12....       LCALL     ?XSTACK_DISP0_8
   \   0000F6   12....       LCALL     ?Subroutine104 & 0xFFFF
   \                     ??CrossCallReturnLabel_148:
   \   0000F9   A3           INC       DPTR
   \   0000FA   A3           INC       DPTR
   \   0000FB   A3           INC       DPTR
   \   0000FC   A3           INC       DPTR
   \   0000FD   A3           INC       DPTR
   \   0000FE   12....       LCALL     ??Subroutine254_0 & 0xFFFF
   3032              pRsp->transmissionFailures = transmissionFailures;
   \                     ??CrossCallReturnLabel_622:
   \   000101   7403         MOV       A,#0x3
   \   000103   12....       LCALL     ?XSTACK_DISP0_8
   \   000106   12....       LCALL     ??Subroutine240_0 & 0xFFFF
   \                     ??CrossCallReturnLabel_518:
   \   000109   2407         ADD       A,#0x7
   \   00010B   F582         MOV       DPL,A
   \   00010D   E4           CLR       A
   \   00010E   38           ADDC      A,R0
   \   00010F   F583         MOV       DPH,A
   \   000111   E5..         MOV       A,?V4
   \   000113   F0           MOVX      @DPTR,A
   \   000114   A3           INC       DPTR
   \   000115   E5..         MOV       A,?V5
   \   000117   F0           MOVX      @DPTR,A
   3033              pRsp->listCount = listCount;
   \   000118   7402         MOV       A,#0x2
   \   00011A   12....       LCALL     ?XSTACK_DISP0_8
   \   00011D   E0           MOVX      A,@DPTR
   \   00011E   C0E0         PUSH      A
   \   000120   7403         MOV       A,#0x3
   \   000122   12....       LCALL     ?XSTACK_DISP0_8
   \   000125   12....       LCALL     ?Subroutine74 & 0xFFFF
   \                     ??CrossCallReturnLabel_99:
   \   000128   D0E0         POP       A
   \   00012A   F0           MOVX      @DPTR,A
   3034              
   3035              // Allocate a buffer big enough to handle the list.
   3036              if ( listCount > 0 )
   \   00012B   7402         MOV       A,#0x2
   \   00012D   12....       LCALL     ?XSTACK_DISP0_8
   \   000130   E0           MOVX      A,@DPTR
   \   000131   6023         JZ        ??ZDO_ParseMgmtNwkUpdateNotify_0
   3037                osal_memcpy( pRsp->energyValues, msg, listCount );
   \   000133                ; Setup parameters for call to function osal_memcpy
   \   000133   85..82       MOV       DPL,?XSP + 0
   \   000136   85..83       MOV       DPH,?XSP + 1
   \   000139   12....       LCALL     ?Subroutine55 & 0xFFFF
   3038            }
   \                     ??CrossCallReturnLabel_69:
   \   00013C   12....       LCALL     ?PUSH_XSTACK_I_THREE
   \   00013F   EE           MOV       A,R6
   \   000140   FC           MOV       R4,A
   \   000141   7D00         MOV       R5,#0x0
   \   000143   7406         MOV       A,#0x6
   \   000145   12....       LCALL     ?XSTACK_DISP0_8
   \   000148   E0           MOVX      A,@DPTR
   \   000149   240A         ADD       A,#0xa
   \   00014B   FA           MOV       R2,A
   \   00014C   A3           INC       DPTR
   \   00014D   E0           MOVX      A,@DPTR
   \   00014E   3400         ADDC      A,#0x0
   \   000150   12....       LCALL     ?Subroutine135 & 0xFFFF
   \                     ??CrossCallReturnLabel_563:
   \   000153   12....       LCALL     ?DEALLOC_XSTACK8
   3039            
   3040            return ( pRsp );
   \                     ??ZDO_ParseMgmtNwkUpdateNotify_0:
   \   000156   7403         MOV       A,#0x3
   \   000158   12....       LCALL     ?XSTACK_DISP0_8
   \   00015B   12....       LCALL     ??Subroutine212_0 & 0xFFFF
   \                     ??CrossCallReturnLabel_365:
   \   00015E   7408         MOV       A,#0x8
   \   000160   02....       LJMP      ?Subroutine4 & 0xFFFF
   3041          }

   \                                 In  segment BANKED_CODE, align 1, keep-with-next
   \                     ?Subroutine24:
   \   000000   12....       LCALL     ?Subroutine148 & 0xFFFF
   \                     ??CrossCallReturnLabel_657:
   \   000003   22           RET

   \                                 In  segment BANKED_CODE, align 1, keep-with-next
   \                     ?Subroutine148:
   \   000000   F0           MOVX      @DPTR,A
   \   000001   A3           INC       DPTR
   \   000002   E9           MOV       A,R1
   \   000003                REQUIRE ??Subroutine264_0
   \   000003                ; // Fall through to label ??Subroutine264_0

   \                                 In  segment BANKED_CODE, align 1, keep-with-next
   \                     ?Subroutine8:
   \   000000   F8           MOV       R0,A
   \   000001   A3           INC       DPTR
   \   000002   E0           MOVX      A,@DPTR
   \   000003   3400         ADDC      A,#0x0
   \   000005   F9           MOV       R1,A
   \   000006   85..82       MOV       DPL,?XSP + 0
   \   000009   85..83       MOV       DPH,?XSP + 1
   \   00000C   E8           MOV       A,R0
   \   00000D   12....       LCALL     ?Subroutine148 & 0xFFFF
   \                     ??CrossCallReturnLabel_658:
   \   000010   12....       LCALL     ?Subroutine190 & 0xFFFF
   \                     ??CrossCallReturnLabel_653:
   \   000013   E0           MOVX      A,@DPTR
   \   000014   FA           MOV       R2,A
   \   000015   85..82       MOV       DPL,?XSP + 0
   \   000018   85..83       MOV       DPH,?XSP + 1
   \   00001B   12....       LCALL     ??Subroutine262_0 & 0xFFFF
   \                     ??CrossCallReturnLabel_647:
   \   00001E   E0           MOVX      A,@DPTR
   \   00001F   22           RET
   3042          
   3043          /*********************************************************************
   3044           * @fn          ZDO_ParseMgmtNwkUpdateReq
   3045           *
   3046           * @brief       This function handles parsing the incoming Management
   3047           *              Network Update request and starts the request (if needed).
   3048           *
   3049           * @param       inMsg - incoming message (request)
   3050           * @param       pReq - pointer to place to parse message to
   3051           *
   3052           * @return      none
   3053           */

   \                                 In  segment BANKED_CODE, align 1, keep-with-next
   3054          void ZDO_ParseMgmtNwkUpdateReq( zdoIncomingMsg_t *inMsg, ZDO_MgmtNwkUpdateReq_t *pReq )
   \                     ZDO_ParseMgmtNwkUpdateReq:
   3055          {
   \   000000                REQUIRE ?V0
   \   000000                REQUIRE ?V1
   \   000000   74F6         MOV       A,#-0xa
   \   000002   12....       LCALL     ?BANKED_ENTER_XDATA
   \   000005                ; Saved register size: 10
   \   000005                ; Auto size: 0
   \   000005   12....       LCALL     ?Subroutine122 & 0xFFFF
   3056            uint8 *msg = inMsg->asdu;
   \                     ??CrossCallReturnLabel_490:
   \   000008   12....       LCALL     ?Subroutine53 & 0xFFFF
   3057            
   3058            pReq->channelMask = osal_build_uint32( msg, 4 );
   \                     ??CrossCallReturnLabel_64:
   \   00000B   85..82       MOV       DPL,?V0
   \   00000E   85..83       MOV       DPH,?V1
   \   000011   12....       LCALL     ?XSTORE_R0123
   3059            msg += 4;
   3060            pReq->scanDuration = *msg++;
   \   000014   8E82         MOV       DPL,R6
   \   000016   8F83         MOV       DPH,R7
   \   000018   A3           INC       DPTR
   \   000019   A3           INC       DPTR
   \   00001A   A3           INC       DPTR
   \   00001B   A3           INC       DPTR
   \   00001C   E0           MOVX      A,@DPTR
   \   00001D   FA           MOV       R2,A
   \   00001E   E5..         MOV       A,?V0
   \   000020   2404         ADD       A,#0x4
   \   000022   F8           MOV       R0,A
   \   000023   E4           CLR       A
   \   000024   35..         ADDC      A,?V1
   \   000026   F9           MOV       R1,A
   \   000027   EA           MOV       A,R2
   \   000028   8882         MOV       DPL,R0
   \   00002A   8983         MOV       DPH,R1
   \   00002C   F0           MOVX      @DPTR,A
   3061            
   3062            if ( pReq->scanDuration <= 0x05 )
   \   00002D   C3           CLR       C
   \   00002E   9406         SUBB      A,#0x6
   \   000030   5005         JNC       ??ZDO_ParseMgmtNwkUpdateReq_0
   3063            {
   3064              // Request is to scan over channelMask
   3065              pReq->scanCount = *msg;
   \   000032   12....       LCALL     ?Subroutine78 & 0xFFFF
   3066            }
   \                     ??CrossCallReturnLabel_108:
   \   000035   8024         SJMP      ??ZDO_ParseMgmtNwkUpdateReq_1
   3067            else if ( ( pReq->scanDuration == 0xFE ) || ( pReq->scanDuration == 0xFF ) )
   \                     ??ZDO_ParseMgmtNwkUpdateReq_0:
   \   000037   74FE         MOV       A,#-0x2
   \   000039   6A           XRL       A,R2
   \   00003A   6005         JZ        ??ZDO_ParseMgmtNwkUpdateReq_2
   \   00003C   74FF         MOV       A,#-0x1
   \   00003E   6A           XRL       A,R2
   \   00003F   701B         JNZ       ??ZDO_ParseMgmtNwkUpdateReq_3
   3068            {
   3069              // Request is to change Channel (0xFE) or apsChannelMask and NwkManagerAddr (0xFF)
   3070              pReq->nwkUpdateId = *msg++;
   \                     ??ZDO_ParseMgmtNwkUpdateReq_2:
   \   000041   12....       LCALL     ?Subroutine78 & 0xFFFF
   \                     ??CrossCallReturnLabel_109:
   \   000044   A3           INC       DPTR
   \   000045   F0           MOVX      @DPTR,A
   \   000046   EE           MOV       A,R6
   \   000047   2406         ADD       A,#0x6
   \   000049   FE           MOV       R6,A
   \   00004A   5001         JNC       ??ZDO_ParseMgmtNwkUpdateReq_4
   \   00004C   0F           INC       R7
   3071              
   3072              if ( pReq->scanDuration == 0xFF )
   \                     ??ZDO_ParseMgmtNwkUpdateReq_4:
   \   00004D   8882         MOV       DPL,R0
   \   00004F   8983         MOV       DPH,R1
   \   000051   E0           MOVX      A,@DPTR
   \   000052   F4           CPL       A
   \   000053   7007         JNZ       ??ZDO_ParseMgmtNwkUpdateReq_3
   3073              {
   3074                pReq->nwkManagerAddr = BUILD_UINT16( msg[0], msg[1] );
   \   000055   12....       LCALL     ?Subroutine58 & 0xFFFF
   3075              }
   3076            }
   \                     ??CrossCallReturnLabel_73:
   \   000058   F0           MOVX      @DPTR,A
   \   000059   A3           INC       DPTR
   \   00005A   E9           MOV       A,R1
   \                     ??ZDO_ParseMgmtNwkUpdateReq_1:
   \   00005B   F0           MOVX      @DPTR,A
   3077          }
   \                     ??ZDO_ParseMgmtNwkUpdateReq_3:
   \   00005C   02....       LJMP      ??Subroutine198_0 & 0xFFFF

   \                                 In  segment BANKED_CODE, align 1, keep-with-next
   \                     ?Subroutine78:
   \   000000   8E82         MOV       DPL,R6
   \   000002   8F83         MOV       DPH,R7
   \   000004   A3           INC       DPTR
   \   000005   A3           INC       DPTR
   \   000006   A3           INC       DPTR
   \   000007   A3           INC       DPTR
   \   000008   A3           INC       DPTR
   \   000009   E0           MOVX      A,@DPTR
   \   00000A   85..82       MOV       DPL,?V0
   \   00000D   85..83       MOV       DPH,?V1
   \   000010   A3           INC       DPTR
   \   000011   A3           INC       DPTR
   \   000012   A3           INC       DPTR
   \   000013   A3           INC       DPTR
   \   000014   A3           INC       DPTR
   \   000015   22           RET

   \                                 In  segment BANK_RELAYS, align 1
   \                     `??ZDO_Init::?relay`:
   \   000000   12....       LCALL   ?BDISPATCH
   \   000003   ......       DC24    ZDO_Init

   \                                 In  segment BANK_RELAYS, align 1
   \                     `??ZDO_StartDevice::?relay`:
   \   000000   12....       LCALL   ?BDISPATCH
   \   000003   ......       DC24    ZDO_StartDevice

   \                                 In  segment BANK_RELAYS, align 1
   \                     `??ZDO_UpdateNwkStatus::?relay`:
   \   000000   12....       LCALL   ?BDISPATCH
   \   000003   ......       DC24    ZDO_UpdateNwkStatus

   \                                 In  segment BANK_RELAYS, align 1
   \                     `??ZDO_CompareClusterLists::?relay`:
   \   000000   12....       LCALL   ?BDISPATCH
   \   000003   ......       DC24    ZDO_CompareClusterLists

   \                                 In  segment BANK_RELAYS, align 1
   \                     `??ZDO_AnyClusterMatches::?relay`:
   \   000000   12....       LCALL   ?BDISPATCH
   \   000003   ......       DC24    ZDO_AnyClusterMatches

   \                                 In  segment BANK_RELAYS, align 1
   \                     `??ZDO_ProcessNodeDescReq::?relay`:
   \   000000   12....       LCALL   ?BDISPATCH
   \   000003   ......       DC24    ZDO_ProcessNodeDescReq

   \                                 In  segment BANK_RELAYS, align 1
   \                     `??ZDO_ProcessPowerDescReq::?relay`:
   \   000000   12....       LCALL   ?BDISPATCH
   \   000003   ......       DC24    ZDO_ProcessPowerDescReq

   \                                 In  segment BANK_RELAYS, align 1
   \                     `??ZDO_ProcessSimpleDescReq::?relay`:
   \   000000   12....       LCALL   ?BDISPATCH
   \   000003   ......       DC24    ZDO_ProcessSimpleDescReq

   \                                 In  segment BANK_RELAYS, align 1
   \                     `??ZDO_ProcessActiveEPReq::?relay`:
   \   000000   12....       LCALL   ?BDISPATCH
   \   000003   ......       DC24    ZDO_ProcessActiveEPReq

   \                                 In  segment BANK_RELAYS, align 1
   \                     `??ZDO_ConvertOTAClusters::?relay`:
   \   000000   12....       LCALL   ?BDISPATCH
   \   000003   ......       DC24    ZDO_ConvertOTAClusters

   \                                 In  segment BANK_RELAYS, align 1
   \                     `??ZDO_ProcessMatchDescReq::?relay`:
   \   000000   12....       LCALL   ?BDISPATCH
   \   000003   ......       DC24    ZDO_ProcessMatchDescReq

   \                                 In  segment BANK_RELAYS, align 1
   \                     `??ZDO_ProcessBindUnbindReq::?relay`:
   \   000000   12....       LCALL   ?BDISPATCH
   \   000003   ......       DC24    ZDO_ProcessBindUnbindReq

   \                                 In  segment BANK_RELAYS, align 1
   \                     `??ZDO_UpdateAddrManager::?relay`:
   \   000000   12....       LCALL   ?BDISPATCH
   \   000003   ......       DC24    ZDO_UpdateAddrManager

   \                                 In  segment BANK_RELAYS, align 1
   \                     `??ZDO_ProcessServerDiscReq::?relay`:
   \   000000   12....       LCALL   ?BDISPATCH
   \   000003   ......       DC24    ZDO_ProcessServerDiscReq

   \                                 In  segment BANK_RELAYS, align 1
   \                     `??ZDO_EndDeviceTimeoutCB::?relay`:
   \   000000   12....       LCALL   ?BDISPATCH
   \   000003   ......       DC24    ZDO_EndDeviceTimeoutCB

   \                                 In  segment BANK_RELAYS, align 1
   \                     `??ZDO_ProcessMgmtLqiReq::?relay`:
   \   000000   12....       LCALL   ?BDISPATCH
   \   000003   ......       DC24    ZDO_ProcessMgmtLqiReq

   \                                 In  segment BANK_RELAYS, align 1
   \                     `??ZDO_ProcessMgmtNwkDiscReq::?relay`:
   \   000000   12....       LCALL   ?BDISPATCH
   \   000003   ......       DC24    ZDO_ProcessMgmtNwkDiscReq

   \                                 In  segment BANK_RELAYS, align 1
   \                     `??ZDO_ProcessMgmtRtgReq::?relay`:
   \   000000   12....       LCALL   ?BDISPATCH
   \   000003   ......       DC24    ZDO_ProcessMgmtRtgReq

   \                                 In  segment BANK_RELAYS, align 1
   \                     `??ZDO_ProcessMgmtBindReq::?relay`:
   \   000000   12....       LCALL   ?BDISPATCH
   \   000003   ......       DC24    ZDO_ProcessMgmtBindReq

   \                                 In  segment BANK_RELAYS, align 1
   \                     `??ZDO_ProcessMgmtDirectJoinReq::?relay`:
   \   000000   12....       LCALL   ?BDISPATCH
   \   000003   ......       DC24    ZDO_ProcessMgmtDirectJoinReq

   \                                 In  segment BANK_RELAYS, align 1
   \                     `??ZDO_ProcessMgmtLeaveReq::?relay`:
   \   000000   12....       LCALL   ?BDISPATCH
   \   000003   ......       DC24    ZDO_ProcessMgmtLeaveReq

   \                                 In  segment BANK_RELAYS, align 1
   \                     `??ZDO_ProcessMgmtPermitJoinReq::?relay`:
   \   000000   12....       LCALL   ?BDISPATCH
   \   000003   ......       DC24    ZDO_ProcessMgmtPermitJoinReq

   \                                 In  segment BANK_RELAYS, align 1
   \                     `??NLME_PermitJoiningTimeout::?relay`:
   \   000000   12....       LCALL   ?BDISPATCH
   \   000003   ......       DC24    NLME_PermitJoiningTimeout

   \                                 In  segment BANK_RELAYS, align 1
   \                     `??ZDO_ProcessUserDescReq::?relay`:
   \   000000   12....       LCALL   ?BDISPATCH
   \   000003   ......       DC24    ZDO_ProcessUserDescReq

   \                                 In  segment BANK_RELAYS, align 1
   \                     `??ZDO_ProcessUserDescSet::?relay`:
   \   000000   12....       LCALL   ?BDISPATCH
   \   000003   ......       DC24    ZDO_ProcessUserDescSet

   \                                 In  segment BANK_RELAYS, align 1
   \                     `??ZDO_ProcessDeviceAnnce::?relay`:
   \   000000   12....       LCALL   ?BDISPATCH
   \   000003   ......       DC24    ZDO_ProcessDeviceAnnce

   \                                 In  segment BANK_RELAYS, align 1
   \                     `??ZDO_BuildSimpleDescBuf::?relay`:
   \   000000   12....       LCALL   ?BDISPATCH
   \   000003   ......       DC24    ZDO_BuildSimpleDescBuf

   \                                 In  segment BANK_RELAYS, align 1
   \                     `??ZDO_MatchEndDeviceBind::?relay`:
   \   000000   12....       LCALL   ?BDISPATCH
   \   000003   ......       DC24    ZDO_MatchEndDeviceBind

   \                                 In  segment BANK_RELAYS, align 1
   \                     `??ZDO_RemoveMatchMemory::?relay`:
   \   000000   12....       LCALL   ?BDISPATCH
   \   000003   ......       DC24    ZDO_RemoveMatchMemory

   \                                 In  segment BANK_RELAYS, align 1
   \                     `??ZDO_CopyMatchInfo::?relay`:
   \   000000   12....       LCALL   ?BDISPATCH
   \   000003   ......       DC24    ZDO_CopyMatchInfo

   \                                 In  segment BANK_RELAYS, align 1
   \                     `??ZDMatchSendState::?relay`:
   \   000000   12....       LCALL   ?BDISPATCH
   \   000003   ......       DC24    ZDMatchSendState

   \                                 In  segment BANK_RELAYS, align 1
   \                     `??ZDO_EndDeviceBindMatchTimeoutCB::?relay`:
   \   000000   12....       LCALL   ?BDISPATCH
   \   000003   ......       DC24    ZDO_EndDeviceBindMatchTimeoutCB

   \                                 In  segment BANK_RELAYS, align 1
   \                     `??ZDO_ParseEndDeviceBindReq::?relay`:
   \   000000   12....       LCALL   ?BDISPATCH
   \   000003   ......       DC24    ZDO_ParseEndDeviceBindReq

   \                                 In  segment BANK_RELAYS, align 1
   \                     `??ZDO_ParseBindUnbindReq::?relay`:
   \   000000   12....       LCALL   ?BDISPATCH
   \   000003   ......       DC24    ZDO_ParseBindUnbindReq

   \                                 In  segment BANK_RELAYS, align 1
   \                     `??ZDO_ParseAddrRsp::?relay`:
   \   000000   12....       LCALL   ?BDISPATCH
   \   000003   ......       DC24    ZDO_ParseAddrRsp

   \                                 In  segment BANK_RELAYS, align 1
   \                     `??ZDO_ParseNodeDescRsp::?relay`:
   \   000000   12....       LCALL   ?BDISPATCH
   \   000003   ......       DC24    ZDO_ParseNodeDescRsp

   \                                 In  segment BANK_RELAYS, align 1
   \                     `??ZDO_ParsePowerDescRsp::?relay`:
   \   000000   12....       LCALL   ?BDISPATCH
   \   000003   ......       DC24    ZDO_ParsePowerDescRsp

   \                                 In  segment BANK_RELAYS, align 1
   \                     `??ZDO_ParseSimpleDescRsp::?relay`:
   \   000000   12....       LCALL   ?BDISPATCH
   \   000003   ......       DC24    ZDO_ParseSimpleDescRsp

   \                                 In  segment BANK_RELAYS, align 1
   \                     `??ZDO_ParseEPListRsp::?relay`:
   \   000000   12....       LCALL   ?BDISPATCH
   \   000003   ......       DC24    ZDO_ParseEPListRsp

   \                                 In  segment BANK_RELAYS, align 1
   \                     `??ZDO_ParseServerDiscRsp::?relay`:
   \   000000   12....       LCALL   ?BDISPATCH
   \   000003   ......       DC24    ZDO_ParseServerDiscRsp

   \                                 In  segment BANK_RELAYS, align 1
   \                     `??ZDO_ParseMgmtLqiRsp::?relay`:
   \   000000   12....       LCALL   ?BDISPATCH
   \   000003   ......       DC24    ZDO_ParseMgmtLqiRsp

   \                                 In  segment BANK_RELAYS, align 1
   \                     `??ZDO_ParseMgmNwkDiscRsp::?relay`:
   \   000000   12....       LCALL   ?BDISPATCH
   \   000003   ......       DC24    ZDO_ParseMgmNwkDiscRsp

   \                                 In  segment BANK_RELAYS, align 1
   \                     `??ZDO_ParseMgmtRtgRsp::?relay`:
   \   000000   12....       LCALL   ?BDISPATCH
   \   000003   ......       DC24    ZDO_ParseMgmtRtgRsp

   \                                 In  segment BANK_RELAYS, align 1
   \                     `??ZDO_ParseMgmtBindRsp::?relay`:
   \   000000   12....       LCALL   ?BDISPATCH
   \   000003   ......       DC24    ZDO_ParseMgmtBindRsp

   \                                 In  segment BANK_RELAYS, align 1
   \                     `??ZDO_ParseUserDescRsp::?relay`:
   \   000000   12....       LCALL   ?BDISPATCH
   \   000003   ......       DC24    ZDO_ParseUserDescRsp

   \                                 In  segment BANK_RELAYS, align 1
   \                     `??ZDO_ParseSimpleDescBuf::?relay`:
   \   000000   12....       LCALL   ?BDISPATCH
   \   000003   ......       DC24    ZDO_ParseSimpleDescBuf

   \                                 In  segment BANK_RELAYS, align 1
   \                     `??ZDO_ParseDeviceAnnce::?relay`:
   \   000000   12....       LCALL   ?BDISPATCH
   \   000003   ......       DC24    ZDO_ParseDeviceAnnce

   \                                 In  segment BANK_RELAYS, align 1
   \                     `??ZDO_ParseMgmtNwkUpdateNotify::?relay`:
   \   000000   12....       LCALL   ?BDISPATCH
   \   000003   ......       DC24    ZDO_ParseMgmtNwkUpdateNotify

   \                                 In  segment BANK_RELAYS, align 1
   \                     `??ZDO_ParseMgmtNwkUpdateReq::?relay`:
   \   000000   12....       LCALL   ?BDISPATCH
   \   000003   ......       DC24    ZDO_ParseMgmtNwkUpdateReq

   \                                 In  segment XDATA_ROM_C, align 1
   \                     `?<Constant "StartDevice ERR">`:
   \   000000   53746172     DB "StartDevice ERR"
   \            74446576
   \            69636520
   \            45525200

   \                                 In  segment XDATA_ROM_C, align 1
   \                     `?<Constant "MODE unknown">`:
   \   000000   4D4F4445     DB "MODE unknown"
   \            20756E6B
   \            6E6F776E
   \            00      

   \                                 In  segment XDATA_ROM_C, align 1
   \                     `?<Constant "End Device Bind">`:
   \   000000   456E6420     DB "End Device Bind"
   \            44657669
   \            63652042
   \            696E6400

   \                                 In  segment XDATA_ROM_C, align 1
   \                     `?<Constant "Success Sent">`:
   \   000000   53756363     DB "Success Sent"
   \            65737320
   \            53656E74
   \            00      

   \                                 In  segment XDATA_ROM_C, align 1
   \                     `?<Constant "Timeout">`:
   \   000000   54696D65     DB "Timeout"
   \            6F757400

   \                                 In  segment XDATA_ROM_C, align 1
   \                     `?<Constant "Match Desc Req">`:
   \   000000   4D617463     DB "Match Desc Req"
   \            68204465
   \            73632052
   \            657100  

   \                                 In  segment XDATA_ROM_C, align 1
   \                     `?<Constant "Rsp Sent">`:
   \   000000   52737020     DB "Rsp Sent"
   \            53656E74
   \            00      

   \                                 In  segment XDATA_ROM_C, align 1
   \                     `?<Constant "Non Matched">`:
   \   000000   4E6F6E20     DB "Non Matched"
   \            4D617463
   \            68656400
   3078          
   3079          /*********************************************************************
   3080          *********************************************************************/
   3081          
   3082          

   Maximum stack usage in bytes:

   ISTACK XSTACK Function
   ------ ------ --------
      0      0   NLME_PermitJoiningTimeout
      1     72   ZDMatchSendState
        0     38   -> APS_SetEndDeviceBindTimeout
        0     38   -> ZDO_RemoveMatchMemory
        0     46   -> ZDP_BindUnbindReq
        0     43   -> ZDP_SendData
        0     38   -> sAddrExtCpy
      0     41   ZDO_AnyClusterMatches
      1     14   ZDO_BuildSimpleDescBuf
      0     46   ZDO_CompareClusterLists
      0     37   ZDO_ConvertOTAClusters
      0     45   ZDO_CopyMatchInfo
        0     16   -> osal_mem_alloc
        0     16   -> osal_mem_free
        0     19   -> osal_memcpy
      2      0   ZDO_EndDeviceBindMatchTimeoutCB
        2      0   -> ZDMatchSendState
      1     17   ZDO_EndDeviceTimeoutCB
        0     12   -> HalLcdWriteString
        0     17   -> ZDP_SendData
        0     12   -> osal_mem_free
      2      0   ZDO_Init
        2      0   -> APS_ReflectorInit
        2      0   -> NLME_CoordinatorInit
        2      0   -> sAddrExtCpy
      1     31   ZDO_MatchEndDeviceBind
        0     26   -> APS_SetEndDeviceBindTimeout
        0     26   -> ZDMatchSendState
        0     30   -> ZDO_CompareClusterLists
        0     26   -> ZDO_CopyMatchInfo
        0     26   -> ZDO_RemoveMatchMemory
        0     31   -> ZDP_SendData
        0     26   -> osal_mem_alloc
        0     29   -> osal_memcpy
        0     26   -> osal_memset
      1     14   ZDO_ParseAddrRsp
        0     14   -> osal_mem_alloc
        0     14   -> sAddrExtCpy
      1     10   ZDO_ParseBindUnbindReq
        0     10   -> sAddrExtCpy
      1     52   ZDO_ParseDeviceAnnce
        0     10   -> sAddrExtCpy
      1     19   ZDO_ParseEPListRsp
        0     16   -> osal_mem_alloc
        0     19   -> osal_memcpy
      1     16   ZDO_ParseEndDeviceBindReq
        0     16   -> ZDO_ConvertOTAClusters
        0     16   -> osal_mem_alloc
        0     16   -> sAddrExtCpy
      1     16   ZDO_ParseMgmNwkDiscRsp
        0     16   -> osal_mem_alloc
        0     16   -> sAddrExtCpy
      1     16   ZDO_ParseMgmtBindRsp
        0     16   -> osal_mem_alloc
        0     16   -> sAddrExtCpy
      1     16   ZDO_ParseMgmtLqiRsp
        0     16   -> osal_mem_alloc
        0     16   -> sAddrExtCpy
      1     25   ZDO_ParseMgmtNwkUpdateNotify
        0     22   -> osal_build_uint32
        0     22   -> osal_mem_alloc
        0     25   -> osal_memcpy
      1     10   ZDO_ParseMgmtNwkUpdateReq
        0     10   -> osal_build_uint32
      1     14   ZDO_ParseMgmtRtgRsp
        0     14   -> osal_mem_alloc
      1     10   ZDO_ParseNodeDescRsp
      1     12   ZDO_ParsePowerDescRsp
      1      9   ZDO_ParseServerDiscRsp
      1     25   ZDO_ParseSimpleDescBuf
        0     16   -> osal_mem_alloc
        0     16   -> osal_mem_free
      1      9   ZDO_ParseSimpleDescRsp
        0      9   -> ZDO_ParseSimpleDescBuf
      1     19   ZDO_ParseUserDescRsp
        0     16   -> osal_mem_alloc
        0     19   -> osal_memcpy
      0     21   ZDO_ProcessActiveEPReq
        0     14   -> NLME_GetShortAddr
        0     21   -> ZDP_EPRsp
        0     14   -> afEndPoints
        0     14   -> afNumEndPoints
      0     33   ZDO_ProcessBindUnbindReq
        0     29   -> APSME_BindRequest
        0     28   -> APSME_LookupNwkAddr
        0     29   -> APSME_UnBindRequest
        0     28   -> NLME_GetExtAddr
        0     28   -> ZDApp_NVUpdate
        0     28   -> ZDP_NwkAddrReq
        0     33   -> ZDP_SendData
        0     28   -> bindNumOfEntries
        0     28   -> sAddrExtCmp
        0     28   -> sAddrExtCpy
      0     42   ZDO_ProcessDeviceAnnce
        0     42   -> AddrMgrEntryLookupNwk
        0     42   -> AddrMgrEntryUpdate
        0     42   -> AddrMgrExtAddrSet
        0     42   -> AssocChangeNwkAddr
        0     42   -> AssocGetWithExt
        0     42   -> AssocRemove
        0     42   -> NLME_CheckNewAddrSet
        0     42   -> NLME_GetCoordExtAddr
        0     42   -> NLME_GetCoordShortAddr
        0     42   -> NLME_GetShortAddr
        0     42   -> ZDApp_NVUpdate
        0     42   -> ZDO_ParseDeviceAnnce
        0     42   -> ZMacSetReq
        0     42   -> nwkNeighborRemoveAllStranded
        0     42   -> nwkNeighborUpdateNwkAddr
        0     42   -> osal_memset
        0     42   -> sAddrExtCmp
      1     34   ZDO_ProcessMatchDescReq
        0     27   -> HalLcdWriteScreen
        0     27   -> NLME_IsAddressBroadcast
        0     29   -> ZDO_AnyClusterMatches
        0     27   -> ZDO_ConvertOTAClusters
        0     34   -> ZDP_EPRsp
        0     27   -> osal_mem_alloc
        0     27   -> osal_mem_free
        0     30   -> osal_memcpy
        0     27   -> osal_msg_allocate
        0     27   -> osal_msg_send
      0     24   ZDO_ProcessMgmtBindReq
        0     19   -> APSME_GetRequest
        0     24   -> ZDP_MgmtBindRsp
        0     19   -> osal_mem_alloc
        0     19   -> osal_mem_free
      1     16   ZDO_ProcessMgmtDirectJoinReq
        0     11   -> NLME_DirectJoinRequest
        0     16   -> ZDP_SendData
      1     23   ZDO_ProcessMgmtLeaveReq
        0     18   -> AddrMgrExtAddrValid
        0     18   -> NLME_GetExtAddr
        0     18   -> NLME_LeaveReq
        0     23   -> ZDP_SendData
        0     18   -> sAddrExtCmp
      1     64   ZDO_ProcessMgmtLqiReq
        0     59   -> AddrMgrEntryLookupNwk
        0     59   -> AssocCount
        0     59   -> AssocFindDevice
        0     59   -> NLME_GetRequest
        0     64   -> ZDP_MgmtLqiRsp
        0     59   -> osal_mem_alloc
        0     59   -> osal_mem_free
        0     59   -> osal_memset
        0     59   -> sAddrExtCpy
      1     17   ZDO_ProcessMgmtNwkDiscReq
        0     17   -> NLME_NwkDiscReq2
        0     17   -> NLME_NwkDiscTerm
        0     17   -> osal_build_uint32
      1     16   ZDO_ProcessMgmtPermitJoinReq
        0     11   -> NLME_PermitJoiningRequest
        0     16   -> ZDP_SendData
      0     22   ZDO_ProcessMgmtRtgReq
        0     17   -> NLME_GetRequest
        0     22   -> ZDP_MgmtRtgRsp
        0     17   -> osal_mem_alloc
        0     17   -> osal_mem_free
      0     14   ZDO_ProcessNodeDescReq
        0     14   -> ZDP_GenericRsp
        0     12   -> ZDP_NodeDescMsg
      0     14   ZDO_ProcessPowerDescReq
        0     14   -> ZDP_GenericRsp
        0     12   -> ZDP_PowerDescMsg
      0     14   ZDO_ProcessServerDiscReq
        0     14   -> ZDP_ServerDiscRsp
      0     12   ZDO_ProcessSimpleDescReq
        0     12   -> ZDP_SimpleDescMsg
        0     12   -> afFindSimpleDesc
        0     12   -> osal_mem_free
      0     37   ZDO_ProcessUserDescReq
        0     37   -> ZDP_GenericRsp
        0     36   -> ZDP_UserDescRsp
        0     37   -> osal_nv_read
      1     40   ZDO_ProcessUserDescSet
        0     40   -> ZDP_SendData
        0     38   -> osal_memcpy
        0     39   -> osal_nv_write
      2     38   ZDO_RemoveMatchMemory
        2      0   -> osal_mem_free
      0     18   ZDO_StartDevice
        0     11   -> HalLcdWriteScreen
        0     18   -> NLME_NetworkFormationRequest
        0     11   -> NLME_StartRouterRequest
        0     11   -> osal_start_timerEx
      2     13   ZDO_UpdateAddrManager
        2     13   -> AddrMgrEntryUpdate
        2     13   -> AddrMgrExtAddrSet
      1     12   ZDO_UpdateNwkStatus
        0     12   -> NLME_GetExtAddr
        0     12   -> NLME_GetShortAddr
        0     12   -> osal_msg_allocate
        0     12   -> osal_msg_send


   Segment part sizes:

   Bytes  Function/Label
   -----  --------------
      16  ?<Constant "End Device Bind">
      13  ?<Constant "MODE unknown">
      15  ?<Constant "Match Desc Req">
      12  ?<Constant "Non Matched">
       9  ?<Constant "Rsp Sent">
      16  ?<Constant "StartDevice ERR">
      13  ?<Constant "Success Sent">
       8  ?<Constant "Timeout">
       8  ??Subroutine196_0
       3  ??Subroutine197_0
       5  ??Subroutine198_0
       6  ??Subroutine199_0
       5  ??Subroutine200_0
       2  ??Subroutine201_0
       6  ??Subroutine202_0
       7  ??Subroutine203_0
       7  ??Subroutine204_0
       7  ??Subroutine205_0
       1  ??Subroutine206_0
       5  ??Subroutine207_0
      11  ??Subroutine208_0
       4  ??Subroutine209_0
       5  ??Subroutine210_0
       6  ??Subroutine211_0
       4  ??Subroutine212_0
       1  ??Subroutine213_0
       6  ??Subroutine214_0
       4  ??Subroutine215_0
       2  ??Subroutine216_0
       6  ??Subroutine217_0
       5  ??Subroutine218_0
       6  ??Subroutine219_0
       5  ??Subroutine220_0
       6  ??Subroutine221_0
       5  ??Subroutine222_0
       8  ??Subroutine223_0
       2  ??Subroutine224_0
       6  ??Subroutine225_0
       6  ??Subroutine226_0
       8  ??Subroutine227_0
      15  ??Subroutine228_0
      10  ??Subroutine229_0
       5  ??Subroutine230_0
       6  ??Subroutine231_0
       6  ??Subroutine232_0
       4  ??Subroutine233_0
       4  ??Subroutine234_0
       7  ??Subroutine235_0
       4  ??Subroutine236_0
       5  ??Subroutine237_0
       6  ??Subroutine238_0
       3  ??Subroutine239_0
       4  ??Subroutine240_0
       3  ??Subroutine241_0
       4  ??Subroutine242_0
       7  ??Subroutine243_0
       6  ??Subroutine244_0
       9  ??Subroutine245_0
       6  ??Subroutine246_0
       5  ??Subroutine247_0
       9  ??Subroutine248_0
       8  ??Subroutine249_0
       6  ??Subroutine250_0
       6  ??Subroutine251_0
       6  ??Subroutine252_0
       7  ??Subroutine253_0
       1  ??Subroutine254_0
       5  ??Subroutine255_0
       7  ??Subroutine256_0
       7  ??Subroutine257_0
       9  ??Subroutine258_0
       5  ??Subroutine259_0
       4  ??Subroutine260_0
       1  ??Subroutine261_0
       5  ??Subroutine262_0
       7  ??Subroutine263_0
       9  ??Subroutine264_0
       7  ?Subroutine0
       5  ?Subroutine1
      29  ?Subroutine10
      16  ?Subroutine100
      13  ?Subroutine101
      15  ?Subroutine102
       2  ?Subroutine103
       8  ?Subroutine104
       4  ?Subroutine105
      11  ?Subroutine106
      17  ?Subroutine107
      11  ?Subroutine108
      12  ?Subroutine109
       6  ?Subroutine11
      10  ?Subroutine110
       8  ?Subroutine111
       6  ?Subroutine112
      10  ?Subroutine113
       4  ?Subroutine114
      12  ?Subroutine115
       7  ?Subroutine116
       1  ?Subroutine117
       7  ?Subroutine118
      12  ?Subroutine119
      20  ?Subroutine12
       7  ?Subroutine120
       4  ?Subroutine121
       5  ?Subroutine122
       4  ?Subroutine123
       8  ?Subroutine124
       2  ?Subroutine125
      11  ?Subroutine126
       8  ?Subroutine127
      14  ?Subroutine128
      13  ?Subroutine129
      17  ?Subroutine13
       6  ?Subroutine130
       3  ?Subroutine131
      14  ?Subroutine132
       8  ?Subroutine133
       2  ?Subroutine134
       1  ?Subroutine135
      11  ?Subroutine136
       8  ?Subroutine137
       8  ?Subroutine138
       1  ?Subroutine139
      23  ?Subroutine14
      13  ?Subroutine140
       9  ?Subroutine141
       4  ?Subroutine142
      15  ?Subroutine143
       2  ?Subroutine144
      10  ?Subroutine145
       9  ?Subroutine146
       8  ?Subroutine147
       3  ?Subroutine148
       1  ?Subroutine149
       9  ?Subroutine15
      13  ?Subroutine150
       6  ?Subroutine151
       7  ?Subroutine152
       6  ?Subroutine153
       7  ?Subroutine154
       6  ?Subroutine155
       4  ?Subroutine156
      17  ?Subroutine157
      22  ?Subroutine158
      16  ?Subroutine159
       1  ?Subroutine16
      15  ?Subroutine160
       6  ?Subroutine161
       8  ?Subroutine162
       3  ?Subroutine163
       2  ?Subroutine164
       2  ?Subroutine165
       1  ?Subroutine166
       2  ?Subroutine167
       2  ?Subroutine168
       6  ?Subroutine169
       2  ?Subroutine17
       6  ?Subroutine170
      13  ?Subroutine171
       2  ?Subroutine172
       4  ?Subroutine173
       5  ?Subroutine174
       7  ?Subroutine175
       5  ?Subroutine176
       3  ?Subroutine177
       8  ?Subroutine178
      10  ?Subroutine179
       8  ?Subroutine18
       4  ?Subroutine180
       1  ?Subroutine181
       4  ?Subroutine182
       2  ?Subroutine183
       3  ?Subroutine184
      11  ?Subroutine185
      10  ?Subroutine186
       9  ?Subroutine187
       6  ?Subroutine188
       9  ?Subroutine189
       4  ?Subroutine19
       1  ?Subroutine190
       9  ?Subroutine191
       5  ?Subroutine192
      10  ?Subroutine193
       9  ?Subroutine194
       7  ?Subroutine195
       4  ?Subroutine2
       8  ?Subroutine20
       5  ?Subroutine21
      10  ?Subroutine22
      11  ?Subroutine23
       4  ?Subroutine24
       5  ?Subroutine25
       2  ?Subroutine26
       4  ?Subroutine27
       2  ?Subroutine28
       6  ?Subroutine29
       2  ?Subroutine3
       4  ?Subroutine30
       6  ?Subroutine31
       4  ?Subroutine32
       8  ?Subroutine33
       6  ?Subroutine34
       1  ?Subroutine35
      25  ?Subroutine36
       7  ?Subroutine37
       7  ?Subroutine38
       4  ?Subroutine39
       3  ?Subroutine4
       5  ?Subroutine40
      10  ?Subroutine41
       8  ?Subroutine42
       4  ?Subroutine43
       5  ?Subroutine44
       6  ?Subroutine45
       4  ?Subroutine46
       6  ?Subroutine47
       5  ?Subroutine48
      29  ?Subroutine49
       5  ?Subroutine5
      17  ?Subroutine50
      25  ?Subroutine51
      13  ?Subroutine52
      24  ?Subroutine53
       8  ?Subroutine54
       9  ?Subroutine55
       5  ?Subroutine56
      11  ?Subroutine57
       6  ?Subroutine58
       2  ?Subroutine59
       5  ?Subroutine6
       2  ?Subroutine60
      11  ?Subroutine61
      12  ?Subroutine62
      10  ?Subroutine63
      10  ?Subroutine64
       4  ?Subroutine65
       6  ?Subroutine66
       8  ?Subroutine67
      13  ?Subroutine68
      13  ?Subroutine69
       5  ?Subroutine7
      13  ?Subroutine70
      12  ?Subroutine71
       6  ?Subroutine72
      12  ?Subroutine73
      12  ?Subroutine74
      12  ?Subroutine75
      12  ?Subroutine76
       5  ?Subroutine77
      22  ?Subroutine78
       2  ?Subroutine79
      32  ?Subroutine8
       8  ?Subroutine80
       3  ?Subroutine81
       6  ?Subroutine82
      12  ?Subroutine83
      12  ?Subroutine84
       4  ?Subroutine85
      15  ?Subroutine86
      12  ?Subroutine87
      14  ?Subroutine88
       4  ?Subroutine89
      41  ?Subroutine9
       4  ?Subroutine90
       8  ?Subroutine91
      11  ?Subroutine92
       3  ?Subroutine93
       9  ?Subroutine94
       4  ?Subroutine95
       1  ?Subroutine96
      10  ?Subroutine97
       7  ?Subroutine98
       1  ?Subroutine99
       3  NLME_PermitJoiningTimeout
       6  NLME_PermitJoiningTimeout::?relay
     635  ZDMatchSendState
       6  ZDMatchSendState::?relay
      52  ZDOBuildBuf
      92  ZDO_AnyClusterMatches
       6  ZDO_AnyClusterMatches::?relay
     220  ZDO_BuildSimpleDescBuf
       6  ZDO_BuildSimpleDescBuf::?relay
     120  ZDO_CompareClusterLists
       6  ZDO_CompareClusterLists::?relay
      64  ZDO_ConvertOTAClusters
       6  ZDO_ConvertOTAClusters::?relay
     171  ZDO_CopyMatchInfo
       6  ZDO_CopyMatchInfo::?relay
       2  ZDO_EDBind
      16  ZDO_EndDeviceBindMatchTimeoutCB
       6  ZDO_EndDeviceBindMatchTimeoutCB::?relay
     203  ZDO_EndDeviceTimeoutCB
       6  ZDO_EndDeviceTimeoutCB::?relay
      33  ZDO_Init
       6  ZDO_Init::?relay
     557  ZDO_MatchEndDeviceBind
       6  ZDO_MatchEndDeviceBind::?relay
     221  ZDO_ParseAddrRsp
       6  ZDO_ParseAddrRsp::?relay
      54  ZDO_ParseBindUnbindReq
       6  ZDO_ParseBindUnbindReq::?relay
      52  ZDO_ParseDeviceAnnce
       6  ZDO_ParseDeviceAnnce::?relay
     118  ZDO_ParseEPListRsp
       6  ZDO_ParseEPListRsp::?relay
     237  ZDO_ParseEndDeviceBindReq
       6  ZDO_ParseEndDeviceBindReq::?relay
     237  ZDO_ParseMgmNwkDiscRsp
       6  ZDO_ParseMgmNwkDiscRsp::?relay
     136  ZDO_ParseMgmtBindRsp
       6  ZDO_ParseMgmtBindRsp::?relay
     147  ZDO_ParseMgmtLqiRsp
       6  ZDO_ParseMgmtLqiRsp::?relay
     355  ZDO_ParseMgmtNwkUpdateNotify
       6  ZDO_ParseMgmtNwkUpdateNotify::?relay
      95  ZDO_ParseMgmtNwkUpdateReq
       6  ZDO_ParseMgmtNwkUpdateReq::?relay
     142  ZDO_ParseMgmtRtgRsp
       6  ZDO_ParseMgmtRtgRsp::?relay
     284  ZDO_ParseNodeDescRsp
       6  ZDO_ParseNodeDescRsp::?relay
     198  ZDO_ParsePowerDescRsp
       6  ZDO_ParsePowerDescRsp::?relay
      51  ZDO_ParseServerDiscRsp
       6  ZDO_ParseServerDiscRsp::?relay
     289  ZDO_ParseSimpleDescBuf
       6  ZDO_ParseSimpleDescBuf::?relay
      27  ZDO_ParseSimpleDescRsp
       6  ZDO_ParseSimpleDescRsp::?relay
     136  ZDO_ParseUserDescRsp
       6  ZDO_ParseUserDescRsp::?relay
     121  ZDO_ProcessActiveEPReq
       6  ZDO_ProcessActiveEPReq::?relay
     445  ZDO_ProcessBindUnbindReq
       6  ZDO_ProcessBindUnbindReq::?relay
     328  ZDO_ProcessDeviceAnnce
       6  ZDO_ProcessDeviceAnnce::?relay
     954  ZDO_ProcessMatchDescReq
       6  ZDO_ProcessMatchDescReq::?relay
     266  ZDO_ProcessMgmtBindReq
       6  ZDO_ProcessMgmtBindReq::?relay
      89  ZDO_ProcessMgmtDirectJoinReq
       6  ZDO_ProcessMgmtDirectJoinReq::?relay
     182  ZDO_ProcessMgmtLeaveReq
       6  ZDO_ProcessMgmtLeaveReq::?relay
     720  ZDO_ProcessMgmtLqiReq
       6  ZDO_ProcessMgmtLqiReq::?relay
     115  ZDO_ProcessMgmtNwkDiscReq
       6  ZDO_ProcessMgmtNwkDiscReq::?relay
      97  ZDO_ProcessMgmtPermitJoinReq
       6  ZDO_ProcessMgmtPermitJoinReq::?relay
     246  ZDO_ProcessMgmtRtgReq
       6  ZDO_ProcessMgmtRtgReq::?relay
      66  ZDO_ProcessNodeDescReq
       6  ZDO_ProcessNodeDescReq::?relay
      66  ZDO_ProcessPowerDescReq
       6  ZDO_ProcessPowerDescReq::?relay
      78  ZDO_ProcessServerDiscReq
       6  ZDO_ProcessServerDiscReq::?relay
     129  ZDO_ProcessSimpleDescReq
       6  ZDO_ProcessSimpleDescReq::?relay
     193  ZDO_ProcessUserDescReq
       6  ZDO_ProcessUserDescReq::?relay
     276  ZDO_ProcessUserDescSet
       6  ZDO_ProcessUserDescSet::?relay
     105  ZDO_RemoveMatchMemory
       6  ZDO_RemoveMatchMemory::?relay
     134  ZDO_StartDevice
       6  ZDO_StartDevice::?relay
      51  ZDO_UpdateAddrManager
       6  ZDO_UpdateAddrManager::?relay
      82  ZDO_UpdateNwkStatus
       6  ZDO_UpdateNwkStatus::?relay
       4  apsChannelMask
       2  matchED

 
 11 641 bytes in segment BANKED_CODE
    294 bytes in segment BANK_RELAYS
    102 bytes in segment XDATA_ROM_C
     60 bytes in segment XDATA_Z
 
    294 bytes of CODE     memory
    102 bytes of CONST    memory
 11 641 bytes of HUGECODE memory
     60 bytes of XDATA    memory

Errors: none
Warnings: none
