///////////////////////////////////////////////////////////////////////////////
//
// IAR C/C++ Compiler V10.20.1.5333 for 8051              18/Jun/2021  15:12:20
// Copyright 2004-2018 IAR Systems AB.
// PC-locked license - IAR Embedded Workbench for 8051
//
//    Core               =  plain
//    Code model         =  banked
//    Data model         =  large
//    Calling convention =  xdata reentrant
//    Constant location  =  data_rom
//    Dptr setup         =  1,16
//                          
//    Source file        =  D:\SRC\DemoPrj\Components\stack\zdo\ZDSecMgr.c
//    Command line       =  
//        -f C:\Users\ADMINI~1\AppData\Local\Temp\EW2728.tmp
//        (D:\SRC\DemoPrj\Components\stack\zdo\ZDSecMgr.c -D ZIGBEEPRO -D
//        HAL_UART=TRUE -D SERIAL_APP_PORT=0 -D LCD_SUPPORTED -lC
//        D:\SRC\DemoPrj\Projects\zstack\Utilities\SerialApp\CC2530DB\CoordinatorEB-Pro\List
//        -lA
//        D:\SRC\DemoPrj\Projects\zstack\Utilities\SerialApp\CC2530DB\CoordinatorEB-Pro\List
//        --diag_suppress Pe001,Pa010 -o
//        D:\SRC\DemoPrj\Projects\zstack\Utilities\SerialApp\CC2530DB\CoordinatorEB-Pro\Obj
//        -e --debug --core=plain --dptr=16,1 --data_model=large
//        --code_model=banked --calling_convention=xdata_reentrant
//        --place_constants=data_rom --nr_virtual_regs 8 -f
//        D:\SRC\DemoPrj\Projects\zstack\Utilities\SerialApp\CC2530DB\..\..\..\Tools\CC2530DB\f8wCoord.cfg
//        (-DCPU32MHZ -DROOT=__near_func -DMAC_CFG_APP_PENDING_QUEUE=TRUE
//        -DZDO_COORDINATOR -DRTR_NWK -DBLINK_LEDS) -f
//        D:\SRC\DemoPrj\Projects\zstack\Utilities\SerialApp\CC2530DB\..\..\..\Tools\CC2530DB\f8wConfig.cfg
//        (-DSECURE=0 -DZG_SECURE_DYNAMIC=0 -DREFLECTOR
//        -DDEFAULT_CHANLIST=0x00000800 -DZDAPP_CONFIG_PAN_ID=0x1223
//        -DNWK_START_DELAY=100 -DEXTENDED_JOINING_RANDOM_MASK=0x007F
//        -DBEACON_REQUEST_DELAY=100 -DBEACON_REQ_DELAY_MASK=0x00FF
//        -DROUTE_EXPIRY_TIME=30 -DAPSC_ACK_WAIT_DURATION_POLLED=3000
//        -DNWK_INDIRECT_MSG_TIMEOUT=7 -DMAX_RREQ_ENTRIES=8
//        -DAPSC_MAX_FRAME_RETRIES=3 -DNWK_MAX_DATA_RETRIES=2
//        -DMAX_POLL_FAILURE_RETRIES=2 -DMAX_BCAST=9 -DAPS_MAX_GROUPS=16
//        -DMAX_RTG_ENTRIES=40 -DNWK_MAX_BINDING_ENTRIES=4
//        -DMAX_BINDING_CLUSTER_IDS=4 "-DDEFAULT_KEY={0x01, 0x03, 0x05, 0x07,
//        0x09, 0x0B, 0x0D, 0x0F, 0x00, 0x02, 0x04, 0x06, 0x08, 0x0A, 0x0C,
//        0x0D}" -DMAC_MAX_FRAME_SIZE=116 "-DCONST=const __code"
//        -DGENERIC=__generic -DRFD_RCVC_ALWAYS_ON=FALSE -DPOLL_RATE=1000
//        -DQUEUED_POLL_RATE=100 -DRESPONSE_POLL_RATE=100
//        -DREJOIN_POLL_RATE=440) -I
//        D:\SRC\DemoPrj\Projects\zstack\Utilities\SerialApp\CC2530DB\ -I
//        D:\SRC\DemoPrj\Projects\zstack\Utilities\SerialApp\CC2530DB\..\SOURCE\
//        -I
//        D:\SRC\DemoPrj\Projects\zstack\Utilities\SerialApp\CC2530DB\..\..\..\ZMAIN\TI2530DB\
//        -I
//        D:\SRC\DemoPrj\Projects\zstack\Utilities\SerialApp\CC2530DB\..\..\..\..\..\COMPONENTS\MT\
//        -I
//        D:\SRC\DemoPrj\Projects\zstack\Utilities\SerialApp\CC2530DB\..\..\..\..\..\COMPONENTS\HAL\INCLUDE\
//        -I
//        D:\SRC\DemoPrj\Projects\zstack\Utilities\SerialApp\CC2530DB\..\..\..\..\..\COMPONENTS\HAL\TARGET\CC2530EB\
//        -I
//        D:\SRC\DemoPrj\Projects\zstack\Utilities\SerialApp\CC2530DB\..\..\..\..\..\COMPONENTS\OSAL\MCU\CCSOC\
//        -I
//        D:\SRC\DemoPrj\Projects\zstack\Utilities\SerialApp\CC2530DB\..\..\..\..\..\COMPONENTS\OSAL\INCLUDE\
//        -I
//        D:\SRC\DemoPrj\Projects\zstack\Utilities\SerialApp\CC2530DB\..\..\..\..\..\COMPONENTS\STACK\AF\
//        -I
//        D:\SRC\DemoPrj\Projects\zstack\Utilities\SerialApp\CC2530DB\..\..\..\..\..\COMPONENTS\STACK\NWK\
//        -I
//        D:\SRC\DemoPrj\Projects\zstack\Utilities\SerialApp\CC2530DB\..\..\..\..\..\COMPONENTS\STACK\SEC\
//        -I
//        D:\SRC\DemoPrj\Projects\zstack\Utilities\SerialApp\CC2530DB\..\..\..\..\..\COMPONENTS\STACK\SAPI\
//        -I
//        D:\SRC\DemoPrj\Projects\zstack\Utilities\SerialApp\CC2530DB\..\..\..\..\..\COMPONENTS\STACK\SYS\
//        -I
//        D:\SRC\DemoPrj\Projects\zstack\Utilities\SerialApp\CC2530DB\..\..\..\..\..\COMPONENTS\STACK\ZDO\
//        -I
//        D:\SRC\DemoPrj\Projects\zstack\Utilities\SerialApp\CC2530DB\..\..\..\..\..\COMPONENTS\ZMAC\F8W\
//        -I
//        D:\SRC\DemoPrj\Projects\zstack\Utilities\SerialApp\CC2530DB\..\..\..\..\..\COMPONENTS\ZMAC\
//        -I
//        D:\SRC\DemoPrj\Projects\zstack\Utilities\SerialApp\CC2530DB\..\..\..\..\..\COMPONENTS\SERVICES\SADDR\
//        -I
//        D:\SRC\DemoPrj\Projects\zstack\Utilities\SerialApp\CC2530DB\..\..\..\..\..\COMPONENTS\SERVICES\SDATA\
//        -I
//        D:\SRC\DemoPrj\Projects\zstack\Utilities\SerialApp\CC2530DB\..\..\..\..\..\COMPONENTS\MAC\INCLUDE\
//        -I
//        D:\SRC\DemoPrj\Projects\zstack\Utilities\SerialApp\CC2530DB\..\..\..\..\..\COMPONENTS\MAC\HIGH_LEVEL\
//        -I
//        D:\SRC\DemoPrj\Projects\zstack\Utilities\SerialApp\CC2530DB\..\..\..\..\..\COMPONENTS\MAC\LOW_LEVEL\srf04\
//        -I
//        D:\SRC\DemoPrj\Projects\zstack\Utilities\SerialApp\CC2530DB\..\..\..\..\..\COMPONENTS\MAC\LOW_LEVEL\srf04\SINGLE_CHIP\
//        -Ohz --require_prototypes)
//    Locale             =  Chinese (Simplified)_CHN.936
//    List file          =  
//        D:\SRC\DemoPrj\Projects\zstack\Utilities\SerialApp\CC2530DB\CoordinatorEB-Pro\List\ZDSecMgr.s51
//
///////////////////////////////////////////////////////////////////////////////

        NAME ZDSecMgr

        RTMODEL "__SystemLibrary", "CLib"
        RTMODEL "__calling_convention", "xdata_reentrant"
        RTMODEL "__code_model", "banked"
        RTMODEL "__core", "plain"
        RTMODEL "__data_model", "large"
        RTMODEL "__dptr_size", "16"
        RTMODEL "__extended_stack", "disabled"
        RTMODEL "__location_for_constants", "data"
        RTMODEL "__number_of_dptrs", "1"
        RTMODEL "__register_banks", "*"
        RTMODEL "__rt_version", "1"

        RSEG DOVERLAY:DATA:NOROOT(0)
        RSEG IOVERLAY:IDATA:NOROOT(0)
        RSEG ISTACK:IDATA:NOROOT(0)
        RSEG PSTACK:XDATA:NOROOT(0)
        RSEG XSTACK:XDATA:NOROOT(0)

        EXTERN ?V0
        EXTERN ?V1
        EXTERN ?V2
        EXTERN ?V4
        EXTERN ?V5
        EXTERN ?V3
        EXTERN ?V6
        EXTERN ?ALLOC_XSTACK8
        EXTERN ?BANKED_ENTER_XDATA
        EXTERN ?BANKED_LEAVE_XDATA
        EXTERN ?BDISPATCH
        EXTERN ?BRET
        EXTERN ?DEALLOC_XSTACK8
        EXTERN ?L_ADD_TO_X
        EXTERN ?L_MOV_X
        EXTERN ?PUSH_XSTACK8_X_TWO
        EXTERN ?PUSH_XSTACK_I_THREE
        EXTERN ?PUSH_XSTACK_I_TWO
        EXTERN ?XSP
        EXTERN ?XSTACK_DISP0_8
        EXTERN ?XSTACK_DISP100_8
        EXTERN ?XSTACK_DISP101_8
        EXTERN ?XSTACK_DISP102_8
        EXTERN __INIT_XDATA_I
        EXTERN __INIT_XDATA_Z

        PUBLIC `??APSME_KeyFwdToChild::?relay`
        FUNCTION `??APSME_KeyFwdToChild::?relay`,0203H
        PUBLIC `??APSME_LinkKeyDataGet::?relay`
        FUNCTION `??APSME_LinkKeyDataGet::?relay`,0203H
        PUBLIC `??APSME_LinkKeySet::?relay`
        FUNCTION `??APSME_LinkKeySet::?relay`,0203H
        PUBLIC `??APSME_MasterKeyGet::?relay`
        FUNCTION `??APSME_MasterKeyGet::?relay`,0203H
        PUBLIC `??APSME_SKA_TimerExpired::?relay`
        FUNCTION `??APSME_SKA_TimerExpired::?relay`,0203H
        PUBLIC `??ZDSecMgrAPSRemove::?relay`
        FUNCTION `??ZDSecMgrAPSRemove::?relay`,0203H
        PUBLIC `??ZDSecMgrAddLinkKey::?relay`
        FUNCTION `??ZDSecMgrAddLinkKey::?relay`,0203H
        PUBLIC `??ZDSecMgrAddrMgrUpdate::?relay`
        FUNCTION `??ZDSecMgrAddrMgrUpdate::?relay`,0203H
        PUBLIC `??ZDSecMgrAddrStore::?relay`
        FUNCTION `??ZDSecMgrAddrStore::?relay`,0203H
        PUBLIC `??ZDSecMgrAppKeyGet::?relay`
        FUNCTION `??ZDSecMgrAppKeyGet::?relay`,0203H
        PUBLIC `??ZDSecMgrAppKeyReq::?relay`
        FUNCTION `??ZDSecMgrAppKeyReq::?relay`,0203H
        PUBLIC `??ZDSecMgrAppKeyTypeSet::?relay`
        FUNCTION `??ZDSecMgrAppKeyTypeSet::?relay`,0203H
        PUBLIC `??ZDSecMgrAssocDeviceAuth::?relay`
        FUNCTION `??ZDSecMgrAssocDeviceAuth::?relay`,0203H
        PUBLIC `??ZDSecMgrAuthInitiate::?relay`
        FUNCTION `??ZDSecMgrAuthInitiate::?relay`,0203H
        PUBLIC `??ZDSecMgrAuthNwkKey::?relay`
        FUNCTION `??ZDSecMgrAuthNwkKey::?relay`,0203H
        PUBLIC `??ZDSecMgrAuthenticateCfm::?relay`
        FUNCTION `??ZDSecMgrAuthenticateCfm::?relay`,0203H
        PUBLIC `??ZDSecMgrAuthenticateInd::?relay`
        FUNCTION `??ZDSecMgrAuthenticateInd::?relay`,0203H
        PUBLIC `??ZDSecMgrAuthenticationCheck::?relay`
        FUNCTION `??ZDSecMgrAuthenticationCheck::?relay`,0203H
        PUBLIC `??ZDSecMgrAuthenticationSet::?relay`
        FUNCTION `??ZDSecMgrAuthenticationSet::?relay`,0203H
        PUBLIC `??ZDSecMgrConfig::?relay`
        FUNCTION `??ZDSecMgrConfig::?relay`,0203H
        PUBLIC `??ZDSecMgrCtrlAdd::?relay`
        FUNCTION `??ZDSecMgrCtrlAdd::?relay`,0203H
        PUBLIC `??ZDSecMgrCtrlInit::?relay`
        FUNCTION `??ZDSecMgrCtrlInit::?relay`,0203H
        PUBLIC `??ZDSecMgrCtrlLookup::?relay`
        FUNCTION `??ZDSecMgrCtrlLookup::?relay`,0203H
        PUBLIC `??ZDSecMgrCtrlRelease::?relay`
        FUNCTION `??ZDSecMgrCtrlRelease::?relay`,0203H
        PUBLIC `??ZDSecMgrCtrlReset::?relay`
        FUNCTION `??ZDSecMgrCtrlReset::?relay`,0203H
        PUBLIC `??ZDSecMgrCtrlSet::?relay`
        FUNCTION `??ZDSecMgrCtrlSet::?relay`,0203H
        PUBLIC `??ZDSecMgrCtrlTerm::?relay`
        FUNCTION `??ZDSecMgrCtrlTerm::?relay`,0203H
        PUBLIC `??ZDSecMgrDeviceCtrlHandler::?relay`
        FUNCTION `??ZDSecMgrDeviceCtrlHandler::?relay`,0203H
        PUBLIC `??ZDSecMgrDeviceCtrlSetup::?relay`
        FUNCTION `??ZDSecMgrDeviceCtrlSetup::?relay`,0203H
        PUBLIC `??ZDSecMgrDeviceCtrlUpdate::?relay`
        FUNCTION `??ZDSecMgrDeviceCtrlUpdate::?relay`,0203H
        PUBLIC `??ZDSecMgrDeviceEntryAdd::?relay`
        FUNCTION `??ZDSecMgrDeviceEntryAdd::?relay`,0203H
        PUBLIC `??ZDSecMgrDeviceEntryRemove::?relay`
        FUNCTION `??ZDSecMgrDeviceEntryRemove::?relay`,0203H
        PUBLIC `??ZDSecMgrDeviceJoin::?relay`
        FUNCTION `??ZDSecMgrDeviceJoin::?relay`,0203H
        PUBLIC `??ZDSecMgrDeviceJoinDirect::?relay`
        FUNCTION `??ZDSecMgrDeviceJoinDirect::?relay`,0203H
        PUBLIC `??ZDSecMgrDeviceJoinFwd::?relay`
        FUNCTION `??ZDSecMgrDeviceJoinFwd::?relay`,0203H
        PUBLIC `??ZDSecMgrDeviceNew::?relay`
        FUNCTION `??ZDSecMgrDeviceNew::?relay`,0203H
        PUBLIC `??ZDSecMgrDeviceRemove::?relay`
        FUNCTION `??ZDSecMgrDeviceRemove::?relay`,0203H
        PUBLIC `??ZDSecMgrDeviceValidate::?relay`
        FUNCTION `??ZDSecMgrDeviceValidate::?relay`,0203H
        PUBLIC `??ZDSecMgrDeviceValidateCM::?relay`
        FUNCTION `??ZDSecMgrDeviceValidateCM::?relay`,0203H
        PUBLIC `??ZDSecMgrDeviceValidateRM::?relay`
        FUNCTION `??ZDSecMgrDeviceValidateRM::?relay`,0203H
        PUBLIC `??ZDSecMgrDeviceValidateSKKE::?relay`
        FUNCTION `??ZDSecMgrDeviceValidateSKKE::?relay`,0203H
        PUBLIC `??ZDSecMgrEntryFree::?relay`
        FUNCTION `??ZDSecMgrEntryFree::?relay`,0203H
        PUBLIC `??ZDSecMgrEntryInit::?relay`
        FUNCTION `??ZDSecMgrEntryInit::?relay`,0203H
        PUBLIC `??ZDSecMgrEntryLookup::?relay`
        FUNCTION `??ZDSecMgrEntryLookup::?relay`,0203H
        PUBLIC `??ZDSecMgrEntryLookupAMI::?relay`
        FUNCTION `??ZDSecMgrEntryLookupAMI::?relay`,0203H
        PUBLIC `??ZDSecMgrEntryLookupExt::?relay`
        FUNCTION `??ZDSecMgrEntryLookupExt::?relay`,0203H
        PUBLIC `??ZDSecMgrEntryNew::?relay`
        FUNCTION `??ZDSecMgrEntryNew::?relay`,0203H
        PUBLIC `??ZDSecMgrEstablishKey::?relay`
        FUNCTION `??ZDSecMgrEstablishKey::?relay`,0203H
        PUBLIC `??ZDSecMgrEstablishKeyCfm::?relay`
        FUNCTION `??ZDSecMgrEstablishKeyCfm::?relay`,0203H
        PUBLIC `??ZDSecMgrEstablishKeyInd::?relay`
        FUNCTION `??ZDSecMgrEstablishKeyInd::?relay`,0203H
        PUBLIC `??ZDSecMgrEvent::?relay`
        FUNCTION `??ZDSecMgrEvent::?relay`,0203H
        PUBLIC `??ZDSecMgrExtAddrLookup::?relay`
        FUNCTION `??ZDSecMgrExtAddrLookup::?relay`,0203H
        PUBLIC `??ZDSecMgrExtAddrStore::?relay`
        FUNCTION `??ZDSecMgrExtAddrStore::?relay`,0203H
        PUBLIC `??ZDSecMgrInit::?relay`
        FUNCTION `??ZDSecMgrInit::?relay`,0203H
        PUBLIC `??ZDSecMgrInitNV::?relay`
        FUNCTION `??ZDSecMgrInitNV::?relay`,0203H
        PUBLIC `??ZDSecMgrMasterKeyInit::?relay`
        FUNCTION `??ZDSecMgrMasterKeyInit::?relay`,0203H
        PUBLIC `??ZDSecMgrMasterKeyLoad::?relay`
        FUNCTION `??ZDSecMgrMasterKeyLoad::?relay`,0203H
        PUBLIC `??ZDSecMgrMasterKeyLookup::?relay`
        FUNCTION `??ZDSecMgrMasterKeyLookup::?relay`,0203H
        PUBLIC `??ZDSecMgrMasterKeyStore::?relay`
        FUNCTION `??ZDSecMgrMasterKeyStore::?relay`,0203H
        PUBLIC `??ZDSecMgrNewDeviceEvent::?relay`
        FUNCTION `??ZDSecMgrNewDeviceEvent::?relay`,0203H
        PUBLIC `??ZDSecMgrPermitJoining::?relay`
        FUNCTION `??ZDSecMgrPermitJoining::?relay`,0203H
        PUBLIC `??ZDSecMgrPermitJoiningTimeout::?relay`
        FUNCTION `??ZDSecMgrPermitJoiningTimeout::?relay`,0203H
        PUBLIC `??ZDSecMgrRemoveDeviceInd::?relay`
        FUNCTION `??ZDSecMgrRemoveDeviceInd::?relay`,0203H
        PUBLIC `??ZDSecMgrRequestKeyInd::?relay`
        FUNCTION `??ZDSecMgrRequestKeyInd::?relay`,0203H
        PUBLIC `??ZDSecMgrRestoreFromNV::?relay`
        FUNCTION `??ZDSecMgrRestoreFromNV::?relay`,0203H
        PUBLIC `??ZDSecMgrSendMasterKey::?relay`
        FUNCTION `??ZDSecMgrSendMasterKey::?relay`,0203H
        PUBLIC `??ZDSecMgrSendNwkKey::?relay`
        FUNCTION `??ZDSecMgrSendNwkKey::?relay`,0203H
        PUBLIC `??ZDSecMgrSetDefaultNV::?relay`
        FUNCTION `??ZDSecMgrSetDefaultNV::?relay`,0203H
        PUBLIC `??ZDSecMgrSwitchKeyInd::?relay`
        FUNCTION `??ZDSecMgrSwitchKeyInd::?relay`,0203H
        PUBLIC `??ZDSecMgrSwitchNwkKey::?relay`
        FUNCTION `??ZDSecMgrSwitchNwkKey::?relay`,0203H
        PUBLIC `??ZDSecMgrTCDataLoad::?relay`
        FUNCTION `??ZDSecMgrTCDataLoad::?relay`,0203H
        PUBLIC `??ZDSecMgrTCExtAddrCheck::?relay`
        FUNCTION `??ZDSecMgrTCExtAddrCheck::?relay`,0203H
        PUBLIC `??ZDSecMgrTransportKeyInd::?relay`
        FUNCTION `??ZDSecMgrTransportKeyInd::?relay`,0203H
        PUBLIC `??ZDSecMgrUpdateDeviceInd::?relay`
        FUNCTION `??ZDSecMgrUpdateDeviceInd::?relay`,0203H
        PUBLIC `??ZDSecMgrUpdateNwkKey::?relay`
        FUNCTION `??ZDSecMgrUpdateNwkKey::?relay`,0203H
        PUBLIC `??ZDSecMgrWriteNV::?relay`
        FUNCTION `??ZDSecMgrWriteNV::?relay`,0203H
        PUBLIC APSME_KeyFwdToChild
        FUNCTION APSME_KeyFwdToChild,0a1203H
        ARGFRAME XSTACK, 0, STACK
        LOCFRAME XSTACK, 10, STACK
        PUBLIC APSME_LinkKeyDataGet
        FUNCTION APSME_LinkKeyDataGet,021203H
        ARGFRAME XSTACK, 0, STACK
        LOCFRAME XSTACK, 11, STACK
        PUBLIC APSME_LinkKeySet
        FUNCTION APSME_LinkKeySet,0a1203H
        ARGFRAME XSTACK, 14, STACK
        ARGFRAME IOVERLAY, 0, STATIC
        ARGFRAME DOVERLAY, 0, STATIC
        LOCFRAME XSTACK, 20, STACK
        PUBLIC APSME_MasterKeyGet
        FUNCTION APSME_MasterKeyGet,0a1203H
        ARGFRAME XSTACK, 0, STACK
        LOCFRAME XSTACK, 11, STACK
        PUBLIC APSME_SKA_TimerExpired
        FUNCTION APSME_SKA_TimerExpired,021203H
        ARGFRAME XSTACK, 0, STACK
        LOCFRAME XSTACK, 9, STACK
        PUBLIC TrustCenterLinkKey
        PUBLIC ZDSecMgrAPSRemove
        FUNCTION ZDSecMgrAPSRemove,021203H
        ARGFRAME XSTACK, 2, STACK
        LOCFRAME ISTACK, 2, STACK
        LOCFRAME XSTACK, 10, STACK
        PUBLIC ZDSecMgrAddLinkKey
        FUNCTION ZDSecMgrAddLinkKey,0a1203H
        ARGFRAME XSTACK, 2, STACK
        LOCFRAME XSTACK, 16, STACK
        PUBLIC ZDSecMgrAddrMgrUpdate
        FUNCTION ZDSecMgrAddrMgrUpdate,021203H
        ARGFRAME XSTACK, 14, STACK
        ARGFRAME IOVERLAY, 0, STATIC
        ARGFRAME DOVERLAY, 0, STATIC
        LOCFRAME XSTACK, 22, STACK
        PUBLIC ZDSecMgrAddrStore
        FUNCTION ZDSecMgrAddrStore,021203H
        ARGFRAME XSTACK, 16, STACK
        ARGFRAME IOVERLAY, 0, STATIC
        ARGFRAME DOVERLAY, 0, STATIC
        LOCFRAME XSTACK, 22, STACK
        PUBLIC ZDSecMgrAppKeyGet
        FUNCTION ZDSecMgrAppKeyGet,021203H
        ARGFRAME XSTACK, 59, STACK
        ARGFRAME IOVERLAY, 0, STATIC
        ARGFRAME DOVERLAY, 0, STATIC
        LOCFRAME ISTACK, 3, STACK
        PUBLIC ZDSecMgrAppKeyReq
        FUNCTION ZDSecMgrAppKeyReq,0a1203H
        ARGFRAME XSTACK, 0, STACK
        ARGFRAME IOVERLAY, 0, STATIC
        ARGFRAME DOVERLAY, 0, STATIC
        LOCFRAME XSTACK, 59, STACK
        PUBLIC ZDSecMgrAppKeyType
        PUBLIC ZDSecMgrAppKeyTypeSet
        FUNCTION ZDSecMgrAppKeyTypeSet,0203H
        ARGFRAME XSTACK, 0, STACK
        LOCFRAME ISTACK, 2, STACK
        PUBLIC ZDSecMgrAssocDeviceAuth
        FUNCTION ZDSecMgrAssocDeviceAuth,0203H
        ARGFRAME XSTACK, 35, STACK
        ARGFRAME IOVERLAY, 0, STATIC
        ARGFRAME DOVERLAY, 0, STATIC
        LOCFRAME ISTACK, 2, STACK
        PUBLIC ZDSecMgrAuthInitiate
        FUNCTION ZDSecMgrAuthInitiate,021203H
        ARGFRAME XSTACK, 0, STACK
        LOCFRAME XSTACK, 16, STACK
        PUBLIC ZDSecMgrAuthNwkKey
        FUNCTION ZDSecMgrAuthNwkKey,021203H
        ARGFRAME XSTACK, 10, STACK
        ARGFRAME IOVERLAY, 0, STATIC
        ARGFRAME DOVERLAY, 0, STATIC
        LOCFRAME ISTACK, 2, STACK
        PUBLIC ZDSecMgrAuthenticateCfm
        FUNCTION ZDSecMgrAuthenticateCfm,021203H
        ARGFRAME XSTACK, 0, STACK
        LOCFRAME ISTACK, 2, STACK
        PUBLIC ZDSecMgrAuthenticateInd
        FUNCTION ZDSecMgrAuthenticateInd,0a1203H
        ARGFRAME XSTACK, 0, STACK
        LOCFRAME XSTACK, 32, STACK
        PUBLIC ZDSecMgrAuthenticationCheck
        FUNCTION ZDSecMgrAuthenticationCheck,0203H
        ARGFRAME XSTACK, 0, STACK
        PUBLIC ZDSecMgrAuthenticationSet
        FUNCTION ZDSecMgrAuthenticationSet,021203H
        ARGFRAME XSTACK, 0, STACK
        LOCFRAME ISTACK, 1, STACK
        LOCFRAME XSTACK, 11, STACK
        PUBLIC ZDSecMgrConfig
        FUNCTION ZDSecMgrConfig,021203H
        ARGFRAME XSTACK, 0, STACK
        LOCFRAME ISTACK, 2, STACK
        PUBLIC ZDSecMgrCtrlAdd
        FUNCTION ZDSecMgrCtrlAdd,0a1203H
        ARGFRAME XSTACK, 14, STACK
        ARGFRAME IOVERLAY, 0, STATIC
        ARGFRAME DOVERLAY, 0, STATIC
        LOCFRAME XSTACK, 14, STACK
        PUBLIC ZDSecMgrCtrlData
        PUBLIC ZDSecMgrCtrlInit
        FUNCTION ZDSecMgrCtrlInit,021203H
        ARGFRAME XSTACK, 0, STACK
        LOCFRAME ISTACK, 2, STACK
        PUBLIC ZDSecMgrCtrlLookup
        FUNCTION ZDSecMgrCtrlLookup,080203H
        ARGFRAME XSTACK, 13, STACK
        ARGFRAME IOVERLAY, 0, STATIC
        ARGFRAME DOVERLAY, 0, STATIC
        LOCFRAME XSTACK, 10, STACK
        PUBLIC ZDSecMgrCtrlRelease
        FUNCTION ZDSecMgrCtrlRelease,0203H
        ARGFRAME XSTACK, 0, STACK
        LOCFRAME ISTACK, 2, STACK
        PUBLIC ZDSecMgrCtrlReset
        FUNCTION ZDSecMgrCtrlReset,0a1203H
        ARGFRAME XSTACK, 14, STACK
        ARGFRAME IOVERLAY, 0, STATIC
        ARGFRAME DOVERLAY, 0, STATIC
        LOCFRAME XSTACK, 14, STACK
        PUBLIC ZDSecMgrCtrlSet
        FUNCTION ZDSecMgrCtrlSet,080203H
        ARGFRAME XSTACK, 14, STACK
        ARGFRAME IOVERLAY, 0, STATIC
        ARGFRAME DOVERLAY, 0, STATIC
        LOCFRAME ISTACK, 1, STACK
        LOCFRAME XSTACK, 9, STACK
        PUBLIC ZDSecMgrCtrlTerm
        FUNCTION ZDSecMgrCtrlTerm,021203H
        ARGFRAME XSTACK, 9, STACK
        ARGFRAME IOVERLAY, 0, STATIC
        ARGFRAME DOVERLAY, 0, STATIC
        LOCFRAME ISTACK, 2, STACK
        LOCFRAME XSTACK, 2, STACK
        PUBLIC ZDSecMgrDeviceCtrlHandler
        FUNCTION ZDSecMgrDeviceCtrlHandler,0a1203H
        ARGFRAME XSTACK, 33, STACK
        ARGFRAME IOVERLAY, 0, STATIC
        ARGFRAME DOVERLAY, 0, STATIC
        LOCFRAME ISTACK, 1, STACK
        LOCFRAME XSTACK, 9, STACK
        PUBLIC ZDSecMgrDeviceCtrlSetup
        FUNCTION ZDSecMgrDeviceCtrlSetup,021203H
        ARGFRAME XSTACK, 0, STACK
        LOCFRAME ISTACK, 2, STACK
        PUBLIC ZDSecMgrDeviceCtrlUpdate
        FUNCTION ZDSecMgrDeviceCtrlUpdate,021203H
        ARGFRAME XSTACK, 9, STACK
        ARGFRAME IOVERLAY, 0, STATIC
        ARGFRAME DOVERLAY, 0, STATIC
        LOCFRAME XSTACK, 13, STACK
        PUBLIC ZDSecMgrDeviceEntryAdd
        FUNCTION ZDSecMgrDeviceEntryAdd,0a1203H
        ARGFRAME XSTACK, 14, STACK
        ARGFRAME IOVERLAY, 0, STATIC
        ARGFRAME DOVERLAY, 0, STATIC
        LOCFRAME XSTACK, 14, STACK
        PUBLIC ZDSecMgrDeviceEntryRemove
        FUNCTION ZDSecMgrDeviceEntryRemove,021203H
        ARGFRAME XSTACK, 14, STACK
        ARGFRAME IOVERLAY, 0, STATIC
        ARGFRAME DOVERLAY, 0, STATIC
        LOCFRAME XSTACK, 9, STACK
        PUBLIC ZDSecMgrDeviceJoin
        FUNCTION ZDSecMgrDeviceJoin,0a1203H
        ARGFRAME XSTACK, 10, STACK
        ARGFRAME IOVERLAY, 0, STATIC
        ARGFRAME DOVERLAY, 0, STATIC
        LOCFRAME XSTACK, 9, STACK
        PUBLIC ZDSecMgrDeviceJoinDirect
        FUNCTION ZDSecMgrDeviceJoinDirect,0a1203H
        ARGFRAME XSTACK, 0, STACK
        ARGFRAME IOVERLAY, 0, STATIC
        ARGFRAME DOVERLAY, 0, STATIC
        LOCFRAME XSTACK, 9, STACK
        PUBLIC ZDSecMgrDeviceJoinFwd
        FUNCTION ZDSecMgrDeviceJoinFwd,021203H
        ARGFRAME XSTACK, 0, STACK
        LOCFRAME ISTACK, 2, STACK
        LOCFRAME XSTACK, 8, STACK
        PUBLIC ZDSecMgrDeviceNew
        FUNCTION ZDSecMgrDeviceNew,021203H
        ARGFRAME XSTACK, 35, STACK
        ARGFRAME IOVERLAY, 0, STATIC
        ARGFRAME DOVERLAY, 0, STATIC
        LOCFRAME ISTACK, 2, STACK
        PUBLIC ZDSecMgrDeviceRemove
        FUNCTION ZDSecMgrDeviceRemove,0a1203H
        ARGFRAME XSTACK, 19, STACK
        ARGFRAME IOVERLAY, 0, STATIC
        ARGFRAME DOVERLAY, 0, STATIC
        LOCFRAME XSTACK, 19, STACK
        PUBLIC ZDSecMgrDeviceValidate
        FUNCTION ZDSecMgrDeviceValidate,021203H
        ARGFRAME XSTACK, 9, STACK
        ARGFRAME IOVERLAY, 0, STATIC
        ARGFRAME DOVERLAY, 0, STATIC
        LOCFRAME ISTACK, 2, STACK
        PUBLIC ZDSecMgrDeviceValidateCM
        FUNCTION ZDSecMgrDeviceValidateCM,0a1203H
        ARGFRAME XSTACK, 0, STACK
        LOCFRAME XSTACK, 16, STACK
        PUBLIC ZDSecMgrDeviceValidateRM
        FUNCTION ZDSecMgrDeviceValidateRM,0203H
        ARGFRAME XSTACK, 0, STACK
        ARGFRAME IOVERLAY, 0, STATIC
        ARGFRAME DOVERLAY, 0, STATIC
        LOCFRAME ISTACK, 2, STACK
        PUBLIC ZDSecMgrDeviceValidateSKKE
        FUNCTION ZDSecMgrDeviceValidateSKKE,021203H
        ARGFRAME XSTACK, 31, STACK
        ARGFRAME IOVERLAY, 0, STATIC
        ARGFRAME DOVERLAY, 0, STATIC
        LOCFRAME XSTACK, 13, STACK
        PUBLIC ZDSecMgrEntries
        PUBLIC ZDSecMgrEntryFree
        FUNCTION ZDSecMgrEntryFree,0203H
        ARGFRAME XSTACK, 0, STACK
        LOCFRAME ISTACK, 2, STACK
        PUBLIC ZDSecMgrEntryInit
        FUNCTION ZDSecMgrEntryInit,021203H
        ARGFRAME XSTACK, 0, STACK
        LOCFRAME ISTACK, 2, STACK
        PUBLIC ZDSecMgrEntryLookup
        FUNCTION ZDSecMgrEntryLookup,0a1203H
        ARGFRAME XSTACK, 14, STACK
        ARGFRAME IOVERLAY, 0, STATIC
        ARGFRAME DOVERLAY, 0, STATIC
        LOCFRAME XSTACK, 23, STACK
        PUBLIC ZDSecMgrEntryLookupAMI
        FUNCTION ZDSecMgrEntryLookupAMI,080203H
        ARGFRAME XSTACK, 14, STACK
        ARGFRAME IOVERLAY, 0, STATIC
        ARGFRAME DOVERLAY, 0, STATIC
        LOCFRAME XSTACK, 10, STACK
        PUBLIC ZDSecMgrEntryLookupExt
        FUNCTION ZDSecMgrEntryLookupExt,0a1203H
        ARGFRAME XSTACK, 17, STACK
        ARGFRAME IOVERLAY, 0, STATIC
        ARGFRAME DOVERLAY, 0, STATIC
        LOCFRAME XSTACK, 11, STACK
        PUBLIC ZDSecMgrEntryNew
        FUNCTION ZDSecMgrEntryNew,080203H
        ARGFRAME XSTACK, 14, STACK
        ARGFRAME IOVERLAY, 0, STATIC
        ARGFRAME DOVERLAY, 0, STATIC
        LOCFRAME XSTACK, 10, STACK
        PUBLIC ZDSecMgrEstablishKey
        FUNCTION ZDSecMgrEstablishKey,0a1203H
        ARGFRAME XSTACK, 9, STACK
        ARGFRAME IOVERLAY, 0, STATIC
        ARGFRAME DOVERLAY, 0, STATIC
        LOCFRAME XSTACK, 17, STACK
        PUBLIC ZDSecMgrEstablishKeyCfm
        FUNCTION ZDSecMgrEstablishKeyCfm,021203H
        ARGFRAME XSTACK, 0, STACK
        LOCFRAME ISTACK, 2, STACK
        PUBLIC ZDSecMgrEstablishKeyInd
        FUNCTION ZDSecMgrEstablishKeyInd,0a1203H
        ARGFRAME XSTACK, 0, STACK
        LOCFRAME ISTACK, 1, STACK
        LOCFRAME XSTACK, 31, STACK
        PUBLIC ZDSecMgrEvent
        FUNCTION ZDSecMgrEvent,0a1203H
        ARGFRAME XSTACK, 0, STACK
        LOCFRAME ISTACK, 1, STACK
        LOCFRAME XSTACK, 33, STACK
        PUBLIC ZDSecMgrExtAddrLookup
        FUNCTION ZDSecMgrExtAddrLookup,021203H
        ARGFRAME XSTACK, 19, STACK
        ARGFRAME IOVERLAY, 0, STATIC
        ARGFRAME DOVERLAY, 0, STATIC
        LOCFRAME XSTACK, 22, STACK
        PUBLIC ZDSecMgrExtAddrStore
        FUNCTION ZDSecMgrExtAddrStore,021203H
        ARGFRAME XSTACK, 2, STACK
        LOCFRAME XSTACK, 22, STACK
        PUBLIC ZDSecMgrInit
        FUNCTION ZDSecMgrInit,021203H
        ARGFRAME XSTACK, 0, STACK
        LOCFRAME ISTACK, 2, STACK
        PUBLIC ZDSecMgrInitNV
        FUNCTION ZDSecMgrInitNV,0a1203H
        ARGFRAME XSTACK, 0, STACK
        LOCFRAME XSTACK, 12, STACK
        PUBLIC ZDSecMgrMasterKeyData
        PUBLIC ZDSecMgrMasterKeyInit
        FUNCTION ZDSecMgrMasterKeyInit,021203H
        ARGFRAME XSTACK, 0, STACK
        LOCFRAME ISTACK, 2, STACK
        PUBLIC ZDSecMgrMasterKeyLoad
        FUNCTION ZDSecMgrMasterKeyLoad,0a1203H
        ARGFRAME XSTACK, 14, STACK
        ARGFRAME IOVERLAY, 0, STATIC
        ARGFRAME DOVERLAY, 0, STATIC
        LOCFRAME XSTACK, 22, STACK
        PUBLIC ZDSecMgrMasterKeyLookup
        FUNCTION ZDSecMgrMasterKeyLookup,080203H
        ARGFRAME XSTACK, 23, STACK
        ARGFRAME IOVERLAY, 0, STATIC
        ARGFRAME DOVERLAY, 0, STATIC
        LOCFRAME XSTACK, 10, STACK
        PUBLIC ZDSecMgrMasterKeyStore
        FUNCTION ZDSecMgrMasterKeyStore,0a1203H
        ARGFRAME XSTACK, 19, STACK
        ARGFRAME IOVERLAY, 0, STATIC
        ARGFRAME DOVERLAY, 0, STATIC
        LOCFRAME XSTACK, 17, STACK
        PUBLIC ZDSecMgrNewDeviceEvent
        FUNCTION ZDSecMgrNewDeviceEvent,0a1203H
        ARGFRAME XSTACK, 0, STACK
        LOCFRAME ISTACK, 1, STACK
        LOCFRAME XSTACK, 35, STACK
        PUBLIC ZDSecMgrPermitJoining
        FUNCTION ZDSecMgrPermitJoining,0203H
        ARGFRAME XSTACK, 0, STACK
        LOCFRAME ISTACK, 2, STACK
        PUBLIC ZDSecMgrPermitJoiningEnabled
        PUBLIC ZDSecMgrPermitJoiningTimed
        PUBLIC ZDSecMgrPermitJoiningTimeout
        FUNCTION ZDSecMgrPermitJoiningTimeout,0203H
        ARGFRAME XSTACK, 0, STACK
        LOCFRAME ISTACK, 2, STACK
        PUBLIC ZDSecMgrRemoveDeviceInd
        FUNCTION ZDSecMgrRemoveDeviceInd,021203H
        ARGFRAME XSTACK, 0, STACK
        LOCFRAME XSTACK, 19, STACK
        PUBLIC ZDSecMgrRequestKeyInd
        FUNCTION ZDSecMgrRequestKeyInd,021203H
        ARGFRAME XSTACK, 0, STACK
        LOCFRAME ISTACK, 2, STACK
        PUBLIC ZDSecMgrRestoreFromNV
        FUNCTION ZDSecMgrRestoreFromNV,0a1203H
        ARGFRAME XSTACK, 0, STACK
        ARGFRAME IOVERLAY, 0, STATIC
        ARGFRAME DOVERLAY, 0, STATIC
        LOCFRAME XSTACK, 19, STACK
        PUBLIC ZDSecMgrSendMasterKey
        FUNCTION ZDSecMgrSendMasterKey,0a1203H
        ARGFRAME XSTACK, 9, STACK
        ARGFRAME IOVERLAY, 0, STATIC
        ARGFRAME DOVERLAY, 0, STATIC
        LOCFRAME XSTACK, 23, STACK
        PUBLIC ZDSecMgrSendNwkKey
        FUNCTION ZDSecMgrSendNwkKey,0a1203H
        ARGFRAME XSTACK, 9, STACK
        ARGFRAME IOVERLAY, 0, STATIC
        ARGFRAME DOVERLAY, 0, STATIC
        LOCFRAME ISTACK, 1, STACK
        LOCFRAME XSTACK, 25, STACK
        PUBLIC ZDSecMgrSetDefaultNV
        FUNCTION ZDSecMgrSetDefaultNV,0a1203H
        ARGFRAME XSTACK, 10, STACK
        ARGFRAME IOVERLAY, 0, STATIC
        ARGFRAME DOVERLAY, 0, STATIC
        LOCFRAME XSTACK, 16, STACK
        PUBLIC ZDSecMgrSwitchKeyInd
        FUNCTION ZDSecMgrSwitchKeyInd,021203H
        ARGFRAME XSTACK, 0, STACK
        LOCFRAME ISTACK, 2, STACK
        PUBLIC ZDSecMgrSwitchNwkKey
        FUNCTION ZDSecMgrSwitchNwkKey,021203H
        ARGFRAME XSTACK, 0, STACK
        LOCFRAME ISTACK, 1, STACK
        LOCFRAME XSTACK, 12, STACK
        PUBLIC ZDSecMgrTCAuthenticated
        PUBLIC ZDSecMgrTCDataLoad
        FUNCTION ZDSecMgrTCDataLoad,0a1203H
        ARGFRAME XSTACK, 31, STACK
        ARGFRAME IOVERLAY, 0, STATIC
        ARGFRAME DOVERLAY, 0, STATIC
        LOCFRAME XSTACK, 16, STACK
        PUBLIC ZDSecMgrTCDataLoaded
        PUBLIC ZDSecMgrTCExtAddr
        PUBLIC ZDSecMgrTCExtAddrCheck
        FUNCTION ZDSecMgrTCExtAddrCheck,0a1203H
        ARGFRAME XSTACK, 31, STACK
        ARGFRAME IOVERLAY, 0, STATIC
        ARGFRAME DOVERLAY, 0, STATIC
        LOCFRAME XSTACK, 17, STACK
        PUBLIC ZDSecMgrTCMasterKey
        PUBLIC ZDSecMgrTransportKeyInd
        FUNCTION ZDSecMgrTransportKeyInd,0a1203H
        ARGFRAME XSTACK, 0, STACK
        LOCFRAME XSTACK, 10, STACK
        PUBLIC ZDSecMgrUpdateDeviceInd
        FUNCTION ZDSecMgrUpdateDeviceInd,021203H
        ARGFRAME XSTACK, 0, STACK
        LOCFRAME ISTACK, 2, STACK
        LOCFRAME XSTACK, 10, STACK
        PUBLIC ZDSecMgrUpdateNwkKey
        FUNCTION ZDSecMgrUpdateNwkKey,0a1203H
        ARGFRAME XSTACK, 0, STACK
        LOCFRAME ISTACK, 1, STACK
        LOCFRAME XSTACK, 23, STACK
        PUBLIC ZDSecMgrWriteNV
        FUNCTION ZDSecMgrWriteNV,0a1203H
        ARGFRAME XSTACK, 15, STACK
        ARGFRAME IOVERLAY, 0, STATIC
        ARGFRAME DOVERLAY, 0, STATIC
        LOCFRAME XSTACK, 16, STACK
        PUBWEAK __Constant_b
        
          CFI Names cfiNames0
          CFI StackFrame CFA_SP SP IDATA
          CFI StackFrame CFA_PSP16 PSP16 XDATA
          CFI StackFrame CFA_XSP16 XSP16 XDATA
          CFI StaticOverlayFrame CFA_IOVERLAY IOVERLAY
          CFI StaticOverlayFrame CFA_DOVERLAY DOVERLAY
          CFI Resource `PSW.CY`:1, `B.BR0`:1, `B.BR1`:1, `B.BR2`:1, `B.BR3`:1
          CFI Resource `B.BR4`:1, `B.BR5`:1, `B.BR6`:1, `B.BR7`:1, `VB.BR8`:1
          CFI Resource `VB.BR9`:1, `VB.BR10`:1, `VB.BR11`:1, `VB.BR12`:1
          CFI Resource `VB.BR13`:1, `VB.BR14`:1, `VB.BR15`:1, VB:8, B:8, A:8
          CFI Resource PSW:8, DPL0:8, DPH0:8, R0:8, R1:8, R2:8, R3:8, R4:8, R5:8
          CFI Resource R6:8, R7:8, V0:8, V1:8, V2:8, V3:8, V4:8, V5:8, V6:8, V7:8
          CFI Resource SP:8, PSPH:8, PSPL:8, PSP16:16, XSPH:8, XSPL:8, XSP16:16
          CFI VirtualResource ?RET:24
          CFI Resource ?BRET_EXT:8
          CFI VirtualResource ?RET_HIGH:8, ?RET_LOW:8
          CFI ResourceParts PSP16 PSPH, PSPL
          CFI ResourceParts XSP16 XSPH, XSPL
          CFI ResourceParts ?RET ?BRET_EXT, ?RET_HIGH, ?RET_LOW
          CFI EndNames cfiNames0
        
          CFI Common cfiCommon0 Using cfiNames0
          CFI CodeAlign 1
          CFI DataAlign -1
          CFI ReturnAddress ?RET CODE
          CFI CFA_DOVERLAY Used
          CFI CFA_IOVERLAY Used
          CFI CFA_SP SP+-3
          CFI CFA_PSP16 PSP16+0
          CFI CFA_XSP16 XSP16+0
          CFI `PSW.CY` SameValue
          CFI `B.BR0` SameValue
          CFI `B.BR1` SameValue
          CFI `B.BR2` SameValue
          CFI `B.BR3` SameValue
          CFI `B.BR4` SameValue
          CFI `B.BR5` SameValue
          CFI `B.BR6` SameValue
          CFI `B.BR7` SameValue
          CFI `VB.BR8` SameValue
          CFI `VB.BR9` SameValue
          CFI `VB.BR10` SameValue
          CFI `VB.BR11` SameValue
          CFI `VB.BR12` SameValue
          CFI `VB.BR13` SameValue
          CFI `VB.BR14` SameValue
          CFI `VB.BR15` SameValue
          CFI VB SameValue
          CFI B Undefined
          CFI A Undefined
          CFI PSW SameValue
          CFI DPL0 SameValue
          CFI DPH0 SameValue
          CFI R0 Undefined
          CFI R1 Undefined
          CFI R2 Undefined
          CFI R3 Undefined
          CFI R4 Undefined
          CFI R5 Undefined
          CFI R6 SameValue
          CFI R7 SameValue
          CFI V0 SameValue
          CFI V1 SameValue
          CFI V2 SameValue
          CFI V3 SameValue
          CFI V4 SameValue
          CFI V5 SameValue
          CFI V6 SameValue
          CFI V7 SameValue
          CFI PSPH Undefined
          CFI PSPL Undefined
          CFI XSPH Undefined
          CFI XSPL Undefined
          CFI ?RET Concat
          CFI ?BRET_EXT Frame(CFA_SP, 3)
          CFI ?RET_HIGH Frame(CFA_SP, 2)
          CFI ?RET_LOW Frame(CFA_SP, 1)
          CFI EndCommon cfiCommon0
        
        
          CFI Common cfiCommon1 Using cfiNames0
          CFI CodeAlign 1
          CFI DataAlign -1
          CFI ReturnAddress ?RET CODE
          CFI CFA_DOVERLAY Used
          CFI CFA_IOVERLAY Used
          CFI CFA_SP SP+-2
          CFI CFA_PSP16 PSP16+0
          CFI CFA_XSP16 XSP16+0
          CFI `PSW.CY` SameValue
          CFI `B.BR0` SameValue
          CFI `B.BR1` SameValue
          CFI `B.BR2` SameValue
          CFI `B.BR3` SameValue
          CFI `B.BR4` SameValue
          CFI `B.BR5` SameValue
          CFI `B.BR6` SameValue
          CFI `B.BR7` SameValue
          CFI `VB.BR8` SameValue
          CFI `VB.BR9` SameValue
          CFI `VB.BR10` SameValue
          CFI `VB.BR11` SameValue
          CFI `VB.BR12` SameValue
          CFI `VB.BR13` SameValue
          CFI `VB.BR14` SameValue
          CFI `VB.BR15` SameValue
          CFI VB SameValue
          CFI B SameValue
          CFI A SameValue
          CFI PSW SameValue
          CFI DPL0 SameValue
          CFI DPH0 SameValue
          CFI R0 SameValue
          CFI R1 SameValue
          CFI R2 SameValue
          CFI R3 SameValue
          CFI R4 SameValue
          CFI R5 SameValue
          CFI R6 SameValue
          CFI R7 SameValue
          CFI V0 SameValue
          CFI V1 SameValue
          CFI V2 SameValue
          CFI V3 SameValue
          CFI V4 SameValue
          CFI V5 SameValue
          CFI V6 SameValue
          CFI V7 SameValue
          CFI PSPH Undefined
          CFI PSPL Undefined
          CFI XSPH Undefined
          CFI XSPL Undefined
          CFI ?RET Concat
          CFI ?BRET_EXT SameValue
          CFI ?RET_HIGH Frame(CFA_SP, 2)
          CFI ?RET_LOW Frame(CFA_SP, 1)
          CFI EndCommon cfiCommon1
        
APSME_AuthenticateReq SYMBOL "APSME_AuthenticateReq"
`??APSME_AuthenticateReq::?relay` SYMBOL "?relay", APSME_AuthenticateReq
APSME_EstablishKeyReq SYMBOL "APSME_EstablishKeyReq"
`??APSME_EstablishKeyReq::?relay` SYMBOL "?relay", APSME_EstablishKeyReq
APSME_EstablishKeyRsp SYMBOL "APSME_EstablishKeyRsp"
`??APSME_EstablishKeyRsp::?relay` SYMBOL "?relay", APSME_EstablishKeyRsp
APSME_LookupExtAddr SYMBOL "APSME_LookupExtAddr"
`??APSME_LookupExtAddr::?relay` SYMBOL "?relay", APSME_LookupExtAddr
APSME_LookupNwkAddr SYMBOL "APSME_LookupNwkAddr"
`??APSME_LookupNwkAddr::?relay` SYMBOL "?relay", APSME_LookupNwkAddr
APSME_RemoveDeviceReq SYMBOL "APSME_RemoveDeviceReq"
`??APSME_RemoveDeviceReq::?relay` SYMBOL "?relay", APSME_RemoveDeviceReq
APSME_SecurityNM    SYMBOL "APSME_SecurityNM"
`??APSME_SecurityNM::?relay` SYMBOL "?relay", APSME_SecurityNM
APSME_SwitchKeyReq  SYMBOL "APSME_SwitchKeyReq"
`??APSME_SwitchKeyReq::?relay` SYMBOL "?relay", APSME_SwitchKeyReq
APSME_TransportKeyReq SYMBOL "APSME_TransportKeyReq"
`??APSME_TransportKeyReq::?relay` SYMBOL "?relay", APSME_TransportKeyReq
APSME_UpdateDeviceReq SYMBOL "APSME_UpdateDeviceReq"
`??APSME_UpdateDeviceReq::?relay` SYMBOL "?relay", APSME_UpdateDeviceReq
AddrMgrEntryGet     SYMBOL "AddrMgrEntryGet"
`??AddrMgrEntryGet::?relay` SYMBOL "?relay", AddrMgrEntryGet
AddrMgrEntryLookupExt SYMBOL "AddrMgrEntryLookupExt"
`??AddrMgrEntryLookupExt::?relay` SYMBOL "?relay", AddrMgrEntryLookupExt
AddrMgrEntryLookupNwk SYMBOL "AddrMgrEntryLookupNwk"
`??AddrMgrEntryLookupNwk::?relay` SYMBOL "?relay", AddrMgrEntryLookupNwk
AddrMgrEntryUpdate  SYMBOL "AddrMgrEntryUpdate"
`??AddrMgrEntryUpdate::?relay` SYMBOL "?relay", AddrMgrEntryUpdate
AddrMgrExtAddrEqual SYMBOL "AddrMgrExtAddrEqual"
`??AddrMgrExtAddrEqual::?relay` SYMBOL "?relay", AddrMgrExtAddrEqual
AddrMgrExtAddrLookup SYMBOL "AddrMgrExtAddrLookup"
`??AddrMgrExtAddrLookup::?relay` SYMBOL "?relay", AddrMgrExtAddrLookup
AddrMgrExtAddrSet   SYMBOL "AddrMgrExtAddrSet"
`??AddrMgrExtAddrSet::?relay` SYMBOL "?relay", AddrMgrExtAddrSet
AssocGetWithExt     SYMBOL "AssocGetWithExt"
`??AssocGetWithExt::?relay` SYMBOL "?relay", AssocGetWithExt
AssocGetWithShort   SYMBOL "AssocGetWithShort"
`??AssocGetWithShort::?relay` SYMBOL "?relay", AssocGetWithShort
AssocMatchDeviceStatus SYMBOL "AssocMatchDeviceStatus"
`??AssocMatchDeviceStatus::?relay` SYMBOL "?relay", AssocMatchDeviceStatus
AssocRemove         SYMBOL "AssocRemove"
`??AssocRemove::?relay` SYMBOL "?relay", AssocRemove
NLME_GetShortAddr   SYMBOL "NLME_GetShortAddr"
`??NLME_GetShortAddr::?relay` SYMBOL "?relay", NLME_GetShortAddr
NLME_LeaveReq       SYMBOL "NLME_LeaveReq"
`??NLME_LeaveReq::?relay` SYMBOL "?relay", NLME_LeaveReq
SSP_GetTrueRand     SYMBOL "SSP_GetTrueRand"
`??SSP_GetTrueRand::?relay` SYMBOL "?relay", SSP_GetTrueRand
SSP_SwitchNwkKey    SYMBOL "SSP_SwitchNwkKey"
`??SSP_SwitchNwkKey::?relay` SYMBOL "?relay", SSP_SwitchNwkKey
SSP_UpdateNwkKey    SYMBOL "SSP_UpdateNwkKey"
`??SSP_UpdateNwkKey::?relay` SYMBOL "?relay", SSP_UpdateNwkKey
ZDApp_NVUpdate      SYMBOL "ZDApp_NVUpdate"
`??ZDApp_NVUpdate::?relay` SYMBOL "?relay", ZDApp_NVUpdate
osal_mem_alloc      SYMBOL "osal_mem_alloc"
`??osal_mem_alloc::?relay` SYMBOL "?relay", osal_mem_alloc
osal_memcpy         SYMBOL "osal_memcpy"
`??osal_memcpy::?relay` SYMBOL "?relay", osal_memcpy
osal_memset         SYMBOL "osal_memset"
`??osal_memset::?relay` SYMBOL "?relay", osal_memset
osal_nv_item_init   SYMBOL "osal_nv_item_init"
`??osal_nv_item_init::?relay` SYMBOL "?relay", osal_nv_item_init
osal_nv_read        SYMBOL "osal_nv_read"
`??osal_nv_read::?relay` SYMBOL "?relay", osal_nv_read
osal_nv_write       SYMBOL "osal_nv_write"
`??osal_nv_write::?relay` SYMBOL "?relay", osal_nv_write
osal_set_event      SYMBOL "osal_set_event"
`??osal_set_event::?relay` SYMBOL "?relay", osal_set_event
osal_start_timerEx  SYMBOL "osal_start_timerEx"
`??osal_start_timerEx::?relay` SYMBOL "?relay", osal_start_timerEx
APSME_KeyFwdToChild SYMBOL "APSME_KeyFwdToChild"
`??APSME_KeyFwdToChild::?relay` SYMBOL "?relay", APSME_KeyFwdToChild
APSME_LinkKeyDataGet SYMBOL "APSME_LinkKeyDataGet"
`??APSME_LinkKeyDataGet::?relay` SYMBOL "?relay", APSME_LinkKeyDataGet
APSME_LinkKeySet    SYMBOL "APSME_LinkKeySet"
`??APSME_LinkKeySet::?relay` SYMBOL "?relay", APSME_LinkKeySet
APSME_MasterKeyGet  SYMBOL "APSME_MasterKeyGet"
`??APSME_MasterKeyGet::?relay` SYMBOL "?relay", APSME_MasterKeyGet
APSME_SKA_TimerExpired SYMBOL "APSME_SKA_TimerExpired"
`??APSME_SKA_TimerExpired::?relay` SYMBOL "?relay", APSME_SKA_TimerExpired
ZDSecMgrAPSRemove   SYMBOL "ZDSecMgrAPSRemove"
`??ZDSecMgrAPSRemove::?relay` SYMBOL "?relay", ZDSecMgrAPSRemove
ZDSecMgrAddLinkKey  SYMBOL "ZDSecMgrAddLinkKey"
`??ZDSecMgrAddLinkKey::?relay` SYMBOL "?relay", ZDSecMgrAddLinkKey
ZDSecMgrAddrMgrUpdate SYMBOL "ZDSecMgrAddrMgrUpdate"
`??ZDSecMgrAddrMgrUpdate::?relay` SYMBOL "?relay", ZDSecMgrAddrMgrUpdate
ZDSecMgrAddrStore   SYMBOL "ZDSecMgrAddrStore"
`??ZDSecMgrAddrStore::?relay` SYMBOL "?relay", ZDSecMgrAddrStore
ZDSecMgrAppKeyGet   SYMBOL "ZDSecMgrAppKeyGet"
`??ZDSecMgrAppKeyGet::?relay` SYMBOL "?relay", ZDSecMgrAppKeyGet
ZDSecMgrAppKeyReq   SYMBOL "ZDSecMgrAppKeyReq"
`??ZDSecMgrAppKeyReq::?relay` SYMBOL "?relay", ZDSecMgrAppKeyReq
ZDSecMgrAppKeyTypeSet SYMBOL "ZDSecMgrAppKeyTypeSet"
`??ZDSecMgrAppKeyTypeSet::?relay` SYMBOL "?relay", ZDSecMgrAppKeyTypeSet
ZDSecMgrAssocDeviceAuth SYMBOL "ZDSecMgrAssocDeviceAuth"
`??ZDSecMgrAssocDeviceAuth::?relay` SYMBOL "?relay", ZDSecMgrAssocDeviceAuth
ZDSecMgrAuthInitiate SYMBOL "ZDSecMgrAuthInitiate"
`??ZDSecMgrAuthInitiate::?relay` SYMBOL "?relay", ZDSecMgrAuthInitiate
ZDSecMgrAuthNwkKey  SYMBOL "ZDSecMgrAuthNwkKey"
`??ZDSecMgrAuthNwkKey::?relay` SYMBOL "?relay", ZDSecMgrAuthNwkKey
ZDSecMgrAuthenticateCfm SYMBOL "ZDSecMgrAuthenticateCfm"
`??ZDSecMgrAuthenticateCfm::?relay` SYMBOL "?relay", ZDSecMgrAuthenticateCfm
ZDSecMgrAuthenticateInd SYMBOL "ZDSecMgrAuthenticateInd"
`??ZDSecMgrAuthenticateInd::?relay` SYMBOL "?relay", ZDSecMgrAuthenticateInd
ZDSecMgrAuthenticationCheck SYMBOL "ZDSecMgrAuthenticationCheck"
`??ZDSecMgrAuthenticationCheck::?relay` SYMBOL "?relay", ZDSecMgrAuthenticationCheck
ZDSecMgrAuthenticationSet SYMBOL "ZDSecMgrAuthenticationSet"
`??ZDSecMgrAuthenticationSet::?relay` SYMBOL "?relay", ZDSecMgrAuthenticationSet
ZDSecMgrConfig      SYMBOL "ZDSecMgrConfig"
`??ZDSecMgrConfig::?relay` SYMBOL "?relay", ZDSecMgrConfig
ZDSecMgrCtrlAdd     SYMBOL "ZDSecMgrCtrlAdd"
`??ZDSecMgrCtrlAdd::?relay` SYMBOL "?relay", ZDSecMgrCtrlAdd
ZDSecMgrCtrlInit    SYMBOL "ZDSecMgrCtrlInit"
`??ZDSecMgrCtrlInit::?relay` SYMBOL "?relay", ZDSecMgrCtrlInit
ZDSecMgrCtrlLookup  SYMBOL "ZDSecMgrCtrlLookup"
`??ZDSecMgrCtrlLookup::?relay` SYMBOL "?relay", ZDSecMgrCtrlLookup
ZDSecMgrCtrlRelease SYMBOL "ZDSecMgrCtrlRelease"
`??ZDSecMgrCtrlRelease::?relay` SYMBOL "?relay", ZDSecMgrCtrlRelease
ZDSecMgrCtrlReset   SYMBOL "ZDSecMgrCtrlReset"
`??ZDSecMgrCtrlReset::?relay` SYMBOL "?relay", ZDSecMgrCtrlReset
ZDSecMgrCtrlSet     SYMBOL "ZDSecMgrCtrlSet"
`??ZDSecMgrCtrlSet::?relay` SYMBOL "?relay", ZDSecMgrCtrlSet
ZDSecMgrCtrlTerm    SYMBOL "ZDSecMgrCtrlTerm"
`??ZDSecMgrCtrlTerm::?relay` SYMBOL "?relay", ZDSecMgrCtrlTerm
ZDSecMgrDeviceCtrlHandler SYMBOL "ZDSecMgrDeviceCtrlHandler"
`??ZDSecMgrDeviceCtrlHandler::?relay` SYMBOL "?relay", ZDSecMgrDeviceCtrlHandler
ZDSecMgrDeviceCtrlSetup SYMBOL "ZDSecMgrDeviceCtrlSetup"
`??ZDSecMgrDeviceCtrlSetup::?relay` SYMBOL "?relay", ZDSecMgrDeviceCtrlSetup
ZDSecMgrDeviceCtrlUpdate SYMBOL "ZDSecMgrDeviceCtrlUpdate"
`??ZDSecMgrDeviceCtrlUpdate::?relay` SYMBOL "?relay", ZDSecMgrDeviceCtrlUpdate
ZDSecMgrDeviceEntryAdd SYMBOL "ZDSecMgrDeviceEntryAdd"
`??ZDSecMgrDeviceEntryAdd::?relay` SYMBOL "?relay", ZDSecMgrDeviceEntryAdd
ZDSecMgrDeviceEntryRemove SYMBOL "ZDSecMgrDeviceEntryRemove"
`??ZDSecMgrDeviceEntryRemove::?relay` SYMBOL "?relay", ZDSecMgrDeviceEntryRemove
ZDSecMgrDeviceJoin  SYMBOL "ZDSecMgrDeviceJoin"
`??ZDSecMgrDeviceJoin::?relay` SYMBOL "?relay", ZDSecMgrDeviceJoin
ZDSecMgrDeviceJoinDirect SYMBOL "ZDSecMgrDeviceJoinDirect"
`??ZDSecMgrDeviceJoinDirect::?relay` SYMBOL "?relay", ZDSecMgrDeviceJoinDirect
ZDSecMgrDeviceJoinFwd SYMBOL "ZDSecMgrDeviceJoinFwd"
`??ZDSecMgrDeviceJoinFwd::?relay` SYMBOL "?relay", ZDSecMgrDeviceJoinFwd
ZDSecMgrDeviceNew   SYMBOL "ZDSecMgrDeviceNew"
`??ZDSecMgrDeviceNew::?relay` SYMBOL "?relay", ZDSecMgrDeviceNew
ZDSecMgrDeviceRemove SYMBOL "ZDSecMgrDeviceRemove"
`??ZDSecMgrDeviceRemove::?relay` SYMBOL "?relay", ZDSecMgrDeviceRemove
ZDSecMgrDeviceValidate SYMBOL "ZDSecMgrDeviceValidate"
`??ZDSecMgrDeviceValidate::?relay` SYMBOL "?relay", ZDSecMgrDeviceValidate
ZDSecMgrDeviceValidateCM SYMBOL "ZDSecMgrDeviceValidateCM"
`??ZDSecMgrDeviceValidateCM::?relay` SYMBOL "?relay", ZDSecMgrDeviceValidateCM
ZDSecMgrDeviceValidateRM SYMBOL "ZDSecMgrDeviceValidateRM"
`??ZDSecMgrDeviceValidateRM::?relay` SYMBOL "?relay", ZDSecMgrDeviceValidateRM
ZDSecMgrDeviceValidateSKKE SYMBOL "ZDSecMgrDeviceValidateSKKE"
`??ZDSecMgrDeviceValidateSKKE::?relay` SYMBOL "?relay", ZDSecMgrDeviceValidateSKKE
ZDSecMgrEntryFree   SYMBOL "ZDSecMgrEntryFree"
`??ZDSecMgrEntryFree::?relay` SYMBOL "?relay", ZDSecMgrEntryFree
ZDSecMgrEntryInit   SYMBOL "ZDSecMgrEntryInit"
`??ZDSecMgrEntryInit::?relay` SYMBOL "?relay", ZDSecMgrEntryInit
ZDSecMgrEntryLookup SYMBOL "ZDSecMgrEntryLookup"
`??ZDSecMgrEntryLookup::?relay` SYMBOL "?relay", ZDSecMgrEntryLookup
ZDSecMgrEntryLookupAMI SYMBOL "ZDSecMgrEntryLookupAMI"
`??ZDSecMgrEntryLookupAMI::?relay` SYMBOL "?relay", ZDSecMgrEntryLookupAMI
ZDSecMgrEntryLookupExt SYMBOL "ZDSecMgrEntryLookupExt"
`??ZDSecMgrEntryLookupExt::?relay` SYMBOL "?relay", ZDSecMgrEntryLookupExt
ZDSecMgrEntryNew    SYMBOL "ZDSecMgrEntryNew"
`??ZDSecMgrEntryNew::?relay` SYMBOL "?relay", ZDSecMgrEntryNew
ZDSecMgrEstablishKey SYMBOL "ZDSecMgrEstablishKey"
`??ZDSecMgrEstablishKey::?relay` SYMBOL "?relay", ZDSecMgrEstablishKey
ZDSecMgrEstablishKeyCfm SYMBOL "ZDSecMgrEstablishKeyCfm"
`??ZDSecMgrEstablishKeyCfm::?relay` SYMBOL "?relay", ZDSecMgrEstablishKeyCfm
ZDSecMgrEstablishKeyInd SYMBOL "ZDSecMgrEstablishKeyInd"
`??ZDSecMgrEstablishKeyInd::?relay` SYMBOL "?relay", ZDSecMgrEstablishKeyInd
ZDSecMgrEvent       SYMBOL "ZDSecMgrEvent"
`??ZDSecMgrEvent::?relay` SYMBOL "?relay", ZDSecMgrEvent
ZDSecMgrExtAddrLookup SYMBOL "ZDSecMgrExtAddrLookup"
`??ZDSecMgrExtAddrLookup::?relay` SYMBOL "?relay", ZDSecMgrExtAddrLookup
ZDSecMgrExtAddrStore SYMBOL "ZDSecMgrExtAddrStore"
`??ZDSecMgrExtAddrStore::?relay` SYMBOL "?relay", ZDSecMgrExtAddrStore
ZDSecMgrInit        SYMBOL "ZDSecMgrInit"
`??ZDSecMgrInit::?relay` SYMBOL "?relay", ZDSecMgrInit
ZDSecMgrInitNV      SYMBOL "ZDSecMgrInitNV"
`??ZDSecMgrInitNV::?relay` SYMBOL "?relay", ZDSecMgrInitNV
ZDSecMgrMasterKeyInit SYMBOL "ZDSecMgrMasterKeyInit"
`??ZDSecMgrMasterKeyInit::?relay` SYMBOL "?relay", ZDSecMgrMasterKeyInit
ZDSecMgrMasterKeyLoad SYMBOL "ZDSecMgrMasterKeyLoad"
`??ZDSecMgrMasterKeyLoad::?relay` SYMBOL "?relay", ZDSecMgrMasterKeyLoad
ZDSecMgrMasterKeyLookup SYMBOL "ZDSecMgrMasterKeyLookup"
`??ZDSecMgrMasterKeyLookup::?relay` SYMBOL "?relay", ZDSecMgrMasterKeyLookup
ZDSecMgrMasterKeyStore SYMBOL "ZDSecMgrMasterKeyStore"
`??ZDSecMgrMasterKeyStore::?relay` SYMBOL "?relay", ZDSecMgrMasterKeyStore
ZDSecMgrNewDeviceEvent SYMBOL "ZDSecMgrNewDeviceEvent"
`??ZDSecMgrNewDeviceEvent::?relay` SYMBOL "?relay", ZDSecMgrNewDeviceEvent
ZDSecMgrPermitJoining SYMBOL "ZDSecMgrPermitJoining"
`??ZDSecMgrPermitJoining::?relay` SYMBOL "?relay", ZDSecMgrPermitJoining
ZDSecMgrPermitJoiningTimeout SYMBOL "ZDSecMgrPermitJoiningTimeout"
`??ZDSecMgrPermitJoiningTimeout::?relay` SYMBOL "?relay", ZDSecMgrPermitJoiningTimeout
ZDSecMgrRemoveDeviceInd SYMBOL "ZDSecMgrRemoveDeviceInd"
`??ZDSecMgrRemoveDeviceInd::?relay` SYMBOL "?relay", ZDSecMgrRemoveDeviceInd
ZDSecMgrRequestKeyInd SYMBOL "ZDSecMgrRequestKeyInd"
`??ZDSecMgrRequestKeyInd::?relay` SYMBOL "?relay", ZDSecMgrRequestKeyInd
ZDSecMgrRestoreFromNV SYMBOL "ZDSecMgrRestoreFromNV"
`??ZDSecMgrRestoreFromNV::?relay` SYMBOL "?relay", ZDSecMgrRestoreFromNV
ZDSecMgrSendMasterKey SYMBOL "ZDSecMgrSendMasterKey"
`??ZDSecMgrSendMasterKey::?relay` SYMBOL "?relay", ZDSecMgrSendMasterKey
ZDSecMgrSendNwkKey  SYMBOL "ZDSecMgrSendNwkKey"
`??ZDSecMgrSendNwkKey::?relay` SYMBOL "?relay", ZDSecMgrSendNwkKey
ZDSecMgrSetDefaultNV SYMBOL "ZDSecMgrSetDefaultNV"
`??ZDSecMgrSetDefaultNV::?relay` SYMBOL "?relay", ZDSecMgrSetDefaultNV
ZDSecMgrSwitchKeyInd SYMBOL "ZDSecMgrSwitchKeyInd"
`??ZDSecMgrSwitchKeyInd::?relay` SYMBOL "?relay", ZDSecMgrSwitchKeyInd
ZDSecMgrSwitchNwkKey SYMBOL "ZDSecMgrSwitchNwkKey"
`??ZDSecMgrSwitchNwkKey::?relay` SYMBOL "?relay", ZDSecMgrSwitchNwkKey
ZDSecMgrTCDataLoad  SYMBOL "ZDSecMgrTCDataLoad"
`??ZDSecMgrTCDataLoad::?relay` SYMBOL "?relay", ZDSecMgrTCDataLoad
ZDSecMgrTCExtAddrCheck SYMBOL "ZDSecMgrTCExtAddrCheck"
`??ZDSecMgrTCExtAddrCheck::?relay` SYMBOL "?relay", ZDSecMgrTCExtAddrCheck
ZDSecMgrTransportKeyInd SYMBOL "ZDSecMgrTransportKeyInd"
`??ZDSecMgrTransportKeyInd::?relay` SYMBOL "?relay", ZDSecMgrTransportKeyInd
ZDSecMgrUpdateDeviceInd SYMBOL "ZDSecMgrUpdateDeviceInd"
`??ZDSecMgrUpdateDeviceInd::?relay` SYMBOL "?relay", ZDSecMgrUpdateDeviceInd
ZDSecMgrUpdateNwkKey SYMBOL "ZDSecMgrUpdateNwkKey"
`??ZDSecMgrUpdateNwkKey::?relay` SYMBOL "?relay", ZDSecMgrUpdateNwkKey
ZDSecMgrWriteNV     SYMBOL "ZDSecMgrWriteNV"
`??ZDSecMgrWriteNV::?relay` SYMBOL "?relay", ZDSecMgrWriteNV

        EXTERN `??APSME_AuthenticateReq::?relay`
        FUNCTION `??APSME_AuthenticateReq::?relay`,00H
        EXTERN `??APSME_EstablishKeyReq::?relay`
        FUNCTION `??APSME_EstablishKeyReq::?relay`,00H
        EXTERN `??APSME_EstablishKeyRsp::?relay`
        FUNCTION `??APSME_EstablishKeyRsp::?relay`,00H
        EXTERN `??APSME_LookupExtAddr::?relay`
        FUNCTION `??APSME_LookupExtAddr::?relay`,00H
        EXTERN `??APSME_LookupNwkAddr::?relay`
        FUNCTION `??APSME_LookupNwkAddr::?relay`,00H
        EXTERN `??APSME_RemoveDeviceReq::?relay`
        FUNCTION `??APSME_RemoveDeviceReq::?relay`,00H
        EXTERN `??APSME_SecurityNM::?relay`
        FUNCTION `??APSME_SecurityNM::?relay`,00H
        EXTERN `??APSME_SwitchKeyReq::?relay`
        FUNCTION `??APSME_SwitchKeyReq::?relay`,00H
        EXTERN `??APSME_TransportKeyReq::?relay`
        FUNCTION `??APSME_TransportKeyReq::?relay`,00H
        EXTERN `??APSME_UpdateDeviceReq::?relay`
        FUNCTION `??APSME_UpdateDeviceReq::?relay`,00H
        EXTERN `??AddrMgrEntryGet::?relay`
        FUNCTION `??AddrMgrEntryGet::?relay`,00H
        EXTERN `??AddrMgrEntryLookupExt::?relay`
        FUNCTION `??AddrMgrEntryLookupExt::?relay`,00H
        EXTERN `??AddrMgrEntryLookupNwk::?relay`
        FUNCTION `??AddrMgrEntryLookupNwk::?relay`,00H
        EXTERN `??AddrMgrEntryUpdate::?relay`
        FUNCTION `??AddrMgrEntryUpdate::?relay`,00H
        EXTERN `??AddrMgrExtAddrEqual::?relay`
        FUNCTION `??AddrMgrExtAddrEqual::?relay`,00H
        EXTERN `??AddrMgrExtAddrLookup::?relay`
        FUNCTION `??AddrMgrExtAddrLookup::?relay`,00H
        EXTERN `??AddrMgrExtAddrSet::?relay`
        FUNCTION `??AddrMgrExtAddrSet::?relay`,00H
        EXTERN `??AssocGetWithExt::?relay`
        FUNCTION `??AssocGetWithExt::?relay`,00H
        EXTERN `??AssocGetWithShort::?relay`
        FUNCTION `??AssocGetWithShort::?relay`,00H
        EXTERN `??AssocMatchDeviceStatus::?relay`
        FUNCTION `??AssocMatchDeviceStatus::?relay`,00H
        EXTERN `??AssocRemove::?relay`
        FUNCTION `??AssocRemove::?relay`,00H
        EXTERN `??NLME_GetShortAddr::?relay`
        FUNCTION `??NLME_GetShortAddr::?relay`,00H
        EXTERN `??NLME_LeaveReq::?relay`
        FUNCTION `??NLME_LeaveReq::?relay`,00H
        EXTERN `??SSP_GetTrueRand::?relay`
        FUNCTION `??SSP_GetTrueRand::?relay`,00H
        EXTERN `??SSP_SwitchNwkKey::?relay`
        FUNCTION `??SSP_SwitchNwkKey::?relay`,00H
        EXTERN `??SSP_UpdateNwkKey::?relay`
        FUNCTION `??SSP_UpdateNwkKey::?relay`,00H
        EXTERN `??ZDApp_NVUpdate::?relay`
        FUNCTION `??ZDApp_NVUpdate::?relay`,00H
        EXTERN `??osal_mem_alloc::?relay`
        FUNCTION `??osal_mem_alloc::?relay`,00H
        EXTERN `??osal_memcpy::?relay`
        FUNCTION `??osal_memcpy::?relay`,00H
        EXTERN `??osal_memset::?relay`
        FUNCTION `??osal_memset::?relay`,00H
        EXTERN `??osal_nv_item_init::?relay`
        FUNCTION `??osal_nv_item_init::?relay`,00H
        EXTERN `??osal_nv_read::?relay`
        FUNCTION `??osal_nv_read::?relay`,00H
        EXTERN `??osal_nv_write::?relay`
        FUNCTION `??osal_nv_write::?relay`,00H
        EXTERN `??osal_set_event::?relay`
        FUNCTION `??osal_set_event::?relay`,00H
        EXTERN `??osal_start_timerEx::?relay`
        FUNCTION `??osal_start_timerEx::?relay`,00H
        EXTERN APSME_AuthenticateReq
        FUNCTION APSME_AuthenticateReq,0202H
        ARGFRAME ISTACK, 0, STACK
        ARGFRAME PSTACK, 0, STACK
        ARGFRAME XSTACK, 32, STACK
        ARGFRAME IOVERLAY, 0, STATIC
        ARGFRAME DOVERLAY, 0, STATIC
        EXTERN APSME_EstablishKeyReq
        FUNCTION APSME_EstablishKeyReq,0202H
        ARGFRAME ISTACK, 0, STACK
        ARGFRAME PSTACK, 0, STACK
        ARGFRAME XSTACK, 17, STACK
        ARGFRAME IOVERLAY, 0, STATIC
        ARGFRAME DOVERLAY, 0, STATIC
        EXTERN APSME_EstablishKeyRsp
        FUNCTION APSME_EstablishKeyRsp,0202H
        ARGFRAME ISTACK, 0, STACK
        ARGFRAME PSTACK, 0, STACK
        ARGFRAME XSTACK, 31, STACK
        ARGFRAME IOVERLAY, 0, STATIC
        ARGFRAME DOVERLAY, 0, STATIC
        EXTERN APSME_LookupExtAddr
        FUNCTION APSME_LookupExtAddr,0202H
        ARGFRAME ISTACK, 0, STACK
        ARGFRAME PSTACK, 0, STACK
        ARGFRAME XSTACK, 51, STACK
        ARGFRAME IOVERLAY, 0, STATIC
        ARGFRAME DOVERLAY, 0, STATIC
        EXTERN APSME_LookupNwkAddr
        FUNCTION APSME_LookupNwkAddr,0202H
        ARGFRAME ISTACK, 0, STACK
        ARGFRAME PSTACK, 0, STACK
        ARGFRAME XSTACK, 51, STACK
        ARGFRAME IOVERLAY, 0, STATIC
        ARGFRAME DOVERLAY, 0, STATIC
        EXTERN APSME_RemoveDeviceReq
        FUNCTION APSME_RemoveDeviceReq,0202H
        ARGFRAME ISTACK, 0, STACK
        ARGFRAME PSTACK, 0, STACK
        ARGFRAME XSTACK, 19, STACK
        ARGFRAME IOVERLAY, 0, STATIC
        ARGFRAME DOVERLAY, 0, STATIC
        EXTERN APSME_SecurityNM
        FUNCTION APSME_SecurityNM,0202H
        ARGFRAME ISTACK, 2, STACK
        ARGFRAME PSTACK, 0, STACK
        ARGFRAME XSTACK, 0, STACK
        ARGFRAME IOVERLAY, 0, STATIC
        ARGFRAME DOVERLAY, 0, STATIC
        EXTERN APSME_SwitchKeyReq
        FUNCTION APSME_SwitchKeyReq,0202H
        ARGFRAME ISTACK, 0, STACK
        ARGFRAME PSTACK, 0, STACK
        ARGFRAME XSTACK, 12, STACK
        ARGFRAME IOVERLAY, 0, STATIC
        ARGFRAME DOVERLAY, 0, STATIC
        EXTERN APSME_TransportKeyReq
        FUNCTION APSME_TransportKeyReq,0202H
        ARGFRAME ISTACK, 0, STACK
        ARGFRAME PSTACK, 0, STACK
        ARGFRAME XSTACK, 51, STACK
        ARGFRAME IOVERLAY, 0, STATIC
        ARGFRAME DOVERLAY, 0, STATIC
        EXTERN APSME_UpdateDeviceReq
        FUNCTION APSME_UpdateDeviceReq,0202H
        ARGFRAME ISTACK, 2, STACK
        ARGFRAME PSTACK, 0, STACK
        ARGFRAME XSTACK, 8, STACK
        ARGFRAME IOVERLAY, 0, STATIC
        ARGFRAME DOVERLAY, 0, STATIC
        EXTERN AddrMgrEntryGet
        FUNCTION AddrMgrEntryGet,0202H
        ARGFRAME ISTACK, 0, STACK
        ARGFRAME PSTACK, 0, STACK
        ARGFRAME XSTACK, 35, STACK
        ARGFRAME IOVERLAY, 0, STATIC
        ARGFRAME DOVERLAY, 0, STATIC
        EXTERN AddrMgrEntryLookupExt
        FUNCTION AddrMgrEntryLookupExt,0202H
        ARGFRAME ISTACK, 0, STACK
        ARGFRAME PSTACK, 0, STACK
        ARGFRAME XSTACK, 22, STACK
        ARGFRAME IOVERLAY, 0, STATIC
        ARGFRAME DOVERLAY, 0, STATIC
        EXTERN AddrMgrEntryLookupNwk
        FUNCTION AddrMgrEntryLookupNwk,0202H
        ARGFRAME ISTACK, 0, STACK
        ARGFRAME PSTACK, 0, STACK
        ARGFRAME XSTACK, 23, STACK
        ARGFRAME IOVERLAY, 0, STATIC
        ARGFRAME DOVERLAY, 0, STATIC
        EXTERN AddrMgrEntryUpdate
        FUNCTION AddrMgrEntryUpdate,0202H
        ARGFRAME ISTACK, 0, STACK
        ARGFRAME PSTACK, 0, STACK
        ARGFRAME XSTACK, 32, STACK
        ARGFRAME IOVERLAY, 0, STATIC
        ARGFRAME DOVERLAY, 0, STATIC
        EXTERN AddrMgrExtAddrEqual
        FUNCTION AddrMgrExtAddrEqual,0202H
        ARGFRAME ISTACK, 0, STACK
        ARGFRAME PSTACK, 0, STACK
        ARGFRAME XSTACK, 17, STACK
        ARGFRAME IOVERLAY, 0, STATIC
        ARGFRAME DOVERLAY, 0, STATIC
        EXTERN AddrMgrExtAddrLookup
        FUNCTION AddrMgrExtAddrLookup,0202H
        ARGFRAME ISTACK, 0, STACK
        ARGFRAME PSTACK, 0, STACK
        ARGFRAME XSTACK, 17, STACK
        ARGFRAME IOVERLAY, 0, STATIC
        ARGFRAME DOVERLAY, 0, STATIC
        EXTERN AddrMgrExtAddrSet
        FUNCTION AddrMgrExtAddrSet,0202H
        ARGFRAME ISTACK, 0, STACK
        ARGFRAME PSTACK, 0, STACK
        ARGFRAME XSTACK, 32, STACK
        ARGFRAME IOVERLAY, 0, STATIC
        ARGFRAME DOVERLAY, 0, STATIC
        EXTERN AssocGetWithExt
        FUNCTION AssocGetWithExt,0202H
        ARGFRAME ISTACK, 0, STACK
        ARGFRAME PSTACK, 0, STACK
        ARGFRAME XSTACK, 19, STACK
        ARGFRAME IOVERLAY, 0, STATIC
        ARGFRAME DOVERLAY, 0, STATIC
        EXTERN AssocGetWithShort
        FUNCTION AssocGetWithShort,0202H
        ARGFRAME ISTACK, 0, STACK
        ARGFRAME PSTACK, 0, STACK
        ARGFRAME XSTACK, 9, STACK
        ARGFRAME IOVERLAY, 0, STATIC
        ARGFRAME DOVERLAY, 0, STATIC
        EXTERN AssocMatchDeviceStatus
        FUNCTION AssocMatchDeviceStatus,0202H
        ARGFRAME ISTACK, 0, STACK
        ARGFRAME PSTACK, 0, STACK
        ARGFRAME XSTACK, 35, STACK
        ARGFRAME IOVERLAY, 0, STATIC
        ARGFRAME DOVERLAY, 0, STATIC
        EXTERN AssocRemove
        FUNCTION AssocRemove,0202H
        ARGFRAME ISTACK, 0, STACK
        ARGFRAME PSTACK, 0, STACK
        ARGFRAME XSTACK, 35, STACK
        ARGFRAME IOVERLAY, 0, STATIC
        ARGFRAME DOVERLAY, 0, STATIC
        EXTERN NLME_GetShortAddr
        FUNCTION NLME_GetShortAddr,0202H
        ARGFRAME ISTACK, 0, STACK
        ARGFRAME PSTACK, 0, STACK
        ARGFRAME XSTACK, 35, STACK
        ARGFRAME IOVERLAY, 0, STATIC
        ARGFRAME DOVERLAY, 0, STATIC
        EXTERN NLME_LeaveReq
        FUNCTION NLME_LeaveReq,0202H
        ARGFRAME ISTACK, 0, STACK
        ARGFRAME PSTACK, 0, STACK
        ARGFRAME XSTACK, 19, STACK
        ARGFRAME IOVERLAY, 0, STATIC
        ARGFRAME DOVERLAY, 0, STATIC
        EXTERN SSP_GetTrueRand
        FUNCTION SSP_GetTrueRand,0202H
        ARGFRAME ISTACK, 2, STACK
        ARGFRAME PSTACK, 0, STACK
        ARGFRAME XSTACK, 0, STACK
        ARGFRAME IOVERLAY, 0, STATIC
        ARGFRAME DOVERLAY, 0, STATIC
        EXTERN SSP_SwitchNwkKey
        FUNCTION SSP_SwitchNwkKey,0202H
        ARGFRAME ISTACK, 2, STACK
        ARGFRAME PSTACK, 0, STACK
        ARGFRAME XSTACK, 12, STACK
        ARGFRAME IOVERLAY, 0, STATIC
        ARGFRAME DOVERLAY, 0, STATIC
        EXTERN SSP_UpdateNwkKey
        FUNCTION SSP_UpdateNwkKey,0202H
        ARGFRAME ISTACK, 0, STACK
        ARGFRAME PSTACK, 0, STACK
        ARGFRAME XSTACK, 23, STACK
        ARGFRAME IOVERLAY, 0, STATIC
        ARGFRAME DOVERLAY, 0, STATIC
        EXTERN ZDAppTaskID
        EXTERN ZDApp_NVUpdate
        FUNCTION ZDApp_NVUpdate,0202H
        ARGFRAME ISTACK, 2, STACK
        ARGFRAME PSTACK, 0, STACK
        ARGFRAME XSTACK, 23, STACK
        ARGFRAME IOVERLAY, 0, STATIC
        ARGFRAME DOVERLAY, 0, STATIC
        EXTERN _NIB
        EXTERN devState
        EXTERN osal_mem_alloc
        FUNCTION osal_mem_alloc,0202H
        ARGFRAME ISTACK, 2, STACK
        ARGFRAME PSTACK, 0, STACK
        ARGFRAME XSTACK, 0, STACK
        ARGFRAME IOVERLAY, 0, STATIC
        ARGFRAME DOVERLAY, 0, STATIC
        EXTERN osal_memcpy
        FUNCTION osal_memcpy,0202H
        ARGFRAME ISTACK, 0, STACK
        ARGFRAME PSTACK, 0, STACK
        ARGFRAME XSTACK, 22, STACK
        ARGFRAME IOVERLAY, 0, STATIC
        ARGFRAME DOVERLAY, 0, STATIC
        EXTERN osal_memset
        FUNCTION osal_memset,0202H
        ARGFRAME ISTACK, 0, STACK
        ARGFRAME PSTACK, 0, STACK
        ARGFRAME XSTACK, 14, STACK
        ARGFRAME IOVERLAY, 0, STATIC
        ARGFRAME DOVERLAY, 0, STATIC
        EXTERN osal_nv_item_init
        FUNCTION osal_nv_item_init,0202H
        ARGFRAME ISTACK, 0, STACK
        ARGFRAME PSTACK, 0, STACK
        ARGFRAME XSTACK, 12, STACK
        ARGFRAME IOVERLAY, 0, STATIC
        ARGFRAME DOVERLAY, 0, STATIC
        EXTERN osal_nv_read
        FUNCTION osal_nv_read,0202H
        ARGFRAME ISTACK, 0, STACK
        ARGFRAME PSTACK, 0, STACK
        ARGFRAME XSTACK, 19, STACK
        ARGFRAME IOVERLAY, 0, STATIC
        ARGFRAME DOVERLAY, 0, STATIC
        EXTERN osal_nv_write
        FUNCTION osal_nv_write,0202H
        ARGFRAME ISTACK, 0, STACK
        ARGFRAME PSTACK, 0, STACK
        ARGFRAME XSTACK, 16, STACK
        ARGFRAME IOVERLAY, 0, STATIC
        ARGFRAME DOVERLAY, 0, STATIC
        EXTERN osal_set_event
        FUNCTION osal_set_event,0202H
        ARGFRAME ISTACK, 2, STACK
        ARGFRAME PSTACK, 0, STACK
        ARGFRAME XSTACK, 0, STACK
        ARGFRAME IOVERLAY, 0, STATIC
        ARGFRAME DOVERLAY, 0, STATIC
        EXTERN osal_start_timerEx
        FUNCTION osal_start_timerEx,0202H
        ARGFRAME ISTACK, 0, STACK
        ARGFRAME PSTACK, 0, STACK
        ARGFRAME XSTACK, 33, STACK
        ARGFRAME IOVERLAY, 0, STATIC
        ARGFRAME DOVERLAY, 0, STATIC
        EXTERN zgPreConfigKey
        EXTERN zgPreConfigKeys
        EXTERN zgSecurePermitJoin

// D:\SRC\DemoPrj\Components\stack\zdo\ZDSecMgr.c
//    1 /**************************************************************************************************
//    2   Filename:       ZDSecMgr.c
//    3   Revised:        $Date: 2009-03-31 09:06:47 -0700 (Tue, 31 Mar 2009) $
//    4   Revision:       $Revision: 19604 $
//    5 
//    6   Description:    The ZigBee Device Security Manager.
//    7 
//    8 
//    9   Copyright 2005-2008 Texas Instruments Incorporated. All rights reserved.
//   10 
//   11   IMPORTANT: Your use of this Software is limited to those specific rights
//   12   granted under the terms of a software license agreement between the user
//   13   who downloaded the software, his/her employer (which must be your employer)
//   14   and Texas Instruments Incorporated (the "License").  You may not use this
//   15   Software unless you agree to abide by the terms of the License. The License
//   16   limits your use, and you acknowledge, that the Software may not be modified,
//   17   copied or distributed unless embedded on a Texas Instruments microcontroller
//   18   or used solely and exclusively in conjunction with a Texas Instruments radio
//   19   frequency transceiver, which is integrated into your product.  Other than for
//   20   the foregoing purpose, you may not use, reproduce, copy, prepare derivative
//   21   works of, modify, distribute, perform, display or sell this Software and/or
//   22   its documentation for any purpose.
//   23 
//   24   YOU FURTHER ACKNOWLEDGE AND AGREE THAT THE SOFTWARE AND DOCUMENTATION ARE
//   25   PROVIDED AS IS WITHOUT WARRANTY OF ANY KIND, EITHER EXPRESS OR IMPLIED,
//   26   INCLUDING WITHOUT LIMITATION, ANY WARRANTY OF MERCHANTABILITY, TITLE,
//   27   NON-INFRINGEMENT AND FITNESS FOR A PARTICULAR PURPOSE. IN NO EVENT SHALL
//   28   TEXAS INSTRUMENTS OR ITS LICENSORS BE LIABLE OR OBLIGATED UNDER CONTRACT,
//   29   NEGLIGENCE, STRICT LIABILITY, CONTRIBUTION, BREACH OF WARRANTY, OR OTHER
//   30   LEGAL EQUITABLE THEORY ANY DIRECT OR INDIRECT DAMAGES OR EXPENSES
//   31   INCLUDING BUT NOT LIMITED TO ANY INCIDENTAL, SPECIAL, INDIRECT, PUNITIVE
//   32   OR CONSEQUENTIAL DAMAGES, LOST PROFITS OR LOST DATA, COST OF PROCUREMENT
//   33   OF SUBSTITUTE GOODS, TECHNOLOGY, SERVICES, OR ANY CLAIMS BY THIRD PARTIES
//   34   (INCLUDING BUT NOT LIMITED TO ANY DEFENSE THEREOF), OR OTHER SIMILAR COSTS.
//   35 
//   36   Should you have any questions regarding your right to use this Software,
//   37   contact Texas Instruments Incorporated at www.TI.com.
//   38 **************************************************************************************************/
//   39 
//   40 #ifdef __cplusplus
//   41 extern "C"
//   42 {
//   43 #endif
//   44 
//   45 /******************************************************************************
//   46  * INCLUDES
//   47  */
//   48 #include "ZComdef.h"
//   49 #include "OSAL.h"
//   50 #include "OSAL_NV.h"
//   51 #include "ZGlobals.h"
//   52 #include "ssp.h"
//   53 #include "nwk_globals.h"
//   54 #include "nwk.h"
//   55 #include "NLMEDE.h"
//   56 #include "AddrMgr.h"
//   57 #include "AssocList.h"
//   58 #include "APSMEDE.h"
//   59 #include "AF.h"
//   60 #include "ZDConfig.h"
//   61 #include "ZDApp.h"
//   62 #include "ZDSecMgr.h"
//   63 
//   64 
//   65 /******************************************************************************
//   66  * CONSTANTS
//   67  */
//   68 // maximum number of devices managed by this Security Manager
//   69 #if !defined ( ZDSECMGR_DEVICE_MAX )
//   70   #define ZDSECMGR_DEVICE_MAX 3
//   71 #endif
//   72 
//   73 // total number of preconfigured devices (EXT address, MASTER key)
//   74 //devtag.pro.security
//   75 //#define ZDSECMGR_PRECONFIG_MAX ZDSECMGR_DEVICE_MAX
//   76 #define ZDSECMGR_PRECONFIG_MAX 0
//   77 
//   78 // maximum number of MASTER keys this device may hold
//   79 #define ZDSECMGR_MASTERKEY_MAX ZDSECMGR_DEVICE_MAX
//   80 
//   81 // maximum number of LINK keys this device may store
//   82 #define ZDSECMGR_ENTRY_MAX ZDSECMGR_DEVICE_MAX
//   83 
//   84 // total number of devices under control - authentication, SKKE, etc.
//   85 #define ZDSECMGR_CTRL_MAX ZDSECMGR_DEVICE_MAX
//   86 
//   87 // total number of stored devices
//   88 #if !defined ( ZDSECMGR_STORED_DEVICES )
//   89   #define ZDSECMGR_STORED_DEVICES 3
//   90 #endif
//   91   
//   92 #define ZDSECMGR_CTRL_NONE       0
//   93 #define ZDSECMGR_CTRL_INIT       1
//   94 #define ZDSECMGR_CTRL_TK_MASTER  2
//   95 #define ZDSECMGR_CTRL_SKKE_INIT  3
//   96 #define ZDSECMGR_CTRL_SKKE_WAIT  4
//   97 #define ZDSECMGR_CTRL_SKKE_DONE  5
//   98 #define ZDSECMGR_CTRL_SKKE_FAIL  6
//   99 #define ZDSECMGR_CTRL_TK_NWK     7
//  100 
//  101 #define ZDSECMGR_CTRL_BASE_CNTR      1
//  102 #define ZDSECMGR_CTRL_SKKE_INIT_CNTR 1
//  103 #define ZDSECMGR_CTRL_TK_NWK_CNTR    1
//  104 
//  105 // set SKA slot maximum
//  106 #define ZDSECMGR_SKA_SLOT_MAX 1
//  107 
//  108 // APSME Stub Implementations
//  109 #define ZDSecMgrMasterKeyGet   APSME_MasterKeyGet
//  110 #define ZDSecMgrLinkKeySet     APSME_LinkKeySet
//  111 #define ZDSecMgrLinkKeyDataGet APSME_LinkKeyDataGet
//  112 #define ZDSecMgrKeyFwdToChild  APSME_KeyFwdToChild
//  113 
//  114 #if !defined( MAX_APS_FRAMECOUNTER_CHANGES )
//  115   // The number of times the frame counter can change before
//  116   // saving to NV
//  117   #define MAX_APS_FRAMECOUNTER_CHANGES    10
//  118 #endif
//  119 
//  120 /******************************************************************************
//  121  * TYPEDEFS
//  122  */
//  123 typedef struct
//  124 {
//  125   uint8 extAddr[Z_EXTADDR_LEN];
//  126   uint8 key[SEC_KEY_LEN];
//  127 } ZDSecMgrPreConfigData_t;
//  128 
//  129 typedef struct
//  130 {
//  131   uint16 ami;
//  132   uint8  key[SEC_KEY_LEN];
//  133 } ZDSecMgrMasterKeyData_t;
//  134 
//  135 //should match APSME_LinkKeyData_t;
//  136 typedef struct
//  137 {
//  138   uint8               key[SEC_KEY_LEN];
//  139   APSME_LinkKeyData_t apsmelkd;
//  140 } ZDSecMgrLinkKeyData_t;
//  141 
//  142 typedef struct
//  143 {
//  144   uint16                ami;
//  145   ZDSecMgrLinkKeyData_t lkd;
//  146   ZDSecMgr_Authentication_Option authenticateOption;
//  147 } ZDSecMgrEntry_t;
//  148 
//  149 typedef struct
//  150 {
//  151   ZDSecMgrEntry_t* entry;
//  152   uint16           parentAddr;
//  153   uint8            secure;
//  154   uint8            state;
//  155   uint8            cntr;
//  156   //uint8          next;
//  157 } ZDSecMgrCtrl_t;
//  158 
//  159 typedef struct
//  160 {
//  161   uint16          nwkAddr;
//  162   uint8*          extAddr;
//  163   uint16          parentAddr;
//  164   uint8           secure;
//  165   uint8           devStatus;
//  166   ZDSecMgrCtrl_t* ctrl;
//  167 } ZDSecMgrDevice_t;
//  168 
//  169 /******************************************************************************
//  170  * LOCAL VARIABLES
//  171  */
//  172 #if 0 // Taken out because the following functionality is only used for test
//  173       // purpose. A more efficient (above) way is used. It can be put
//  174       // back in if customers request for a white/black list feature.
//  175 uint8 ZDSecMgrStoredDeviceList[ZDSECMGR_STORED_DEVICES][Z_EXTADDR_LEN] =
//  176 {
//  177   { 0x01, 0x00, 0x00, 0x00, 0x00, 0x00, 0x00, 0x00 },
//  178   { 0x00, 0x00, 0x00, 0x00, 0x00, 0x00, 0x00, 0x01 },
//  179   { 0x00, 0x00, 0x00, 0x00, 0x00, 0x00, 0x00, 0x00 },
//  180 };
//  181 #endif
//  182 

        RSEG XDATA_Z:XDATA:NOROOT(0)
        DATA8
//  183 uint8 ZDSecMgrTCExtAddr[Z_EXTADDR_LEN]=
ZDSecMgrTCExtAddr:
        DS 8
        REQUIRE __INIT_XDATA_Z
//  184   { 0x00, 0x00, 0x00, 0x00, 0x00, 0x00, 0x00, 0x00 };
//  185 

        RSEG XDATA_I:XDATA:NOROOT(0)
//  186 uint8 ZDSecMgrTCMasterKey[SEC_KEY_LEN] =
ZDSecMgrTCMasterKey:
        DATA8
        DS 16
        REQUIRE `?<Initializer for ZDSecMgrTCMasterKey>`
        REQUIRE __INIT_XDATA_I
//  187   {0x00,0x00,0x00,0x00,0x00,0x00,0x00,0x00,
//  188    0x89,0x67,0x45,0x23,0x01,0xEF,0xCD,0xAB};
//  189 

        RSEG XDATA_Z:XDATA:NOROOT(0)
        DATA8
//  190 uint8 ZDSecMgrTCAuthenticated = FALSE;
ZDSecMgrTCAuthenticated:
        DS 1
        REQUIRE __INIT_XDATA_Z

        RSEG XDATA_Z:XDATA:NOROOT(0)
        DATA8
//  191 uint8 ZDSecMgrTCDataLoaded    = FALSE;
ZDSecMgrTCDataLoaded:
        DS 1
        REQUIRE __INIT_XDATA_Z
//  192 
//  193 //devtag.pro.security - remove this
//  194 #if ( ZDSECMGR_PRECONFIG_MAX != 0 )
//  195 const ZDSecMgrPreConfigData_t ZDSecMgrPreConfigData[ZDSECMGR_PRECONFIG_MAX] =
//  196 {
//  197   //---------------------------------------------------------------------------
//  198   // DEVICE A
//  199   //---------------------------------------------------------------------------
//  200   {
//  201     // extAddr
//  202     {0x7C,0x01,0x12,0x13,0x14,0x15,0x16,0x17},
//  203 
//  204     // key
//  205     {0x00,0x00,0x00,0x00,0x00,0x00,0x00,0x00,
//  206      0x00,0x00,0x00,0x00,0x00,0x00,0x00,0x00}
//  207   },
//  208   //---------------------------------------------------------------------------
//  209   // DEVICE B
//  210   //---------------------------------------------------------------------------
//  211   {
//  212     // extAddr
//  213     {0x84,0x03,0x00,0x00,0x00,0x4B,0x12,0x00},
//  214 
//  215     // key
//  216     {0x00,0x00,0x00,0x00,0x00,0x00,0x00,0x00,
//  217      0x00,0x00,0x00,0x00,0x00,0x00,0x00,0x00}
//  218   },
//  219   //---------------------------------------------------------------------------
//  220   // DEVICE C
//  221   //---------------------------------------------------------------------------
//  222   {
//  223     // extAddr
//  224     {0x3E,0x01,0x12,0x13,0x14,0x15,0x16,0x17},
//  225 
//  226     // key
//  227     {0x00,0x00,0x00,0x00,0x00,0x00,0x00,0x00,
//  228      0x00,0x00,0x00,0x00,0x00,0x00,0x00,0x00}
//  229   },
//  230 };
//  231 #endif // ( ZDSECMGR_PRECONFIG_MAX != 0 )
//  232 

        RSEG XDATA_Z:XDATA:NOROOT(0)
        DATA16
//  233 ZDSecMgrMasterKeyData_t* ZDSecMgrMasterKeyData = NULL;
ZDSecMgrMasterKeyData:
        DS 2
        REQUIRE __INIT_XDATA_Z

        RSEG XDATA_Z:XDATA:NOROOT(0)
        DATA16
//  234 ZDSecMgrEntry_t*         ZDSecMgrEntries       = NULL;
ZDSecMgrEntries:
        DS 2
        REQUIRE __INIT_XDATA_Z

        RSEG XDATA_Z:XDATA:NOROOT(0)
        DATA16
//  235 ZDSecMgrCtrl_t*          ZDSecMgrCtrlData      = NULL;
ZDSecMgrCtrlData:
        DS 2
        REQUIRE __INIT_XDATA_Z
//  236 void ZDSecMgrAddrMgrUpdate( uint16 ami, uint16 nwkAddr );
//  237 void ZDSecMgrAddrMgrCB( uint8 update, AddrMgrEntry_t* newEntry, AddrMgrEntry_t* oldEntry );
//  238 

        RSEG XDATA_Z:XDATA:NOROOT(0)
        DATA8
//  239 uint8 ZDSecMgrPermitJoiningEnabled;
ZDSecMgrPermitJoiningEnabled:
        DS 1
        REQUIRE __INIT_XDATA_Z

        RSEG XDATA_Z:XDATA:NOROOT(0)
        DATA8
//  240 uint8 ZDSecMgrPermitJoiningTimed;
ZDSecMgrPermitJoiningTimed:
        DS 1
        REQUIRE __INIT_XDATA_Z
//  241 

        RSEG XDATA_Z:XDATA:NOROOT(0)
        DATA8
//  242 APSME_LinkKeyData_t TrustCenterLinkKey;
TrustCenterLinkKey:
        DS 10
        REQUIRE __INIT_XDATA_Z
//  243 
//  244 /******************************************************************************
//  245  * PRIVATE FUNCTIONS
//  246  *
//  247  *   ZDSecMgrMasterKeyInit
//  248  *   ZDSecMgrAddrStore
//  249  *   ZDSecMgrExtAddrStore
//  250  *   ZDSecMgrExtAddrLookup
//  251  *   ZDSecMgrMasterKeyLookup
//  252  *   ZDSecMgrMasterKeyStore
//  253  *   ZDSecMgrEntryInit
//  254  *   ZDSecMgrEntryLookup
//  255  *   ZDSecMgrEntryLookupAMI
//  256  *   ZDSecMgrEntryLookupExt
//  257  *   ZDSecMgrEntryFree
//  258  *   ZDSecMgrEntryNew
//  259  *   ZDSecMgrCtrlInit
//  260  *   ZDSecMgrCtrlRelease
//  261  *   ZDSecMgrCtrlLookup
//  262  *   ZDSecMgrCtrlSet
//  263  *   ZDSecMgrCtrlAdd
//  264  *   ZDSecMgrCtrlTerm
//  265  *   ZDSecMgrCtrlReset
//  266  *   ZDSecMgrMasterKeyLoad
//  267  *   ZDSecMgrAppKeyGet
//  268  *   ZDSecMgrAppKeyReq
//  269  *   ZDSecMgrEstablishKey
//  270  *   ZDSecMgrSendMasterKey
//  271  *   ZDSecMgrSendNwkKey
//  272  *   ZDSecMgrDeviceEntryRemove
//  273  *   ZDSecMgrDeviceEntryAdd
//  274  *   ZDSecMgrDeviceCtrlHandler
//  275  *   ZDSecMgrDeviceCtrlSetup
//  276  *   ZDSecMgrDeviceCtrlUpdate
//  277  *   ZDSecMgrDeviceRemove
//  278  *   ZDSecMgrDeviceValidateSKKE
//  279  *   ZDSecMgrDeviceValidateRM
//  280  *   ZDSecMgrDeviceValidateCM
//  281  *   ZDSecMgrDeviceValidate
//  282  *   ZDSecMgrDeviceJoin
//  283  *   ZDSecMgrDeviceJoinDirect
//  284  *   ZDSecMgrDeviceJoinFwd
//  285  *   ZDSecMgrDeviceNew
//  286  *   ZDSecMgrAssocDeviceAuth
//  287  *   ZDSecMgrAuthInitiate
//  288  *   ZDSecMgrAuthNwkKey
//  289  */
//  290 //-----------------------------------------------------------------------------
//  291 // master key data
//  292 //-----------------------------------------------------------------------------
//  293 void ZDSecMgrMasterKeyInit( void );
//  294 
//  295 //-----------------------------------------------------------------------------
//  296 // address management
//  297 //-----------------------------------------------------------------------------
//  298 ZStatus_t ZDSecMgrAddrStore( uint16 nwkAddr, uint8* extAddr, uint16* ami );
//  299 ZStatus_t ZDSecMgrExtAddrStore( uint16 nwkAddr, uint8* extAddr, uint16* ami );
//  300 ZStatus_t ZDSecMgrExtAddrLookup( uint8* extAddr, uint16* ami );
//  301 
//  302 //-----------------------------------------------------------------------------
//  303 // MASTER key data
//  304 //-----------------------------------------------------------------------------
//  305 ZStatus_t ZDSecMgrMasterKeyLookup( uint16 ami, uint8** key );
//  306 ZStatus_t ZDSecMgrMasterKeyStore( uint16 ami, uint8* key );
//  307 
//  308 //-----------------------------------------------------------------------------
//  309 // entry data
//  310 //-----------------------------------------------------------------------------
//  311 void ZDSecMgrEntryInit( void );
//  312 ZStatus_t ZDSecMgrEntryLookup( uint16 nwkAddr, ZDSecMgrEntry_t** entry );
//  313 ZStatus_t ZDSecMgrEntryLookupAMI( uint16 ami, ZDSecMgrEntry_t** entry );
//  314 ZStatus_t ZDSecMgrEntryLookupExt( uint8* extAddr, ZDSecMgrEntry_t** entry );
//  315 void ZDSecMgrEntryFree( ZDSecMgrEntry_t* entry );
//  316 ZStatus_t ZDSecMgrEntryNew( ZDSecMgrEntry_t** entry );
//  317 ZStatus_t ZDSecMgrAuthenticationSet( uint8* extAddr, ZDSecMgr_Authentication_Option option );
//  318 
//  319 //-----------------------------------------------------------------------------
//  320 // control data
//  321 //-----------------------------------------------------------------------------
//  322 void ZDSecMgrCtrlInit( void );
//  323 void ZDSecMgrCtrlRelease( ZDSecMgrCtrl_t* ctrl );
//  324 void ZDSecMgrCtrlLookup( ZDSecMgrEntry_t* entry, ZDSecMgrCtrl_t** ctrl );
//  325 void ZDSecMgrCtrlSet( ZDSecMgrDevice_t* device,
//  326                       ZDSecMgrEntry_t*  entry,
//  327                       ZDSecMgrCtrl_t*   ctrl );
//  328 ZStatus_t ZDSecMgrCtrlAdd( ZDSecMgrDevice_t* device, ZDSecMgrEntry_t*  entry );
//  329 void ZDSecMgrCtrlTerm( ZDSecMgrEntry_t* entry );
//  330 ZStatus_t ZDSecMgrCtrlReset( ZDSecMgrDevice_t* device,
//  331                              ZDSecMgrEntry_t*  entry );
//  332 
//  333 //-----------------------------------------------------------------------------
//  334 // key support
//  335 //-----------------------------------------------------------------------------
//  336 ZStatus_t ZDSecMgrMasterKeyLoad( uint8* extAddr, uint8* key );
//  337 ZStatus_t ZDSecMgrAppKeyGet( uint16  initNwkAddr,
//  338                              uint8*  initExtAddr,
//  339                              uint16  partNwkAddr,
//  340                              uint8*  partExtAddr,
//  341                              uint8** key,
//  342                              uint8*  keyType );
//  343 void ZDSecMgrAppKeyReq( ZDO_RequestKeyInd_t* ind );
//  344 ZStatus_t ZDSecMgrEstablishKey( ZDSecMgrDevice_t* device );
//  345 ZStatus_t ZDSecMgrSendMasterKey( ZDSecMgrDevice_t* device );
//  346 ZStatus_t ZDSecMgrSendNwkKey( ZDSecMgrDevice_t* device );
//  347 
//  348 //-----------------------------------------------------------------------------
//  349 // device entry
//  350 //-----------------------------------------------------------------------------
//  351 void ZDSecMgrDeviceEntryRemove( ZDSecMgrEntry_t* entry );
//  352 ZStatus_t ZDSecMgrDeviceEntryAdd( ZDSecMgrDevice_t* device, uint16 ami );
//  353 
//  354 //-----------------------------------------------------------------------------
//  355 // device control
//  356 //-----------------------------------------------------------------------------
//  357 void ZDSecMgrDeviceCtrlHandler( ZDSecMgrDevice_t* device );
//  358 void ZDSecMgrDeviceCtrlSetup( ZDSecMgrDevice_t* device );
//  359 void ZDSecMgrDeviceCtrlUpdate( uint8* extAddr, uint8 state );
//  360 
//  361 //-----------------------------------------------------------------------------
//  362 // device management
//  363 //-----------------------------------------------------------------------------
//  364 void ZDSecMgrDeviceRemove( ZDSecMgrDevice_t* device );
//  365 ZStatus_t ZDSecMgrDeviceValidateSKKE( ZDSecMgrDevice_t* device );
//  366 ZStatus_t ZDSecMgrDeviceValidateRM( ZDSecMgrDevice_t* device );
//  367 ZStatus_t ZDSecMgrDeviceValidateCM( ZDSecMgrDevice_t* device );
//  368 ZStatus_t ZDSecMgrDeviceValidate( ZDSecMgrDevice_t* device );
//  369 ZStatus_t ZDSecMgrDeviceJoin( ZDSecMgrDevice_t* device );
//  370 ZStatus_t ZDSecMgrDeviceJoinDirect( ZDSecMgrDevice_t* device );
//  371 ZStatus_t ZDSecMgrDeviceJoinFwd( ZDSecMgrDevice_t* device );
//  372 ZStatus_t ZDSecMgrDeviceNew( ZDSecMgrDevice_t* device );
//  373 
//  374 //-----------------------------------------------------------------------------
//  375 // association management
//  376 //-----------------------------------------------------------------------------
//  377 void ZDSecMgrAssocDeviceAuth( associated_devices_t* assoc );
//  378 
//  379 //-----------------------------------------------------------------------------
//  380 // authentication management
//  381 //-----------------------------------------------------------------------------
//  382 void ZDSecMgrAuthInitiate( uint8* responder );
//  383 void ZDSecMgrAuthNwkKey( void );
//  384 
//  385 /******************************************************************************
//  386  * @fn          ZDSecMgrMasterKeyInit                     ]
//  387  *
//  388  * @brief       Initialize master key data.
//  389  *
//  390  * @param       none
//  391  *
//  392  * @return      none
//  393  */

        RSEG BANKED_CODE:HUGECODE:NOROOT(0)
//  394 void ZDSecMgrMasterKeyInit( void )
ZDSecMgrMasterKeyInit:
          CFI Block cfiBlock0 Using cfiCommon0
          CFI Function ZDSecMgrMasterKeyInit
        CODE
//  395 {
        FUNCALL ZDSecMgrMasterKeyInit, osal_mem_alloc
        LOCFRAME ISTACK, 2, STACK
        LOCFRAME PSTACK, 0, STACK
        LOCFRAME XSTACK, 0, STACK
        LOCFRAME IOVERLAY, 0, STATIC
        LOCFRAME DOVERLAY, 0, STATIC
        ARGFRAME ISTACK, 2, STACK
        ARGFRAME PSTACK, 0, STACK
        ARGFRAME XSTACK, 0, STACK
        ARGFRAME IOVERLAY, 0, STATIC
        ARGFRAME DOVERLAY, 0, STATIC
        PUSH      DPL
          CFI DPL0 Frame(CFA_SP, 4)
          CFI CFA_SP SP+-4
        PUSH      DPH
          CFI DPH0 Frame(CFA_SP, 5)
          CFI CFA_SP SP+-5
        ; Saved register size: 2
        ; Auto size: 0
//  396   uint16 index;
//  397   uint16 size;
//  398 
//  399   // allocate MASTER key data
//  400   size = (short)( sizeof(ZDSecMgrMasterKeyData_t) * ZDSECMGR_MASTERKEY_MAX );
//  401 
//  402   ZDSecMgrMasterKeyData = osal_mem_alloc( size );
        ; Setup parameters for call to function osal_mem_alloc
        MOV       R2,#0x36
        MOV       R3,#0x0
        LCALL     `??osal_mem_alloc::?relay`; Banked call to: osal_mem_alloc
        MOV       DPTR,#ZDSecMgrMasterKeyData
        LCALL     ?Subroutine24 & 0xFFFF
//  403 
//  404   // initialize MASTER key data
//  405   if ( ZDSecMgrMasterKeyData != NULL )
??CrossCallReturnLabel_12:
        JZ        ??ZDSecMgrMasterKeyInit_0
//  406   {
//  407     for ( index = 0; index < ZDSECMGR_MASTERKEY_MAX; index++ )
        MOV       R0,#0x0
        MOV       R1,#0x0
//  408     {
//  409       ZDSecMgrMasterKeyData[index].ami = INVALID_NODE_ADDR;
??ZDSecMgrMasterKeyInit_1:
        MOV       A,R0
        MOV       R2,A
        MOV       A,R1
        MOV       R3,A
        MOV       A,R2
        MOV       B,#0x12
        MUL       AB
        MOV       R2,A
        MOV       R4,B
        MOV       B,#0x12
        MOV       A,R3
        MUL       AB
        ADD       A,R4
        MOV       R3,A
        MOV       DPTR,#ZDSecMgrMasterKeyData
        LCALL     ?Subroutine39 & 0xFFFF
//  410     }
??CrossCallReturnLabel_39:
        JNZ       ??ZDSecMgrMasterKeyInit_2
        INC       R1
??ZDSecMgrMasterKeyInit_2:
        LCALL     ?Subroutine57 & 0xFFFF
//  411   }
??CrossCallReturnLabel_71:
        JC        ??ZDSecMgrMasterKeyInit_1
//  412 }
??ZDSecMgrMasterKeyInit_0:
        LJMP      ??Subroutine86_0 & 0xFFFF
          CFI EndBlock cfiBlock0
//  413 //devtag.pro.security
//  414 #if 0
//  415 void ZDSecMgrMasterKeyInit( void )
//  416 {
//  417   uint16         index;
//  418   uint16         size;
//  419   AddrMgrEntry_t entry;
//  420 
//  421 
//  422   // allocate MASTER key data
//  423   size = (short)( sizeof(ZDSecMgrMasterKeyData_t) * ZDSECMGR_MASTERKEY_MAX );
//  424 
//  425   ZDSecMgrMasterKeyData = osal_mem_alloc( size );
//  426 
//  427   // initialize MASTER key data
//  428   if ( ZDSecMgrMasterKeyData != NULL )
//  429   {
//  430     for ( index = 0; index < ZDSECMGR_MASTERKEY_MAX; index++ )
//  431     {
//  432       ZDSecMgrMasterKeyData[index].ami = INVALID_NODE_ADDR;
//  433     }
//  434 
//  435     // check if preconfigured keys are enabled
//  436     //-------------------------------------------------------------------------
//  437     #if ( ZDSECMGR_PRECONFIG_MAX != 0 )
//  438     //-------------------------------------------------------------------------
//  439     if ( zgPreConfigKeys == TRUE )
//  440     {
//  441       // sync configured data
//  442       entry.user = ADDRMGR_USER_SECURITY;
//  443 
//  444       for ( index = 0; index < ZDSECMGR_PRECONFIG_MAX; index++ )
//  445       {
//  446         // check for Address Manager entry
//  447         AddrMgrExtAddrSet( entry.extAddr,
//  448                            (uint8*)ZDSecMgrPreConfigData[index].extAddr );
//  449 
//  450         if ( AddrMgrEntryLookupExt( &entry ) != TRUE )
//  451         {
//  452           // update Address Manager
//  453           AddrMgrEntryUpdate( &entry );
//  454         }
//  455 
//  456         if ( entry.index != INVALID_NODE_ADDR )
//  457         {
//  458           // sync MASTER keys with Address Manager index
//  459           ZDSecMgrMasterKeyData[index].ami = entry.index;
//  460 
//  461           osal_memcpy( ZDSecMgrMasterKeyData[index].key,
//  462                    (void*)ZDSecMgrPreConfigData[index].key, SEC_KEY_LEN );
//  463         }
//  464       }
//  465     }
//  466     //-------------------------------------------------------------------------
//  467     #endif // ( ZDSECMGR_PRECONFIG_MAX != 0 )
//  468     //-------------------------------------------------------------------------
//  469   }
//  470 }
//  471 #endif
//  472 
//  473 /******************************************************************************
//  474  * @fn          ZDSecMgrAddrStore
//  475  *
//  476  * @brief       Store device addresses.
//  477  *
//  478  * @param       nwkAddr - [in] NWK address
//  479  * @param       extAddr - [in] EXT address
//  480  * @param       ami     - [out] Address Manager index
//  481  *
//  482  * @return      ZStatus_t
//  483  */

        RSEG BANKED_CODE:HUGECODE:NOROOT(0)
//  484 ZStatus_t ZDSecMgrAddrStore( uint16 nwkAddr, uint8* extAddr, uint16* ami )
ZDSecMgrAddrStore:
          CFI Block cfiBlock1 Using cfiCommon0
          CFI Function ZDSecMgrAddrStore
        CODE
//  485 {
        FUNCALL ZDSecMgrAddrStore, AddrMgrExtAddrSet
        LOCFRAME ISTACK, 0, STACK
        LOCFRAME PSTACK, 0, STACK
        LOCFRAME XSTACK, 22, STACK
        LOCFRAME IOVERLAY, 0, STATIC
        LOCFRAME DOVERLAY, 0, STATIC
        ARGFRAME ISTACK, 0, STACK
        ARGFRAME PSTACK, 0, STACK
        ARGFRAME XSTACK, 22, STACK
        ARGFRAME IOVERLAY, 0, STATIC
        ARGFRAME DOVERLAY, 0, STATIC
        FUNCALL ZDSecMgrAddrStore, AddrMgrEntryUpdate
        LOCFRAME ISTACK, 0, STACK
        LOCFRAME PSTACK, 0, STACK
        LOCFRAME XSTACK, 22, STACK
        LOCFRAME IOVERLAY, 0, STATIC
        LOCFRAME DOVERLAY, 0, STATIC
        ARGFRAME ISTACK, 0, STACK
        ARGFRAME PSTACK, 0, STACK
        ARGFRAME XSTACK, 22, STACK
        ARGFRAME IOVERLAY, 0, STATIC
        ARGFRAME DOVERLAY, 0, STATIC
        MOV       A,#-0x9
        LCALL     ?BANKED_ENTER_XDATA
          CFI DPH0 load(1, XDATA, add(CFA_XSP16, literal(-1)))
          CFI DPL0 load(1, XDATA, add(CFA_XSP16, literal(-2)))
          CFI ?BRET_EXT load(1, XDATA, add(CFA_XSP16, literal(-3)))
          CFI ?RET_HIGH load(1, XDATA, add(CFA_XSP16, literal(-4)))
          CFI ?RET_LOW load(1, XDATA, add(CFA_XSP16, literal(-5)))
          CFI R7 load(1, XDATA, add(CFA_XSP16, literal(-6)))
          CFI V0 load(1, XDATA, add(CFA_XSP16, literal(-7)))
          CFI VB load(1, XDATA, add(CFA_XSP16, literal(-8)))
          CFI R6 load(1, XDATA, add(CFA_XSP16, literal(-9)))
          CFI CFA_SP SP+0
          CFI CFA_XSP16 add(XSP16, 9)
        ; Saved register size: 9
        ; Auto size: 13
        MOV       A,#-0xd
        LCALL     ?ALLOC_XSTACK8
          CFI CFA_XSP16 add(XSP16, 22)
//  486   ZStatus_t      status;
//  487   AddrMgrEntry_t entry;
//  488 
//  489 
//  490   // add entry
//  491   entry.user    = ADDRMGR_USER_SECURITY;
        MOV       DPL,?XSP + 0
        MOV       DPH,?XSP + 1
        MOV       A,#0x2
        MOVX      @DPTR,A
//  492   entry.nwkAddr = nwkAddr;
        DEC       A
        LCALL     ?XSTACK_DISP0_8
        LCALL     ?Subroutine35 & 0xFFFF
//  493   AddrMgrExtAddrSet( entry.extAddr, extAddr );
??CrossCallReturnLabel_29:
        ; Setup parameters for call to function AddrMgrExtAddrSet
        MOV       A,#0x3
        LCALL     ?XSTACK_DISP0_8
        MOV       R2,DPL
        MOV       R3,DPH
        LCALL     `??AddrMgrExtAddrSet::?relay`; Banked call to: AddrMgrExtAddrSet
        MOV       A,#0x16
        LCALL     ?XSTACK_DISP0_8
        LCALL     ?Subroutine41 & 0xFFFF
//  494 
//  495   if ( AddrMgrEntryUpdate( &entry ) == TRUE )
??CrossCallReturnLabel_43:
        JNZ       ??ZDSecMgrAddrStore_0
//  496   {
//  497     // return successful results
//  498     *ami   = entry.index;
        MOV       A,#0xb
        LCALL     ?XSTACK_DISP0_8
        LCALL     ?Subroutine27 & 0xFFFF
//  499     status = ZSuccess;
//  500   }
??CrossCallReturnLabel_19:
        SJMP      ??CrossCallReturnLabel_22
//  501   else
//  502   {
//  503     // return failed results
//  504     *ami   = entry.index;
??ZDSecMgrAddrStore_0:
        MOV       A,#0xb
        LCALL     ?XSTACK_DISP0_8
        LCALL     ?Subroutine28 & 0xFFFF
//  505     status = ZNwkUnknownDevice;
//  506   }
//  507 
//  508   return status;
??CrossCallReturnLabel_22:
        LJMP      ?Subroutine8 & 0xFFFF
//  509 }
          CFI EndBlock cfiBlock1
//  510 
//  511 /******************************************************************************
//  512  * @fn          ZDSecMgrExtAddrStore
//  513  *
//  514  * @brief       Store EXT address.
//  515  *
//  516  * @param       extAddr - [in] EXT address
//  517  * @param       ami     - [out] Address Manager index
//  518  *
//  519  * @return      ZStatus_t
//  520  */

        RSEG BANKED_CODE:HUGECODE:NOROOT(0)
//  521 ZStatus_t ZDSecMgrExtAddrStore( uint16 nwkAddr, uint8* extAddr, uint16* ami )
ZDSecMgrExtAddrStore:
          CFI Block cfiBlock2 Using cfiCommon0
          CFI Function ZDSecMgrExtAddrStore
        CODE
//  522 {
        FUNCALL ZDSecMgrExtAddrStore, AddrMgrExtAddrSet
        LOCFRAME ISTACK, 0, STACK
        LOCFRAME PSTACK, 0, STACK
        LOCFRAME XSTACK, 22, STACK
        LOCFRAME IOVERLAY, 0, STATIC
        LOCFRAME DOVERLAY, 0, STATIC
        ARGFRAME ISTACK, 0, STACK
        ARGFRAME PSTACK, 0, STACK
        ARGFRAME XSTACK, 22, STACK
        ARGFRAME IOVERLAY, 0, STATIC
        ARGFRAME DOVERLAY, 0, STATIC
        FUNCALL ZDSecMgrExtAddrStore, AddrMgrEntryUpdate
        LOCFRAME ISTACK, 0, STACK
        LOCFRAME PSTACK, 0, STACK
        LOCFRAME XSTACK, 22, STACK
        LOCFRAME IOVERLAY, 0, STATIC
        LOCFRAME DOVERLAY, 0, STATIC
        ARGFRAME ISTACK, 0, STACK
        ARGFRAME PSTACK, 0, STACK
        ARGFRAME XSTACK, 22, STACK
        ARGFRAME IOVERLAY, 0, STATIC
        ARGFRAME DOVERLAY, 0, STATIC
        MOV       A,#-0x9
        LCALL     ?BANKED_ENTER_XDATA
          CFI DPH0 load(1, XDATA, add(CFA_XSP16, literal(-1)))
          CFI DPL0 load(1, XDATA, add(CFA_XSP16, literal(-2)))
          CFI ?BRET_EXT load(1, XDATA, add(CFA_XSP16, literal(-3)))
          CFI ?RET_HIGH load(1, XDATA, add(CFA_XSP16, literal(-4)))
          CFI ?RET_LOW load(1, XDATA, add(CFA_XSP16, literal(-5)))
          CFI R7 load(1, XDATA, add(CFA_XSP16, literal(-6)))
          CFI V0 load(1, XDATA, add(CFA_XSP16, literal(-7)))
          CFI VB load(1, XDATA, add(CFA_XSP16, literal(-8)))
          CFI R6 load(1, XDATA, add(CFA_XSP16, literal(-9)))
          CFI CFA_SP SP+0
          CFI CFA_XSP16 add(XSP16, 9)
        ; Saved register size: 9
        ; Auto size: 13
        MOV       A,#-0xd
        LCALL     ?ALLOC_XSTACK8
          CFI CFA_XSP16 add(XSP16, 22)
//  523   ZStatus_t      status;
//  524   AddrMgrEntry_t entry;
//  525 
//  526 
//  527   // add entry
//  528   entry.user    = ADDRMGR_USER_SECURITY;
        MOV       DPL,?XSP + 0
        MOV       DPH,?XSP + 1
        MOV       A,#0x2
        MOVX      @DPTR,A
//  529   entry.nwkAddr = nwkAddr;
        DEC       A
        LCALL     ?XSTACK_DISP0_8
        LCALL     ?Subroutine35 & 0xFFFF
//  530   AddrMgrExtAddrSet( entry.extAddr, extAddr );
??CrossCallReturnLabel_30:
        ; Setup parameters for call to function AddrMgrExtAddrSet
        MOV       A,#0x3
        LCALL     ?XSTACK_DISP0_8
        MOV       R2,DPL
        MOV       R3,DPH
        LCALL     `??AddrMgrExtAddrSet::?relay`; Banked call to: AddrMgrExtAddrSet
        MOV       A,#0x16
        LCALL     ?XSTACK_DISP0_8
        LCALL     ?Subroutine41 & 0xFFFF
//  531 
//  532   if ( AddrMgrEntryUpdate( &entry ) == TRUE )
??CrossCallReturnLabel_44:
        JNZ       ??ZDSecMgrExtAddrStore_0
//  533   {
//  534     // return successful results
//  535     *ami   = entry.index;
        MOV       A,#0xb
        LCALL     ?XSTACK_DISP0_8
        LCALL     ?Subroutine27 & 0xFFFF
//  536     status = ZSuccess;
//  537   }
??CrossCallReturnLabel_20:
        SJMP      ??CrossCallReturnLabel_23
//  538   else
//  539   {
//  540     // return failed results
//  541     *ami   = entry.index;
??ZDSecMgrExtAddrStore_0:
        MOV       A,#0xb
        LCALL     ?XSTACK_DISP0_8
        LCALL     ?Subroutine28 & 0xFFFF
//  542     status = ZNwkUnknownDevice;
//  543   }
//  544 
//  545   return status;
??CrossCallReturnLabel_23:
        SJMP      ?Subroutine8
//  546 }
          CFI EndBlock cfiBlock2

        RSEG BANKED_CODE:HUGECODE:NOROOT(0)
?Subroutine41:
          CFI Block cfiCond3 Using cfiCommon0
          CFI Function ZDSecMgrAddrStore
          CFI Conditional ??CrossCallReturnLabel_43
          CFI R6 load(1, XDATA, add(CFA_XSP16, literal(-9)))
          CFI VB load(1, XDATA, add(CFA_XSP16, literal(-8)))
          CFI V0 load(1, XDATA, add(CFA_XSP16, literal(-7)))
          CFI R7 load(1, XDATA, add(CFA_XSP16, literal(-6)))
          CFI ?RET_LOW load(1, XDATA, add(CFA_XSP16, literal(-5)))
          CFI ?RET_HIGH load(1, XDATA, add(CFA_XSP16, literal(-4)))
          CFI ?BRET_EXT load(1, XDATA, add(CFA_XSP16, literal(-3)))
          CFI DPL0 load(1, XDATA, add(CFA_XSP16, literal(-2)))
          CFI DPH0 load(1, XDATA, add(CFA_XSP16, literal(-1)))
          CFI CFA_SP SP+-2
          CFI CFA_XSP16 add(XSP16, 22)
          CFI Block cfiCond4 Using cfiCommon0
          CFI (cfiCond4) Function ZDSecMgrExtAddrStore
          CFI (cfiCond4) Conditional ??CrossCallReturnLabel_44
          CFI (cfiCond4) R6 load(1, XDATA, add(CFA_XSP16, literal(-9)))
          CFI (cfiCond4) VB load(1, XDATA, add(CFA_XSP16, literal(-8)))
          CFI (cfiCond4) V0 load(1, XDATA, add(CFA_XSP16, literal(-7)))
          CFI (cfiCond4) R7 load(1, XDATA, add(CFA_XSP16, literal(-6)))
          CFI (cfiCond4) ?RET_LOW load(1, XDATA, add(CFA_XSP16, literal(-5)))
          CFI (cfiCond4) ?RET_HIGH load(1, XDATA, add(CFA_XSP16, literal(-4)))
          CFI (cfiCond4) ?BRET_EXT load(1, XDATA, add(CFA_XSP16, literal(-3)))
          CFI (cfiCond4) DPL0 load(1, XDATA, add(CFA_XSP16, literal(-2)))
          CFI (cfiCond4) DPH0 load(1, XDATA, add(CFA_XSP16, literal(-1)))
          CFI (cfiCond4) CFA_SP SP+-2
          CFI (cfiCond4) CFA_XSP16 add(XSP16, 22)
          CFI Block cfiPicker5 Using cfiCommon1
          CFI (cfiPicker5) NoFunction
          CFI (cfiPicker5) Picker
        MOVX      A,@DPTR
        MOV       R6,A
        INC       DPTR
        MOVX      A,@DPTR
        MOV       R7,A
        ; Setup parameters for call to function AddrMgrEntryUpdate
        ; Setup parameters for call to function AddrMgrEntryUpdate
        MOV       R2,?XSP + 0
        MOV       R3,?XSP + 1
        LCALL     `??AddrMgrEntryUpdate::?relay`; Banked call to: AddrMgrEntryUpdate
        MOV       A,R1
        XRL       A,#0x1
        RET
          CFI EndBlock cfiCond3
          CFI EndBlock cfiCond4
          CFI EndBlock cfiPicker5

        RSEG BANKED_CODE:HUGECODE:NOROOT(0)
?Subroutine28:
          CFI Block cfiCond6 Using cfiCommon0
          CFI Function ZDSecMgrAddrStore
          CFI Conditional ??CrossCallReturnLabel_22
          CFI R6 load(1, XDATA, add(CFA_XSP16, literal(-9)))
          CFI VB load(1, XDATA, add(CFA_XSP16, literal(-8)))
          CFI V0 load(1, XDATA, add(CFA_XSP16, literal(-7)))
          CFI R7 load(1, XDATA, add(CFA_XSP16, literal(-6)))
          CFI ?RET_LOW load(1, XDATA, add(CFA_XSP16, literal(-5)))
          CFI ?RET_HIGH load(1, XDATA, add(CFA_XSP16, literal(-4)))
          CFI ?BRET_EXT load(1, XDATA, add(CFA_XSP16, literal(-3)))
          CFI DPL0 load(1, XDATA, add(CFA_XSP16, literal(-2)))
          CFI DPH0 load(1, XDATA, add(CFA_XSP16, literal(-1)))
          CFI CFA_SP SP+-2
          CFI CFA_XSP16 add(XSP16, 22)
          CFI Block cfiCond7 Using cfiCommon0
          CFI (cfiCond7) Function ZDSecMgrExtAddrStore
          CFI (cfiCond7) Conditional ??CrossCallReturnLabel_23
          CFI (cfiCond7) R6 load(1, XDATA, add(CFA_XSP16, literal(-9)))
          CFI (cfiCond7) VB load(1, XDATA, add(CFA_XSP16, literal(-8)))
          CFI (cfiCond7) V0 load(1, XDATA, add(CFA_XSP16, literal(-7)))
          CFI (cfiCond7) R7 load(1, XDATA, add(CFA_XSP16, literal(-6)))
          CFI (cfiCond7) ?RET_LOW load(1, XDATA, add(CFA_XSP16, literal(-5)))
          CFI (cfiCond7) ?RET_HIGH load(1, XDATA, add(CFA_XSP16, literal(-4)))
          CFI (cfiCond7) ?BRET_EXT load(1, XDATA, add(CFA_XSP16, literal(-3)))
          CFI (cfiCond7) DPL0 load(1, XDATA, add(CFA_XSP16, literal(-2)))
          CFI (cfiCond7) DPH0 load(1, XDATA, add(CFA_XSP16, literal(-1)))
          CFI (cfiCond7) CFA_SP SP+-2
          CFI (cfiCond7) CFA_XSP16 add(XSP16, 22)
          CFI Block cfiCond8 Using cfiCommon0
          CFI (cfiCond8) Function ZDSecMgrExtAddrLookup
          CFI (cfiCond8) Conditional ??CrossCallReturnLabel_24
          CFI (cfiCond8) R6 load(1, XDATA, add(CFA_XSP16, literal(-9)))
          CFI (cfiCond8) VB load(1, XDATA, add(CFA_XSP16, literal(-8)))
          CFI (cfiCond8) V0 load(1, XDATA, add(CFA_XSP16, literal(-7)))
          CFI (cfiCond8) R7 load(1, XDATA, add(CFA_XSP16, literal(-6)))
          CFI (cfiCond8) ?RET_LOW load(1, XDATA, add(CFA_XSP16, literal(-5)))
          CFI (cfiCond8) ?RET_HIGH load(1, XDATA, add(CFA_XSP16, literal(-4)))
          CFI (cfiCond8) ?BRET_EXT load(1, XDATA, add(CFA_XSP16, literal(-3)))
          CFI (cfiCond8) DPL0 load(1, XDATA, add(CFA_XSP16, literal(-2)))
          CFI (cfiCond8) DPH0 load(1, XDATA, add(CFA_XSP16, literal(-1)))
          CFI (cfiCond8) CFA_SP SP+-2
          CFI (cfiCond8) CFA_XSP16 add(XSP16, 22)
          CFI Block cfiPicker9 Using cfiCommon1
          CFI (cfiPicker9) NoFunction
          CFI (cfiPicker9) Picker
        LCALL     ?Subroutine63 & 0xFFFF
??CrossCallReturnLabel_188:
        MOV       R1,#-0x38
        RET
          CFI EndBlock cfiCond6
          CFI EndBlock cfiCond7
          CFI EndBlock cfiCond8
          CFI EndBlock cfiPicker9

        RSEG BANKED_CODE:HUGECODE:NOROOT(0)
?Subroutine27:
          CFI Block cfiCond10 Using cfiCommon0
          CFI Function ZDSecMgrAddrStore
          CFI Conditional ??CrossCallReturnLabel_19
          CFI R6 load(1, XDATA, add(CFA_XSP16, literal(-9)))
          CFI VB load(1, XDATA, add(CFA_XSP16, literal(-8)))
          CFI V0 load(1, XDATA, add(CFA_XSP16, literal(-7)))
          CFI R7 load(1, XDATA, add(CFA_XSP16, literal(-6)))
          CFI ?RET_LOW load(1, XDATA, add(CFA_XSP16, literal(-5)))
          CFI ?RET_HIGH load(1, XDATA, add(CFA_XSP16, literal(-4)))
          CFI ?BRET_EXT load(1, XDATA, add(CFA_XSP16, literal(-3)))
          CFI DPL0 load(1, XDATA, add(CFA_XSP16, literal(-2)))
          CFI DPH0 load(1, XDATA, add(CFA_XSP16, literal(-1)))
          CFI CFA_SP SP+-2
          CFI CFA_XSP16 add(XSP16, 22)
          CFI Block cfiCond11 Using cfiCommon0
          CFI (cfiCond11) Function ZDSecMgrExtAddrStore
          CFI (cfiCond11) Conditional ??CrossCallReturnLabel_20
          CFI (cfiCond11) R6 load(1, XDATA, add(CFA_XSP16, literal(-9)))
          CFI (cfiCond11) VB load(1, XDATA, add(CFA_XSP16, literal(-8)))
          CFI (cfiCond11) V0 load(1, XDATA, add(CFA_XSP16, literal(-7)))
          CFI (cfiCond11) R7 load(1, XDATA, add(CFA_XSP16, literal(-6)))
          CFI (cfiCond11) ?RET_LOW load(1, XDATA, add(CFA_XSP16, literal(-5)))
          CFI (cfiCond11) ?RET_HIGH load(1, XDATA, add(CFA_XSP16, literal(-4)))
          CFI (cfiCond11) ?BRET_EXT load(1, XDATA, add(CFA_XSP16, literal(-3)))
          CFI (cfiCond11) DPL0 load(1, XDATA, add(CFA_XSP16, literal(-2)))
          CFI (cfiCond11) DPH0 load(1, XDATA, add(CFA_XSP16, literal(-1)))
          CFI (cfiCond11) CFA_SP SP+-2
          CFI (cfiCond11) CFA_XSP16 add(XSP16, 22)
          CFI Block cfiCond12 Using cfiCommon0
          CFI (cfiCond12) Function ZDSecMgrExtAddrLookup
          CFI (cfiCond12) Conditional ??CrossCallReturnLabel_21
          CFI (cfiCond12) R6 load(1, XDATA, add(CFA_XSP16, literal(-9)))
          CFI (cfiCond12) VB load(1, XDATA, add(CFA_XSP16, literal(-8)))
          CFI (cfiCond12) V0 load(1, XDATA, add(CFA_XSP16, literal(-7)))
          CFI (cfiCond12) R7 load(1, XDATA, add(CFA_XSP16, literal(-6)))
          CFI (cfiCond12) ?RET_LOW load(1, XDATA, add(CFA_XSP16, literal(-5)))
          CFI (cfiCond12) ?RET_HIGH load(1, XDATA, add(CFA_XSP16, literal(-4)))
          CFI (cfiCond12) ?BRET_EXT load(1, XDATA, add(CFA_XSP16, literal(-3)))
          CFI (cfiCond12) DPL0 load(1, XDATA, add(CFA_XSP16, literal(-2)))
          CFI (cfiCond12) DPH0 load(1, XDATA, add(CFA_XSP16, literal(-1)))
          CFI (cfiCond12) CFA_SP SP+-2
          CFI (cfiCond12) CFA_XSP16 add(XSP16, 22)
          CFI Block cfiPicker13 Using cfiCommon1
          CFI (cfiPicker13) NoFunction
          CFI (cfiPicker13) Picker
        LCALL     ?Subroutine63 & 0xFFFF
??CrossCallReturnLabel_187:
        MOV       R1,#0x0
        RET
          CFI EndBlock cfiCond10
          CFI EndBlock cfiCond11
          CFI EndBlock cfiCond12
          CFI EndBlock cfiPicker13
//  547 
//  548 /******************************************************************************
//  549  * @fn          ZDSecMgrExtAddrLookup
//  550  *
//  551  * @brief       Lookup index for specified EXT address.
//  552  *
//  553  * @param       extAddr - [in] EXT address
//  554  * @param       ami     - [out] Address Manager index
//  555  *
//  556  * @return      ZStatus_t
//  557  */

        RSEG BANKED_CODE:HUGECODE:NOROOT(0)
//  558 ZStatus_t ZDSecMgrExtAddrLookup( uint8* extAddr, uint16* ami )
ZDSecMgrExtAddrLookup:
          CFI Block cfiBlock14 Using cfiCommon0
          CFI Function ZDSecMgrExtAddrLookup
        CODE
//  559 {
        FUNCALL ZDSecMgrExtAddrLookup, AddrMgrExtAddrSet
        LOCFRAME ISTACK, 0, STACK
        LOCFRAME PSTACK, 0, STACK
        LOCFRAME XSTACK, 22, STACK
        LOCFRAME IOVERLAY, 0, STATIC
        LOCFRAME DOVERLAY, 0, STATIC
        ARGFRAME ISTACK, 0, STACK
        ARGFRAME PSTACK, 0, STACK
        ARGFRAME XSTACK, 22, STACK
        ARGFRAME IOVERLAY, 0, STATIC
        ARGFRAME DOVERLAY, 0, STATIC
        FUNCALL ZDSecMgrExtAddrLookup, AddrMgrEntryLookupExt
        LOCFRAME ISTACK, 0, STACK
        LOCFRAME PSTACK, 0, STACK
        LOCFRAME XSTACK, 22, STACK
        LOCFRAME IOVERLAY, 0, STATIC
        LOCFRAME DOVERLAY, 0, STATIC
        ARGFRAME ISTACK, 0, STACK
        ARGFRAME PSTACK, 0, STACK
        ARGFRAME XSTACK, 22, STACK
        ARGFRAME IOVERLAY, 0, STATIC
        ARGFRAME DOVERLAY, 0, STATIC
        MOV       A,#-0x9
        LCALL     ?BANKED_ENTER_XDATA
          CFI DPH0 load(1, XDATA, add(CFA_XSP16, literal(-1)))
          CFI DPL0 load(1, XDATA, add(CFA_XSP16, literal(-2)))
          CFI ?BRET_EXT load(1, XDATA, add(CFA_XSP16, literal(-3)))
          CFI ?RET_HIGH load(1, XDATA, add(CFA_XSP16, literal(-4)))
          CFI ?RET_LOW load(1, XDATA, add(CFA_XSP16, literal(-5)))
          CFI R7 load(1, XDATA, add(CFA_XSP16, literal(-6)))
          CFI V0 load(1, XDATA, add(CFA_XSP16, literal(-7)))
          CFI VB load(1, XDATA, add(CFA_XSP16, literal(-8)))
          CFI R6 load(1, XDATA, add(CFA_XSP16, literal(-9)))
          CFI CFA_SP SP+0
          CFI CFA_XSP16 add(XSP16, 9)
        ; Saved register size: 9
        ; Auto size: 13
        MOV       A,#-0xd
        LCALL     ?ALLOC_XSTACK8
          CFI CFA_XSP16 add(XSP16, 22)
        MOV       A,R4
        MOV       R6,A
        MOV       A,R5
        MOV       R7,A
//  560   ZStatus_t      status;
//  561   AddrMgrEntry_t entry;
//  562 
//  563 
//  564   // lookup entry
//  565   entry.user = ADDRMGR_USER_SECURITY;
        MOV       DPL,?XSP + 0
        MOV       DPH,?XSP + 1
        MOV       A,#0x2
        MOVX      @DPTR,A
//  566   AddrMgrExtAddrSet( entry.extAddr, extAddr );
        ; Setup parameters for call to function AddrMgrExtAddrSet
        MOV       A,R2
        MOV       R4,A
        MOV       A,R3
        MOV       R5,A
        MOV       A,#0x3
        LCALL     ?XSTACK_DISP0_8
        MOV       R2,DPL
        MOV       R3,DPH
        LCALL     `??AddrMgrExtAddrSet::?relay`; Banked call to: AddrMgrExtAddrSet
//  567 
//  568   if ( AddrMgrEntryLookupExt( &entry ) == TRUE )
        ; Setup parameters for call to function AddrMgrEntryLookupExt
        MOV       R2,?XSP + 0
        MOV       R3,?XSP + 1
        LCALL     `??AddrMgrEntryLookupExt::?relay`; Banked call to: AddrMgrEntryLookupExt
        MOV       A,R1
        XRL       A,#0x1
        JNZ       ??ZDSecMgrExtAddrLookup_0
//  569   {
//  570     // return successful results
//  571     *ami   = entry.index;
        MOV       A,#0xb
        LCALL     ?XSTACK_DISP0_8
        LCALL     ?Subroutine27 & 0xFFFF
//  572     status = ZSuccess;
//  573   }
??CrossCallReturnLabel_21:
        SJMP      ??CrossCallReturnLabel_24
//  574   else
//  575   {
//  576     // return failed results
//  577     *ami   = entry.index;
??ZDSecMgrExtAddrLookup_0:
        MOV       A,#0xb
        LCALL     ?XSTACK_DISP0_8
        LCALL     ?Subroutine28 & 0xFFFF
//  578     status = ZNwkUnknownDevice;
//  579   }
//  580 
//  581   return status;
??CrossCallReturnLabel_24:
          CFI EndBlock cfiBlock14
        REQUIRE ?Subroutine8
        ; // Fall through to label ?Subroutine8
//  582 }

        RSEG BANKED_CODE:HUGECODE:NOROOT(0)
?Subroutine8:
          CFI Block cfiBlock15 Using cfiCommon0
          CFI NoFunction
          CFI CFA_SP SP+0
          CFI CFA_XSP16 add(XSP16, 22)
          CFI VB load(1, XDATA, add(CFA_XSP16, literal(-8)))
          CFI DPL0 load(1, XDATA, add(CFA_XSP16, literal(-2)))
          CFI DPH0 load(1, XDATA, add(CFA_XSP16, literal(-1)))
          CFI R6 load(1, XDATA, add(CFA_XSP16, literal(-9)))
          CFI R7 load(1, XDATA, add(CFA_XSP16, literal(-6)))
          CFI V0 load(1, XDATA, add(CFA_XSP16, literal(-7)))
          CFI ?BRET_EXT load(1, XDATA, add(CFA_XSP16, literal(-3)))
          CFI ?RET_HIGH load(1, XDATA, add(CFA_XSP16, literal(-4)))
          CFI ?RET_LOW load(1, XDATA, add(CFA_XSP16, literal(-5)))
        MOV       A,#0xd
        LJMP      ??Subroutine88_0 & 0xFFFF
          CFI EndBlock cfiBlock15
//  583 
//  584 /******************************************************************************
//  585  * @fn          ZDSecMgrMasterKeyLookup
//  586  *
//  587  * @brief       Lookup MASTER key for specified address index.
//  588  *
//  589  * @param       ami - [in] Address Manager index
//  590  * @param       key - [out] valid MASTER key
//  591  *
//  592  * @return      ZStatus_t
//  593  */

        RSEG BANKED_CODE:HUGECODE:NOROOT(0)
//  594 ZStatus_t ZDSecMgrMasterKeyLookup( uint16 ami, uint8** key )
ZDSecMgrMasterKeyLookup:
          CFI Block cfiBlock16 Using cfiCommon0
          CFI Function ZDSecMgrMasterKeyLookup
        CODE
//  595 {
        REQUIRE ?V0
        REQUIRE ?V1
        MOV       A,#-0xa
        LCALL     ?BANKED_ENTER_XDATA
          CFI DPH0 load(1, XDATA, add(CFA_XSP16, literal(-1)))
          CFI DPL0 load(1, XDATA, add(CFA_XSP16, literal(-2)))
          CFI ?BRET_EXT load(1, XDATA, add(CFA_XSP16, literal(-3)))
          CFI ?RET_HIGH load(1, XDATA, add(CFA_XSP16, literal(-4)))
          CFI ?RET_LOW load(1, XDATA, add(CFA_XSP16, literal(-5)))
          CFI R7 load(1, XDATA, add(CFA_XSP16, literal(-6)))
          CFI V1 load(1, XDATA, add(CFA_XSP16, literal(-7)))
          CFI V0 load(1, XDATA, add(CFA_XSP16, literal(-8)))
          CFI VB load(1, XDATA, add(CFA_XSP16, literal(-9)))
          CFI R6 load(1, XDATA, add(CFA_XSP16, literal(-10)))
          CFI CFA_SP SP+0
          CFI CFA_XSP16 add(XSP16, 10)
        ; Saved register size: 10
        ; Auto size: 0
        LCALL     ?Subroutine64 & 0xFFFF
//  596   ZStatus_t status;
//  597   uint16    index;
//  598 
//  599 
//  600   // initialize results
//  601   *key   = NULL;
//  602   status = ZNwkUnknownDevice;
//  603 
//  604   // verify data is available
//  605   if ( ZDSecMgrMasterKeyData != NULL )
??CrossCallReturnLabel_109:
        MOV       DPTR,#ZDSecMgrMasterKeyData
        LCALL     ??Subroutine94_0 & 0xFFFF
??CrossCallReturnLabel_166:
        JZ        ??ZDSecMgrMasterKeyLookup_0
//  606   {
//  607     for ( index = 0; index < ZDSECMGR_MASTERKEY_MAX ; index++ )
        MOV       R0,#0x0
        MOV       R1,#0x0
//  608     {
//  609       if ( ZDSecMgrMasterKeyData[index].ami == ami )
??ZDSecMgrMasterKeyLookup_1:
        MOV       A,R0
        MOV       R4,A
        MOV       A,R1
        MOV       R5,A
        MOV       A,R4
        MOV       B,#0x12
        MUL       AB
        MOV       R4,A
        MOV       ?V1,B
        MOV       B,#0x12
        MOV       A,R5
        MUL       AB
        ADD       A,?V1
        MOV       R5,A
        MOV       DPTR,#ZDSecMgrMasterKeyData
        MOVX      A,@DPTR
        ADD       A,R4
        MOV       R4,A
        INC       DPTR
        MOVX      A,@DPTR
        ADDC      A,R5
        MOV       R5,A
        MOV       DPL,R4
        MOV       DPH,A
        MOVX      A,@DPTR
        XRL       A,R2
        JNZ       ??ZDSecMgrMasterKeyLookup_2
        INC       DPTR
        MOVX      A,@DPTR
        XRL       A,R3
??ZDSecMgrMasterKeyLookup_2:
        JNZ       ??CrossCallReturnLabel_105
//  610       {
//  611         // return successful results
//  612         *key   = ZDSecMgrMasterKeyData[index].key;
        MOV       A,R4
        ADD       A,#0x2
        MOV       R0,A
        CLR       A
        ADDC      A,R5
        MOV       R1,A
        MOV       DPL,R6
        MOV       DPH,R7
        MOV       A,R0
        MOVX      @DPTR,A
        INC       DPTR
        MOV       A,R1
        LCALL     ??Subroutine77_0 & 0xFFFF
//  613         status = ZSuccess;
//  614 
//  615         // break from loop
//  616         index  = ZDSECMGR_MASTERKEY_MAX;
//  617       }
//  618     }
??CrossCallReturnLabel_105:
        INC       R0
        MOV       A,R0
        JNZ       ??ZDSecMgrMasterKeyLookup_3
        INC       R1
??ZDSecMgrMasterKeyLookup_3:
        LCALL     ?Subroutine57 & 0xFFFF
//  619   }
??CrossCallReturnLabel_72:
        JC        ??ZDSecMgrMasterKeyLookup_1
//  620 
//  621   return status;
??ZDSecMgrMasterKeyLookup_0:
          CFI EndBlock cfiBlock16
        REQUIRE ?Subroutine11
        ; // Fall through to label ?Subroutine11
//  622 }

        RSEG BANKED_CODE:HUGECODE:NOROOT(0)
?Subroutine11:
          CFI Block cfiBlock17 Using cfiCommon0
          CFI NoFunction
          CFI CFA_SP SP+0
          CFI CFA_XSP16 add(XSP16, 10)
          CFI VB load(1, XDATA, add(CFA_XSP16, literal(-9)))
          CFI DPL0 load(1, XDATA, add(CFA_XSP16, literal(-2)))
          CFI DPH0 load(1, XDATA, add(CFA_XSP16, literal(-1)))
          CFI R6 load(1, XDATA, add(CFA_XSP16, literal(-10)))
          CFI R7 load(1, XDATA, add(CFA_XSP16, literal(-6)))
          CFI V0 load(1, XDATA, add(CFA_XSP16, literal(-8)))
          CFI V1 load(1, XDATA, add(CFA_XSP16, literal(-7)))
          CFI ?BRET_EXT load(1, XDATA, add(CFA_XSP16, literal(-3)))
          CFI ?RET_HIGH load(1, XDATA, add(CFA_XSP16, literal(-4)))
          CFI ?RET_LOW load(1, XDATA, add(CFA_XSP16, literal(-5)))
        MOV       R1,?V0
        LJMP      ??Subroutine102_0 & 0xFFFF
          CFI EndBlock cfiBlock17

        RSEG BANKED_CODE:HUGECODE:NOROOT(0)
?Subroutine64:
          CFI Block cfiCond18 Using cfiCommon0
          CFI Function ZDSecMgrMasterKeyLookup
          CFI Conditional ??CrossCallReturnLabel_109
          CFI R6 load(1, XDATA, add(CFA_XSP16, literal(-10)))
          CFI VB load(1, XDATA, add(CFA_XSP16, literal(-9)))
          CFI V0 load(1, XDATA, add(CFA_XSP16, literal(-8)))
          CFI V1 load(1, XDATA, add(CFA_XSP16, literal(-7)))
          CFI R7 load(1, XDATA, add(CFA_XSP16, literal(-6)))
          CFI ?RET_LOW load(1, XDATA, add(CFA_XSP16, literal(-5)))
          CFI ?RET_HIGH load(1, XDATA, add(CFA_XSP16, literal(-4)))
          CFI ?BRET_EXT load(1, XDATA, add(CFA_XSP16, literal(-3)))
          CFI DPL0 load(1, XDATA, add(CFA_XSP16, literal(-2)))
          CFI DPH0 load(1, XDATA, add(CFA_XSP16, literal(-1)))
          CFI CFA_SP SP+-2
          CFI CFA_XSP16 add(XSP16, 10)
          CFI Block cfiCond19 Using cfiCommon0
          CFI (cfiCond19) Function ZDSecMgrEntryLookupExt
          CFI (cfiCond19) Conditional ??CrossCallReturnLabel_110
          CFI (cfiCond19) R6 load(1, XDATA, add(CFA_XSP16, literal(-9)))
          CFI (cfiCond19) VB load(1, XDATA, add(CFA_XSP16, literal(-8)))
          CFI (cfiCond19) V0 load(1, XDATA, add(CFA_XSP16, literal(-7)))
          CFI (cfiCond19) R7 load(1, XDATA, add(CFA_XSP16, literal(-6)))
          CFI (cfiCond19) ?RET_LOW load(1, XDATA, add(CFA_XSP16, literal(-5)))
          CFI (cfiCond19) ?RET_HIGH load(1, XDATA, add(CFA_XSP16, literal(-4)))
          CFI (cfiCond19) ?BRET_EXT load(1, XDATA, add(CFA_XSP16, literal(-3)))
          CFI (cfiCond19) DPL0 load(1, XDATA, add(CFA_XSP16, literal(-2)))
          CFI (cfiCond19) DPH0 load(1, XDATA, add(CFA_XSP16, literal(-1)))
          CFI (cfiCond19) CFA_SP SP+-2
          CFI (cfiCond19) CFA_XSP16 add(XSP16, 11)
          CFI Block cfiPicker20 Using cfiCommon1
          CFI (cfiPicker20) NoFunction
          CFI (cfiPicker20) Picker
        MOV       A,R4
        MOV       R6,A
        MOV       A,R5
        MOV       R7,A
        MOV       DPL,R4
        MOV       DPH,A
          CFI EndBlock cfiCond18
          CFI EndBlock cfiCond19
          CFI EndBlock cfiPicker20
        REQUIRE ??Subroutine75_0
        ; // Fall through to label ??Subroutine75_0

        RSEG BANKED_CODE:HUGECODE:NOROOT(0)
??Subroutine75_0:
          CFI Block cfiCond21 Using cfiCommon0
          CFI Function ZDSecMgrEntryLookup
          CFI Conditional ??CrossCallReturnLabel_111, ??CrossCallReturnLabel_106
          CFI R6 load(1, XDATA, add(CFA_XSP16, literal(-10)))
          CFI VB load(1, XDATA, add(CFA_XSP16, literal(-9)))
          CFI V0 load(1, XDATA, add(CFA_XSP16, literal(-8)))
          CFI V1 load(1, XDATA, add(CFA_XSP16, literal(-7)))
          CFI R7 load(1, XDATA, add(CFA_XSP16, literal(-6)))
          CFI ?RET_LOW load(1, XDATA, add(CFA_XSP16, literal(-5)))
          CFI ?RET_HIGH load(1, XDATA, add(CFA_XSP16, literal(-4)))
          CFI ?BRET_EXT load(1, XDATA, add(CFA_XSP16, literal(-3)))
          CFI DPL0 load(1, XDATA, add(CFA_XSP16, literal(-2)))
          CFI DPH0 load(1, XDATA, add(CFA_XSP16, literal(-1)))
          CFI CFA_SP SP+-4
          CFI CFA_XSP16 add(XSP16, 23)
          CFI Block cfiCond22 Using cfiCommon0
          CFI (cfiCond22) Function ZDSecMgrEntryNew
          CFI (cfiCond22) Conditional ??CrossCallReturnLabel_111, ??CrossCallReturnLabel_107
          CFI (cfiCond22) R6 load(1, XDATA, add(CFA_XSP16, literal(-10)))
          CFI (cfiCond22) VB load(1, XDATA, add(CFA_XSP16, literal(-9)))
          CFI (cfiCond22) V0 load(1, XDATA, add(CFA_XSP16, literal(-8)))
          CFI (cfiCond22) V1 load(1, XDATA, add(CFA_XSP16, literal(-7)))
          CFI (cfiCond22) R7 load(1, XDATA, add(CFA_XSP16, literal(-6)))
          CFI (cfiCond22) ?RET_LOW load(1, XDATA, add(CFA_XSP16, literal(-5)))
          CFI (cfiCond22) ?RET_HIGH load(1, XDATA, add(CFA_XSP16, literal(-4)))
          CFI (cfiCond22) ?BRET_EXT load(1, XDATA, add(CFA_XSP16, literal(-3)))
          CFI (cfiCond22) DPL0 load(1, XDATA, add(CFA_XSP16, literal(-2)))
          CFI (cfiCond22) DPH0 load(1, XDATA, add(CFA_XSP16, literal(-1)))
          CFI (cfiCond22) CFA_SP SP+-4
          CFI (cfiCond22) CFA_XSP16 add(XSP16, 10)
          CFI Block cfiCond23 Using cfiCommon0
          CFI (cfiCond23) Function ZDSecMgrEntryLookupAMI
          CFI (cfiCond23) Conditional ??CrossCallReturnLabel_111, ??CrossCallReturnLabel_108
          CFI (cfiCond23) R6 load(1, XDATA, add(CFA_XSP16, literal(-10)))
          CFI (cfiCond23) VB load(1, XDATA, add(CFA_XSP16, literal(-9)))
          CFI (cfiCond23) V0 load(1, XDATA, add(CFA_XSP16, literal(-8)))
          CFI (cfiCond23) V1 load(1, XDATA, add(CFA_XSP16, literal(-7)))
          CFI (cfiCond23) R7 load(1, XDATA, add(CFA_XSP16, literal(-6)))
          CFI (cfiCond23) ?RET_LOW load(1, XDATA, add(CFA_XSP16, literal(-5)))
          CFI (cfiCond23) ?RET_HIGH load(1, XDATA, add(CFA_XSP16, literal(-4)))
          CFI (cfiCond23) ?BRET_EXT load(1, XDATA, add(CFA_XSP16, literal(-3)))
          CFI (cfiCond23) DPL0 load(1, XDATA, add(CFA_XSP16, literal(-2)))
          CFI (cfiCond23) DPH0 load(1, XDATA, add(CFA_XSP16, literal(-1)))
          CFI (cfiCond23) CFA_SP SP+-4
          CFI (cfiCond23) CFA_XSP16 add(XSP16, 10)
          CFI Block cfiCond24 Using cfiCommon0
          CFI (cfiCond24) Function ZDSecMgrMasterKeyLookup
          CFI (cfiCond24) Conditional ??CrossCallReturnLabel_109
          CFI (cfiCond24) R6 load(1, XDATA, add(CFA_XSP16, literal(-10)))
          CFI (cfiCond24) VB load(1, XDATA, add(CFA_XSP16, literal(-9)))
          CFI (cfiCond24) V0 load(1, XDATA, add(CFA_XSP16, literal(-8)))
          CFI (cfiCond24) V1 load(1, XDATA, add(CFA_XSP16, literal(-7)))
          CFI (cfiCond24) R7 load(1, XDATA, add(CFA_XSP16, literal(-6)))
          CFI (cfiCond24) ?RET_LOW load(1, XDATA, add(CFA_XSP16, literal(-5)))
          CFI (cfiCond24) ?RET_HIGH load(1, XDATA, add(CFA_XSP16, literal(-4)))
          CFI (cfiCond24) ?BRET_EXT load(1, XDATA, add(CFA_XSP16, literal(-3)))
          CFI (cfiCond24) DPL0 load(1, XDATA, add(CFA_XSP16, literal(-2)))
          CFI (cfiCond24) DPH0 load(1, XDATA, add(CFA_XSP16, literal(-1)))
          CFI (cfiCond24) CFA_SP SP+-2
          CFI (cfiCond24) CFA_XSP16 add(XSP16, 10)
          CFI Block cfiCond25 Using cfiCommon0
          CFI (cfiCond25) Function ZDSecMgrEntryLookupExt
          CFI (cfiCond25) Conditional ??CrossCallReturnLabel_110
          CFI (cfiCond25) R6 load(1, XDATA, add(CFA_XSP16, literal(-9)))
          CFI (cfiCond25) VB load(1, XDATA, add(CFA_XSP16, literal(-8)))
          CFI (cfiCond25) V0 load(1, XDATA, add(CFA_XSP16, literal(-7)))
          CFI (cfiCond25) R7 load(1, XDATA, add(CFA_XSP16, literal(-6)))
          CFI (cfiCond25) ?RET_LOW load(1, XDATA, add(CFA_XSP16, literal(-5)))
          CFI (cfiCond25) ?RET_HIGH load(1, XDATA, add(CFA_XSP16, literal(-4)))
          CFI (cfiCond25) ?BRET_EXT load(1, XDATA, add(CFA_XSP16, literal(-3)))
          CFI (cfiCond25) DPL0 load(1, XDATA, add(CFA_XSP16, literal(-2)))
          CFI (cfiCond25) DPH0 load(1, XDATA, add(CFA_XSP16, literal(-1)))
          CFI (cfiCond25) CFA_SP SP+-2
          CFI (cfiCond25) CFA_XSP16 add(XSP16, 11)
          CFI Block cfiPicker26 Using cfiCommon1
          CFI (cfiPicker26) NoFunction
          CFI (cfiPicker26) Picker
        CLR       A
        MOVX      @DPTR,A
        INC       DPTR
        MOVX      @DPTR,A
        MOV       ?V0,#-0x38
        RET
          CFI EndBlock cfiCond21
          CFI EndBlock cfiCond22
          CFI EndBlock cfiCond23
          CFI EndBlock cfiCond24
          CFI EndBlock cfiCond25
          CFI EndBlock cfiPicker26
//  623 
//  624 /******************************************************************************
//  625  * @fn          ZDSecMgrMasterKeyStore
//  626  *
//  627  * @brief       Store MASTER key for specified address index.
//  628  *
//  629  * @param       ami - [in] Address Manager index
//  630  * @param       key - [in] valid key to store
//  631  *
//  632  * @return      ZStatus_t
//  633  */

        RSEG BANKED_CODE:HUGECODE:NOROOT(0)
//  634 ZStatus_t ZDSecMgrMasterKeyStore( uint16 ami, uint8* key )
ZDSecMgrMasterKeyStore:
          CFI Block cfiBlock27 Using cfiCommon0
          CFI Function ZDSecMgrMasterKeyStore
        CODE
//  635 {
        FUNCALL ZDSecMgrMasterKeyStore, osal_memcpy
        LOCFRAME ISTACK, 0, STACK
        LOCFRAME PSTACK, 0, STACK
        LOCFRAME XSTACK, 17, STACK
        LOCFRAME IOVERLAY, 0, STATIC
        LOCFRAME DOVERLAY, 0, STATIC
        ARGFRAME ISTACK, 0, STACK
        ARGFRAME PSTACK, 0, STACK
        ARGFRAME XSTACK, 17, STACK
        ARGFRAME IOVERLAY, 0, STATIC
        ARGFRAME DOVERLAY, 0, STATIC
        FUNCALL ZDSecMgrMasterKeyStore, osal_memset
        LOCFRAME ISTACK, 0, STACK
        LOCFRAME PSTACK, 0, STACK
        LOCFRAME XSTACK, 14, STACK
        LOCFRAME IOVERLAY, 0, STATIC
        LOCFRAME DOVERLAY, 0, STATIC
        ARGFRAME ISTACK, 0, STACK
        ARGFRAME PSTACK, 0, STACK
        ARGFRAME XSTACK, 14, STACK
        ARGFRAME IOVERLAY, 0, STATIC
        ARGFRAME DOVERLAY, 0, STATIC
        REQUIRE ?V0
        REQUIRE ?V1
        REQUIRE ?V2
        REQUIRE ?V4
        REQUIRE ?V5
        MOV       A,#-0xe
        LCALL     ?BANKED_ENTER_XDATA
          CFI DPH0 load(1, XDATA, add(CFA_XSP16, literal(-1)))
          CFI DPL0 load(1, XDATA, add(CFA_XSP16, literal(-2)))
          CFI ?BRET_EXT load(1, XDATA, add(CFA_XSP16, literal(-3)))
          CFI ?RET_HIGH load(1, XDATA, add(CFA_XSP16, literal(-4)))
          CFI ?RET_LOW load(1, XDATA, add(CFA_XSP16, literal(-5)))
          CFI R7 load(1, XDATA, add(CFA_XSP16, literal(-6)))
          CFI V5 load(1, XDATA, add(CFA_XSP16, literal(-7)))
          CFI V4 load(1, XDATA, add(CFA_XSP16, literal(-8)))
          CFI V3 load(1, XDATA, add(CFA_XSP16, literal(-9)))
          CFI V2 load(1, XDATA, add(CFA_XSP16, literal(-10)))
          CFI V1 load(1, XDATA, add(CFA_XSP16, literal(-11)))
          CFI V0 load(1, XDATA, add(CFA_XSP16, literal(-12)))
          CFI VB load(1, XDATA, add(CFA_XSP16, literal(-13)))
          CFI R6 load(1, XDATA, add(CFA_XSP16, literal(-14)))
          CFI CFA_SP SP+0
          CFI CFA_XSP16 add(XSP16, 14)
        ; Saved register size: 14
        ; Auto size: 0
        MOV       ?V4,R2
        MOV       ?V5,R3
        MOV       A,R4
        MOV       R6,A
        MOV       A,R5
        MOV       R7,A
//  636   ZStatus_t status;
//  637   uint16    index;
//  638   uint8*    entry;
//  639 
//  640 
//  641   // initialize results
//  642   status = ZNwkUnknownDevice;
        MOV       R4,#-0x38
//  643 
//  644   // verify data is available
//  645   if ( ZDSecMgrMasterKeyData != NULL )
        MOV       DPTR,#ZDSecMgrMasterKeyData
        LCALL     ??Subroutine94_0 & 0xFFFF
??CrossCallReturnLabel_167:
        JZ        ??ZDSecMgrMasterKeyStore_0
//  646   {
//  647     for ( index = 0; index < ZDSECMGR_MASTERKEY_MAX ; index++ )
        MOV       R0,#0x0
        MOV       R1,#0x0
//  648     {
//  649       if ( ZDSecMgrMasterKeyData[index].ami == INVALID_NODE_ADDR )
??ZDSecMgrMasterKeyStore_1:
        MOV       A,R0
        MOV       R2,A
        MOV       A,R1
        MOV       R3,A
        MOV       A,R2
        MOV       B,#0x12
        MUL       AB
        MOV       R2,A
        MOV       R5,B
        MOV       B,#0x12
        MOV       A,R3
        MUL       AB
        ADD       A,R5
        MOV       R3,A
        MOV       DPTR,#ZDSecMgrMasterKeyData
        LCALL     ?Subroutine47 & 0xFFFF
??CrossCallReturnLabel_54:
        XRL       A,#0xfe
        JNZ       ??ZDSecMgrMasterKeyStore_2
        INC       DPTR
        MOVX      A,@DPTR
        CPL       A
??ZDSecMgrMasterKeyStore_2:
        JNZ       ??ZDSecMgrMasterKeyStore_3
//  650       {
//  651         // store EXT address index
//  652         ZDSecMgrMasterKeyData[index].ami = ami;
        MOV       DPL,R2
        MOV       DPH,R3
        MOV       A,?V4
        MOVX      @DPTR,A
        INC       DPTR
        MOV       A,?V5
        MOVX      @DPTR,A
//  653 
//  654         entry = ZDSecMgrMasterKeyData[index].key;
        MOV       A,R2
        ADD       A,#0x2
        MOV       R2,A
        JNC       ??ZDSecMgrMasterKeyStore_4
        INC       R3
//  655 
//  656         if ( key != NULL )
??ZDSecMgrMasterKeyStore_4:
        MOV       A,R6
        ORL       A,R7
        JZ        ??ZDSecMgrMasterKeyStore_5
//  657         {
//  658           osal_memcpy( entry, key,  SEC_KEY_LEN );
        ; Setup parameters for call to function osal_memcpy
        MOV       ?V0,R6
        MOV       ?V1,R7
        MOV       ?V2,#0x0
        MOV       R0,#?V0
        LCALL     ?PUSH_XSTACK_I_THREE
          CFI CFA_XSP16 add(XSP16, 17)
        MOV       R4,#0x10
        MOV       R5,#0x0
        LCALL     `??osal_memcpy::?relay`; Banked call to: osal_memcpy
        MOV       A,#0x3
        LCALL     ?DEALLOC_XSTACK8
          CFI CFA_XSP16 add(XSP16, 14)
        SJMP      ??ZDSecMgrMasterKeyStore_6
//  659         }
//  660         else
//  661         {
//  662           osal_memset( entry, 0, SEC_KEY_LEN );
??ZDSecMgrMasterKeyStore_5:
        ; Setup parameters for call to function osal_memset
        MOV       R4,#0x10
        MOV       R5,#0x0
        MOV       R1,#0x0
        LCALL     `??osal_memset::?relay`; Banked call to: osal_memset
//  663         }
//  664 
//  665         // return successful results
//  666         status = ZSuccess;
??ZDSecMgrMasterKeyStore_6:
        MOV       R4,#0x0
//  667 
//  668         // break from loop
//  669         index  = ZDSECMGR_MASTERKEY_MAX;
        MOV       R0,#0x3
        MOV       R1,#0x0
//  670       }
//  671     }
??ZDSecMgrMasterKeyStore_3:
        INC       R0
        MOV       A,R0
        JNZ       ??ZDSecMgrMasterKeyStore_7
        INC       R1
??ZDSecMgrMasterKeyStore_7:
        LCALL     ?Subroutine57 & 0xFFFF
//  672   }
??CrossCallReturnLabel_73:
        JC        ??ZDSecMgrMasterKeyStore_1
//  673 
//  674   return status;
??ZDSecMgrMasterKeyStore_0:
        MOV       A,R4
        MOV       R1,A
          CFI EndBlock cfiBlock27
        REQUIRE ?Subroutine3
        ; // Fall through to label ?Subroutine3
//  675 }

        RSEG BANKED_CODE:HUGECODE:NOROOT(0)
?Subroutine3:
          CFI Block cfiBlock28 Using cfiCommon0
          CFI NoFunction
          CFI CFA_SP SP+0
          CFI CFA_XSP16 add(XSP16, 14)
          CFI VB load(1, XDATA, add(CFA_XSP16, literal(-13)))
          CFI DPL0 load(1, XDATA, add(CFA_XSP16, literal(-2)))
          CFI DPH0 load(1, XDATA, add(CFA_XSP16, literal(-1)))
          CFI R6 load(1, XDATA, add(CFA_XSP16, literal(-14)))
          CFI R7 load(1, XDATA, add(CFA_XSP16, literal(-6)))
          CFI V0 load(1, XDATA, add(CFA_XSP16, literal(-12)))
          CFI V1 load(1, XDATA, add(CFA_XSP16, literal(-11)))
          CFI V2 load(1, XDATA, add(CFA_XSP16, literal(-10)))
          CFI V3 load(1, XDATA, add(CFA_XSP16, literal(-9)))
          CFI V4 load(1, XDATA, add(CFA_XSP16, literal(-8)))
          CFI V5 load(1, XDATA, add(CFA_XSP16, literal(-7)))
          CFI ?BRET_EXT load(1, XDATA, add(CFA_XSP16, literal(-3)))
          CFI ?RET_HIGH load(1, XDATA, add(CFA_XSP16, literal(-4)))
          CFI ?RET_LOW load(1, XDATA, add(CFA_XSP16, literal(-5)))
        MOV       R7,#0x6
        LJMP      ?BANKED_LEAVE_XDATA
          CFI EndBlock cfiBlock28
//  676 
//  677 /******************************************************************************
//  678  * @fn          ZDSecMgrEntryInit
//  679  *
//  680  * @brief       Initialize entry sub module
//  681  *
//  682  * @param       none
//  683  *
//  684  * @return      none
//  685  */

        RSEG BANKED_CODE:HUGECODE:NOROOT(0)
//  686 void ZDSecMgrEntryInit( void )
ZDSecMgrEntryInit:
          CFI Block cfiBlock29 Using cfiCommon0
          CFI Function ZDSecMgrEntryInit
        CODE
//  687 {
        FUNCALL ZDSecMgrEntryInit, osal_mem_alloc
        LOCFRAME ISTACK, 2, STACK
        LOCFRAME PSTACK, 0, STACK
        LOCFRAME XSTACK, 0, STACK
        LOCFRAME IOVERLAY, 0, STATIC
        LOCFRAME DOVERLAY, 0, STATIC
        ARGFRAME ISTACK, 2, STACK
        ARGFRAME PSTACK, 0, STACK
        ARGFRAME XSTACK, 0, STACK
        ARGFRAME IOVERLAY, 0, STATIC
        ARGFRAME DOVERLAY, 0, STATIC
        FUNCALL ZDSecMgrEntryInit, ZDSecMgrRestoreFromNV
        LOCFRAME ISTACK, 2, STACK
        LOCFRAME PSTACK, 0, STACK
        LOCFRAME XSTACK, 0, STACK
        LOCFRAME IOVERLAY, 0, STATIC
        LOCFRAME DOVERLAY, 0, STATIC
        ARGFRAME ISTACK, 2, STACK
        ARGFRAME PSTACK, 0, STACK
        ARGFRAME XSTACK, 0, STACK
        ARGFRAME IOVERLAY, 0, STATIC
        ARGFRAME DOVERLAY, 0, STATIC
        PUSH      DPL
          CFI DPL0 Frame(CFA_SP, 4)
          CFI CFA_SP SP+-4
        PUSH      DPH
          CFI DPH0 Frame(CFA_SP, 5)
          CFI CFA_SP SP+-5
        ; Saved register size: 2
        ; Auto size: 0
//  688   uint16 size;
//  689   uint16 index;
//  690 
//  691   // allocate entry data
//  692   size = (short)( sizeof(ZDSecMgrEntry_t) * ZDSECMGR_ENTRY_MAX );
//  693 
//  694   ZDSecMgrEntries = osal_mem_alloc( size );
        ; Setup parameters for call to function osal_mem_alloc
        MOV       R2,#0x57
        MOV       R3,#0x0
        LCALL     `??osal_mem_alloc::?relay`; Banked call to: osal_mem_alloc
        MOV       DPTR,#ZDSecMgrEntries
        LCALL     ?Subroutine24 & 0xFFFF
//  695 
//  696   // initialize data
//  697   if ( ZDSecMgrEntries != NULL )
??CrossCallReturnLabel_13:
        JZ        ??ZDSecMgrEntryInit_0
//  698   {
//  699     for( index = 0; index < ZDSECMGR_ENTRY_MAX; index++ )
        MOV       R0,#0x0
        MOV       R1,#0x0
//  700     {
//  701       ZDSecMgrEntries[index].ami = INVALID_NODE_ADDR;
??ZDSecMgrEntryInit_1:
        MOV       A,R0
        MOV       R2,A
        MOV       A,R1
        MOV       R3,A
        MOV       A,R2
        MOV       B,#0x1d
        MUL       AB
        MOV       R2,A
        MOV       R4,B
        MOV       B,#0x1d
        MOV       A,R3
        MUL       AB
        ADD       A,R4
        MOV       R3,A
        MOV       DPTR,#ZDSecMgrEntries
        LCALL     ?Subroutine39 & 0xFFFF
//  702     }
??CrossCallReturnLabel_40:
        JNZ       ??ZDSecMgrEntryInit_2
        INC       R1
??ZDSecMgrEntryInit_2:
        LCALL     ?Subroutine57 & 0xFFFF
//  703   }
??CrossCallReturnLabel_74:
        JC        ??ZDSecMgrEntryInit_1
//  704   ZDSecMgrRestoreFromNV();
??ZDSecMgrEntryInit_0:
        ; Setup parameters for call to function ZDSecMgrRestoreFromNV
        LCALL     `??ZDSecMgrRestoreFromNV::?relay`; Banked call to: ZDSecMgrRestoreFromNV
//  705 }
        LJMP      ??Subroutine86_0 & 0xFFFF
          CFI EndBlock cfiBlock29

        RSEG BANKED_CODE:HUGECODE:NOROOT(0)
?Subroutine39:
          CFI Block cfiCond30 Using cfiCommon0
          CFI Function ZDSecMgrMasterKeyInit
          CFI Conditional ??CrossCallReturnLabel_39
          CFI DPL0 Frame(CFA_SP, 4)
          CFI DPH0 Frame(CFA_SP, 5)
          CFI CFA_SP SP+-7
          CFI Block cfiCond31 Using cfiCommon0
          CFI (cfiCond31) Function ZDSecMgrEntryInit
          CFI (cfiCond31) Conditional ??CrossCallReturnLabel_40
          CFI (cfiCond31) DPL0 Frame(CFA_SP, 4)
          CFI (cfiCond31) DPH0 Frame(CFA_SP, 5)
          CFI (cfiCond31) CFA_SP SP+-7
          CFI Block cfiPicker32 Using cfiCommon1
          CFI (cfiPicker32) NoFunction
          CFI (cfiPicker32) Picker
        LCALL     ?Subroutine72 & 0xFFFF
??CrossCallReturnLabel_102:
        MOV       A,#-0x2
        MOVX      @DPTR,A
        INC       DPTR
        INC       A
        MOVX      @DPTR,A
        INC       R0
        MOV       A,R0
        RET
          CFI EndBlock cfiCond30
          CFI EndBlock cfiCond31
          CFI EndBlock cfiPicker32

        RSEG BANKED_CODE:HUGECODE:NOROOT(0)
?Subroutine24:
          CFI Block cfiCond33 Using cfiCommon0
          CFI Function ZDSecMgrMasterKeyInit
          CFI Conditional ??CrossCallReturnLabel_12
          CFI DPL0 Frame(CFA_SP, 4)
          CFI DPH0 Frame(CFA_SP, 5)
          CFI CFA_SP SP+-7
          CFI Block cfiCond34 Using cfiCommon0
          CFI (cfiCond34) Function ZDSecMgrEntryInit
          CFI (cfiCond34) Conditional ??CrossCallReturnLabel_13
          CFI (cfiCond34) DPL0 Frame(CFA_SP, 4)
          CFI (cfiCond34) DPH0 Frame(CFA_SP, 5)
          CFI (cfiCond34) CFA_SP SP+-7
          CFI Block cfiCond35 Using cfiCommon0
          CFI (cfiCond35) Function ZDSecMgrCtrlInit
          CFI (cfiCond35) Conditional ??CrossCallReturnLabel_14
          CFI (cfiCond35) DPL0 Frame(CFA_SP, 4)
          CFI (cfiCond35) DPH0 Frame(CFA_SP, 5)
          CFI (cfiCond35) CFA_SP SP+-7
          CFI Block cfiPicker36 Using cfiCommon1
          CFI (cfiPicker36) NoFunction
          CFI (cfiPicker36) Picker
        MOV       A,R2
        MOVX      @DPTR,A
        INC       DPTR
        MOV       A,R3
        MOVX      @DPTR,A
        MOV       R1,A
        MOV       A,R2
        ORL       A,R1
        RET
          CFI EndBlock cfiCond33
          CFI EndBlock cfiCond34
          CFI EndBlock cfiCond35
          CFI EndBlock cfiPicker36
//  706 
//  707 /******************************************************************************
//  708  * @fn          ZDSecMgrEntryLookup
//  709  *
//  710  * @brief       Lookup entry index using specified NWK address.
//  711  *
//  712  * @param       nwkAddr - [in] NWK address
//  713  * @param       entry   - [out] valid entry
//  714  *
//  715  * @return      ZStatus_t
//  716  */

        RSEG BANKED_CODE:HUGECODE:NOROOT(0)
//  717 ZStatus_t ZDSecMgrEntryLookup( uint16 nwkAddr, ZDSecMgrEntry_t** entry )
ZDSecMgrEntryLookup:
          CFI Block cfiBlock37 Using cfiCommon0
          CFI Function ZDSecMgrEntryLookup
        CODE
//  718 {
        FUNCALL ZDSecMgrEntryLookup, AddrMgrEntryLookupNwk
        LOCFRAME ISTACK, 0, STACK
        LOCFRAME PSTACK, 0, STACK
        LOCFRAME XSTACK, 23, STACK
        LOCFRAME IOVERLAY, 0, STATIC
        LOCFRAME DOVERLAY, 0, STATIC
        ARGFRAME ISTACK, 0, STACK
        ARGFRAME PSTACK, 0, STACK
        ARGFRAME XSTACK, 23, STACK
        ARGFRAME IOVERLAY, 0, STATIC
        ARGFRAME DOVERLAY, 0, STATIC
        REQUIRE ?V0
        REQUIRE ?V1
        MOV       A,#-0xa
        LCALL     ?BANKED_ENTER_XDATA
          CFI DPH0 load(1, XDATA, add(CFA_XSP16, literal(-1)))
          CFI DPL0 load(1, XDATA, add(CFA_XSP16, literal(-2)))
          CFI ?BRET_EXT load(1, XDATA, add(CFA_XSP16, literal(-3)))
          CFI ?RET_HIGH load(1, XDATA, add(CFA_XSP16, literal(-4)))
          CFI ?RET_LOW load(1, XDATA, add(CFA_XSP16, literal(-5)))
          CFI R7 load(1, XDATA, add(CFA_XSP16, literal(-6)))
          CFI V1 load(1, XDATA, add(CFA_XSP16, literal(-7)))
          CFI V0 load(1, XDATA, add(CFA_XSP16, literal(-8)))
          CFI VB load(1, XDATA, add(CFA_XSP16, literal(-9)))
          CFI R6 load(1, XDATA, add(CFA_XSP16, literal(-10)))
          CFI CFA_SP SP+0
          CFI CFA_XSP16 add(XSP16, 10)
        ; Saved register size: 10
        ; Auto size: 13
        MOV       A,#-0xd
        LCALL     ?ALLOC_XSTACK8
          CFI CFA_XSP16 add(XSP16, 23)
        MOV       A,R4
        MOV       R6,A
        MOV       A,R5
        MOV       R7,A
//  719   ZStatus_t      status;
//  720   uint16         index;
//  721   AddrMgrEntry_t addrMgrEntry;
//  722 
//  723 
//  724   // initialize results
//  725   *entry = NULL;
        MOV       DPL,R4
        LCALL     ?Subroutine15 & 0xFFFF
//  726   status = ZNwkUnknownDevice;
//  727 
//  728   // verify data is available
//  729   if ( ZDSecMgrEntries != NULL )
??CrossCallReturnLabel_106:
        JZ        ??ZDSecMgrEntryLookup_0
//  730   {
//  731     addrMgrEntry.user    = ADDRMGR_USER_SECURITY;
        MOV       DPL,?XSP + 0
        MOV       DPH,?XSP + 1
        MOV       A,#0x2
        MOVX      @DPTR,A
//  732     addrMgrEntry.nwkAddr = nwkAddr;
        DEC       A
        LCALL     ?XSTACK_DISP0_8
        LCALL     ?Subroutine33 & 0xFFFF
//  733 
//  734     if ( AddrMgrEntryLookupNwk( &addrMgrEntry ) == TRUE )
??CrossCallReturnLabel_138:
        LCALL     `??AddrMgrEntryLookupNwk::?relay`; Banked call to: AddrMgrEntryLookupNwk
        MOV       A,R1
        XRL       A,#0x1
        JNZ       ??ZDSecMgrEntryLookup_0
//  735     {
//  736       for ( index = 0; index < ZDSECMGR_ENTRY_MAX ; index++ )
        MOV       R0,#0x0
        MOV       R1,#0x0
//  737       {
//  738         if ( addrMgrEntry.index == ZDSecMgrEntries[index].ami )
??ZDSecMgrEntryLookup_1:
        MOV       A,R0
        MOV       R2,A
        MOV       A,R1
        MOV       R3,A
        MOV       A,R2
        MOV       B,#0x1d
        MUL       AB
        MOV       R2,A
        MOV       R4,B
        MOV       B,#0x1d
        MOV       A,R3
        MUL       AB
        ADD       A,R4
        MOV       R3,A
        MOV       DPTR,#ZDSecMgrEntries
        MOVX      A,@DPTR
        ADD       A,R2
        MOV       R2,A
        INC       DPTR
        MOVX      A,@DPTR
        ADDC      A,R3
        MOV       R3,A
        MOV       A,#0xb
        LCALL     ?XSTACK_DISP0_8
        LCALL     ?Subroutine51 & 0xFFFF
??CrossCallReturnLabel_61:
        XRL       A,R4
        JNZ       ??ZDSecMgrEntryLookup_2
        INC       DPTR
        MOVX      A,@DPTR
        XRL       A,R5
??ZDSecMgrEntryLookup_2:
        JNZ       ??CrossCallReturnLabel_103
//  739         {
//  740           // return successful results
//  741           *entry = &ZDSecMgrEntries[index];
        MOV       DPL,R6
        MOV       DPH,R7
        LCALL     ?Subroutine20 & 0xFFFF
//  742           status = ZSuccess;
//  743 
//  744           // break from loop
//  745           index = ZDSECMGR_ENTRY_MAX;
//  746         }
//  747       }
??CrossCallReturnLabel_103:
        INC       R0
        MOV       A,R0
        JNZ       ??ZDSecMgrEntryLookup_3
        INC       R1
??ZDSecMgrEntryLookup_3:
        LCALL     ?Subroutine57 & 0xFFFF
//  748     }
//  749   }
??CrossCallReturnLabel_75:
        JC        ??ZDSecMgrEntryLookup_1
//  750 
//  751   return status;
??ZDSecMgrEntryLookup_0:
          CFI EndBlock cfiBlock37
        REQUIRE ?Subroutine12
        ; // Fall through to label ?Subroutine12
//  752 }

        RSEG BANKED_CODE:HUGECODE:NOROOT(0)
?Subroutine12:
          CFI Block cfiBlock38 Using cfiCommon0
          CFI NoFunction
          CFI CFA_SP SP+0
          CFI CFA_XSP16 add(XSP16, 23)
          CFI VB load(1, XDATA, add(CFA_XSP16, literal(-9)))
          CFI DPL0 load(1, XDATA, add(CFA_XSP16, literal(-2)))
          CFI DPH0 load(1, XDATA, add(CFA_XSP16, literal(-1)))
          CFI R6 load(1, XDATA, add(CFA_XSP16, literal(-10)))
          CFI R7 load(1, XDATA, add(CFA_XSP16, literal(-6)))
          CFI V0 load(1, XDATA, add(CFA_XSP16, literal(-8)))
          CFI V1 load(1, XDATA, add(CFA_XSP16, literal(-7)))
          CFI ?BRET_EXT load(1, XDATA, add(CFA_XSP16, literal(-3)))
          CFI ?RET_HIGH load(1, XDATA, add(CFA_XSP16, literal(-4)))
          CFI ?RET_LOW load(1, XDATA, add(CFA_XSP16, literal(-5)))
        MOV       R1,?V0
          CFI EndBlock cfiBlock38
        REQUIRE ??Subroutine76_0
        ; // Fall through to label ??Subroutine76_0

        RSEG BANKED_CODE:HUGECODE:NOROOT(0)
??Subroutine76_0:
          CFI Block cfiBlock39 Using cfiCommon0
          CFI NoFunction
          CFI CFA_SP SP+0
          CFI CFA_XSP16 add(XSP16, 23)
          CFI VB load(1, XDATA, add(CFA_XSP16, literal(-9)))
          CFI DPL0 load(1, XDATA, add(CFA_XSP16, literal(-2)))
          CFI DPH0 load(1, XDATA, add(CFA_XSP16, literal(-1)))
          CFI R6 load(1, XDATA, add(CFA_XSP16, literal(-10)))
          CFI R7 load(1, XDATA, add(CFA_XSP16, literal(-6)))
          CFI V0 load(1, XDATA, add(CFA_XSP16, literal(-8)))
          CFI V1 load(1, XDATA, add(CFA_XSP16, literal(-7)))
          CFI ?BRET_EXT load(1, XDATA, add(CFA_XSP16, literal(-3)))
          CFI ?RET_HIGH load(1, XDATA, add(CFA_XSP16, literal(-4)))
          CFI ?RET_LOW load(1, XDATA, add(CFA_XSP16, literal(-5)))
        MOV       A,#0xd
        LJMP      ??Subroutine101_0 & 0xFFFF
          CFI EndBlock cfiBlock39

        RSEG BANKED_CODE:HUGECODE:NOROOT(0)
?Subroutine57:
          CFI Block cfiCond40 Using cfiCommon0
          CFI Function ZDSecMgrMasterKeyInit
          CFI Conditional ??CrossCallReturnLabel_71
          CFI DPL0 Frame(CFA_SP, 4)
          CFI DPH0 Frame(CFA_SP, 5)
          CFI CFA_SP SP+-7
          CFI Block cfiCond41 Using cfiCommon0
          CFI (cfiCond41) Function ZDSecMgrMasterKeyLookup
          CFI (cfiCond41) Conditional ??CrossCallReturnLabel_72
          CFI (cfiCond41) R6 load(1, XDATA, add(CFA_XSP16, literal(-10)))
          CFI (cfiCond41) VB load(1, XDATA, add(CFA_XSP16, literal(-9)))
          CFI (cfiCond41) V0 load(1, XDATA, add(CFA_XSP16, literal(-8)))
          CFI (cfiCond41) V1 load(1, XDATA, add(CFA_XSP16, literal(-7)))
          CFI (cfiCond41) R7 load(1, XDATA, add(CFA_XSP16, literal(-6)))
          CFI (cfiCond41) ?RET_LOW load(1, XDATA, add(CFA_XSP16, literal(-5)))
          CFI (cfiCond41) ?RET_HIGH load(1, XDATA, add(CFA_XSP16, literal(-4)))
          CFI (cfiCond41) ?BRET_EXT load(1, XDATA, add(CFA_XSP16, literal(-3)))
          CFI (cfiCond41) DPL0 load(1, XDATA, add(CFA_XSP16, literal(-2)))
          CFI (cfiCond41) DPH0 load(1, XDATA, add(CFA_XSP16, literal(-1)))
          CFI (cfiCond41) CFA_SP SP+-2
          CFI (cfiCond41) CFA_XSP16 add(XSP16, 10)
          CFI Block cfiCond42 Using cfiCommon0
          CFI (cfiCond42) Function ZDSecMgrMasterKeyStore
          CFI (cfiCond42) Conditional ??CrossCallReturnLabel_73
          CFI (cfiCond42) R6 load(1, XDATA, add(CFA_XSP16, literal(-14)))
          CFI (cfiCond42) VB load(1, XDATA, add(CFA_XSP16, literal(-13)))
          CFI (cfiCond42) V0 load(1, XDATA, add(CFA_XSP16, literal(-12)))
          CFI (cfiCond42) V1 load(1, XDATA, add(CFA_XSP16, literal(-11)))
          CFI (cfiCond42) V2 load(1, XDATA, add(CFA_XSP16, literal(-10)))
          CFI (cfiCond42) V3 load(1, XDATA, add(CFA_XSP16, literal(-9)))
          CFI (cfiCond42) V4 load(1, XDATA, add(CFA_XSP16, literal(-8)))
          CFI (cfiCond42) V5 load(1, XDATA, add(CFA_XSP16, literal(-7)))
          CFI (cfiCond42) R7 load(1, XDATA, add(CFA_XSP16, literal(-6)))
          CFI (cfiCond42) ?RET_LOW load(1, XDATA, add(CFA_XSP16, literal(-5)))
          CFI (cfiCond42) ?RET_HIGH load(1, XDATA, add(CFA_XSP16, literal(-4)))
          CFI (cfiCond42) ?BRET_EXT load(1, XDATA, add(CFA_XSP16, literal(-3)))
          CFI (cfiCond42) DPL0 load(1, XDATA, add(CFA_XSP16, literal(-2)))
          CFI (cfiCond42) DPH0 load(1, XDATA, add(CFA_XSP16, literal(-1)))
          CFI (cfiCond42) CFA_SP SP+-2
          CFI (cfiCond42) CFA_XSP16 add(XSP16, 14)
          CFI Block cfiCond43 Using cfiCommon0
          CFI (cfiCond43) Function ZDSecMgrEntryInit
          CFI (cfiCond43) Conditional ??CrossCallReturnLabel_74
          CFI (cfiCond43) DPL0 Frame(CFA_SP, 4)
          CFI (cfiCond43) DPH0 Frame(CFA_SP, 5)
          CFI (cfiCond43) CFA_SP SP+-7
          CFI Block cfiCond44 Using cfiCommon0
          CFI (cfiCond44) Function ZDSecMgrEntryLookup
          CFI (cfiCond44) Conditional ??CrossCallReturnLabel_75
          CFI (cfiCond44) R6 load(1, XDATA, add(CFA_XSP16, literal(-10)))
          CFI (cfiCond44) VB load(1, XDATA, add(CFA_XSP16, literal(-9)))
          CFI (cfiCond44) V0 load(1, XDATA, add(CFA_XSP16, literal(-8)))
          CFI (cfiCond44) V1 load(1, XDATA, add(CFA_XSP16, literal(-7)))
          CFI (cfiCond44) R7 load(1, XDATA, add(CFA_XSP16, literal(-6)))
          CFI (cfiCond44) ?RET_LOW load(1, XDATA, add(CFA_XSP16, literal(-5)))
          CFI (cfiCond44) ?RET_HIGH load(1, XDATA, add(CFA_XSP16, literal(-4)))
          CFI (cfiCond44) ?BRET_EXT load(1, XDATA, add(CFA_XSP16, literal(-3)))
          CFI (cfiCond44) DPL0 load(1, XDATA, add(CFA_XSP16, literal(-2)))
          CFI (cfiCond44) DPH0 load(1, XDATA, add(CFA_XSP16, literal(-1)))
          CFI (cfiCond44) CFA_SP SP+-2
          CFI (cfiCond44) CFA_XSP16 add(XSP16, 23)
          CFI Block cfiCond45 Using cfiCommon0
          CFI (cfiCond45) Function ZDSecMgrEntryLookupAMI
          CFI (cfiCond45) Conditional ??CrossCallReturnLabel_76
          CFI (cfiCond45) R6 load(1, XDATA, add(CFA_XSP16, literal(-10)))
          CFI (cfiCond45) VB load(1, XDATA, add(CFA_XSP16, literal(-9)))
          CFI (cfiCond45) V0 load(1, XDATA, add(CFA_XSP16, literal(-8)))
          CFI (cfiCond45) V1 load(1, XDATA, add(CFA_XSP16, literal(-7)))
          CFI (cfiCond45) R7 load(1, XDATA, add(CFA_XSP16, literal(-6)))
          CFI (cfiCond45) ?RET_LOW load(1, XDATA, add(CFA_XSP16, literal(-5)))
          CFI (cfiCond45) ?RET_HIGH load(1, XDATA, add(CFA_XSP16, literal(-4)))
          CFI (cfiCond45) ?BRET_EXT load(1, XDATA, add(CFA_XSP16, literal(-3)))
          CFI (cfiCond45) DPL0 load(1, XDATA, add(CFA_XSP16, literal(-2)))
          CFI (cfiCond45) DPH0 load(1, XDATA, add(CFA_XSP16, literal(-1)))
          CFI (cfiCond45) CFA_SP SP+-2
          CFI (cfiCond45) CFA_XSP16 add(XSP16, 10)
          CFI Block cfiCond46 Using cfiCommon0
          CFI (cfiCond46) Function ZDSecMgrCtrlInit
          CFI (cfiCond46) Conditional ??CrossCallReturnLabel_77
          CFI (cfiCond46) DPL0 Frame(CFA_SP, 4)
          CFI (cfiCond46) DPH0 Frame(CFA_SP, 5)
          CFI (cfiCond46) CFA_SP SP+-7
          CFI Block cfiCond47 Using cfiCommon0
          CFI (cfiCond47) Function ZDSecMgrCtrlLookup
          CFI (cfiCond47) Conditional ??CrossCallReturnLabel_78
          CFI (cfiCond47) R6 load(1, XDATA, add(CFA_XSP16, literal(-10)))
          CFI (cfiCond47) VB load(1, XDATA, add(CFA_XSP16, literal(-9)))
          CFI (cfiCond47) V0 load(1, XDATA, add(CFA_XSP16, literal(-8)))
          CFI (cfiCond47) V1 load(1, XDATA, add(CFA_XSP16, literal(-7)))
          CFI (cfiCond47) R7 load(1, XDATA, add(CFA_XSP16, literal(-6)))
          CFI (cfiCond47) ?RET_LOW load(1, XDATA, add(CFA_XSP16, literal(-5)))
          CFI (cfiCond47) ?RET_HIGH load(1, XDATA, add(CFA_XSP16, literal(-4)))
          CFI (cfiCond47) ?BRET_EXT load(1, XDATA, add(CFA_XSP16, literal(-3)))
          CFI (cfiCond47) DPL0 load(1, XDATA, add(CFA_XSP16, literal(-2)))
          CFI (cfiCond47) DPH0 load(1, XDATA, add(CFA_XSP16, literal(-1)))
          CFI (cfiCond47) CFA_SP SP+-2
          CFI (cfiCond47) CFA_XSP16 add(XSP16, 10)
          CFI Block cfiCond48 Using cfiCommon0
          CFI (cfiCond48) Function ZDSecMgrCtrlAdd
          CFI (cfiCond48) Conditional ??CrossCallReturnLabel_79
          CFI (cfiCond48) R6 load(1, XDATA, add(CFA_XSP16, literal(-12)))
          CFI (cfiCond48) VB load(1, XDATA, add(CFA_XSP16, literal(-11)))
          CFI (cfiCond48) V0 load(1, XDATA, add(CFA_XSP16, literal(-10)))
          CFI (cfiCond48) V1 load(1, XDATA, add(CFA_XSP16, literal(-9)))
          CFI (cfiCond48) V2 load(1, XDATA, add(CFA_XSP16, literal(-8)))
          CFI (cfiCond48) V3 load(1, XDATA, add(CFA_XSP16, literal(-7)))
          CFI (cfiCond48) R7 load(1, XDATA, add(CFA_XSP16, literal(-6)))
          CFI (cfiCond48) ?RET_LOW load(1, XDATA, add(CFA_XSP16, literal(-5)))
          CFI (cfiCond48) ?RET_HIGH load(1, XDATA, add(CFA_XSP16, literal(-4)))
          CFI (cfiCond48) ?BRET_EXT load(1, XDATA, add(CFA_XSP16, literal(-3)))
          CFI (cfiCond48) DPL0 load(1, XDATA, add(CFA_XSP16, literal(-2)))
          CFI (cfiCond48) DPH0 load(1, XDATA, add(CFA_XSP16, literal(-1)))
          CFI (cfiCond48) CFA_SP SP+-2
          CFI (cfiCond48) CFA_XSP16 add(XSP16, 12)
          CFI Block cfiPicker49 Using cfiCommon1
          CFI (cfiPicker49) NoFunction
          CFI (cfiPicker49) Picker
        CLR       C
        SUBB      A,#0x3
        MOV       A,R1
        SUBB      A,#0x0
        RET
          CFI EndBlock cfiCond40
          CFI EndBlock cfiCond41
          CFI EndBlock cfiCond42
          CFI EndBlock cfiCond43
          CFI EndBlock cfiCond44
          CFI EndBlock cfiCond45
          CFI EndBlock cfiCond46
          CFI EndBlock cfiCond47
          CFI EndBlock cfiCond48
          CFI EndBlock cfiPicker49

        RSEG BANKED_CODE:HUGECODE:NOROOT(0)
?Subroutine20:
          CFI Block cfiCond50 Using cfiCommon0
          CFI Function ZDSecMgrEntryLookup
          CFI Conditional ??CrossCallReturnLabel_103
          CFI R6 load(1, XDATA, add(CFA_XSP16, literal(-10)))
          CFI VB load(1, XDATA, add(CFA_XSP16, literal(-9)))
          CFI V0 load(1, XDATA, add(CFA_XSP16, literal(-8)))
          CFI V1 load(1, XDATA, add(CFA_XSP16, literal(-7)))
          CFI R7 load(1, XDATA, add(CFA_XSP16, literal(-6)))
          CFI ?RET_LOW load(1, XDATA, add(CFA_XSP16, literal(-5)))
          CFI ?RET_HIGH load(1, XDATA, add(CFA_XSP16, literal(-4)))
          CFI ?BRET_EXT load(1, XDATA, add(CFA_XSP16, literal(-3)))
          CFI DPL0 load(1, XDATA, add(CFA_XSP16, literal(-2)))
          CFI DPH0 load(1, XDATA, add(CFA_XSP16, literal(-1)))
          CFI CFA_SP SP+-2
          CFI CFA_XSP16 add(XSP16, 23)
          CFI Block cfiCond51 Using cfiCommon0
          CFI (cfiCond51) Function ZDSecMgrEntryLookupAMI
          CFI (cfiCond51) Conditional ??CrossCallReturnLabel_104
          CFI (cfiCond51) R6 load(1, XDATA, add(CFA_XSP16, literal(-10)))
          CFI (cfiCond51) VB load(1, XDATA, add(CFA_XSP16, literal(-9)))
          CFI (cfiCond51) V0 load(1, XDATA, add(CFA_XSP16, literal(-8)))
          CFI (cfiCond51) V1 load(1, XDATA, add(CFA_XSP16, literal(-7)))
          CFI (cfiCond51) R7 load(1, XDATA, add(CFA_XSP16, literal(-6)))
          CFI (cfiCond51) ?RET_LOW load(1, XDATA, add(CFA_XSP16, literal(-5)))
          CFI (cfiCond51) ?RET_HIGH load(1, XDATA, add(CFA_XSP16, literal(-4)))
          CFI (cfiCond51) ?BRET_EXT load(1, XDATA, add(CFA_XSP16, literal(-3)))
          CFI (cfiCond51) DPL0 load(1, XDATA, add(CFA_XSP16, literal(-2)))
          CFI (cfiCond51) DPH0 load(1, XDATA, add(CFA_XSP16, literal(-1)))
          CFI (cfiCond51) CFA_SP SP+-2
          CFI (cfiCond51) CFA_XSP16 add(XSP16, 10)
          CFI Block cfiPicker52 Using cfiCommon1
          CFI (cfiPicker52) NoFunction
          CFI (cfiPicker52) Picker
        MOV       A,R2
        MOVX      @DPTR,A
        INC       DPTR
        MOV       A,R3
          CFI EndBlock cfiCond50
          CFI EndBlock cfiCond51
          CFI EndBlock cfiPicker52
        REQUIRE ??Subroutine77_0
        ; // Fall through to label ??Subroutine77_0

        RSEG BANKED_CODE:HUGECODE:NOROOT(0)
??Subroutine77_0:
          CFI Block cfiCond53 Using cfiCommon0
          CFI Function ZDSecMgrMasterKeyLookup
          CFI Conditional ??CrossCallReturnLabel_105
          CFI R6 load(1, XDATA, add(CFA_XSP16, literal(-10)))
          CFI VB load(1, XDATA, add(CFA_XSP16, literal(-9)))
          CFI V0 load(1, XDATA, add(CFA_XSP16, literal(-8)))
          CFI V1 load(1, XDATA, add(CFA_XSP16, literal(-7)))
          CFI R7 load(1, XDATA, add(CFA_XSP16, literal(-6)))
          CFI ?RET_LOW load(1, XDATA, add(CFA_XSP16, literal(-5)))
          CFI ?RET_HIGH load(1, XDATA, add(CFA_XSP16, literal(-4)))
          CFI ?BRET_EXT load(1, XDATA, add(CFA_XSP16, literal(-3)))
          CFI DPL0 load(1, XDATA, add(CFA_XSP16, literal(-2)))
          CFI DPH0 load(1, XDATA, add(CFA_XSP16, literal(-1)))
          CFI CFA_SP SP+-2
          CFI CFA_XSP16 add(XSP16, 10)
          CFI Block cfiCond54 Using cfiCommon0
          CFI (cfiCond54) Function ZDSecMgrEntryLookup
          CFI (cfiCond54) Conditional ??CrossCallReturnLabel_103
          CFI (cfiCond54) R6 load(1, XDATA, add(CFA_XSP16, literal(-10)))
          CFI (cfiCond54) VB load(1, XDATA, add(CFA_XSP16, literal(-9)))
          CFI (cfiCond54) V0 load(1, XDATA, add(CFA_XSP16, literal(-8)))
          CFI (cfiCond54) V1 load(1, XDATA, add(CFA_XSP16, literal(-7)))
          CFI (cfiCond54) R7 load(1, XDATA, add(CFA_XSP16, literal(-6)))
          CFI (cfiCond54) ?RET_LOW load(1, XDATA, add(CFA_XSP16, literal(-5)))
          CFI (cfiCond54) ?RET_HIGH load(1, XDATA, add(CFA_XSP16, literal(-4)))
          CFI (cfiCond54) ?BRET_EXT load(1, XDATA, add(CFA_XSP16, literal(-3)))
          CFI (cfiCond54) DPL0 load(1, XDATA, add(CFA_XSP16, literal(-2)))
          CFI (cfiCond54) DPH0 load(1, XDATA, add(CFA_XSP16, literal(-1)))
          CFI (cfiCond54) CFA_SP SP+-2
          CFI (cfiCond54) CFA_XSP16 add(XSP16, 23)
          CFI Block cfiCond55 Using cfiCommon0
          CFI (cfiCond55) Function ZDSecMgrEntryLookupAMI
          CFI (cfiCond55) Conditional ??CrossCallReturnLabel_104
          CFI (cfiCond55) R6 load(1, XDATA, add(CFA_XSP16, literal(-10)))
          CFI (cfiCond55) VB load(1, XDATA, add(CFA_XSP16, literal(-9)))
          CFI (cfiCond55) V0 load(1, XDATA, add(CFA_XSP16, literal(-8)))
          CFI (cfiCond55) V1 load(1, XDATA, add(CFA_XSP16, literal(-7)))
          CFI (cfiCond55) R7 load(1, XDATA, add(CFA_XSP16, literal(-6)))
          CFI (cfiCond55) ?RET_LOW load(1, XDATA, add(CFA_XSP16, literal(-5)))
          CFI (cfiCond55) ?RET_HIGH load(1, XDATA, add(CFA_XSP16, literal(-4)))
          CFI (cfiCond55) ?BRET_EXT load(1, XDATA, add(CFA_XSP16, literal(-3)))
          CFI (cfiCond55) DPL0 load(1, XDATA, add(CFA_XSP16, literal(-2)))
          CFI (cfiCond55) DPH0 load(1, XDATA, add(CFA_XSP16, literal(-1)))
          CFI (cfiCond55) CFA_SP SP+-2
          CFI (cfiCond55) CFA_XSP16 add(XSP16, 10)
          CFI Block cfiPicker56 Using cfiCommon1
          CFI (cfiPicker56) NoFunction
          CFI (cfiPicker56) Picker
        MOVX      @DPTR,A
        MOV       ?V0,#0x0
        MOV       R0,#0x3
        MOV       R1,#0x0
        RET
          CFI EndBlock cfiCond53
          CFI EndBlock cfiCond54
          CFI EndBlock cfiCond55
          CFI EndBlock cfiPicker56

        RSEG BANKED_CODE:HUGECODE:NOROOT(0)
?Subroutine15:
          CFI Block cfiCond57 Using cfiCommon0
          CFI Function ZDSecMgrEntryLookup
          CFI Conditional ??CrossCallReturnLabel_106
          CFI R6 load(1, XDATA, add(CFA_XSP16, literal(-10)))
          CFI VB load(1, XDATA, add(CFA_XSP16, literal(-9)))
          CFI V0 load(1, XDATA, add(CFA_XSP16, literal(-8)))
          CFI V1 load(1, XDATA, add(CFA_XSP16, literal(-7)))
          CFI R7 load(1, XDATA, add(CFA_XSP16, literal(-6)))
          CFI ?RET_LOW load(1, XDATA, add(CFA_XSP16, literal(-5)))
          CFI ?RET_HIGH load(1, XDATA, add(CFA_XSP16, literal(-4)))
          CFI ?BRET_EXT load(1, XDATA, add(CFA_XSP16, literal(-3)))
          CFI DPL0 load(1, XDATA, add(CFA_XSP16, literal(-2)))
          CFI DPH0 load(1, XDATA, add(CFA_XSP16, literal(-1)))
          CFI CFA_SP SP+-2
          CFI CFA_XSP16 add(XSP16, 23)
          CFI Block cfiCond58 Using cfiCommon0
          CFI (cfiCond58) Function ZDSecMgrEntryNew
          CFI (cfiCond58) Conditional ??CrossCallReturnLabel_107
          CFI (cfiCond58) R6 load(1, XDATA, add(CFA_XSP16, literal(-10)))
          CFI (cfiCond58) VB load(1, XDATA, add(CFA_XSP16, literal(-9)))
          CFI (cfiCond58) V0 load(1, XDATA, add(CFA_XSP16, literal(-8)))
          CFI (cfiCond58) V1 load(1, XDATA, add(CFA_XSP16, literal(-7)))
          CFI (cfiCond58) R7 load(1, XDATA, add(CFA_XSP16, literal(-6)))
          CFI (cfiCond58) ?RET_LOW load(1, XDATA, add(CFA_XSP16, literal(-5)))
          CFI (cfiCond58) ?RET_HIGH load(1, XDATA, add(CFA_XSP16, literal(-4)))
          CFI (cfiCond58) ?BRET_EXT load(1, XDATA, add(CFA_XSP16, literal(-3)))
          CFI (cfiCond58) DPL0 load(1, XDATA, add(CFA_XSP16, literal(-2)))
          CFI (cfiCond58) DPH0 load(1, XDATA, add(CFA_XSP16, literal(-1)))
          CFI (cfiCond58) CFA_SP SP+-2
          CFI (cfiCond58) CFA_XSP16 add(XSP16, 10)
          CFI Block cfiPicker59 Using cfiCommon1
          CFI (cfiPicker59) NoFunction
          CFI (cfiPicker59) Picker
        MOV       DPH,A
          CFI EndBlock cfiCond57
          CFI EndBlock cfiCond58
          CFI EndBlock cfiPicker59
        REQUIRE ??Subroutine78_0
        ; // Fall through to label ??Subroutine78_0

        RSEG BANKED_CODE:HUGECODE:NOROOT(0)
??Subroutine78_0:
          CFI Block cfiCond60 Using cfiCommon0
          CFI Function ZDSecMgrEntryLookupAMI
          CFI Conditional ??CrossCallReturnLabel_108
          CFI R6 load(1, XDATA, add(CFA_XSP16, literal(-10)))
          CFI VB load(1, XDATA, add(CFA_XSP16, literal(-9)))
          CFI V0 load(1, XDATA, add(CFA_XSP16, literal(-8)))
          CFI V1 load(1, XDATA, add(CFA_XSP16, literal(-7)))
          CFI R7 load(1, XDATA, add(CFA_XSP16, literal(-6)))
          CFI ?RET_LOW load(1, XDATA, add(CFA_XSP16, literal(-5)))
          CFI ?RET_HIGH load(1, XDATA, add(CFA_XSP16, literal(-4)))
          CFI ?BRET_EXT load(1, XDATA, add(CFA_XSP16, literal(-3)))
          CFI DPL0 load(1, XDATA, add(CFA_XSP16, literal(-2)))
          CFI DPH0 load(1, XDATA, add(CFA_XSP16, literal(-1)))
          CFI CFA_SP SP+-2
          CFI CFA_XSP16 add(XSP16, 10)
          CFI Block cfiCond61 Using cfiCommon0
          CFI (cfiCond61) Function ZDSecMgrEntryLookup
          CFI (cfiCond61) Conditional ??CrossCallReturnLabel_106
          CFI (cfiCond61) R6 load(1, XDATA, add(CFA_XSP16, literal(-10)))
          CFI (cfiCond61) VB load(1, XDATA, add(CFA_XSP16, literal(-9)))
          CFI (cfiCond61) V0 load(1, XDATA, add(CFA_XSP16, literal(-8)))
          CFI (cfiCond61) V1 load(1, XDATA, add(CFA_XSP16, literal(-7)))
          CFI (cfiCond61) R7 load(1, XDATA, add(CFA_XSP16, literal(-6)))
          CFI (cfiCond61) ?RET_LOW load(1, XDATA, add(CFA_XSP16, literal(-5)))
          CFI (cfiCond61) ?RET_HIGH load(1, XDATA, add(CFA_XSP16, literal(-4)))
          CFI (cfiCond61) ?BRET_EXT load(1, XDATA, add(CFA_XSP16, literal(-3)))
          CFI (cfiCond61) DPL0 load(1, XDATA, add(CFA_XSP16, literal(-2)))
          CFI (cfiCond61) DPH0 load(1, XDATA, add(CFA_XSP16, literal(-1)))
          CFI (cfiCond61) CFA_SP SP+-2
          CFI (cfiCond61) CFA_XSP16 add(XSP16, 23)
          CFI Block cfiCond62 Using cfiCommon0
          CFI (cfiCond62) Function ZDSecMgrEntryNew
          CFI (cfiCond62) Conditional ??CrossCallReturnLabel_107
          CFI (cfiCond62) R6 load(1, XDATA, add(CFA_XSP16, literal(-10)))
          CFI (cfiCond62) VB load(1, XDATA, add(CFA_XSP16, literal(-9)))
          CFI (cfiCond62) V0 load(1, XDATA, add(CFA_XSP16, literal(-8)))
          CFI (cfiCond62) V1 load(1, XDATA, add(CFA_XSP16, literal(-7)))
          CFI (cfiCond62) R7 load(1, XDATA, add(CFA_XSP16, literal(-6)))
          CFI (cfiCond62) ?RET_LOW load(1, XDATA, add(CFA_XSP16, literal(-5)))
          CFI (cfiCond62) ?RET_HIGH load(1, XDATA, add(CFA_XSP16, literal(-4)))
          CFI (cfiCond62) ?BRET_EXT load(1, XDATA, add(CFA_XSP16, literal(-3)))
          CFI (cfiCond62) DPL0 load(1, XDATA, add(CFA_XSP16, literal(-2)))
          CFI (cfiCond62) DPH0 load(1, XDATA, add(CFA_XSP16, literal(-1)))
          CFI (cfiCond62) CFA_SP SP+-2
          CFI (cfiCond62) CFA_XSP16 add(XSP16, 10)
          CFI Block cfiPicker63 Using cfiCommon1
          CFI (cfiPicker63) NoFunction
          CFI (cfiPicker63) Picker
        LCALL     ??Subroutine75_0 & 0xFFFF
??CrossCallReturnLabel_111:
        MOV       DPTR,#ZDSecMgrEntries
        LCALL     ?Subroutine71 & 0xFFFF
??CrossCallReturnLabel_208:
        MOV       A,R0
        ORL       A,R1
        RET
          CFI EndBlock cfiCond60
          CFI EndBlock cfiCond61
          CFI EndBlock cfiCond62
          CFI EndBlock cfiPicker63
//  753 
//  754 /******************************************************************************
//  755  * @fn          ZDSecMgrEntryLookupAMI
//  756  *
//  757  * @brief       Lookup entry using specified address index
//  758  *
//  759  * @param       ami   - [in] Address Manager index
//  760  * @param       entry - [out] valid entry
//  761  *
//  762  * @return      ZStatus_t
//  763  */

        RSEG BANKED_CODE:HUGECODE:NOROOT(0)
//  764 ZStatus_t ZDSecMgrEntryLookupAMI( uint16 ami, ZDSecMgrEntry_t** entry )
ZDSecMgrEntryLookupAMI:
          CFI Block cfiBlock64 Using cfiCommon0
          CFI Function ZDSecMgrEntryLookupAMI
        CODE
//  765 {
        REQUIRE ?V0
        REQUIRE ?V1
        MOV       A,#-0xa
        LCALL     ?BANKED_ENTER_XDATA
          CFI DPH0 load(1, XDATA, add(CFA_XSP16, literal(-1)))
          CFI DPL0 load(1, XDATA, add(CFA_XSP16, literal(-2)))
          CFI ?BRET_EXT load(1, XDATA, add(CFA_XSP16, literal(-3)))
          CFI ?RET_HIGH load(1, XDATA, add(CFA_XSP16, literal(-4)))
          CFI ?RET_LOW load(1, XDATA, add(CFA_XSP16, literal(-5)))
          CFI R7 load(1, XDATA, add(CFA_XSP16, literal(-6)))
          CFI V1 load(1, XDATA, add(CFA_XSP16, literal(-7)))
          CFI V0 load(1, XDATA, add(CFA_XSP16, literal(-8)))
          CFI VB load(1, XDATA, add(CFA_XSP16, literal(-9)))
          CFI R6 load(1, XDATA, add(CFA_XSP16, literal(-10)))
          CFI CFA_SP SP+0
          CFI CFA_XSP16 add(XSP16, 10)
        ; Saved register size: 10
        ; Auto size: 0
        MOV       A,R2
        MOV       R6,A
        MOV       A,R3
        MOV       R7,A
//  766   ZStatus_t status;
//  767   uint16    index;
//  768 
//  769 
//  770   // initialize results
//  771   *entry = NULL;
        MOV       DPL,R4
        MOV       DPH,R5
        LCALL     ??Subroutine78_0 & 0xFFFF
//  772   status = ZNwkUnknownDevice;
//  773 
//  774   // verify data is available
//  775   if ( ZDSecMgrEntries != NULL )
??CrossCallReturnLabel_108:
        JZ        ??ZDSecMgrEntryLookupAMI_0
//  776   {
//  777     for ( index = 0; index < ZDSECMGR_ENTRY_MAX ; index++ )
        MOV       R0,#0x0
        MOV       R1,#0x0
//  778     {
//  779       if ( ZDSecMgrEntries[index].ami == ami )
??ZDSecMgrEntryLookupAMI_1:
        MOV       A,R0
        MOV       R2,A
        MOV       A,R1
        MOV       R3,A
        MOV       A,R2
        MOV       B,#0x1d
        MUL       AB
        MOV       R2,A
        MOV       ?V1,B
        MOV       B,#0x1d
        MOV       A,R3
        MUL       AB
        ADD       A,?V1
        MOV       R3,A
        MOV       DPTR,#ZDSecMgrEntries
        LCALL     ?Subroutine47 & 0xFFFF
??CrossCallReturnLabel_55:
        XRL       A,R6
        JNZ       ??ZDSecMgrEntryLookupAMI_2
        INC       DPTR
        MOVX      A,@DPTR
        XRL       A,R7
??ZDSecMgrEntryLookupAMI_2:
        JNZ       ??CrossCallReturnLabel_104
//  780       {
//  781         // return successful results
//  782         *entry = &ZDSecMgrEntries[index];
        MOV       DPL,R4
        MOV       DPH,R5
        LCALL     ?Subroutine20 & 0xFFFF
//  783         status = ZSuccess;
//  784 
//  785         // break from loop
//  786         index = ZDSECMGR_ENTRY_MAX;
//  787       }
//  788     }
??CrossCallReturnLabel_104:
        INC       R0
        MOV       A,R0
        JNZ       ??ZDSecMgrEntryLookupAMI_3
        INC       R1
??ZDSecMgrEntryLookupAMI_3:
        LCALL     ?Subroutine57 & 0xFFFF
//  789   }
??CrossCallReturnLabel_76:
        JC        ??ZDSecMgrEntryLookupAMI_1
//  790 
//  791   return status;
??ZDSecMgrEntryLookupAMI_0:
        LJMP      ?Subroutine11 & 0xFFFF
//  792 }
          CFI EndBlock cfiBlock64

        RSEG BANKED_CODE:HUGECODE:NOROOT(0)
?Subroutine47:
          CFI Block cfiCond65 Using cfiCommon0
          CFI Function ZDSecMgrMasterKeyStore
          CFI Conditional ??CrossCallReturnLabel_54
          CFI R6 load(1, XDATA, add(CFA_XSP16, literal(-14)))
          CFI VB load(1, XDATA, add(CFA_XSP16, literal(-13)))
          CFI V0 load(1, XDATA, add(CFA_XSP16, literal(-12)))
          CFI V1 load(1, XDATA, add(CFA_XSP16, literal(-11)))
          CFI V2 load(1, XDATA, add(CFA_XSP16, literal(-10)))
          CFI V3 load(1, XDATA, add(CFA_XSP16, literal(-9)))
          CFI V4 load(1, XDATA, add(CFA_XSP16, literal(-8)))
          CFI V5 load(1, XDATA, add(CFA_XSP16, literal(-7)))
          CFI R7 load(1, XDATA, add(CFA_XSP16, literal(-6)))
          CFI ?RET_LOW load(1, XDATA, add(CFA_XSP16, literal(-5)))
          CFI ?RET_HIGH load(1, XDATA, add(CFA_XSP16, literal(-4)))
          CFI ?BRET_EXT load(1, XDATA, add(CFA_XSP16, literal(-3)))
          CFI DPL0 load(1, XDATA, add(CFA_XSP16, literal(-2)))
          CFI DPH0 load(1, XDATA, add(CFA_XSP16, literal(-1)))
          CFI CFA_SP SP+-2
          CFI CFA_XSP16 add(XSP16, 14)
          CFI Block cfiCond66 Using cfiCommon0
          CFI (cfiCond66) Function ZDSecMgrEntryLookupAMI
          CFI (cfiCond66) Conditional ??CrossCallReturnLabel_55
          CFI (cfiCond66) R6 load(1, XDATA, add(CFA_XSP16, literal(-10)))
          CFI (cfiCond66) VB load(1, XDATA, add(CFA_XSP16, literal(-9)))
          CFI (cfiCond66) V0 load(1, XDATA, add(CFA_XSP16, literal(-8)))
          CFI (cfiCond66) V1 load(1, XDATA, add(CFA_XSP16, literal(-7)))
          CFI (cfiCond66) R7 load(1, XDATA, add(CFA_XSP16, literal(-6)))
          CFI (cfiCond66) ?RET_LOW load(1, XDATA, add(CFA_XSP16, literal(-5)))
          CFI (cfiCond66) ?RET_HIGH load(1, XDATA, add(CFA_XSP16, literal(-4)))
          CFI (cfiCond66) ?BRET_EXT load(1, XDATA, add(CFA_XSP16, literal(-3)))
          CFI (cfiCond66) DPL0 load(1, XDATA, add(CFA_XSP16, literal(-2)))
          CFI (cfiCond66) DPH0 load(1, XDATA, add(CFA_XSP16, literal(-1)))
          CFI (cfiCond66) CFA_SP SP+-2
          CFI (cfiCond66) CFA_XSP16 add(XSP16, 10)
          CFI Block cfiPicker67 Using cfiCommon1
          CFI (cfiPicker67) NoFunction
          CFI (cfiPicker67) Picker
        LCALL     ?Subroutine69 & 0xFFFF
??CrossCallReturnLabel_98:
        MOVX      A,@DPTR
        RET
          CFI EndBlock cfiCond65
          CFI EndBlock cfiCond66
          CFI EndBlock cfiPicker67
//  793 
//  794 /******************************************************************************
//  795  * @fn          ZDSecMgrEntryLookupExt
//  796  *
//  797  * @brief       Lookup entry index using specified EXT address.
//  798  *
//  799  * @param       extAddr - [in] EXT address
//  800  * @param       entry   - [out] valid entry
//  801  *
//  802  * @return      ZStatus_t
//  803  */

        RSEG BANKED_CODE:HUGECODE:NOROOT(0)
//  804 ZStatus_t ZDSecMgrEntryLookupExt( uint8* extAddr, ZDSecMgrEntry_t** entry )
ZDSecMgrEntryLookupExt:
          CFI Block cfiBlock68 Using cfiCommon0
          CFI Function ZDSecMgrEntryLookupExt
        CODE
//  805 {
        FUNCALL ZDSecMgrEntryLookupExt, ZDSecMgrExtAddrLookup
        LOCFRAME ISTACK, 0, STACK
        LOCFRAME PSTACK, 0, STACK
        LOCFRAME XSTACK, 11, STACK
        LOCFRAME IOVERLAY, 0, STATIC
        LOCFRAME DOVERLAY, 0, STATIC
        ARGFRAME ISTACK, 0, STACK
        ARGFRAME PSTACK, 0, STACK
        ARGFRAME XSTACK, 11, STACK
        ARGFRAME IOVERLAY, 0, STATIC
        ARGFRAME DOVERLAY, 0, STATIC
        FUNCALL ZDSecMgrEntryLookupExt, ZDSecMgrEntryLookupAMI
        LOCFRAME ISTACK, 0, STACK
        LOCFRAME PSTACK, 0, STACK
        LOCFRAME XSTACK, 11, STACK
        LOCFRAME IOVERLAY, 0, STATIC
        LOCFRAME DOVERLAY, 0, STATIC
        ARGFRAME ISTACK, 0, STACK
        ARGFRAME PSTACK, 0, STACK
        ARGFRAME XSTACK, 11, STACK
        ARGFRAME IOVERLAY, 0, STATIC
        ARGFRAME DOVERLAY, 0, STATIC
        REQUIRE ?V0
        MOV       A,#-0x9
        LCALL     ?BANKED_ENTER_XDATA
          CFI DPH0 load(1, XDATA, add(CFA_XSP16, literal(-1)))
          CFI DPL0 load(1, XDATA, add(CFA_XSP16, literal(-2)))
          CFI ?BRET_EXT load(1, XDATA, add(CFA_XSP16, literal(-3)))
          CFI ?RET_HIGH load(1, XDATA, add(CFA_XSP16, literal(-4)))
          CFI ?RET_LOW load(1, XDATA, add(CFA_XSP16, literal(-5)))
          CFI R7 load(1, XDATA, add(CFA_XSP16, literal(-6)))
          CFI V0 load(1, XDATA, add(CFA_XSP16, literal(-7)))
          CFI VB load(1, XDATA, add(CFA_XSP16, literal(-8)))
          CFI R6 load(1, XDATA, add(CFA_XSP16, literal(-9)))
          CFI CFA_SP SP+0
          CFI CFA_XSP16 add(XSP16, 9)
        ; Saved register size: 9
        ; Auto size: 2
        MOV       A,#-0x2
        LCALL     ?ALLOC_XSTACK8
          CFI CFA_XSP16 add(XSP16, 11)
        LCALL     ?Subroutine64 & 0xFFFF
//  806   ZStatus_t status;
//  807   uint16    ami;
//  808 
//  809 
//  810   // initialize results
//  811   *entry = NULL;
//  812   status = ZNwkUnknownDevice;
//  813 
//  814   // lookup address index
//  815   if ( ZDSecMgrExtAddrLookup( extAddr, &ami ) == ZSuccess )
??CrossCallReturnLabel_110:
        ; Setup parameters for call to function ZDSecMgrExtAddrLookup
        MOV       R4,?XSP + 0
        MOV       R5,?XSP + 1
        LCALL     `??ZDSecMgrExtAddrLookup::?relay`; Banked call to: ZDSecMgrExtAddrLookup
        MOV       A,R1
        JNZ       ??ZDSecMgrEntryLookupExt_0
//  816   {
//  817     status = ZDSecMgrEntryLookupAMI( ami, entry );
        ; Setup parameters for call to function ZDSecMgrEntryLookupAMI
        MOV       A,R6
        MOV       R4,A
        MOV       A,R7
        MOV       R5,A
        MOV       DPL,?XSP + 0
        MOV       DPH,?XSP + 1
        LCALL     ?Subroutine52 & 0xFFFF
//  818   }
??CrossCallReturnLabel_63:
        MOV       A,R1
        MOV       ?V0,A
//  819 
//  820   return status;
??ZDSecMgrEntryLookupExt_0:
        LJMP      ?Subroutine1 & 0xFFFF
//  821 }
          CFI EndBlock cfiBlock68
//  822 
//  823 /******************************************************************************
//  824  * @fn          ZDSecMgrEntryFree
//  825  *
//  826  * @brief       Free entry.
//  827  *
//  828  * @param       entry - [in] valid entry
//  829  *
//  830  * @return      ZStatus_t
//  831  */

        RSEG BANKED_CODE:HUGECODE:NOROOT(0)
//  832 void ZDSecMgrEntryFree( ZDSecMgrEntry_t* entry )
ZDSecMgrEntryFree:
          CFI Block cfiBlock69 Using cfiCommon0
          CFI Function ZDSecMgrEntryFree
        CODE
//  833 {
        PUSH      DPL
          CFI DPL0 Frame(CFA_SP, 4)
          CFI CFA_SP SP+-4
        PUSH      DPH
          CFI DPH0 Frame(CFA_SP, 5)
          CFI CFA_SP SP+-5
        ; Saved register size: 2
        ; Auto size: 0
//  834   entry->ami = INVALID_NODE_ADDR;
        MOV       DPL,R2
        MOV       DPH,R3
        MOV       A,#-0x2
        MOVX      @DPTR,A
        INC       DPTR
        INC       A
        MOVX      @DPTR,A
//  835 }
        LJMP      ??Subroutine86_0 & 0xFFFF
          CFI EndBlock cfiBlock69
//  836 
//  837 /******************************************************************************
//  838  * @fn          ZDSecMgrEntryNew
//  839  *
//  840  * @brief       Get a new entry.
//  841  *
//  842  * @param       entry - [out] valid entry
//  843  *
//  844  * @return      ZStatus_t
//  845  */

        RSEG BANKED_CODE:HUGECODE:NOROOT(0)
//  846 ZStatus_t ZDSecMgrEntryNew( ZDSecMgrEntry_t** entry )
ZDSecMgrEntryNew:
          CFI Block cfiBlock70 Using cfiCommon0
          CFI Function ZDSecMgrEntryNew
        CODE
//  847 {
        REQUIRE ?V0
        REQUIRE ?V1
        MOV       A,#-0xa
        LCALL     ?BANKED_ENTER_XDATA
          CFI DPH0 load(1, XDATA, add(CFA_XSP16, literal(-1)))
          CFI DPL0 load(1, XDATA, add(CFA_XSP16, literal(-2)))
          CFI ?BRET_EXT load(1, XDATA, add(CFA_XSP16, literal(-3)))
          CFI ?RET_HIGH load(1, XDATA, add(CFA_XSP16, literal(-4)))
          CFI ?RET_LOW load(1, XDATA, add(CFA_XSP16, literal(-5)))
          CFI R7 load(1, XDATA, add(CFA_XSP16, literal(-6)))
          CFI V1 load(1, XDATA, add(CFA_XSP16, literal(-7)))
          CFI V0 load(1, XDATA, add(CFA_XSP16, literal(-8)))
          CFI VB load(1, XDATA, add(CFA_XSP16, literal(-9)))
          CFI R6 load(1, XDATA, add(CFA_XSP16, literal(-10)))
          CFI CFA_SP SP+0
          CFI CFA_XSP16 add(XSP16, 10)
        ; Saved register size: 10
        ; Auto size: 0
        MOV       A,R2
        MOV       R6,A
        MOV       A,R3
        MOV       R7,A
//  848   ZStatus_t status;
//  849   uint16    index;
//  850 
//  851 
//  852   // initialize results
//  853   *entry = NULL;
        MOV       DPL,R2
        LCALL     ?Subroutine15 & 0xFFFF
//  854   status = ZNwkUnknownDevice;
//  855 
//  856   // verify data is available
//  857   if ( ZDSecMgrEntries != NULL )
??CrossCallReturnLabel_107:
        JZ        ??ZDSecMgrEntryNew_0
//  858   {
//  859     // find available entry
//  860     for ( index = 0; index < ZDSECMGR_ENTRY_MAX ; index++ )
        MOV       R2,#0x0
        MOV       R3,#0x0
//  861     {
//  862       if ( ZDSecMgrEntries[index].ami == INVALID_NODE_ADDR )
??ZDSecMgrEntryNew_1:
        MOV       A,R2
        MOV       R0,A
        MOV       A,R3
        MOV       R1,A
        MOV       A,R0
        MOV       B,#0x1d
        MUL       AB
        MOV       R0,A
        MOV       R4,B
        MOV       B,#0x1d
        MOV       A,R1
        MUL       AB
        ADD       A,R4
        MOV       R1,A
        MOV       DPTR,#ZDSecMgrEntries
        MOVX      A,@DPTR
        ADD       A,R0
        MOV       R4,A
        INC       DPTR
        MOVX      A,@DPTR
        ADDC      A,R1
        MOV       R5,A
        MOV       DPL,R4
        MOV       DPH,A
        MOVX      A,@DPTR
        XRL       A,#0xfe
        JNZ       ??ZDSecMgrEntryNew_2
        INC       DPTR
        MOVX      A,@DPTR
        CPL       A
??ZDSecMgrEntryNew_2:
        JNZ       ??ZDSecMgrEntryNew_3
//  863       {
//  864         // return successful result
//  865         *entry = &ZDSecMgrEntries[index];
        MOV       DPL,R6
        MOV       DPH,R7
        MOV       A,R4
        MOVX      @DPTR,A
        INC       DPTR
        MOV       A,R5
        MOVX      @DPTR,A
//  866         status = ZSuccess;
        MOV       ?V0,#0x0
//  867 
//  868         // Set the authentication option to default
//  869         ZDSecMgrEntries[index].authenticateOption = ZDSecMgr_Not_Authenticated;
        MOV       DPTR,#ZDSecMgrEntries
        MOVX      A,@DPTR
        ADD       A,R0
        MOV       R0,A
        INC       DPTR
        MOVX      A,@DPTR
        ADDC      A,R1
        MOV       R1,A
        MOV       A,R0
        ADD       A,#0x1c
        MOV       DPL,A
        CLR       A
        ADDC      A,R1
        MOV       DPH,A
        CLR       A
        MOVX      @DPTR,A
//  870 
//  871         // break from loop
//  872         index = ZDSECMGR_ENTRY_MAX;
        MOV       R2,#0x3
        MOV       R3,A
//  873       }
//  874     }
??ZDSecMgrEntryNew_3:
        INC       R2
        MOV       A,R2
        JNZ       ??ZDSecMgrEntryNew_4
        INC       R3
??ZDSecMgrEntryNew_4:
        CLR       C
        SUBB      A,#0x3
        MOV       A,R3
        SUBB      A,#0x0
        JC        ??ZDSecMgrEntryNew_1
//  875   }
//  876 
//  877   return status;
??ZDSecMgrEntryNew_0:
        LJMP      ?Subroutine11 & 0xFFFF
//  878 }
          CFI EndBlock cfiBlock70
//  879 
//  880 /******************************************************************************
//  881  * @fn          ZDSecMgrCtrlInit
//  882  *
//  883  * @brief       Initialize control sub module
//  884  *
//  885  * @param       none
//  886  *
//  887  * @return      none
//  888  */

        RSEG BANKED_CODE:HUGECODE:NOROOT(0)
//  889 void ZDSecMgrCtrlInit( void )
ZDSecMgrCtrlInit:
          CFI Block cfiBlock71 Using cfiCommon0
          CFI Function ZDSecMgrCtrlInit
        CODE
//  890 {
        FUNCALL ZDSecMgrCtrlInit, osal_mem_alloc
        LOCFRAME ISTACK, 2, STACK
        LOCFRAME PSTACK, 0, STACK
        LOCFRAME XSTACK, 0, STACK
        LOCFRAME IOVERLAY, 0, STATIC
        LOCFRAME DOVERLAY, 0, STATIC
        ARGFRAME ISTACK, 2, STACK
        ARGFRAME PSTACK, 0, STACK
        ARGFRAME XSTACK, 0, STACK
        ARGFRAME IOVERLAY, 0, STATIC
        ARGFRAME DOVERLAY, 0, STATIC
        PUSH      DPL
          CFI DPL0 Frame(CFA_SP, 4)
          CFI CFA_SP SP+-4
        PUSH      DPH
          CFI DPH0 Frame(CFA_SP, 5)
          CFI CFA_SP SP+-5
        ; Saved register size: 2
        ; Auto size: 0
//  891   uint16 size;
//  892   uint16 index;
//  893 
//  894   // allocate entry data
//  895   size = (short)( sizeof(ZDSecMgrCtrl_t) * ZDSECMGR_CTRL_MAX );
//  896 
//  897   ZDSecMgrCtrlData = osal_mem_alloc( size );
        ; Setup parameters for call to function osal_mem_alloc
        MOV       R2,#0x15
        MOV       R3,#0x0
        LCALL     `??osal_mem_alloc::?relay`; Banked call to: osal_mem_alloc
        MOV       DPTR,#ZDSecMgrCtrlData
        LCALL     ?Subroutine24 & 0xFFFF
//  898 
//  899   // initialize data
//  900   if ( ZDSecMgrCtrlData != NULL )
??CrossCallReturnLabel_14:
        JZ        ??ZDSecMgrCtrlInit_0
//  901   {
//  902     for( index = 0; index < ZDSECMGR_CTRL_MAX; index++ )
        MOV       R0,#0x0
        MOV       R1,#0x0
//  903     {
//  904       ZDSecMgrCtrlData[index].state = ZDSECMGR_CTRL_NONE;
??ZDSecMgrCtrlInit_1:
        MOV       A,R0
        MOV       R2,A
        MOV       A,R1
        MOV       R3,A
        MOV       A,R2
        MOV       B,#0x7
        MUL       AB
        MOV       R2,A
        MOV       R4,B
        MOV       B,#0x7
        MOV       A,R3
        MUL       AB
        ADD       A,R4
        MOV       R3,A
        MOV       DPTR,#ZDSecMgrCtrlData
        LCALL     ?Subroutine72 & 0xFFFF
//  905     }
??CrossCallReturnLabel_101:
        INC       DPTR
        INC       DPTR
        INC       DPTR
        INC       DPTR
        INC       DPTR
        CLR       A
        MOVX      @DPTR,A
        INC       R0
        MOV       A,R0
        JNZ       ??ZDSecMgrCtrlInit_2
        INC       R1
??ZDSecMgrCtrlInit_2:
        LCALL     ?Subroutine57 & 0xFFFF
//  906   }
??CrossCallReturnLabel_77:
        JC        ??ZDSecMgrCtrlInit_1
//  907 }
??ZDSecMgrCtrlInit_0:
        LJMP      ??Subroutine86_0 & 0xFFFF
          CFI EndBlock cfiBlock71

        RSEG BANKED_CODE:HUGECODE:NOROOT(0)
?Subroutine72:
          CFI Block cfiCond72 Using cfiCommon0
          CFI Function ZDSecMgrMasterKeyInit
          CFI Conditional ??CrossCallReturnLabel_102, ??CrossCallReturnLabel_39
          CFI DPL0 Frame(CFA_SP, 4)
          CFI DPH0 Frame(CFA_SP, 5)
          CFI CFA_SP SP+-9
          CFI Block cfiCond73 Using cfiCommon0
          CFI (cfiCond73) Function ZDSecMgrEntryInit
          CFI (cfiCond73) Conditional ??CrossCallReturnLabel_102, ??CrossCallReturnLabel_40
          CFI (cfiCond73) DPL0 Frame(CFA_SP, 4)
          CFI (cfiCond73) DPH0 Frame(CFA_SP, 5)
          CFI (cfiCond73) CFA_SP SP+-9
          CFI Block cfiCond74 Using cfiCommon0
          CFI (cfiCond74) Function ZDSecMgrCtrlInit
          CFI (cfiCond74) Conditional ??CrossCallReturnLabel_101
          CFI (cfiCond74) DPL0 Frame(CFA_SP, 4)
          CFI (cfiCond74) DPH0 Frame(CFA_SP, 5)
          CFI (cfiCond74) CFA_SP SP+-7
          CFI Block cfiPicker75 Using cfiCommon1
          CFI (cfiPicker75) NoFunction
          CFI (cfiPicker75) Picker
        MOVX      A,@DPTR
        ADD       A,R2
        MOV       R4,A
        INC       DPTR
        MOVX      A,@DPTR
        ADDC      A,R3
        MOV       DPL,R4
        MOV       DPH,A
        RET
          CFI EndBlock cfiCond72
          CFI EndBlock cfiCond73
          CFI EndBlock cfiCond74
          CFI EndBlock cfiPicker75
//  908 
//  909 /******************************************************************************
//  910  * @fn          ZDSecMgrCtrlRelease
//  911  *
//  912  * @brief       Release control data.
//  913  *
//  914  * @param       ctrl - [in] valid control data
//  915  *
//  916  * @return      none
//  917  */

        RSEG BANKED_CODE:HUGECODE:NOROOT(0)
//  918 void ZDSecMgrCtrlRelease( ZDSecMgrCtrl_t* ctrl )
ZDSecMgrCtrlRelease:
          CFI Block cfiBlock76 Using cfiCommon0
          CFI Function ZDSecMgrCtrlRelease
        CODE
//  919 {
        PUSH      DPL
          CFI DPL0 Frame(CFA_SP, 4)
          CFI CFA_SP SP+-4
        PUSH      DPH
          CFI DPH0 Frame(CFA_SP, 5)
          CFI CFA_SP SP+-5
        ; Saved register size: 2
        ; Auto size: 0
//  920   // should always be enough entry control data
//  921   ctrl->state = ZDSECMGR_CTRL_NONE;
        MOV       DPL,R2
        MOV       DPH,R3
        INC       DPTR
        INC       DPTR
        INC       DPTR
        INC       DPTR
        INC       DPTR
        CLR       A
        MOVX      @DPTR,A
//  922 }
        LJMP      ??Subroutine86_0 & 0xFFFF
          CFI EndBlock cfiBlock76
//  923 
//  924 /******************************************************************************
//  925  * @fn          ZDSecMgrCtrlLookup
//  926  *
//  927  * @brief       Lookup control data.
//  928  *
//  929  * @param       entry - [in] valid entry data
//  930  * @param       ctrl  - [out] control data - NULL if not found
//  931  *
//  932  * @return      none
//  933  */

        RSEG BANKED_CODE:HUGECODE:NOROOT(0)
//  934 void ZDSecMgrCtrlLookup( ZDSecMgrEntry_t* entry, ZDSecMgrCtrl_t** ctrl )
ZDSecMgrCtrlLookup:
          CFI Block cfiBlock77 Using cfiCommon0
          CFI Function ZDSecMgrCtrlLookup
        CODE
//  935 {
        REQUIRE ?V0
        REQUIRE ?V1
        MOV       A,#-0xa
        LCALL     ?BANKED_ENTER_XDATA
          CFI DPH0 load(1, XDATA, add(CFA_XSP16, literal(-1)))
          CFI DPL0 load(1, XDATA, add(CFA_XSP16, literal(-2)))
          CFI ?BRET_EXT load(1, XDATA, add(CFA_XSP16, literal(-3)))
          CFI ?RET_HIGH load(1, XDATA, add(CFA_XSP16, literal(-4)))
          CFI ?RET_LOW load(1, XDATA, add(CFA_XSP16, literal(-5)))
          CFI R7 load(1, XDATA, add(CFA_XSP16, literal(-6)))
          CFI V1 load(1, XDATA, add(CFA_XSP16, literal(-7)))
          CFI V0 load(1, XDATA, add(CFA_XSP16, literal(-8)))
          CFI VB load(1, XDATA, add(CFA_XSP16, literal(-9)))
          CFI R6 load(1, XDATA, add(CFA_XSP16, literal(-10)))
          CFI CFA_SP SP+0
          CFI CFA_XSP16 add(XSP16, 10)
        ; Saved register size: 10
        ; Auto size: 0
        MOV       A,R2
        MOV       R6,A
        MOV       A,R3
        MOV       R7,A
//  936   uint16 index;
//  937 
//  938 
//  939   // initialize search results
//  940   *ctrl = NULL;
        MOV       DPL,R4
        MOV       DPH,R5
        CLR       A
        MOVX      @DPTR,A
        INC       DPTR
        MOVX      @DPTR,A
//  941 
//  942   // verify data is available
//  943   if ( ZDSecMgrCtrlData != NULL )
        MOV       DPTR,#ZDSecMgrCtrlData
        LCALL     ??Subroutine94_0 & 0xFFFF
??CrossCallReturnLabel_168:
        JZ        ??ZDSecMgrCtrlLookup_0
//  944   {
//  945     for ( index = 0; index < ZDSECMGR_CTRL_MAX; index++ )
        MOV       R0,#0x0
        MOV       R1,#0x0
//  946     {
//  947       // make sure control data is in use
//  948       if ( ZDSecMgrCtrlData[index].state != ZDSECMGR_CTRL_NONE )
??ZDSecMgrCtrlLookup_1:
        MOV       A,R0
        MOV       R2,A
        MOV       A,R1
        MOV       R3,A
        MOV       A,R2
        MOV       B,#0x7
        MUL       AB
        MOV       R2,A
        MOV       ?V0,B
        MOV       B,#0x7
        MOV       A,R3
        MUL       AB
        ADD       A,?V0
        LCALL     ?Subroutine40 & 0xFFFF
??CrossCallReturnLabel_41:
        JZ        ??ZDSecMgrCtrlLookup_2
//  949       {
//  950         // check for entry match
//  951         if ( ZDSecMgrCtrlData[index].entry == entry )
        MOV       DPL,R2
        MOV       DPH,R3
        MOVX      A,@DPTR
        MOV       ?V0,A
        INC       DPTR
        MOVX      A,@DPTR
        MOV       ?V1,A
        MOV       A,R6
        XRL       A,?V0
        JNZ       ??ZDSecMgrCtrlLookup_3
        MOV       A,R7
        XRL       A,?V1
??ZDSecMgrCtrlLookup_3:
        JNZ       ??ZDSecMgrCtrlLookup_2
//  952         {
//  953           // return this control data
//  954           *ctrl = &ZDSecMgrCtrlData[index];
        MOV       DPL,R4
        MOV       DPH,R5
        LCALL     ?Subroutine35 & 0xFFFF
//  955 
//  956           // break from loop
//  957           index = ZDSECMGR_CTRL_MAX;
??CrossCallReturnLabel_31:
        MOV       R0,#0x3
        MOV       R1,#0x0
//  958         }
//  959       }
//  960     }
??ZDSecMgrCtrlLookup_2:
        INC       R0
        MOV       A,R0
        JNZ       ??ZDSecMgrCtrlLookup_4
        INC       R1
??ZDSecMgrCtrlLookup_4:
        LCALL     ?Subroutine57 & 0xFFFF
//  961   }
??CrossCallReturnLabel_78:
        JC        ??ZDSecMgrCtrlLookup_1
//  962 }
??ZDSecMgrCtrlLookup_0:
        LJMP      ??Subroutine102_0 & 0xFFFF
          CFI EndBlock cfiBlock77
//  963 
//  964 /******************************************************************************
//  965  * @fn          ZDSecMgrCtrlSet
//  966  *
//  967  * @brief       Set control data.
//  968  *
//  969  * @param       device - [in] valid device data
//  970  * @param       entry  - [in] valid entry data
//  971  * @param       ctrl   - [in] valid control data
//  972  *
//  973  * @return      none
//  974  */

        RSEG BANKED_CODE:HUGECODE:NOROOT(0)
//  975 void ZDSecMgrCtrlSet( ZDSecMgrDevice_t* device,
ZDSecMgrCtrlSet:
          CFI Block cfiBlock78 Using cfiCommon0
          CFI Function ZDSecMgrCtrlSet
        CODE
//  976                       ZDSecMgrEntry_t*  entry,
//  977                       ZDSecMgrCtrl_t*   ctrl )
//  978 {
        REQUIRE ?V0
        MOV       A,#-0x9
        LCALL     ?BANKED_ENTER_XDATA
          CFI DPH0 load(1, XDATA, add(CFA_XSP16, literal(-1)))
          CFI DPL0 load(1, XDATA, add(CFA_XSP16, literal(-2)))
          CFI ?BRET_EXT load(1, XDATA, add(CFA_XSP16, literal(-3)))
          CFI ?RET_HIGH load(1, XDATA, add(CFA_XSP16, literal(-4)))
          CFI ?RET_LOW load(1, XDATA, add(CFA_XSP16, literal(-5)))
          CFI R7 load(1, XDATA, add(CFA_XSP16, literal(-6)))
          CFI V0 load(1, XDATA, add(CFA_XSP16, literal(-7)))
          CFI VB load(1, XDATA, add(CFA_XSP16, literal(-8)))
          CFI R6 load(1, XDATA, add(CFA_XSP16, literal(-9)))
          CFI CFA_SP SP+0
          CFI CFA_XSP16 add(XSP16, 9)
        ; Saved register size: 9
        ; Auto size: 0
        MOV       A,#0x9
        LCALL     ?XSTACK_DISP0_8
        LCALL     ??Subroutine99_0 & 0xFFFF
//  979   // set control date
//  980   ctrl->parentAddr = device->parentAddr;
??CrossCallReturnLabel_195:
        MOV       DPL,R2
        MOV       DPH,R3
        INC       DPTR
        INC       DPTR
        INC       DPTR
        INC       DPTR
        MOVX      A,@DPTR
        MOV       R6,A
        INC       DPTR
        MOVX      A,@DPTR
        MOV       R7,A
        MOV       DPL,R0
        MOV       DPH,R1
        INC       DPTR
        INC       DPTR
        MOV       A,R6
        MOVX      @DPTR,A
        INC       DPTR
        MOV       A,R7
        LCALL     ?Subroutine25 & 0xFFFF
//  981   ctrl->secure     = device->secure;
??CrossCallReturnLabel_15:
        MOVX      A,@DPTR
        MOV       DPL,R0
        MOV       DPH,R1
        INC       DPTR
        INC       DPTR
        INC       DPTR
        INC       DPTR
        LCALL     ?Subroutine65 & 0xFFFF
//  982   ctrl->entry      = entry;
??CrossCallReturnLabel_90:
        MOV       A,R4
        MOVX      @DPTR,A
        INC       DPTR
        MOV       A,R5
        LCALL     ?Subroutine26 & 0xFFFF
//  983   ctrl->state      = ZDSECMGR_CTRL_INIT;
??CrossCallReturnLabel_17:
        MOV       A,#0x1
        LCALL     ?Subroutine26 & 0xFFFF
//  984   ctrl->cntr       = 0;
??CrossCallReturnLabel_18:
        INC       DPTR
        CLR       A
        LCALL     ?Subroutine25 & 0xFFFF
//  985 
//  986   // set device pointer
//  987   device->ctrl = ctrl;
??CrossCallReturnLabel_16:
        INC       DPTR
        INC       DPTR
        LCALL     ??Subroutine91_0 & 0xFFFF
//  988 }
??CrossCallReturnLabel_149:
        LJMP      ??Subroutine89_0 & 0xFFFF
          CFI EndBlock cfiBlock78

        RSEG BANKED_CODE:HUGECODE:NOROOT(0)
?Subroutine26:
          CFI Block cfiCond79 Using cfiCommon0
          CFI Function ZDSecMgrCtrlSet
          CFI Conditional ??CrossCallReturnLabel_17
          CFI R6 load(1, XDATA, add(CFA_XSP16, literal(-9)))
          CFI VB load(1, XDATA, add(CFA_XSP16, literal(-8)))
          CFI V0 load(1, XDATA, add(CFA_XSP16, literal(-7)))
          CFI R7 load(1, XDATA, add(CFA_XSP16, literal(-6)))
          CFI ?RET_LOW load(1, XDATA, add(CFA_XSP16, literal(-5)))
          CFI ?RET_HIGH load(1, XDATA, add(CFA_XSP16, literal(-4)))
          CFI ?BRET_EXT load(1, XDATA, add(CFA_XSP16, literal(-3)))
          CFI DPL0 load(1, XDATA, add(CFA_XSP16, literal(-2)))
          CFI DPH0 load(1, XDATA, add(CFA_XSP16, literal(-1)))
          CFI CFA_SP SP+-2
          CFI CFA_XSP16 add(XSP16, 9)
          CFI Block cfiCond80 Using cfiCommon0
          CFI (cfiCond80) Function ZDSecMgrCtrlSet
          CFI (cfiCond80) Conditional ??CrossCallReturnLabel_18
          CFI (cfiCond80) R6 load(1, XDATA, add(CFA_XSP16, literal(-9)))
          CFI (cfiCond80) VB load(1, XDATA, add(CFA_XSP16, literal(-8)))
          CFI (cfiCond80) V0 load(1, XDATA, add(CFA_XSP16, literal(-7)))
          CFI (cfiCond80) R7 load(1, XDATA, add(CFA_XSP16, literal(-6)))
          CFI (cfiCond80) ?RET_LOW load(1, XDATA, add(CFA_XSP16, literal(-5)))
          CFI (cfiCond80) ?RET_HIGH load(1, XDATA, add(CFA_XSP16, literal(-4)))
          CFI (cfiCond80) ?BRET_EXT load(1, XDATA, add(CFA_XSP16, literal(-3)))
          CFI (cfiCond80) DPL0 load(1, XDATA, add(CFA_XSP16, literal(-2)))
          CFI (cfiCond80) DPH0 load(1, XDATA, add(CFA_XSP16, literal(-1)))
          CFI (cfiCond80) CFA_SP SP+-2
          CFI (cfiCond80) CFA_XSP16 add(XSP16, 9)
          CFI Block cfiPicker81 Using cfiCommon1
          CFI (cfiPicker81) NoFunction
          CFI (cfiPicker81) Picker
        LCALL     ?Subroutine65 & 0xFFFF
??CrossCallReturnLabel_91:
        INC       DPTR
        INC       DPTR
        INC       DPTR
        INC       DPTR
        INC       DPTR
        RET
          CFI EndBlock cfiCond79
          CFI EndBlock cfiCond80
          CFI EndBlock cfiPicker81

        RSEG BANKED_CODE:HUGECODE:NOROOT(0)
?Subroutine25:
          CFI Block cfiCond82 Using cfiCommon0
          CFI Function ZDSecMgrCtrlSet
          CFI Conditional ??CrossCallReturnLabel_15
          CFI R6 load(1, XDATA, add(CFA_XSP16, literal(-9)))
          CFI VB load(1, XDATA, add(CFA_XSP16, literal(-8)))
          CFI V0 load(1, XDATA, add(CFA_XSP16, literal(-7)))
          CFI R7 load(1, XDATA, add(CFA_XSP16, literal(-6)))
          CFI ?RET_LOW load(1, XDATA, add(CFA_XSP16, literal(-5)))
          CFI ?RET_HIGH load(1, XDATA, add(CFA_XSP16, literal(-4)))
          CFI ?BRET_EXT load(1, XDATA, add(CFA_XSP16, literal(-3)))
          CFI DPL0 load(1, XDATA, add(CFA_XSP16, literal(-2)))
          CFI DPH0 load(1, XDATA, add(CFA_XSP16, literal(-1)))
          CFI CFA_SP SP+-2
          CFI CFA_XSP16 add(XSP16, 9)
          CFI Block cfiCond83 Using cfiCommon0
          CFI (cfiCond83) Function ZDSecMgrCtrlSet
          CFI (cfiCond83) Conditional ??CrossCallReturnLabel_16
          CFI (cfiCond83) R6 load(1, XDATA, add(CFA_XSP16, literal(-9)))
          CFI (cfiCond83) VB load(1, XDATA, add(CFA_XSP16, literal(-8)))
          CFI (cfiCond83) V0 load(1, XDATA, add(CFA_XSP16, literal(-7)))
          CFI (cfiCond83) R7 load(1, XDATA, add(CFA_XSP16, literal(-6)))
          CFI (cfiCond83) ?RET_LOW load(1, XDATA, add(CFA_XSP16, literal(-5)))
          CFI (cfiCond83) ?RET_HIGH load(1, XDATA, add(CFA_XSP16, literal(-4)))
          CFI (cfiCond83) ?BRET_EXT load(1, XDATA, add(CFA_XSP16, literal(-3)))
          CFI (cfiCond83) DPL0 load(1, XDATA, add(CFA_XSP16, literal(-2)))
          CFI (cfiCond83) DPH0 load(1, XDATA, add(CFA_XSP16, literal(-1)))
          CFI (cfiCond83) CFA_SP SP+-2
          CFI (cfiCond83) CFA_XSP16 add(XSP16, 9)
          CFI Block cfiPicker84 Using cfiCommon1
          CFI (cfiPicker84) NoFunction
          CFI (cfiPicker84) Picker
        MOVX      @DPTR,A
        MOV       DPL,R2
        MOV       DPH,R3
        INC       DPTR
        INC       DPTR
        INC       DPTR
        INC       DPTR
        INC       DPTR
        INC       DPTR
        RET
          CFI EndBlock cfiCond82
          CFI EndBlock cfiCond83
          CFI EndBlock cfiPicker84
//  989 
//  990 /******************************************************************************
//  991  * @fn          ZDSecMgrCtrlAdd
//  992  *
//  993  * @brief       Add control data.
//  994  *
//  995  * @param       device - [in] valid device data
//  996  * @param       entry  - [in] valid entry data
//  997  *
//  998  * @return      ZStatus_t
//  999  */

        RSEG BANKED_CODE:HUGECODE:NOROOT(0)
// 1000 ZStatus_t ZDSecMgrCtrlAdd( ZDSecMgrDevice_t* device, ZDSecMgrEntry_t*  entry )
ZDSecMgrCtrlAdd:
          CFI Block cfiBlock85 Using cfiCommon0
          CFI Function ZDSecMgrCtrlAdd
        CODE
// 1001 {
        FUNCALL ZDSecMgrCtrlAdd, ZDSecMgrCtrlSet
        LOCFRAME ISTACK, 0, STACK
        LOCFRAME PSTACK, 0, STACK
        LOCFRAME XSTACK, 14, STACK
        LOCFRAME IOVERLAY, 0, STATIC
        LOCFRAME DOVERLAY, 0, STATIC
        ARGFRAME ISTACK, 0, STACK
        ARGFRAME PSTACK, 0, STACK
        ARGFRAME XSTACK, 14, STACK
        ARGFRAME IOVERLAY, 0, STATIC
        ARGFRAME DOVERLAY, 0, STATIC
        REQUIRE ?V0
        REQUIRE ?V1
        REQUIRE ?V2
        REQUIRE ?V3
        MOV       A,#-0xc
        LCALL     ?BANKED_ENTER_XDATA
          CFI DPH0 load(1, XDATA, add(CFA_XSP16, literal(-1)))
          CFI DPL0 load(1, XDATA, add(CFA_XSP16, literal(-2)))
          CFI ?BRET_EXT load(1, XDATA, add(CFA_XSP16, literal(-3)))
          CFI ?RET_HIGH load(1, XDATA, add(CFA_XSP16, literal(-4)))
          CFI ?RET_LOW load(1, XDATA, add(CFA_XSP16, literal(-5)))
          CFI R7 load(1, XDATA, add(CFA_XSP16, literal(-6)))
          CFI V3 load(1, XDATA, add(CFA_XSP16, literal(-7)))
          CFI V2 load(1, XDATA, add(CFA_XSP16, literal(-8)))
          CFI V1 load(1, XDATA, add(CFA_XSP16, literal(-9)))
          CFI V0 load(1, XDATA, add(CFA_XSP16, literal(-10)))
          CFI VB load(1, XDATA, add(CFA_XSP16, literal(-11)))
          CFI R6 load(1, XDATA, add(CFA_XSP16, literal(-12)))
          CFI CFA_SP SP+0
          CFI CFA_XSP16 add(XSP16, 12)
        ; Saved register size: 12
        ; Auto size: 0
        MOV       ?V0,R2
        MOV       ?V1,R3
        MOV       A,R4
        MOV       R6,A
        MOV       A,R5
        MOV       R7,A
// 1002   ZStatus_t status;
// 1003   uint16    index;
// 1004 
// 1005 
// 1006   // initialize results
// 1007   status = ZNwkUnknownDevice;
        MOV       R4,#-0x38
// 1008 
// 1009   // verify data is available
// 1010   if ( ZDSecMgrCtrlData != NULL )
        MOV       DPTR,#ZDSecMgrCtrlData
        LCALL     ??Subroutine94_0 & 0xFFFF
??CrossCallReturnLabel_169:
        JZ        ??ZDSecMgrCtrlAdd_0
// 1011   {
// 1012     // look for an empty slot
// 1013     for ( index = 0; index < ZDSECMGR_CTRL_MAX; index++ )
        MOV       R0,#0x0
        MOV       R1,#0x0
// 1014     {
// 1015       if ( ZDSecMgrCtrlData[index].state == ZDSECMGR_CTRL_NONE )
??ZDSecMgrCtrlAdd_1:
        MOV       A,R0
        MOV       R2,A
        MOV       A,R1
        MOV       R3,A
        MOV       A,R2
        MOV       B,#0x7
        MUL       AB
        MOV       R2,A
        MOV       R5,B
        MOV       B,#0x7
        MOV       A,R3
        MUL       AB
        ADD       A,R5
        LCALL     ?Subroutine40 & 0xFFFF
??CrossCallReturnLabel_42:
        JNZ       ??ZDSecMgrCtrlAdd_2
// 1016       {
// 1017         // return successful results
// 1018         ZDSecMgrCtrlSet( device, entry, &ZDSecMgrCtrlData[index] );
        ; Setup parameters for call to function ZDSecMgrCtrlSet
        MOV       ?V2,R2
        MOV       ?V3,R3
        MOV       R0,#?V2
        LCALL     ?PUSH_XSTACK_I_TWO
          CFI CFA_XSP16 add(XSP16, 14)
        MOV       A,R6
        MOV       R4,A
        MOV       A,R7
        MOV       R5,A
        MOV       R2,?V0
        MOV       R3,?V1
        LCALL     `??ZDSecMgrCtrlSet::?relay`; Banked call to: ZDSecMgrCtrlSet
        MOV       A,#0x2
        LCALL     ?DEALLOC_XSTACK8
          CFI CFA_XSP16 add(XSP16, 12)
// 1019 
// 1020         status = ZSuccess;
        MOV       R4,#0x0
// 1021 
// 1022         // break from loop
// 1023         index = ZDSECMGR_CTRL_MAX;
        MOV       R0,#0x3
        MOV       R1,#0x0
// 1024       }
// 1025     }
??ZDSecMgrCtrlAdd_2:
        INC       R0
        MOV       A,R0
        JNZ       ??ZDSecMgrCtrlAdd_3
        INC       R1
??ZDSecMgrCtrlAdd_3:
        LCALL     ?Subroutine57 & 0xFFFF
// 1026   }
??CrossCallReturnLabel_79:
        JC        ??ZDSecMgrCtrlAdd_1
// 1027 
// 1028   return status;
??ZDSecMgrCtrlAdd_0:
        MOV       A,R4
        MOV       R1,A
        LJMP      ??Subroutine83_0 & 0xFFFF
// 1029 }
          CFI EndBlock cfiBlock85

        RSEG BANKED_CODE:HUGECODE:NOROOT(0)
?Subroutine40:
          CFI Block cfiCond86 Using cfiCommon0
          CFI Function ZDSecMgrCtrlLookup
          CFI Conditional ??CrossCallReturnLabel_41
          CFI R6 load(1, XDATA, add(CFA_XSP16, literal(-10)))
          CFI VB load(1, XDATA, add(CFA_XSP16, literal(-9)))
          CFI V0 load(1, XDATA, add(CFA_XSP16, literal(-8)))
          CFI V1 load(1, XDATA, add(CFA_XSP16, literal(-7)))
          CFI R7 load(1, XDATA, add(CFA_XSP16, literal(-6)))
          CFI ?RET_LOW load(1, XDATA, add(CFA_XSP16, literal(-5)))
          CFI ?RET_HIGH load(1, XDATA, add(CFA_XSP16, literal(-4)))
          CFI ?BRET_EXT load(1, XDATA, add(CFA_XSP16, literal(-3)))
          CFI DPL0 load(1, XDATA, add(CFA_XSP16, literal(-2)))
          CFI DPH0 load(1, XDATA, add(CFA_XSP16, literal(-1)))
          CFI CFA_SP SP+-2
          CFI CFA_XSP16 add(XSP16, 10)
          CFI Block cfiCond87 Using cfiCommon0
          CFI (cfiCond87) Function ZDSecMgrCtrlAdd
          CFI (cfiCond87) Conditional ??CrossCallReturnLabel_42
          CFI (cfiCond87) R6 load(1, XDATA, add(CFA_XSP16, literal(-12)))
          CFI (cfiCond87) VB load(1, XDATA, add(CFA_XSP16, literal(-11)))
          CFI (cfiCond87) V0 load(1, XDATA, add(CFA_XSP16, literal(-10)))
          CFI (cfiCond87) V1 load(1, XDATA, add(CFA_XSP16, literal(-9)))
          CFI (cfiCond87) V2 load(1, XDATA, add(CFA_XSP16, literal(-8)))
          CFI (cfiCond87) V3 load(1, XDATA, add(CFA_XSP16, literal(-7)))
          CFI (cfiCond87) R7 load(1, XDATA, add(CFA_XSP16, literal(-6)))
          CFI (cfiCond87) ?RET_LOW load(1, XDATA, add(CFA_XSP16, literal(-5)))
          CFI (cfiCond87) ?RET_HIGH load(1, XDATA, add(CFA_XSP16, literal(-4)))
          CFI (cfiCond87) ?BRET_EXT load(1, XDATA, add(CFA_XSP16, literal(-3)))
          CFI (cfiCond87) DPL0 load(1, XDATA, add(CFA_XSP16, literal(-2)))
          CFI (cfiCond87) DPH0 load(1, XDATA, add(CFA_XSP16, literal(-1)))
          CFI (cfiCond87) CFA_SP SP+-2
          CFI (cfiCond87) CFA_XSP16 add(XSP16, 12)
          CFI Block cfiPicker88 Using cfiCommon1
          CFI (cfiPicker88) NoFunction
          CFI (cfiPicker88) Picker
        MOV       R3,A
        MOV       DPTR,#ZDSecMgrCtrlData
        LCALL     ?Subroutine69 & 0xFFFF
??CrossCallReturnLabel_97:
        INC       DPTR
        INC       DPTR
        INC       DPTR
        INC       DPTR
        INC       DPTR
        MOVX      A,@DPTR
        RET
          CFI EndBlock cfiCond86
          CFI EndBlock cfiCond87
          CFI EndBlock cfiPicker88

        RSEG BANKED_CODE:HUGECODE:NOROOT(0)
?Subroutine69:
          CFI Block cfiCond89 Using cfiCommon0
          CFI Function ZDSecMgrMasterKeyStore
          CFI Conditional ??CrossCallReturnLabel_98, ??CrossCallReturnLabel_54
          CFI R6 load(1, XDATA, add(CFA_XSP16, literal(-14)))
          CFI VB load(1, XDATA, add(CFA_XSP16, literal(-13)))
          CFI V0 load(1, XDATA, add(CFA_XSP16, literal(-12)))
          CFI V1 load(1, XDATA, add(CFA_XSP16, literal(-11)))
          CFI V2 load(1, XDATA, add(CFA_XSP16, literal(-10)))
          CFI V3 load(1, XDATA, add(CFA_XSP16, literal(-9)))
          CFI V4 load(1, XDATA, add(CFA_XSP16, literal(-8)))
          CFI V5 load(1, XDATA, add(CFA_XSP16, literal(-7)))
          CFI R7 load(1, XDATA, add(CFA_XSP16, literal(-6)))
          CFI ?RET_LOW load(1, XDATA, add(CFA_XSP16, literal(-5)))
          CFI ?RET_HIGH load(1, XDATA, add(CFA_XSP16, literal(-4)))
          CFI ?BRET_EXT load(1, XDATA, add(CFA_XSP16, literal(-3)))
          CFI DPL0 load(1, XDATA, add(CFA_XSP16, literal(-2)))
          CFI DPH0 load(1, XDATA, add(CFA_XSP16, literal(-1)))
          CFI CFA_SP SP+-4
          CFI CFA_XSP16 add(XSP16, 14)
          CFI Block cfiCond90 Using cfiCommon0
          CFI (cfiCond90) Function ZDSecMgrEntryLookupAMI
          CFI (cfiCond90) Conditional ??CrossCallReturnLabel_98, ??CrossCallReturnLabel_55
          CFI (cfiCond90) R6 load(1, XDATA, add(CFA_XSP16, literal(-10)))
          CFI (cfiCond90) VB load(1, XDATA, add(CFA_XSP16, literal(-9)))
          CFI (cfiCond90) V0 load(1, XDATA, add(CFA_XSP16, literal(-8)))
          CFI (cfiCond90) V1 load(1, XDATA, add(CFA_XSP16, literal(-7)))
          CFI (cfiCond90) R7 load(1, XDATA, add(CFA_XSP16, literal(-6)))
          CFI (cfiCond90) ?RET_LOW load(1, XDATA, add(CFA_XSP16, literal(-5)))
          CFI (cfiCond90) ?RET_HIGH load(1, XDATA, add(CFA_XSP16, literal(-4)))
          CFI (cfiCond90) ?BRET_EXT load(1, XDATA, add(CFA_XSP16, literal(-3)))
          CFI (cfiCond90) DPL0 load(1, XDATA, add(CFA_XSP16, literal(-2)))
          CFI (cfiCond90) DPH0 load(1, XDATA, add(CFA_XSP16, literal(-1)))
          CFI (cfiCond90) CFA_SP SP+-4
          CFI (cfiCond90) CFA_XSP16 add(XSP16, 10)
          CFI Block cfiCond91 Using cfiCommon0
          CFI (cfiCond91) Function ZDSecMgrCtrlLookup
          CFI (cfiCond91) Conditional ??CrossCallReturnLabel_97, ??CrossCallReturnLabel_41
          CFI (cfiCond91) R6 load(1, XDATA, add(CFA_XSP16, literal(-10)))
          CFI (cfiCond91) VB load(1, XDATA, add(CFA_XSP16, literal(-9)))
          CFI (cfiCond91) V0 load(1, XDATA, add(CFA_XSP16, literal(-8)))
          CFI (cfiCond91) V1 load(1, XDATA, add(CFA_XSP16, literal(-7)))
          CFI (cfiCond91) R7 load(1, XDATA, add(CFA_XSP16, literal(-6)))
          CFI (cfiCond91) ?RET_LOW load(1, XDATA, add(CFA_XSP16, literal(-5)))
          CFI (cfiCond91) ?RET_HIGH load(1, XDATA, add(CFA_XSP16, literal(-4)))
          CFI (cfiCond91) ?BRET_EXT load(1, XDATA, add(CFA_XSP16, literal(-3)))
          CFI (cfiCond91) DPL0 load(1, XDATA, add(CFA_XSP16, literal(-2)))
          CFI (cfiCond91) DPH0 load(1, XDATA, add(CFA_XSP16, literal(-1)))
          CFI (cfiCond91) CFA_SP SP+-4
          CFI (cfiCond91) CFA_XSP16 add(XSP16, 10)
          CFI Block cfiCond92 Using cfiCommon0
          CFI (cfiCond92) Function ZDSecMgrCtrlAdd
          CFI (cfiCond92) Conditional ??CrossCallReturnLabel_97, ??CrossCallReturnLabel_42
          CFI (cfiCond92) R6 load(1, XDATA, add(CFA_XSP16, literal(-12)))
          CFI (cfiCond92) VB load(1, XDATA, add(CFA_XSP16, literal(-11)))
          CFI (cfiCond92) V0 load(1, XDATA, add(CFA_XSP16, literal(-10)))
          CFI (cfiCond92) V1 load(1, XDATA, add(CFA_XSP16, literal(-9)))
          CFI (cfiCond92) V2 load(1, XDATA, add(CFA_XSP16, literal(-8)))
          CFI (cfiCond92) V3 load(1, XDATA, add(CFA_XSP16, literal(-7)))
          CFI (cfiCond92) R7 load(1, XDATA, add(CFA_XSP16, literal(-6)))
          CFI (cfiCond92) ?RET_LOW load(1, XDATA, add(CFA_XSP16, literal(-5)))
          CFI (cfiCond92) ?RET_HIGH load(1, XDATA, add(CFA_XSP16, literal(-4)))
          CFI (cfiCond92) ?BRET_EXT load(1, XDATA, add(CFA_XSP16, literal(-3)))
          CFI (cfiCond92) DPL0 load(1, XDATA, add(CFA_XSP16, literal(-2)))
          CFI (cfiCond92) DPH0 load(1, XDATA, add(CFA_XSP16, literal(-1)))
          CFI (cfiCond92) CFA_SP SP+-4
          CFI (cfiCond92) CFA_XSP16 add(XSP16, 12)
          CFI Block cfiPicker93 Using cfiCommon1
          CFI (cfiPicker93) NoFunction
          CFI (cfiPicker93) Picker
        MOVX      A,@DPTR
        ADD       A,R2
        MOV       R2,A
        INC       DPTR
        MOVX      A,@DPTR
        ADDC      A,R3
        MOV       R3,A
        MOV       DPL,R2
        MOV       DPH,A
        RET
          CFI EndBlock cfiCond89
          CFI EndBlock cfiCond90
          CFI EndBlock cfiCond91
          CFI EndBlock cfiCond92
          CFI EndBlock cfiPicker93
// 1030 
// 1031 /******************************************************************************
// 1032  * @fn          ZDSecMgrCtrlTerm
// 1033  *
// 1034  * @brief       Terminate device control.
// 1035  *
// 1036  * @param       entry - [in] valid entry data
// 1037  *
// 1038  * @return      none
// 1039  */

        RSEG BANKED_CODE:HUGECODE:NOROOT(0)
// 1040 void ZDSecMgrCtrlTerm( ZDSecMgrEntry_t* entry )
ZDSecMgrCtrlTerm:
          CFI Block cfiBlock94 Using cfiCommon0
          CFI Function ZDSecMgrCtrlTerm
        CODE
// 1041 {
        FUNCALL ZDSecMgrCtrlTerm, ZDSecMgrCtrlLookup
        LOCFRAME ISTACK, 2, STACK
        LOCFRAME PSTACK, 0, STACK
        LOCFRAME XSTACK, 2, STACK
        LOCFRAME IOVERLAY, 0, STATIC
        LOCFRAME DOVERLAY, 0, STATIC
        ARGFRAME ISTACK, 2, STACK
        ARGFRAME PSTACK, 0, STACK
        ARGFRAME XSTACK, 2, STACK
        ARGFRAME IOVERLAY, 0, STATIC
        ARGFRAME DOVERLAY, 0, STATIC
        PUSH      DPL
          CFI DPL0 Frame(CFA_SP, 4)
          CFI CFA_SP SP+-4
        PUSH      DPH
          CFI DPH0 Frame(CFA_SP, 5)
          CFI CFA_SP SP+-5
        ; Saved register size: 2
        ; Auto size: 2
        MOV       A,#-0x2
        LCALL     ?ALLOC_XSTACK8
          CFI CFA_XSP16 add(XSP16, 2)
// 1042   ZDSecMgrCtrl_t* ctrl;
// 1043 
// 1044   // remove device from control data
// 1045   ZDSecMgrCtrlLookup ( entry, &ctrl );
        ; Setup parameters for call to function ZDSecMgrCtrlLookup
        MOV       R4,?XSP + 0
        MOV       R5,?XSP + 1
        LCALL     ??Subroutine92_0 & 0xFFFF
// 1046 
// 1047   if ( ctrl != NULL )
??CrossCallReturnLabel_165:
        JZ        ??ZDSecMgrCtrlTerm_0
// 1048   {
// 1049     ZDSecMgrCtrlRelease ( ctrl );
        MOV       DPL,?XSP + 0
        MOV       DPH,?XSP + 1
        INC       DPTR
        MOVX      A,@DPTR
        MOV       DPH,A
        MOV       DPL,R0
        INC       DPTR
        INC       DPTR
        INC       DPTR
        INC       DPTR
        INC       DPTR
        CLR       A
        MOVX      @DPTR,A
// 1050   }
// 1051 }
??ZDSecMgrCtrlTerm_0:
        MOV       A,#0x2
        SJMP      ??Subroutine79_0
          CFI EndBlock cfiBlock94

        RSEG XDATA_I:XDATA:NOROOT(0)
ZDSecMgrAppKeyType:
        DATA8
        DS 1
        REQUIRE `?<Initializer for ZDSecMgrAppKeyType>`
        REQUIRE __INIT_XDATA_I

        RSEG BANKED_CODE:HUGECODE:NOROOT(0)
?Subroutine6:
          CFI Block cfiBlock95 Using cfiCommon0
          CFI NoFunction
          CFI CFA_SP SP+-5
          CFI CFA_XSP16 add(XSP16, 10)
          CFI DPL0 Frame(CFA_SP, 4)
          CFI DPH0 Frame(CFA_SP, 5)
        MOV       A,#0xa
          CFI EndBlock cfiBlock95
        REQUIRE ??Subroutine79_0
        ; // Fall through to label ??Subroutine79_0

        RSEG BANKED_CODE:HUGECODE:NOROOT(0)
??Subroutine79_0:
          CFI Block cfiBlock96 Using cfiCommon0
          CFI NoFunction
          CFI CFA_SP SP+-5
          CFI CFA_XSP16 add(XSP16, 2)
          CFI DPL0 Frame(CFA_SP, 4)
          CFI DPH0 Frame(CFA_SP, 5)
          CFI Invalid
        LCALL     ?DEALLOC_XSTACK8
          CFI CFA_XSP16 XSP16+0
          CFI Valid
        LJMP      ??Subroutine86_0 & 0xFFFF
          CFI EndBlock cfiBlock96
// 1052 
// 1053 /******************************************************************************
// 1054  * @fn          ZDSecMgrCtrlReset
// 1055  *
// 1056  * @brief       Reset control data.
// 1057  *
// 1058  * @param       device - [in] valid device data
// 1059  * @param       entry  - [in] valid entry data
// 1060  *
// 1061  * @return      ZStatus_t
// 1062  */

        RSEG BANKED_CODE:HUGECODE:NOROOT(0)
// 1063 ZStatus_t ZDSecMgrCtrlReset( ZDSecMgrDevice_t* device, ZDSecMgrEntry_t* entry )
ZDSecMgrCtrlReset:
          CFI Block cfiBlock97 Using cfiCommon0
          CFI Function ZDSecMgrCtrlReset
        CODE
// 1064 {
        FUNCALL ZDSecMgrCtrlReset, ZDSecMgrCtrlLookup
        LOCFRAME ISTACK, 0, STACK
        LOCFRAME PSTACK, 0, STACK
        LOCFRAME XSTACK, 12, STACK
        LOCFRAME IOVERLAY, 0, STATIC
        LOCFRAME DOVERLAY, 0, STATIC
        ARGFRAME ISTACK, 0, STACK
        ARGFRAME PSTACK, 0, STACK
        ARGFRAME XSTACK, 12, STACK
        ARGFRAME IOVERLAY, 0, STATIC
        ARGFRAME DOVERLAY, 0, STATIC
        FUNCALL ZDSecMgrCtrlReset, ZDSecMgrCtrlSet
        LOCFRAME ISTACK, 0, STACK
        LOCFRAME PSTACK, 0, STACK
        LOCFRAME XSTACK, 14, STACK
        LOCFRAME IOVERLAY, 0, STATIC
        LOCFRAME DOVERLAY, 0, STATIC
        ARGFRAME ISTACK, 0, STACK
        ARGFRAME PSTACK, 0, STACK
        ARGFRAME XSTACK, 14, STACK
        ARGFRAME IOVERLAY, 0, STATIC
        ARGFRAME DOVERLAY, 0, STATIC
        FUNCALL ZDSecMgrCtrlReset, ZDSecMgrCtrlAdd
        LOCFRAME ISTACK, 0, STACK
        LOCFRAME PSTACK, 0, STACK
        LOCFRAME XSTACK, 12, STACK
        LOCFRAME IOVERLAY, 0, STATIC
        LOCFRAME DOVERLAY, 0, STATIC
        ARGFRAME ISTACK, 0, STACK
        ARGFRAME PSTACK, 0, STACK
        ARGFRAME XSTACK, 12, STACK
        ARGFRAME IOVERLAY, 0, STATIC
        ARGFRAME DOVERLAY, 0, STATIC
        REQUIRE ?V0
        REQUIRE ?V1
        MOV       A,#-0xa
        LCALL     ?BANKED_ENTER_XDATA
          CFI DPH0 load(1, XDATA, add(CFA_XSP16, literal(-1)))
          CFI DPL0 load(1, XDATA, add(CFA_XSP16, literal(-2)))
          CFI ?BRET_EXT load(1, XDATA, add(CFA_XSP16, literal(-3)))
          CFI ?RET_HIGH load(1, XDATA, add(CFA_XSP16, literal(-4)))
          CFI ?RET_LOW load(1, XDATA, add(CFA_XSP16, literal(-5)))
          CFI R7 load(1, XDATA, add(CFA_XSP16, literal(-6)))
          CFI V1 load(1, XDATA, add(CFA_XSP16, literal(-7)))
          CFI V0 load(1, XDATA, add(CFA_XSP16, literal(-8)))
          CFI VB load(1, XDATA, add(CFA_XSP16, literal(-9)))
          CFI R6 load(1, XDATA, add(CFA_XSP16, literal(-10)))
          CFI CFA_SP SP+0
          CFI CFA_XSP16 add(XSP16, 10)
        ; Saved register size: 10
        ; Auto size: 2
        MOV       A,#-0x2
        LCALL     ?ALLOC_XSTACK8
          CFI CFA_XSP16 add(XSP16, 12)
        MOV       ?V0,R2
        MOV       ?V1,R3
        MOV       A,R4
        MOV       R6,A
        MOV       A,R5
        MOV       R7,A
// 1065   ZStatus_t       status;
// 1066   ZDSecMgrCtrl_t* ctrl;
// 1067 
// 1068 
// 1069   // initialize results
// 1070   status = ZNwkUnknownDevice;
// 1071 
// 1072   // look for a match for the entry
// 1073   ZDSecMgrCtrlLookup( entry, &ctrl );
        ; Setup parameters for call to function ZDSecMgrCtrlLookup
        MOV       R4,?XSP + 0
        MOV       R5,?XSP + 1
        MOV       A,R6
        MOV       R2,A
        MOV       A,R7
        LCALL     ?Subroutine37 & 0xFFFF
// 1074 
// 1075   if ( ctrl != NULL )
??CrossCallReturnLabel_163:
        JZ        ??ZDSecMgrCtrlReset_0
// 1076   {
// 1077     ZDSecMgrCtrlSet( device, entry, ctrl );
        ; Setup parameters for call to function ZDSecMgrCtrlSet
        MOV       DPL,?XSP + 0
        MOV       DPH,?XSP + 1
        LCALL     ?PUSH_XSTACK8_X_TWO
          CFI CFA_XSP16 add(XSP16, 14)
        MOV       A,R6
        MOV       R4,A
        MOV       A,R7
        MOV       R5,A
        MOV       R2,?V0
        MOV       R3,?V1
        LCALL     `??ZDSecMgrCtrlSet::?relay`; Banked call to: ZDSecMgrCtrlSet
        MOV       A,#0x2
        LCALL     ?DEALLOC_XSTACK8
          CFI CFA_XSP16 add(XSP16, 12)
// 1078 
// 1079     status = ZSuccess;
        MOV       R1,#0x0
        SJMP      ??ZDSecMgrCtrlReset_1
// 1080   }
// 1081   else
// 1082   {
// 1083     status = ZDSecMgrCtrlAdd( device, entry );
??ZDSecMgrCtrlReset_0:
        ; Setup parameters for call to function ZDSecMgrCtrlAdd
        MOV       A,R6
        MOV       R4,A
        MOV       A,R7
        MOV       R5,A
        MOV       R2,?V0
        MOV       R3,?V1
        LCALL     `??ZDSecMgrCtrlAdd::?relay`; Banked call to: ZDSecMgrCtrlAdd
        MOV       A,R1
        MOV       R1,A
// 1084   }
// 1085 
// 1086   return status;
??ZDSecMgrCtrlReset_1:
        LJMP      ??Subroutine100_0 & 0xFFFF
// 1087 }
          CFI EndBlock cfiBlock97
// 1088 
// 1089 /******************************************************************************
// 1090  * @fn          ZDSecMgrMasterKeyLoad
// 1091  *
// 1092  * @brief       Load the MASTER key for device with specified EXT
// 1093  *              address.
// 1094  *
// 1095  * @param       extAddr - [in] EXT address of device
// 1096  * @param       key     - [in] MASTER key shared with device
// 1097  *
// 1098  * @return      ZStatus_t
// 1099  */

        RSEG BANKED_CODE:HUGECODE:NOROOT(0)
// 1100 ZStatus_t ZDSecMgrMasterKeyLoad( uint8* extAddr, uint8* key )
ZDSecMgrMasterKeyLoad:
          CFI Block cfiBlock98 Using cfiCommon0
          CFI Function ZDSecMgrMasterKeyLoad
        CODE
// 1101 {
        FUNCALL ZDSecMgrMasterKeyLoad, ZDSecMgrExtAddrLookup
        LOCFRAME ISTACK, 0, STACK
        LOCFRAME PSTACK, 0, STACK
        LOCFRAME XSTACK, 19, STACK
        LOCFRAME IOVERLAY, 0, STATIC
        LOCFRAME DOVERLAY, 0, STATIC
        ARGFRAME ISTACK, 0, STACK
        ARGFRAME PSTACK, 0, STACK
        ARGFRAME XSTACK, 19, STACK
        ARGFRAME IOVERLAY, 0, STATIC
        ARGFRAME DOVERLAY, 0, STATIC
        FUNCALL ZDSecMgrMasterKeyLoad, ZDSecMgrMasterKeyLookup
        LOCFRAME ISTACK, 0, STACK
        LOCFRAME PSTACK, 0, STACK
        LOCFRAME XSTACK, 19, STACK
        LOCFRAME IOVERLAY, 0, STATIC
        LOCFRAME DOVERLAY, 0, STATIC
        ARGFRAME ISTACK, 0, STACK
        ARGFRAME PSTACK, 0, STACK
        ARGFRAME XSTACK, 19, STACK
        ARGFRAME IOVERLAY, 0, STATIC
        ARGFRAME DOVERLAY, 0, STATIC
        FUNCALL ZDSecMgrMasterKeyLoad, osal_memcpy
        LOCFRAME ISTACK, 0, STACK
        LOCFRAME PSTACK, 0, STACK
        LOCFRAME XSTACK, 22, STACK
        LOCFRAME IOVERLAY, 0, STATIC
        LOCFRAME DOVERLAY, 0, STATIC
        ARGFRAME ISTACK, 0, STACK
        ARGFRAME PSTACK, 0, STACK
        ARGFRAME XSTACK, 22, STACK
        ARGFRAME IOVERLAY, 0, STATIC
        ARGFRAME DOVERLAY, 0, STATIC
        FUNCALL ZDSecMgrMasterKeyLoad, ZDSecMgrMasterKeyStore
        LOCFRAME ISTACK, 0, STACK
        LOCFRAME PSTACK, 0, STACK
        LOCFRAME XSTACK, 19, STACK
        LOCFRAME IOVERLAY, 0, STATIC
        LOCFRAME DOVERLAY, 0, STATIC
        ARGFRAME ISTACK, 0, STACK
        ARGFRAME PSTACK, 0, STACK
        ARGFRAME XSTACK, 19, STACK
        ARGFRAME IOVERLAY, 0, STATIC
        ARGFRAME DOVERLAY, 0, STATIC
        REQUIRE ?V0
        REQUIRE ?V4
        REQUIRE ?V5
        REQUIRE ?V6
        MOV       A,#-0xf
        LCALL     ?BANKED_ENTER_XDATA
          CFI DPH0 load(1, XDATA, add(CFA_XSP16, literal(-1)))
          CFI DPL0 load(1, XDATA, add(CFA_XSP16, literal(-2)))
          CFI ?BRET_EXT load(1, XDATA, add(CFA_XSP16, literal(-3)))
          CFI ?RET_HIGH load(1, XDATA, add(CFA_XSP16, literal(-4)))
          CFI ?RET_LOW load(1, XDATA, add(CFA_XSP16, literal(-5)))
          CFI R7 load(1, XDATA, add(CFA_XSP16, literal(-6)))
          CFI V6 load(1, XDATA, add(CFA_XSP16, literal(-7)))
          CFI V5 load(1, XDATA, add(CFA_XSP16, literal(-8)))
          CFI V4 load(1, XDATA, add(CFA_XSP16, literal(-9)))
          CFI V3 load(1, XDATA, add(CFA_XSP16, literal(-10)))
          CFI V2 load(1, XDATA, add(CFA_XSP16, literal(-11)))
          CFI V1 load(1, XDATA, add(CFA_XSP16, literal(-12)))
          CFI V0 load(1, XDATA, add(CFA_XSP16, literal(-13)))
          CFI VB load(1, XDATA, add(CFA_XSP16, literal(-14)))
          CFI R6 load(1, XDATA, add(CFA_XSP16, literal(-15)))
          CFI CFA_SP SP+0
          CFI CFA_XSP16 add(XSP16, 15)
        ; Saved register size: 15
        ; Auto size: 4
        MOV       A,#-0x4
        LCALL     ?ALLOC_XSTACK8
          CFI CFA_XSP16 add(XSP16, 19)
        MOV       A,R4
        MOV       R6,A
        MOV       A,R5
        MOV       R7,A
// 1102   ZStatus_t status;
// 1103   uint8*    loaded;
// 1104   uint16    ami;
// 1105 
// 1106 
// 1107   // set status based on policy
// 1108   status = ZDSecMgrExtAddrLookup( extAddr, &ami );
        ; Setup parameters for call to function ZDSecMgrExtAddrLookup
        MOV       R4,?XSP + 0
        MOV       R5,?XSP + 1
        LCALL     `??ZDSecMgrExtAddrLookup::?relay`; Banked call to: ZDSecMgrExtAddrLookup
        MOV       A,R1
        MOV       ?V0,A
// 1109 
// 1110   if ( status == ZSuccess )
        JNZ       ??ZDSecMgrMasterKeyLoad_0
// 1111   {
// 1112     // get the address index
// 1113     if ( ZDSecMgrMasterKeyLookup( ami, &loaded ) == ZSuccess )
        ; Setup parameters for call to function ZDSecMgrMasterKeyLookup
        MOV       A,#0x2
        LCALL     ?XSTACK_DISP102_8
        LCALL     ?Subroutine42 & 0xFFFF
??CrossCallReturnLabel_45:
        JNZ       ??ZDSecMgrMasterKeyLoad_1
// 1114     {
// 1115       // overwrite old key
// 1116       osal_memcpy( loaded, key, SEC_KEY_LEN );
        ; Setup parameters for call to function osal_memcpy
        MOV       ?V4,R6
        MOV       ?V5,R7
        MOV       ?V6,#0x0
        MOV       R0,#?V4
        LCALL     ?PUSH_XSTACK_I_THREE
          CFI CFA_XSP16 add(XSP16, 22)
        MOV       R4,#0x10
        MOV       R5,#0x0
        MOV       A,#0x5
        LCALL     ?XSTACK_DISP0_8
        LCALL     ??Subroutine85_0 & 0xFFFF
// 1117     }
??CrossCallReturnLabel_125:
        LCALL     `??osal_memcpy::?relay`; Banked call to: osal_memcpy
        MOV       A,#0x3
        LCALL     ?DEALLOC_XSTACK8
          CFI CFA_XSP16 add(XSP16, 19)
        SJMP      ??ZDSecMgrMasterKeyLoad_0
// 1118     else
// 1119     {
// 1120       // store new key -- NULL will zero key
// 1121       status = ZDSecMgrMasterKeyStore( ami, key );
??ZDSecMgrMasterKeyLoad_1:
        ; Setup parameters for call to function ZDSecMgrMasterKeyStore
        MOV       A,R6
        MOV       R4,A
        MOV       A,R7
        MOV       R5,A
        LCALL     ?Subroutine53 & 0xFFFF
// 1122     }
// 1123   }
??CrossCallReturnLabel_65:
        MOV       A,R1
        MOV       ?V0,A
// 1124 
// 1125   return status;
??ZDSecMgrMasterKeyLoad_0:
        MOV       R1,?V0
        MOV       A,#0x4
          CFI EndBlock cfiBlock98
        REQUIRE ?Subroutine5
        ; // Fall through to label ?Subroutine5
// 1126 }

        RSEG BANKED_CODE:HUGECODE:NOROOT(0)
?Subroutine5:
          CFI Block cfiBlock99 Using cfiCommon0
          CFI NoFunction
          CFI CFA_SP SP+0
          CFI CFA_XSP16 add(XSP16, 19)
          CFI VB load(1, XDATA, add(CFA_XSP16, literal(-14)))
          CFI DPL0 load(1, XDATA, add(CFA_XSP16, literal(-2)))
          CFI DPH0 load(1, XDATA, add(CFA_XSP16, literal(-1)))
          CFI R6 load(1, XDATA, add(CFA_XSP16, literal(-15)))
          CFI R7 load(1, XDATA, add(CFA_XSP16, literal(-6)))
          CFI V0 load(1, XDATA, add(CFA_XSP16, literal(-13)))
          CFI V1 load(1, XDATA, add(CFA_XSP16, literal(-12)))
          CFI V2 load(1, XDATA, add(CFA_XSP16, literal(-11)))
          CFI V3 load(1, XDATA, add(CFA_XSP16, literal(-10)))
          CFI V4 load(1, XDATA, add(CFA_XSP16, literal(-9)))
          CFI V5 load(1, XDATA, add(CFA_XSP16, literal(-8)))
          CFI V6 load(1, XDATA, add(CFA_XSP16, literal(-7)))
          CFI ?BRET_EXT load(1, XDATA, add(CFA_XSP16, literal(-3)))
          CFI ?RET_HIGH load(1, XDATA, add(CFA_XSP16, literal(-4)))
          CFI ?RET_LOW load(1, XDATA, add(CFA_XSP16, literal(-5)))
          CFI Invalid
        LCALL     ?DEALLOC_XSTACK8
          CFI CFA_XSP16 add(XSP16, 15)
          CFI Valid
        MOV       R7,#0x7
        LJMP      ?BANKED_LEAVE_XDATA
          CFI EndBlock cfiBlock99
// 1127 
// 1128 /******************************************************************************
// 1129  * @fn          ZDSecMgrAppKeyGet
// 1130  *
// 1131  * @brief       get an APP key - option APP(MASTER or LINK) key
// 1132  *
// 1133  * @param       initNwkAddr - [in] NWK address of initiator device
// 1134  * @param       initExtAddr - [in] EXT address of initiator device
// 1135  * @param       partNwkAddr - [in] NWK address of partner device
// 1136  * @param       partExtAddr - [in] EXT address of partner device
// 1137  * @param       key         - [out] APP(MASTER or LINK) key
// 1138  * @param       keyType     - [out] APP(MASTER or LINK) key type
// 1139  *
// 1140  * @return      ZStatus_t
// 1141  */
// 1142 uint8 ZDSecMgrAppKeyType = KEY_TYPE_APP_LINK;    // Set the default key type
// 1143                                                  // to KEY_TYPE_APP_LINK since
// 1144                                                  // only specific requirement
// 1145                                                  // right now comes from SE profile
// 1146 

        RSEG BANKED_CODE:HUGECODE:NOROOT(0)
// 1147 ZStatus_t ZDSecMgrAppKeyGet( uint16  initNwkAddr,
ZDSecMgrAppKeyGet:
          CFI Block cfiBlock100 Using cfiCommon0
          CFI Function ZDSecMgrAppKeyGet
        CODE
// 1148                              uint8*  initExtAddr,
// 1149                              uint16  partNwkAddr,
// 1150                              uint8*  partExtAddr,
// 1151                              uint8** key,
// 1152                              uint8*  keyType )
// 1153 {
        FUNCALL ZDSecMgrAppKeyGet, SSP_GetTrueRand
        LOCFRAME ISTACK, 2, STACK
        LOCFRAME PSTACK, 0, STACK
        LOCFRAME XSTACK, 0, STACK
        LOCFRAME IOVERLAY, 0, STATIC
        LOCFRAME DOVERLAY, 0, STATIC
        ARGFRAME ISTACK, 2, STACK
        ARGFRAME PSTACK, 0, STACK
        ARGFRAME XSTACK, 0, STACK
        ARGFRAME IOVERLAY, 0, STATIC
        ARGFRAME DOVERLAY, 0, STATIC
        PUSH      DPL
          CFI DPL0 Frame(CFA_SP, 4)
          CFI CFA_SP SP+-4
        PUSH      DPH
          CFI DPH0 Frame(CFA_SP, 5)
          CFI CFA_SP SP+-5
        ; Saved register size: 2
        ; Auto size: 0
// 1154   // Intentionally unreferenced parameters
// 1155   (void)initNwkAddr;
// 1156   (void)initExtAddr;
// 1157   (void)partNwkAddr;
// 1158   (void)partExtAddr;
// 1159   
// 1160   //---------------------------------------------------------------------------
// 1161   // note:
// 1162   // should use a robust mechanism to generate keys, for example
// 1163   // combine EXT addresses and call a hash function
// 1164   //---------------------------------------------------------------------------
// 1165   SSP_GetTrueRand( SEC_KEY_LEN, *key );
        ; Setup parameters for call to function SSP_GetTrueRand
        MOV       A,#0x4
        LCALL     ?XSTACK_DISP0_8
        LCALL     ?Subroutine45 & 0xFFFF
??CrossCallReturnLabel_52:
        MOV       R1,#0x10
        LCALL     `??SSP_GetTrueRand::?relay`; Banked call to: SSP_GetTrueRand
// 1166 
// 1167   *keyType = ZDSecMgrAppKeyType;
        MOV       DPTR,#ZDSecMgrAppKeyType
        MOVX      A,@DPTR
        PUSH      A
          CFI CFA_SP SP+-6
        MOV       A,#0x6
        LCALL     ?XSTACK_DISP0_8
        LCALL     ??Subroutine81_0 & 0xFFFF
??CrossCallReturnLabel_115:
        POP       A
          CFI EndBlock cfiBlock100
        REQUIRE ?Subroutine7
        ; // Fall through to label ?Subroutine7
// 1168 
// 1169   return ZSuccess;
// 1170 }

        RSEG BANKED_CODE:HUGECODE:NOROOT(0)
?Subroutine7:
          CFI Block cfiBlock101 Using cfiCommon0
          CFI NoFunction
          CFI CFA_SP SP+-5
          CFI DPL0 Frame(CFA_SP, 4)
          CFI DPH0 Frame(CFA_SP, 5)
        MOVX      @DPTR,A
        MOV       R1,#0x0
        LJMP      ??Subroutine86_0 & 0xFFFF
          CFI EndBlock cfiBlock101
// 1171 
// 1172 /******************************************************************************
// 1173  * @fn          ZDSecMgrAppKeyReq
// 1174  *
// 1175  * @brief       Process request for APP key between two devices.
// 1176  *
// 1177  * @param       device - [in] ZDO_RequestKeyInd_t, request info
// 1178  *
// 1179  * @return      none
// 1180  */

        RSEG BANKED_CODE:HUGECODE:NOROOT(0)
// 1181 void ZDSecMgrAppKeyReq( ZDO_RequestKeyInd_t* ind )
ZDSecMgrAppKeyReq:
          CFI Block cfiBlock102 Using cfiCommon0
          CFI Function ZDSecMgrAppKeyReq
        CODE
// 1182 {
        FUNCALL ZDSecMgrAppKeyReq, APSME_LookupNwkAddr
        LOCFRAME ISTACK, 0, STACK
        LOCFRAME PSTACK, 0, STACK
        LOCFRAME XSTACK, 51, STACK
        LOCFRAME IOVERLAY, 0, STATIC
        LOCFRAME DOVERLAY, 0, STATIC
        ARGFRAME ISTACK, 0, STACK
        ARGFRAME PSTACK, 0, STACK
        ARGFRAME XSTACK, 51, STACK
        ARGFRAME IOVERLAY, 0, STATIC
        ARGFRAME DOVERLAY, 0, STATIC
        FUNCALL ZDSecMgrAppKeyReq, APSME_LookupExtAddr
        LOCFRAME ISTACK, 0, STACK
        LOCFRAME PSTACK, 0, STACK
        LOCFRAME XSTACK, 51, STACK
        LOCFRAME IOVERLAY, 0, STATIC
        LOCFRAME DOVERLAY, 0, STATIC
        ARGFRAME ISTACK, 0, STACK
        ARGFRAME PSTACK, 0, STACK
        ARGFRAME XSTACK, 51, STACK
        ARGFRAME IOVERLAY, 0, STATIC
        ARGFRAME DOVERLAY, 0, STATIC
        FUNCALL ZDSecMgrAppKeyReq, ZDSecMgrAppKeyGet
        LOCFRAME ISTACK, 0, STACK
        LOCFRAME PSTACK, 0, STACK
        LOCFRAME XSTACK, 59, STACK
        LOCFRAME IOVERLAY, 0, STATIC
        LOCFRAME DOVERLAY, 0, STATIC
        ARGFRAME ISTACK, 0, STACK
        ARGFRAME PSTACK, 0, STACK
        ARGFRAME XSTACK, 59, STACK
        ARGFRAME IOVERLAY, 0, STATIC
        ARGFRAME DOVERLAY, 0, STATIC
        FUNCALL ZDSecMgrAppKeyReq, APSME_TransportKeyReq
        LOCFRAME ISTACK, 0, STACK
        LOCFRAME PSTACK, 0, STACK
        LOCFRAME XSTACK, 51, STACK
        LOCFRAME IOVERLAY, 0, STATIC
        LOCFRAME DOVERLAY, 0, STATIC
        ARGFRAME ISTACK, 0, STACK
        ARGFRAME PSTACK, 0, STACK
        ARGFRAME XSTACK, 51, STACK
        ARGFRAME IOVERLAY, 0, STATIC
        ARGFRAME DOVERLAY, 0, STATIC
        FUNCALL ZDSecMgrAppKeyReq, APSME_TransportKeyReq
        LOCFRAME ISTACK, 0, STACK
        LOCFRAME PSTACK, 0, STACK
        LOCFRAME XSTACK, 51, STACK
        LOCFRAME IOVERLAY, 0, STATIC
        LOCFRAME DOVERLAY, 0, STATIC
        ARGFRAME ISTACK, 0, STACK
        ARGFRAME PSTACK, 0, STACK
        ARGFRAME XSTACK, 51, STACK
        ARGFRAME IOVERLAY, 0, STATIC
        ARGFRAME DOVERLAY, 0, STATIC
        REQUIRE ?V0
        REQUIRE ?V1
        REQUIRE ?V2
        REQUIRE ?V3
        MOV       A,#-0xc
        LCALL     ?BANKED_ENTER_XDATA
          CFI DPH0 load(1, XDATA, add(CFA_XSP16, literal(-1)))
          CFI DPL0 load(1, XDATA, add(CFA_XSP16, literal(-2)))
          CFI ?BRET_EXT load(1, XDATA, add(CFA_XSP16, literal(-3)))
          CFI ?RET_HIGH load(1, XDATA, add(CFA_XSP16, literal(-4)))
          CFI ?RET_LOW load(1, XDATA, add(CFA_XSP16, literal(-5)))
          CFI R7 load(1, XDATA, add(CFA_XSP16, literal(-6)))
          CFI V3 load(1, XDATA, add(CFA_XSP16, literal(-7)))
          CFI V2 load(1, XDATA, add(CFA_XSP16, literal(-8)))
          CFI V1 load(1, XDATA, add(CFA_XSP16, literal(-9)))
          CFI V0 load(1, XDATA, add(CFA_XSP16, literal(-10)))
          CFI VB load(1, XDATA, add(CFA_XSP16, literal(-11)))
          CFI R6 load(1, XDATA, add(CFA_XSP16, literal(-12)))
          CFI CFA_SP SP+0
          CFI CFA_XSP16 add(XSP16, 12)
        ; Saved register size: 12
        ; Auto size: 39
        MOV       A,#-0x27
        LCALL     ?ALLOC_XSTACK8
          CFI CFA_XSP16 add(XSP16, 51)
        MOV       A,R2
        MOV       R6,A
        MOV       A,R3
        MOV       R7,A
// 1183   APSME_TransportKeyReq_t req;
// 1184   uint8                   initExtAddr[Z_EXTADDR_LEN];
// 1185   uint16                  partNwkAddr;
// 1186   uint8                   key[SEC_KEY_LEN];
// 1187 
// 1188 
// 1189   // validate initiator and partner
// 1190   if ( ( APSME_LookupNwkAddr( ind->partExtAddr, &partNwkAddr ) == TRUE ) &&
// 1191        ( APSME_LookupExtAddr( ind->srcAddr, initExtAddr ) == TRUE      )   )
        MOV       A,R2
        LCALL     ?Subroutine58 & 0xFFFF
??CrossCallReturnLabel_80:
        ; Setup parameters for call to function APSME_LookupNwkAddr
        MOV       R4,?XSP + 0
        MOV       R5,?XSP + 1
        MOV       R2,?V0
        MOV       R3,A
        LCALL     `??APSME_LookupNwkAddr::?relay`; Banked call to: APSME_LookupNwkAddr
        MOV       A,R1
        XRL       A,#0x1
        JZ        $+5
        LJMP      ??ZDSecMgrAppKeyReq_0 & 0xFFFF
        MOV       A,R6
        ADD       A,#0x2
        MOV       R6,A
        JNC       ??ZDSecMgrAppKeyReq_1
        INC       R7
??ZDSecMgrAppKeyReq_1:
        ; Setup parameters for call to function APSME_LookupExtAddr
        MOV       A,#0xf
        LCALL     ?XSTACK_DISP102_8
        LCALL     ?Subroutine55 & 0xFFFF
??CrossCallReturnLabel_135:
        LCALL     `??APSME_LookupExtAddr::?relay`; Banked call to: APSME_LookupExtAddr
        MOV       A,R1
        XRL       A,#0x1
        JZ        $+5
        LJMP      ??ZDSecMgrAppKeyReq_0 & 0xFFFF
// 1192   {
// 1193     // point the key to some memory
// 1194     req.key = key;
        MOV       A,#0x17
        LCALL     ?XSTACK_DISP100_8
        MOV       A,#0x6
        LCALL     ?XSTACK_DISP0_8
        LCALL     ??Subroutine91_0 & 0xFFFF
// 1195 
// 1196     // get an APP key - option APP (MASTER or LINK) key
// 1197     if ( ZDSecMgrAppKeyGet( ind->srcAddr,
// 1198                             initExtAddr,
// 1199                             partNwkAddr,
// 1200                             ind->partExtAddr,
// 1201                             &req.key,
// 1202                             &req.keyType ) == ZSuccess )
??CrossCallReturnLabel_150:
        ; Setup parameters for call to function ZDSecMgrAppKeyGet
        MOV       A,#0x4
        LCALL     ?XSTACK_DISP0_8
        MOV       ?V2,DPL
        MOV       ?V3,DPH
        MOV       R0,#?V2
        LCALL     ?PUSH_XSTACK_I_TWO
          CFI CFA_XSP16 add(XSP16, 53)
        MOV       A,#0x8
        LCALL     ?XSTACK_DISP0_8
        MOV       ?V2,DPL
        MOV       ?V3,DPH
        MOV       R0,#?V2
        LCALL     ?PUSH_XSTACK_I_TWO
          CFI CFA_XSP16 add(XSP16, 55)
        MOV       R0,#?V0
        LCALL     ?PUSH_XSTACK_I_TWO
          CFI CFA_XSP16 add(XSP16, 57)
        MOV       A,#0x6
        LCALL     ?XSTACK_DISP0_8
        LCALL     ?PUSH_XSTACK8_X_TWO
          CFI CFA_XSP16 add(XSP16, 59)
        MOV       A,#0x17
        LCALL     ?XSTACK_DISP102_8
        LCALL     ?Subroutine55 & 0xFFFF
??CrossCallReturnLabel_136:
        LCALL     `??ZDSecMgrAppKeyGet::?relay`; Banked call to: ZDSecMgrAppKeyGet
        MOV       A,#0x8
        LCALL     ?DEALLOC_XSTACK8
          CFI CFA_XSP16 add(XSP16, 51)
        MOV       A,R1
        JNZ       ??ZDSecMgrAppKeyReq_0
// 1203     {
// 1204       // always secure
// 1205       req.nwkSecure = TRUE;
        MOV       A,#0xc
        LCALL     ?XSTACK_DISP0_8
        MOV       A,#0x1
        MOVX      @DPTR,A
// 1206       req.apsSecure = TRUE;
        MOV       A,#0xb
        LCALL     ?XSTACK_DISP0_8
        MOV       A,#0x1
        MOVX      @DPTR,A
// 1207       req.tunnel    = NULL;
        MOV       A,#0xd
        LCALL     ?XSTACK_DISP0_8
        CLR       A
        MOVX      @DPTR,A
        INC       DPTR
        LCALL     ?Subroutine36 & 0xFFFF
// 1208 
// 1209       // send key to initiator device
// 1210       req.dstAddr   = ind->srcAddr;
??CrossCallReturnLabel_37:
        MOV       R1,A
        MOV       A,#0x2
        LCALL     ?XSTACK_DISP0_8
        LCALL     ??Subroutine91_0 & 0xFFFF
// 1211       req.extAddr   = ind->partExtAddr;
??CrossCallReturnLabel_151:
        MOV       A,#0x8
        LCALL     ?XSTACK_DISP0_8
        MOV       A,?V0
        MOVX      @DPTR,A
        INC       DPTR
        MOV       A,?V1
        MOVX      @DPTR,A
// 1212       req.initiator = TRUE;
        MOV       A,#0xa
        LCALL     ?XSTACK_DISP0_8
        MOV       A,#0x1
        MOVX      @DPTR,A
// 1213       APSME_TransportKeyReq( &req );
        ; Setup parameters for call to function APSME_TransportKeyReq
        INC       A
        LCALL     ?XSTACK_DISP101_8
        LCALL     `??APSME_TransportKeyReq::?relay`; Banked call to: APSME_TransportKeyReq
// 1214 
// 1215       // send key to partner device
// 1216       req.dstAddr   = partNwkAddr;
        MOV       DPL,?XSP + 0
        MOV       DPH,?XSP + 1
        LCALL     ?Subroutine48 & 0xFFFF
??CrossCallReturnLabel_56:
        LCALL     ?XSTACK_DISP0_8
        LCALL     ??Subroutine91_0 & 0xFFFF
// 1217       req.extAddr   = initExtAddr;
??CrossCallReturnLabel_152:
        MOV       A,#0xf
        LCALL     ?XSTACK_DISP100_8
        MOV       A,#0x8
        LCALL     ?XSTACK_DISP0_8
        LCALL     ??Subroutine95_0 & 0xFFFF
// 1218       req.initiator = FALSE;
??CrossCallReturnLabel_179:
        LCALL     ?XSTACK_DISP0_8
        CLR       A
        MOVX      @DPTR,A
// 1219 
// 1220       APSME_TransportKeyReq( &req );
        ; Setup parameters for call to function APSME_TransportKeyReq
        MOV       A,#0x2
        LCALL     ?XSTACK_DISP101_8
        LCALL     `??APSME_TransportKeyReq::?relay`; Banked call to: APSME_TransportKeyReq
// 1221     }
// 1222   }
// 1223 }
??ZDSecMgrAppKeyReq_0:
        MOV       A,#0x27
        LJMP      ??Subroutine82_0 & 0xFFFF
          CFI EndBlock cfiBlock102
// 1224 
// 1225 /******************************************************************************
// 1226  * @fn          ZDSecMgrEstablishKey
// 1227  *
// 1228  * @brief       Start SKKE with device joining network.
// 1229  *
// 1230  * @param       device - [in] ZDSecMgrDevice_t, device info
// 1231  *
// 1232  * @return      ZStatus_t
// 1233  */

        RSEG BANKED_CODE:HUGECODE:NOROOT(0)
// 1234 ZStatus_t ZDSecMgrEstablishKey( ZDSecMgrDevice_t* device )
ZDSecMgrEstablishKey:
          CFI Block cfiBlock103 Using cfiCommon0
          CFI Function ZDSecMgrEstablishKey
        CODE
// 1235 {
        FUNCALL ZDSecMgrEstablishKey, NLME_GetShortAddr
        LOCFRAME ISTACK, 0, STACK
        LOCFRAME PSTACK, 0, STACK
        LOCFRAME XSTACK, 17, STACK
        LOCFRAME IOVERLAY, 0, STATIC
        LOCFRAME DOVERLAY, 0, STATIC
        ARGFRAME ISTACK, 0, STACK
        ARGFRAME PSTACK, 0, STACK
        ARGFRAME XSTACK, 17, STACK
        ARGFRAME IOVERLAY, 0, STATIC
        ARGFRAME DOVERLAY, 0, STATIC
        FUNCALL ZDSecMgrEstablishKey, APSME_EstablishKeyReq
        LOCFRAME ISTACK, 0, STACK
        LOCFRAME PSTACK, 0, STACK
        LOCFRAME XSTACK, 17, STACK
        LOCFRAME IOVERLAY, 0, STATIC
        LOCFRAME DOVERLAY, 0, STATIC
        ARGFRAME ISTACK, 0, STACK
        ARGFRAME PSTACK, 0, STACK
        ARGFRAME XSTACK, 17, STACK
        ARGFRAME IOVERLAY, 0, STATIC
        ARGFRAME DOVERLAY, 0, STATIC
        REQUIRE ?V0
        REQUIRE ?V1
        MOV       A,#-0xa
        LCALL     ?BANKED_ENTER_XDATA
          CFI DPH0 load(1, XDATA, add(CFA_XSP16, literal(-1)))
          CFI DPL0 load(1, XDATA, add(CFA_XSP16, literal(-2)))
          CFI ?BRET_EXT load(1, XDATA, add(CFA_XSP16, literal(-3)))
          CFI ?RET_HIGH load(1, XDATA, add(CFA_XSP16, literal(-4)))
          CFI ?RET_LOW load(1, XDATA, add(CFA_XSP16, literal(-5)))
          CFI R7 load(1, XDATA, add(CFA_XSP16, literal(-6)))
          CFI V1 load(1, XDATA, add(CFA_XSP16, literal(-7)))
          CFI V0 load(1, XDATA, add(CFA_XSP16, literal(-8)))
          CFI VB load(1, XDATA, add(CFA_XSP16, literal(-9)))
          CFI R6 load(1, XDATA, add(CFA_XSP16, literal(-10)))
          CFI CFA_SP SP+0
          CFI CFA_XSP16 add(XSP16, 10)
        ; Saved register size: 10
        ; Auto size: 7
        MOV       A,#-0x7
        LCALL     ?ALLOC_XSTACK8
          CFI CFA_XSP16 add(XSP16, 17)
        MOV       A,R2
        MOV       R6,A
        MOV       A,R3
        MOV       R7,A
// 1236   ZStatus_t               status;
// 1237   APSME_EstablishKeyReq_t req;
// 1238 
// 1239 
// 1240   req.respExtAddr = device->extAddr;
        MOV       DPL,R2
        MOV       DPH,A
        INC       DPTR
        INC       DPTR
        LCALL     ?Subroutine48 & 0xFFFF
??CrossCallReturnLabel_57:
        LCALL     ?XSTACK_DISP0_8
        LCALL     ??Subroutine91_0 & 0xFFFF
// 1241   req.method      = APSME_SKKE_METHOD;
??CrossCallReturnLabel_153:
        MOV       A,#0x4
        LCALL     ?XSTACK_DISP0_8
        CLR       A
        MOVX      @DPTR,A
// 1242 
// 1243   if ( device->parentAddr == NLME_GetShortAddr() )
        ; Setup parameters for call to function NLME_GetShortAddr
        LCALL     ?Subroutine50 & 0xFFFF
??CrossCallReturnLabel_193:
        MOV       A,R2
        XRL       A,R0
        JNZ       ??ZDSecMgrEstablishKey_0
        MOV       A,R3
        XRL       A,R1
??ZDSecMgrEstablishKey_0:
        JNZ       ??ZDSecMgrEstablishKey_1
// 1244   {
// 1245     req.dstAddr   = device->nwkAddr;
        MOV       DPL,R6
        MOV       DPH,R7
        LCALL     ??Subroutine99_0 & 0xFFFF
??CrossCallReturnLabel_196:
        LCALL     ?Subroutine29 & 0xFFFF
// 1246     //devtag.0604.todo - remove obsolete
// 1247     req.apsSecure = FALSE;
??CrossCallReturnLabel_112:
        LCALL     ?XSTACK_DISP0_8
        CLR       A
        MOVX      @DPTR,A
// 1248     req.nwkSecure = FALSE;
        MOV       A,#0x6
        LCALL     ?XSTACK_DISP0_8
        CLR       A
        SJMP      ??ZDSecMgrEstablishKey_2
// 1249   }
// 1250   else
// 1251   {
// 1252     req.dstAddr   = device->parentAddr;
??ZDSecMgrEstablishKey_1:
        LCALL     ?Subroutine29 & 0xFFFF
// 1253     //devtag.0604.todo - remove obsolete
// 1254     req.apsSecure = TRUE;
??CrossCallReturnLabel_113:
        LCALL     ?XSTACK_DISP0_8
        MOV       A,#0x1
        MOVX      @DPTR,A
// 1255     req.nwkSecure = TRUE;
        MOV       A,#0x6
        LCALL     ?XSTACK_DISP0_8
        MOV       A,#0x1
// 1256   }
??ZDSecMgrEstablishKey_2:
        LCALL     ??Subroutine90_0 & 0xFFFF
// 1257 
// 1258   status = APSME_EstablishKeyReq( &req );
// 1259 
// 1260   return status;
??CrossCallReturnLabel_140:
        LCALL     `??APSME_EstablishKeyReq::?relay`; Banked call to: APSME_EstablishKeyReq
        MOV       A,#0x7
        LJMP      ??Subroutine101_0 & 0xFFFF
// 1261 }
          CFI EndBlock cfiBlock103

        RSEG BANKED_CODE:HUGECODE:NOROOT(0)
?Subroutine48:
          CFI Block cfiCond104 Using cfiCommon0
          CFI Function ZDSecMgrAppKeyReq
          CFI Conditional ??CrossCallReturnLabel_56
          CFI R6 load(1, XDATA, add(CFA_XSP16, literal(-12)))
          CFI VB load(1, XDATA, add(CFA_XSP16, literal(-11)))
          CFI V0 load(1, XDATA, add(CFA_XSP16, literal(-10)))
          CFI V1 load(1, XDATA, add(CFA_XSP16, literal(-9)))
          CFI V2 load(1, XDATA, add(CFA_XSP16, literal(-8)))
          CFI V3 load(1, XDATA, add(CFA_XSP16, literal(-7)))
          CFI R7 load(1, XDATA, add(CFA_XSP16, literal(-6)))
          CFI ?RET_LOW load(1, XDATA, add(CFA_XSP16, literal(-5)))
          CFI ?RET_HIGH load(1, XDATA, add(CFA_XSP16, literal(-4)))
          CFI ?BRET_EXT load(1, XDATA, add(CFA_XSP16, literal(-3)))
          CFI DPL0 load(1, XDATA, add(CFA_XSP16, literal(-2)))
          CFI DPH0 load(1, XDATA, add(CFA_XSP16, literal(-1)))
          CFI CFA_SP SP+-2
          CFI CFA_XSP16 add(XSP16, 51)
          CFI Block cfiCond105 Using cfiCommon0
          CFI (cfiCond105) Function ZDSecMgrEstablishKey
          CFI (cfiCond105) Conditional ??CrossCallReturnLabel_57
          CFI (cfiCond105) R6 load(1, XDATA, add(CFA_XSP16, literal(-10)))
          CFI (cfiCond105) VB load(1, XDATA, add(CFA_XSP16, literal(-9)))
          CFI (cfiCond105) V0 load(1, XDATA, add(CFA_XSP16, literal(-8)))
          CFI (cfiCond105) V1 load(1, XDATA, add(CFA_XSP16, literal(-7)))
          CFI (cfiCond105) R7 load(1, XDATA, add(CFA_XSP16, literal(-6)))
          CFI (cfiCond105) ?RET_LOW load(1, XDATA, add(CFA_XSP16, literal(-5)))
          CFI (cfiCond105) ?RET_HIGH load(1, XDATA, add(CFA_XSP16, literal(-4)))
          CFI (cfiCond105) ?BRET_EXT load(1, XDATA, add(CFA_XSP16, literal(-3)))
          CFI (cfiCond105) DPL0 load(1, XDATA, add(CFA_XSP16, literal(-2)))
          CFI (cfiCond105) DPH0 load(1, XDATA, add(CFA_XSP16, literal(-1)))
          CFI (cfiCond105) CFA_SP SP+-2
          CFI (cfiCond105) CFA_XSP16 add(XSP16, 17)
          CFI Block cfiCond106 Using cfiCommon0
          CFI (cfiCond106) Function ZDSecMgrDeviceJoinFwd
          CFI (cfiCond106) Conditional ??CrossCallReturnLabel_58
          CFI (cfiCond106) DPL0 Frame(CFA_SP, 4)
          CFI (cfiCond106) DPH0 Frame(CFA_SP, 5)
          CFI (cfiCond106) CFA_SP SP+-7
          CFI (cfiCond106) CFA_XSP16 add(XSP16, 8)
          CFI Block cfiPicker107 Using cfiCommon1
          CFI (cfiPicker107) NoFunction
          CFI (cfiPicker107) Picker
        LCALL     ?Subroutine71 & 0xFFFF
??CrossCallReturnLabel_207:
        MOV       A,#0x2
        RET
          CFI EndBlock cfiCond104
          CFI EndBlock cfiCond105
          CFI EndBlock cfiCond106
          CFI EndBlock cfiPicker107

        RSEG BANKED_CODE:HUGECODE:NOROOT(0)
?Subroutine29:
          CFI Block cfiCond108 Using cfiCommon0
          CFI Function ZDSecMgrEstablishKey
          CFI Conditional ??CrossCallReturnLabel_112
          CFI R6 load(1, XDATA, add(CFA_XSP16, literal(-10)))
          CFI VB load(1, XDATA, add(CFA_XSP16, literal(-9)))
          CFI V0 load(1, XDATA, add(CFA_XSP16, literal(-8)))
          CFI V1 load(1, XDATA, add(CFA_XSP16, literal(-7)))
          CFI R7 load(1, XDATA, add(CFA_XSP16, literal(-6)))
          CFI ?RET_LOW load(1, XDATA, add(CFA_XSP16, literal(-5)))
          CFI ?RET_HIGH load(1, XDATA, add(CFA_XSP16, literal(-4)))
          CFI ?BRET_EXT load(1, XDATA, add(CFA_XSP16, literal(-3)))
          CFI DPL0 load(1, XDATA, add(CFA_XSP16, literal(-2)))
          CFI DPH0 load(1, XDATA, add(CFA_XSP16, literal(-1)))
          CFI CFA_SP SP+-2
          CFI CFA_XSP16 add(XSP16, 17)
          CFI Block cfiCond109 Using cfiCommon0
          CFI (cfiCond109) Function ZDSecMgrEstablishKey
          CFI (cfiCond109) Conditional ??CrossCallReturnLabel_113
          CFI (cfiCond109) R6 load(1, XDATA, add(CFA_XSP16, literal(-10)))
          CFI (cfiCond109) VB load(1, XDATA, add(CFA_XSP16, literal(-9)))
          CFI (cfiCond109) V0 load(1, XDATA, add(CFA_XSP16, literal(-8)))
          CFI (cfiCond109) V1 load(1, XDATA, add(CFA_XSP16, literal(-7)))
          CFI (cfiCond109) R7 load(1, XDATA, add(CFA_XSP16, literal(-6)))
          CFI (cfiCond109) ?RET_LOW load(1, XDATA, add(CFA_XSP16, literal(-5)))
          CFI (cfiCond109) ?RET_HIGH load(1, XDATA, add(CFA_XSP16, literal(-4)))
          CFI (cfiCond109) ?BRET_EXT load(1, XDATA, add(CFA_XSP16, literal(-3)))
          CFI (cfiCond109) DPL0 load(1, XDATA, add(CFA_XSP16, literal(-2)))
          CFI (cfiCond109) DPH0 load(1, XDATA, add(CFA_XSP16, literal(-1)))
          CFI (cfiCond109) CFA_SP SP+-2
          CFI (cfiCond109) CFA_XSP16 add(XSP16, 17)
          CFI Block cfiPicker110 Using cfiCommon1
          CFI (cfiPicker110) NoFunction
          CFI (cfiPicker110) Picker
        MOV       DPL,?XSP + 0
        MOV       DPH,?XSP + 1
          CFI EndBlock cfiCond108
          CFI EndBlock cfiCond109
          CFI EndBlock cfiPicker110
        REQUIRE ??Subroutine80_0
        ; // Fall through to label ??Subroutine80_0

        RSEG BANKED_CODE:HUGECODE:NOROOT(0)
??Subroutine80_0:
          CFI Block cfiCond111 Using cfiCommon0
          CFI Function ZDSecMgrDeviceRemove
          CFI Conditional ??CrossCallReturnLabel_114
          CFI R6 load(1, XDATA, add(CFA_XSP16, literal(-10)))
          CFI VB load(1, XDATA, add(CFA_XSP16, literal(-9)))
          CFI V0 load(1, XDATA, add(CFA_XSP16, literal(-8)))
          CFI V1 load(1, XDATA, add(CFA_XSP16, literal(-7)))
          CFI R7 load(1, XDATA, add(CFA_XSP16, literal(-6)))
          CFI ?RET_LOW load(1, XDATA, add(CFA_XSP16, literal(-5)))
          CFI ?RET_HIGH load(1, XDATA, add(CFA_XSP16, literal(-4)))
          CFI ?BRET_EXT load(1, XDATA, add(CFA_XSP16, literal(-3)))
          CFI DPL0 load(1, XDATA, add(CFA_XSP16, literal(-2)))
          CFI DPH0 load(1, XDATA, add(CFA_XSP16, literal(-1)))
          CFI CFA_SP SP+-2
          CFI CFA_XSP16 add(XSP16, 19)
          CFI Block cfiCond112 Using cfiCommon0
          CFI (cfiCond112) Function ZDSecMgrEstablishKey
          CFI (cfiCond112) Conditional ??CrossCallReturnLabel_112
          CFI (cfiCond112) R6 load(1, XDATA, add(CFA_XSP16, literal(-10)))
          CFI (cfiCond112) VB load(1, XDATA, add(CFA_XSP16, literal(-9)))
          CFI (cfiCond112) V0 load(1, XDATA, add(CFA_XSP16, literal(-8)))
          CFI (cfiCond112) V1 load(1, XDATA, add(CFA_XSP16, literal(-7)))
          CFI (cfiCond112) R7 load(1, XDATA, add(CFA_XSP16, literal(-6)))
          CFI (cfiCond112) ?RET_LOW load(1, XDATA, add(CFA_XSP16, literal(-5)))
          CFI (cfiCond112) ?RET_HIGH load(1, XDATA, add(CFA_XSP16, literal(-4)))
          CFI (cfiCond112) ?BRET_EXT load(1, XDATA, add(CFA_XSP16, literal(-3)))
          CFI (cfiCond112) DPL0 load(1, XDATA, add(CFA_XSP16, literal(-2)))
          CFI (cfiCond112) DPH0 load(1, XDATA, add(CFA_XSP16, literal(-1)))
          CFI (cfiCond112) CFA_SP SP+-2
          CFI (cfiCond112) CFA_XSP16 add(XSP16, 17)
          CFI Block cfiCond113 Using cfiCommon0
          CFI (cfiCond113) Function ZDSecMgrEstablishKey
          CFI (cfiCond113) Conditional ??CrossCallReturnLabel_113
          CFI (cfiCond113) R6 load(1, XDATA, add(CFA_XSP16, literal(-10)))
          CFI (cfiCond113) VB load(1, XDATA, add(CFA_XSP16, literal(-9)))
          CFI (cfiCond113) V0 load(1, XDATA, add(CFA_XSP16, literal(-8)))
          CFI (cfiCond113) V1 load(1, XDATA, add(CFA_XSP16, literal(-7)))
          CFI (cfiCond113) R7 load(1, XDATA, add(CFA_XSP16, literal(-6)))
          CFI (cfiCond113) ?RET_LOW load(1, XDATA, add(CFA_XSP16, literal(-5)))
          CFI (cfiCond113) ?RET_HIGH load(1, XDATA, add(CFA_XSP16, literal(-4)))
          CFI (cfiCond113) ?BRET_EXT load(1, XDATA, add(CFA_XSP16, literal(-3)))
          CFI (cfiCond113) DPL0 load(1, XDATA, add(CFA_XSP16, literal(-2)))
          CFI (cfiCond113) DPH0 load(1, XDATA, add(CFA_XSP16, literal(-1)))
          CFI (cfiCond113) CFA_SP SP+-2
          CFI (cfiCond113) CFA_XSP16 add(XSP16, 17)
          CFI Block cfiPicker114 Using cfiCommon1
          CFI (cfiPicker114) NoFunction
          CFI (cfiPicker114) Picker
        LCALL     ??Subroutine97_0 & 0xFFFF
??CrossCallReturnLabel_189:
        ; Setup parameters for call to function APSME_RemoveDeviceReq
        MOV       A,#0x5
        RET
          CFI EndBlock cfiCond111
          CFI EndBlock cfiCond112
          CFI EndBlock cfiCond113
          CFI EndBlock cfiPicker114
// 1262 
// 1263 /******************************************************************************
// 1264  * @fn          ZDSecMgrSendMasterKey
// 1265  *
// 1266  * @brief       Send MASTER key to device joining network.
// 1267  *
// 1268  * @param       device - [in] ZDSecMgrDevice_t, device info
// 1269  *
// 1270  * @return      ZStatus_t
// 1271  */

        RSEG BANKED_CODE:HUGECODE:NOROOT(0)
// 1272 ZStatus_t ZDSecMgrSendMasterKey( ZDSecMgrDevice_t* device )
ZDSecMgrSendMasterKey:
          CFI Block cfiBlock115 Using cfiCommon0
          CFI Function ZDSecMgrSendMasterKey
        CODE
// 1273 {
        FUNCALL ZDSecMgrSendMasterKey, ZDSecMgrMasterKeyLookup
        LOCFRAME ISTACK, 0, STACK
        LOCFRAME PSTACK, 0, STACK
        LOCFRAME XSTACK, 23, STACK
        LOCFRAME IOVERLAY, 0, STATIC
        LOCFRAME DOVERLAY, 0, STATIC
        ARGFRAME ISTACK, 0, STACK
        ARGFRAME PSTACK, 0, STACK
        ARGFRAME XSTACK, 23, STACK
        ARGFRAME IOVERLAY, 0, STATIC
        ARGFRAME DOVERLAY, 0, STATIC
        FUNCALL ZDSecMgrSendMasterKey, NLME_GetShortAddr
        LOCFRAME ISTACK, 0, STACK
        LOCFRAME PSTACK, 0, STACK
        LOCFRAME XSTACK, 23, STACK
        LOCFRAME IOVERLAY, 0, STATIC
        LOCFRAME DOVERLAY, 0, STATIC
        ARGFRAME ISTACK, 0, STACK
        ARGFRAME PSTACK, 0, STACK
        ARGFRAME XSTACK, 23, STACK
        ARGFRAME IOVERLAY, 0, STATIC
        ARGFRAME DOVERLAY, 0, STATIC
        FUNCALL ZDSecMgrSendMasterKey, APSME_TransportKeyReq
        LOCFRAME ISTACK, 0, STACK
        LOCFRAME PSTACK, 0, STACK
        LOCFRAME XSTACK, 23, STACK
        LOCFRAME IOVERLAY, 0, STATIC
        LOCFRAME DOVERLAY, 0, STATIC
        ARGFRAME ISTACK, 0, STACK
        ARGFRAME PSTACK, 0, STACK
        ARGFRAME XSTACK, 23, STACK
        ARGFRAME IOVERLAY, 0, STATIC
        ARGFRAME DOVERLAY, 0, STATIC
        REQUIRE ?V0
        REQUIRE ?V1
        MOV       A,#-0xa
        LCALL     ?BANKED_ENTER_XDATA
          CFI DPH0 load(1, XDATA, add(CFA_XSP16, literal(-1)))
          CFI DPL0 load(1, XDATA, add(CFA_XSP16, literal(-2)))
          CFI ?BRET_EXT load(1, XDATA, add(CFA_XSP16, literal(-3)))
          CFI ?RET_HIGH load(1, XDATA, add(CFA_XSP16, literal(-4)))
          CFI ?RET_LOW load(1, XDATA, add(CFA_XSP16, literal(-5)))
          CFI R7 load(1, XDATA, add(CFA_XSP16, literal(-6)))
          CFI V1 load(1, XDATA, add(CFA_XSP16, literal(-7)))
          CFI V0 load(1, XDATA, add(CFA_XSP16, literal(-8)))
          CFI VB load(1, XDATA, add(CFA_XSP16, literal(-9)))
          CFI R6 load(1, XDATA, add(CFA_XSP16, literal(-10)))
          CFI CFA_SP SP+0
          CFI CFA_XSP16 add(XSP16, 10)
        ; Saved register size: 10
        ; Auto size: 13
        MOV       A,#-0xd
        LCALL     ?ALLOC_XSTACK8
          CFI CFA_XSP16 add(XSP16, 23)
        MOV       A,R2
        MOV       R6,A
        MOV       A,R3
        MOV       R7,A
// 1274   ZStatus_t               status;
// 1275   APSME_TransportKeyReq_t req;
// 1276 
// 1277 
// 1278   req.keyType = KEY_TYPE_TC_MASTER;
        MOV       A,#0x2
        LCALL     ?XSTACK_DISP0_8
        CLR       A
        LCALL     ?Subroutine19 & 0xFFFF
// 1279   req.extAddr = device->extAddr;
??CrossCallReturnLabel_6:
        LCALL     ?XSTACK_DISP0_8
        LCALL     ??Subroutine91_0 & 0xFFFF
// 1280   req.tunnel  = NULL;
??CrossCallReturnLabel_154:
        MOV       A,#0xb
        LCALL     ?XSTACK_DISP0_8
        CLR       A
        MOVX      @DPTR,A
        INC       DPTR
        MOVX      @DPTR,A
// 1281 
// 1282   ZDSecMgrMasterKeyLookup( device->ctrl->entry->ami, &req.key );
        ; Setup parameters for call to function ZDSecMgrMasterKeyLookup
        MOV       A,#0x4
        LCALL     ?XSTACK_DISP0_8
        MOV       R4,DPL
        MOV       R5,DPH
        MOV       DPL,R2
        MOV       DPH,R3
        INC       DPTR
        INC       DPTR
        INC       DPTR
        INC       DPTR
        INC       DPTR
        INC       DPTR
        INC       DPTR
        INC       DPTR
        LCALL     ??Subroutine81_0 & 0xFFFF
??CrossCallReturnLabel_116:
        LCALL     ?Subroutine45 & 0xFFFF
??CrossCallReturnLabel_53:
        LCALL     `??ZDSecMgrMasterKeyLookup::?relay`; Banked call to: ZDSecMgrMasterKeyLookup
// 1283 
// 1284   //check if using secure hop to to parent
// 1285   if ( device->parentAddr != NLME_GetShortAddr() )
        ; Setup parameters for call to function NLME_GetShortAddr
        LCALL     ?Subroutine50 & 0xFFFF
??CrossCallReturnLabel_194:
        MOV       A,R2
        XRL       A,R0
        JNZ       ??ZDSecMgrSendMasterKey_0
        MOV       A,R3
        XRL       A,R1
??ZDSecMgrSendMasterKey_0:
        JZ        ??ZDSecMgrSendMasterKey_1
// 1286   {
// 1287     //send to parent with security
// 1288     req.dstAddr   = device->parentAddr;
        LCALL     ?Subroutine16 & 0xFFFF
// 1289     req.nwkSecure = TRUE;
??CrossCallReturnLabel_177:
        LCALL     ?XSTACK_DISP0_8
        MOV       A,#0x1
        MOVX      @DPTR,A
// 1290     req.apsSecure = TRUE;
        MOV       A,#0x9
        LCALL     ?XSTACK_DISP0_8
        MOV       A,#0x1
        SJMP      ??ZDSecMgrSendMasterKey_2
// 1291   }
// 1292   else
// 1293   {
// 1294     //direct with no security
// 1295     req.dstAddr   = device->nwkAddr;
??ZDSecMgrSendMasterKey_1:
        MOV       DPL,R6
        MOV       DPH,R7
        LCALL     ??Subroutine99_0 & 0xFFFF
??CrossCallReturnLabel_197:
        LCALL     ?Subroutine16 & 0xFFFF
// 1296     req.nwkSecure = FALSE;
??CrossCallReturnLabel_178:
        LCALL     ?XSTACK_DISP0_8
        CLR       A
        MOVX      @DPTR,A
// 1297     req.apsSecure = FALSE;
        MOV       A,#0x9
        LCALL     ?XSTACK_DISP0_8
        CLR       A
// 1298   }
??ZDSecMgrSendMasterKey_2:
        LCALL     ?Subroutine32 & 0xFFFF
// 1299 
// 1300   status = APSME_TransportKeyReq( &req );
// 1301 
// 1302   return status;
??CrossCallReturnLabel_25:
        LJMP      ??Subroutine76_0 & 0xFFFF
// 1303 }
          CFI EndBlock cfiBlock115

        RSEG BANKED_CODE:HUGECODE:NOROOT(0)
?Subroutine46:
          CFI Block cfiCond116 Using cfiCommon0
          CFI Function ZDSecMgrDeviceEntryAdd
          CFI Conditional ??CrossCallReturnLabel_117
          CFI R6 load(1, XDATA, add(CFA_XSP16, literal(-12)))
          CFI VB load(1, XDATA, add(CFA_XSP16, literal(-11)))
          CFI V0 load(1, XDATA, add(CFA_XSP16, literal(-10)))
          CFI V1 load(1, XDATA, add(CFA_XSP16, literal(-9)))
          CFI V2 load(1, XDATA, add(CFA_XSP16, literal(-8)))
          CFI V3 load(1, XDATA, add(CFA_XSP16, literal(-7)))
          CFI R7 load(1, XDATA, add(CFA_XSP16, literal(-6)))
          CFI ?RET_LOW load(1, XDATA, add(CFA_XSP16, literal(-5)))
          CFI ?RET_HIGH load(1, XDATA, add(CFA_XSP16, literal(-4)))
          CFI ?BRET_EXT load(1, XDATA, add(CFA_XSP16, literal(-3)))
          CFI DPL0 load(1, XDATA, add(CFA_XSP16, literal(-2)))
          CFI DPH0 load(1, XDATA, add(CFA_XSP16, literal(-1)))
          CFI CFA_SP SP+-2
          CFI CFA_XSP16 add(XSP16, 14)
          CFI Block cfiCond117 Using cfiCommon0
          CFI (cfiCond117) Function ZDSecMgrDeviceEntryAdd
          CFI (cfiCond117) Conditional ??CrossCallReturnLabel_118
          CFI (cfiCond117) R6 load(1, XDATA, add(CFA_XSP16, literal(-12)))
          CFI (cfiCond117) VB load(1, XDATA, add(CFA_XSP16, literal(-11)))
          CFI (cfiCond117) V0 load(1, XDATA, add(CFA_XSP16, literal(-10)))
          CFI (cfiCond117) V1 load(1, XDATA, add(CFA_XSP16, literal(-9)))
          CFI (cfiCond117) V2 load(1, XDATA, add(CFA_XSP16, literal(-8)))
          CFI (cfiCond117) V3 load(1, XDATA, add(CFA_XSP16, literal(-7)))
          CFI (cfiCond117) R7 load(1, XDATA, add(CFA_XSP16, literal(-6)))
          CFI (cfiCond117) ?RET_LOW load(1, XDATA, add(CFA_XSP16, literal(-5)))
          CFI (cfiCond117) ?RET_HIGH load(1, XDATA, add(CFA_XSP16, literal(-4)))
          CFI (cfiCond117) ?BRET_EXT load(1, XDATA, add(CFA_XSP16, literal(-3)))
          CFI (cfiCond117) DPL0 load(1, XDATA, add(CFA_XSP16, literal(-2)))
          CFI (cfiCond117) DPH0 load(1, XDATA, add(CFA_XSP16, literal(-1)))
          CFI (cfiCond117) CFA_SP SP+-2
          CFI (cfiCond117) CFA_XSP16 add(XSP16, 14)
          CFI Block cfiPicker118 Using cfiCommon1
          CFI (cfiPicker118) NoFunction
          CFI (cfiPicker118) Picker
        MOV       DPL,?XSP + 0
        MOV       DPH,?XSP + 1
          CFI EndBlock cfiCond116
          CFI EndBlock cfiCond117
          CFI EndBlock cfiPicker118
        REQUIRE ??Subroutine81_0
        ; // Fall through to label ??Subroutine81_0

        RSEG BANKED_CODE:HUGECODE:NOROOT(0)
??Subroutine81_0:
          CFI Block cfiCond119 Using cfiCommon0
          CFI Function ZDSecMgrAppKeyGet
          CFI Conditional ??CrossCallReturnLabel_115
          CFI DPL0 Frame(CFA_SP, 4)
          CFI DPH0 Frame(CFA_SP, 5)
          CFI CFA_SP SP+-8
          CFI Block cfiCond120 Using cfiCommon0
          CFI (cfiCond120) Function ZDSecMgrSendMasterKey
          CFI (cfiCond120) Conditional ??CrossCallReturnLabel_116
          CFI (cfiCond120) R6 load(1, XDATA, add(CFA_XSP16, literal(-10)))
          CFI (cfiCond120) VB load(1, XDATA, add(CFA_XSP16, literal(-9)))
          CFI (cfiCond120) V0 load(1, XDATA, add(CFA_XSP16, literal(-8)))
          CFI (cfiCond120) V1 load(1, XDATA, add(CFA_XSP16, literal(-7)))
          CFI (cfiCond120) R7 load(1, XDATA, add(CFA_XSP16, literal(-6)))
          CFI (cfiCond120) ?RET_LOW load(1, XDATA, add(CFA_XSP16, literal(-5)))
          CFI (cfiCond120) ?RET_HIGH load(1, XDATA, add(CFA_XSP16, literal(-4)))
          CFI (cfiCond120) ?BRET_EXT load(1, XDATA, add(CFA_XSP16, literal(-3)))
          CFI (cfiCond120) DPL0 load(1, XDATA, add(CFA_XSP16, literal(-2)))
          CFI (cfiCond120) DPH0 load(1, XDATA, add(CFA_XSP16, literal(-1)))
          CFI (cfiCond120) CFA_SP SP+-2
          CFI (cfiCond120) CFA_XSP16 add(XSP16, 23)
          CFI Block cfiCond121 Using cfiCommon0
          CFI (cfiCond121) Function ZDSecMgrDeviceEntryAdd
          CFI (cfiCond121) Conditional ??CrossCallReturnLabel_117
          CFI (cfiCond121) R6 load(1, XDATA, add(CFA_XSP16, literal(-12)))
          CFI (cfiCond121) VB load(1, XDATA, add(CFA_XSP16, literal(-11)))
          CFI (cfiCond121) V0 load(1, XDATA, add(CFA_XSP16, literal(-10)))
          CFI (cfiCond121) V1 load(1, XDATA, add(CFA_XSP16, literal(-9)))
          CFI (cfiCond121) V2 load(1, XDATA, add(CFA_XSP16, literal(-8)))
          CFI (cfiCond121) V3 load(1, XDATA, add(CFA_XSP16, literal(-7)))
          CFI (cfiCond121) R7 load(1, XDATA, add(CFA_XSP16, literal(-6)))
          CFI (cfiCond121) ?RET_LOW load(1, XDATA, add(CFA_XSP16, literal(-5)))
          CFI (cfiCond121) ?RET_HIGH load(1, XDATA, add(CFA_XSP16, literal(-4)))
          CFI (cfiCond121) ?BRET_EXT load(1, XDATA, add(CFA_XSP16, literal(-3)))
          CFI (cfiCond121) DPL0 load(1, XDATA, add(CFA_XSP16, literal(-2)))
          CFI (cfiCond121) DPH0 load(1, XDATA, add(CFA_XSP16, literal(-1)))
          CFI (cfiCond121) CFA_SP SP+-2
          CFI (cfiCond121) CFA_XSP16 add(XSP16, 14)
          CFI Block cfiCond122 Using cfiCommon0
          CFI (cfiCond122) Function ZDSecMgrDeviceEntryAdd
          CFI (cfiCond122) Conditional ??CrossCallReturnLabel_118
          CFI (cfiCond122) R6 load(1, XDATA, add(CFA_XSP16, literal(-12)))
          CFI (cfiCond122) VB load(1, XDATA, add(CFA_XSP16, literal(-11)))
          CFI (cfiCond122) V0 load(1, XDATA, add(CFA_XSP16, literal(-10)))
          CFI (cfiCond122) V1 load(1, XDATA, add(CFA_XSP16, literal(-9)))
          CFI (cfiCond122) V2 load(1, XDATA, add(CFA_XSP16, literal(-8)))
          CFI (cfiCond122) V3 load(1, XDATA, add(CFA_XSP16, literal(-7)))
          CFI (cfiCond122) R7 load(1, XDATA, add(CFA_XSP16, literal(-6)))
          CFI (cfiCond122) ?RET_LOW load(1, XDATA, add(CFA_XSP16, literal(-5)))
          CFI (cfiCond122) ?RET_HIGH load(1, XDATA, add(CFA_XSP16, literal(-4)))
          CFI (cfiCond122) ?BRET_EXT load(1, XDATA, add(CFA_XSP16, literal(-3)))
          CFI (cfiCond122) DPL0 load(1, XDATA, add(CFA_XSP16, literal(-2)))
          CFI (cfiCond122) DPH0 load(1, XDATA, add(CFA_XSP16, literal(-1)))
          CFI (cfiCond122) CFA_SP SP+-2
          CFI (cfiCond122) CFA_XSP16 add(XSP16, 14)
          CFI Block cfiPicker123 Using cfiCommon1
          CFI (cfiPicker123) NoFunction
          CFI (cfiPicker123) Picker
        LCALL     ?Subroutine67 & 0xFFFF
??CrossCallReturnLabel_123:
        RET
          CFI EndBlock cfiCond119
          CFI EndBlock cfiCond120
          CFI EndBlock cfiCond121
          CFI EndBlock cfiCond122
          CFI EndBlock cfiPicker123

        RSEG BANKED_CODE:HUGECODE:NOROOT(0)
?Subroutine67:
          CFI Block cfiCond124 Using cfiCommon0
          CFI Function ZDSecMgrDeviceEntryAdd
          CFI Conditional ??CrossCallReturnLabel_123, ??CrossCallReturnLabel_117
          CFI R6 load(1, XDATA, add(CFA_XSP16, literal(-12)))
          CFI VB load(1, XDATA, add(CFA_XSP16, literal(-11)))
          CFI V0 load(1, XDATA, add(CFA_XSP16, literal(-10)))
          CFI V1 load(1, XDATA, add(CFA_XSP16, literal(-9)))
          CFI V2 load(1, XDATA, add(CFA_XSP16, literal(-8)))
          CFI V3 load(1, XDATA, add(CFA_XSP16, literal(-7)))
          CFI R7 load(1, XDATA, add(CFA_XSP16, literal(-6)))
          CFI ?RET_LOW load(1, XDATA, add(CFA_XSP16, literal(-5)))
          CFI ?RET_HIGH load(1, XDATA, add(CFA_XSP16, literal(-4)))
          CFI ?BRET_EXT load(1, XDATA, add(CFA_XSP16, literal(-3)))
          CFI DPL0 load(1, XDATA, add(CFA_XSP16, literal(-2)))
          CFI DPH0 load(1, XDATA, add(CFA_XSP16, literal(-1)))
          CFI CFA_SP SP+-4
          CFI CFA_XSP16 add(XSP16, 14)
          CFI Block cfiCond125 Using cfiCommon0
          CFI (cfiCond125) Function ZDSecMgrDeviceEntryAdd
          CFI (cfiCond125) Conditional ??CrossCallReturnLabel_123, ??CrossCallReturnLabel_118
          CFI (cfiCond125) R6 load(1, XDATA, add(CFA_XSP16, literal(-12)))
          CFI (cfiCond125) VB load(1, XDATA, add(CFA_XSP16, literal(-11)))
          CFI (cfiCond125) V0 load(1, XDATA, add(CFA_XSP16, literal(-10)))
          CFI (cfiCond125) V1 load(1, XDATA, add(CFA_XSP16, literal(-9)))
          CFI (cfiCond125) V2 load(1, XDATA, add(CFA_XSP16, literal(-8)))
          CFI (cfiCond125) V3 load(1, XDATA, add(CFA_XSP16, literal(-7)))
          CFI (cfiCond125) R7 load(1, XDATA, add(CFA_XSP16, literal(-6)))
          CFI (cfiCond125) ?RET_LOW load(1, XDATA, add(CFA_XSP16, literal(-5)))
          CFI (cfiCond125) ?RET_HIGH load(1, XDATA, add(CFA_XSP16, literal(-4)))
          CFI (cfiCond125) ?BRET_EXT load(1, XDATA, add(CFA_XSP16, literal(-3)))
          CFI (cfiCond125) DPL0 load(1, XDATA, add(CFA_XSP16, literal(-2)))
          CFI (cfiCond125) DPH0 load(1, XDATA, add(CFA_XSP16, literal(-1)))
          CFI (cfiCond125) CFA_SP SP+-4
          CFI (cfiCond125) CFA_XSP16 add(XSP16, 14)
          CFI Block cfiCond126 Using cfiCommon0
          CFI (cfiCond126) Function ZDSecMgrAppKeyGet
          CFI (cfiCond126) Conditional ??CrossCallReturnLabel_123, ??CrossCallReturnLabel_115
          CFI (cfiCond126) DPL0 Frame(CFA_SP, 4)
          CFI (cfiCond126) DPH0 Frame(CFA_SP, 5)
          CFI (cfiCond126) CFA_SP SP+-10
          CFI Block cfiCond127 Using cfiCommon0
          CFI (cfiCond127) Function ZDSecMgrSendMasterKey
          CFI (cfiCond127) Conditional ??CrossCallReturnLabel_123, ??CrossCallReturnLabel_116
          CFI (cfiCond127) R6 load(1, XDATA, add(CFA_XSP16, literal(-10)))
          CFI (cfiCond127) VB load(1, XDATA, add(CFA_XSP16, literal(-9)))
          CFI (cfiCond127) V0 load(1, XDATA, add(CFA_XSP16, literal(-8)))
          CFI (cfiCond127) V1 load(1, XDATA, add(CFA_XSP16, literal(-7)))
          CFI (cfiCond127) R7 load(1, XDATA, add(CFA_XSP16, literal(-6)))
          CFI (cfiCond127) ?RET_LOW load(1, XDATA, add(CFA_XSP16, literal(-5)))
          CFI (cfiCond127) ?RET_HIGH load(1, XDATA, add(CFA_XSP16, literal(-4)))
          CFI (cfiCond127) ?BRET_EXT load(1, XDATA, add(CFA_XSP16, literal(-3)))
          CFI (cfiCond127) DPL0 load(1, XDATA, add(CFA_XSP16, literal(-2)))
          CFI (cfiCond127) DPH0 load(1, XDATA, add(CFA_XSP16, literal(-1)))
          CFI (cfiCond127) CFA_SP SP+-4
          CFI (cfiCond127) CFA_XSP16 add(XSP16, 23)
          CFI Block cfiCond128 Using cfiCommon0
          CFI (cfiCond128) Function ZDSecMgrAppKeyGet
          CFI (cfiCond128) Conditional ??CrossCallReturnLabel_122, ??CrossCallReturnLabel_52
          CFI (cfiCond128) DPL0 Frame(CFA_SP, 4)
          CFI (cfiCond128) DPH0 Frame(CFA_SP, 5)
          CFI (cfiCond128) CFA_SP SP+-9
          CFI Block cfiCond129 Using cfiCommon0
          CFI (cfiCond129) Function ZDSecMgrSendMasterKey
          CFI (cfiCond129) Conditional ??CrossCallReturnLabel_122, ??CrossCallReturnLabel_53
          CFI (cfiCond129) R6 load(1, XDATA, add(CFA_XSP16, literal(-10)))
          CFI (cfiCond129) VB load(1, XDATA, add(CFA_XSP16, literal(-9)))
          CFI (cfiCond129) V0 load(1, XDATA, add(CFA_XSP16, literal(-8)))
          CFI (cfiCond129) V1 load(1, XDATA, add(CFA_XSP16, literal(-7)))
          CFI (cfiCond129) R7 load(1, XDATA, add(CFA_XSP16, literal(-6)))
          CFI (cfiCond129) ?RET_LOW load(1, XDATA, add(CFA_XSP16, literal(-5)))
          CFI (cfiCond129) ?RET_HIGH load(1, XDATA, add(CFA_XSP16, literal(-4)))
          CFI (cfiCond129) ?BRET_EXT load(1, XDATA, add(CFA_XSP16, literal(-3)))
          CFI (cfiCond129) DPL0 load(1, XDATA, add(CFA_XSP16, literal(-2)))
          CFI (cfiCond129) DPH0 load(1, XDATA, add(CFA_XSP16, literal(-1)))
          CFI (cfiCond129) CFA_SP SP+-4
          CFI (cfiCond129) CFA_XSP16 add(XSP16, 23)
          CFI Block cfiCond130 Using cfiCommon0
          CFI (cfiCond130) Function ZDSecMgrDeviceCtrlHandler
          CFI (cfiCond130) Conditional ??CrossCallReturnLabel_124, ??CrossCallReturnLabel_120
          CFI (cfiCond130) R6 load(1, XDATA, add(CFA_XSP16, literal(-9)))
          CFI (cfiCond130) VB load(1, XDATA, add(CFA_XSP16, literal(-8)))
          CFI (cfiCond130) V0 load(1, XDATA, add(CFA_XSP16, literal(-7)))
          CFI (cfiCond130) R7 load(1, XDATA, add(CFA_XSP16, literal(-6)))
          CFI (cfiCond130) ?RET_LOW load(1, XDATA, add(CFA_XSP16, literal(-5)))
          CFI (cfiCond130) ?RET_HIGH load(1, XDATA, add(CFA_XSP16, literal(-4)))
          CFI (cfiCond130) ?BRET_EXT load(1, XDATA, add(CFA_XSP16, literal(-3)))
          CFI (cfiCond130) DPL0 load(1, XDATA, add(CFA_XSP16, literal(-2)))
          CFI (cfiCond130) DPH0 load(1, XDATA, add(CFA_XSP16, literal(-1)))
          CFI (cfiCond130) CFA_SP SP+-4
          CFI (cfiCond130) CFA_XSP16 add(XSP16, 9)
          CFI Block cfiCond131 Using cfiCommon0
          CFI (cfiCond131) Function ZDSecMgrDeviceCtrlHandler
          CFI (cfiCond131) Conditional ??CrossCallReturnLabel_124, ??CrossCallReturnLabel_121
          CFI (cfiCond131) R6 load(1, XDATA, add(CFA_XSP16, literal(-9)))
          CFI (cfiCond131) VB load(1, XDATA, add(CFA_XSP16, literal(-8)))
          CFI (cfiCond131) V0 load(1, XDATA, add(CFA_XSP16, literal(-7)))
          CFI (cfiCond131) R7 load(1, XDATA, add(CFA_XSP16, literal(-6)))
          CFI (cfiCond131) ?RET_LOW load(1, XDATA, add(CFA_XSP16, literal(-5)))
          CFI (cfiCond131) ?RET_HIGH load(1, XDATA, add(CFA_XSP16, literal(-4)))
          CFI (cfiCond131) ?BRET_EXT load(1, XDATA, add(CFA_XSP16, literal(-3)))
          CFI (cfiCond131) DPL0 load(1, XDATA, add(CFA_XSP16, literal(-2)))
          CFI (cfiCond131) DPH0 load(1, XDATA, add(CFA_XSP16, literal(-1)))
          CFI (cfiCond131) CFA_SP SP+-4
          CFI (cfiCond131) CFA_XSP16 add(XSP16, 9)
          CFI Block cfiCond132 Using cfiCommon0
          CFI (cfiCond132) Function ZDSecMgrDeviceCtrlHandler
          CFI (cfiCond132) Conditional ??CrossCallReturnLabel_124, ??CrossCallReturnLabel_119
          CFI (cfiCond132) R6 load(1, XDATA, add(CFA_XSP16, literal(-9)))
          CFI (cfiCond132) VB load(1, XDATA, add(CFA_XSP16, literal(-8)))
          CFI (cfiCond132) V0 load(1, XDATA, add(CFA_XSP16, literal(-7)))
          CFI (cfiCond132) R7 load(1, XDATA, add(CFA_XSP16, literal(-6)))
          CFI (cfiCond132) ?RET_LOW load(1, XDATA, add(CFA_XSP16, literal(-5)))
          CFI (cfiCond132) ?RET_HIGH load(1, XDATA, add(CFA_XSP16, literal(-4)))
          CFI (cfiCond132) ?BRET_EXT load(1, XDATA, add(CFA_XSP16, literal(-3)))
          CFI (cfiCond132) DPL0 load(1, XDATA, add(CFA_XSP16, literal(-2)))
          CFI (cfiCond132) DPH0 load(1, XDATA, add(CFA_XSP16, literal(-1)))
          CFI (cfiCond132) CFA_SP SP+-4
          CFI (cfiCond132) CFA_XSP16 add(XSP16, 9)
          CFI Block cfiPicker133 Using cfiCommon1
          CFI (cfiPicker133) NoFunction
          CFI (cfiPicker133) Picker
        LCALL     ??Subroutine104_0 & 0xFFFF
??CrossCallReturnLabel_224:
        MOV       DPH,A
        MOV       DPL,R0
        RET
          CFI EndBlock cfiCond124
          CFI EndBlock cfiCond125
          CFI EndBlock cfiCond126
          CFI EndBlock cfiCond127
          CFI EndBlock cfiCond128
          CFI EndBlock cfiCond129
          CFI EndBlock cfiCond130
          CFI EndBlock cfiCond131
          CFI EndBlock cfiCond132
          CFI EndBlock cfiPicker133

        RSEG BANKED_CODE:HUGECODE:NOROOT(0)
?Subroutine45:
          CFI Block cfiCond134 Using cfiCommon0
          CFI Function ZDSecMgrAppKeyGet
          CFI Conditional ??CrossCallReturnLabel_52
          CFI DPL0 Frame(CFA_SP, 4)
          CFI DPH0 Frame(CFA_SP, 5)
          CFI CFA_SP SP+-7
          CFI Block cfiCond135 Using cfiCommon0
          CFI (cfiCond135) Function ZDSecMgrSendMasterKey
          CFI (cfiCond135) Conditional ??CrossCallReturnLabel_53
          CFI (cfiCond135) R6 load(1, XDATA, add(CFA_XSP16, literal(-10)))
          CFI (cfiCond135) VB load(1, XDATA, add(CFA_XSP16, literal(-9)))
          CFI (cfiCond135) V0 load(1, XDATA, add(CFA_XSP16, literal(-8)))
          CFI (cfiCond135) V1 load(1, XDATA, add(CFA_XSP16, literal(-7)))
          CFI (cfiCond135) R7 load(1, XDATA, add(CFA_XSP16, literal(-6)))
          CFI (cfiCond135) ?RET_LOW load(1, XDATA, add(CFA_XSP16, literal(-5)))
          CFI (cfiCond135) ?RET_HIGH load(1, XDATA, add(CFA_XSP16, literal(-4)))
          CFI (cfiCond135) ?BRET_EXT load(1, XDATA, add(CFA_XSP16, literal(-3)))
          CFI (cfiCond135) DPL0 load(1, XDATA, add(CFA_XSP16, literal(-2)))
          CFI (cfiCond135) DPH0 load(1, XDATA, add(CFA_XSP16, literal(-1)))
          CFI (cfiCond135) CFA_SP SP+-2
          CFI (cfiCond135) CFA_XSP16 add(XSP16, 23)
          CFI Block cfiPicker136 Using cfiCommon1
          CFI (cfiPicker136) NoFunction
          CFI (cfiPicker136) Picker
        LCALL     ?Subroutine67 & 0xFFFF
??CrossCallReturnLabel_122:
        LCALL     ??Subroutine105_0 & 0xFFFF
??CrossCallReturnLabel_225:
        RET
          CFI EndBlock cfiCond134
          CFI EndBlock cfiCond135
          CFI EndBlock cfiPicker136
// 1304 
// 1305 /******************************************************************************
// 1306  * @fn          ZDSecMgrSendNwkKey
// 1307  *
// 1308  * @brief       Send NWK key to device joining network.
// 1309  *
// 1310  * @param       device - [in] ZDSecMgrDevice_t, device info
// 1311  *
// 1312  * @return      ZStatus_t
// 1313  */

        RSEG BANKED_CODE:HUGECODE:NOROOT(0)
// 1314 ZStatus_t ZDSecMgrSendNwkKey( ZDSecMgrDevice_t* device )
ZDSecMgrSendNwkKey:
          CFI Block cfiBlock137 Using cfiCommon0
          CFI Function ZDSecMgrSendNwkKey
        CODE
// 1315 {
        FUNCALL ZDSecMgrSendNwkKey, NLME_GetShortAddr
        LOCFRAME ISTACK, 0, STACK
        LOCFRAME PSTACK, 0, STACK
        LOCFRAME XSTACK, 25, STACK
        LOCFRAME IOVERLAY, 0, STATIC
        LOCFRAME DOVERLAY, 0, STATIC
        ARGFRAME ISTACK, 0, STACK
        ARGFRAME PSTACK, 0, STACK
        ARGFRAME XSTACK, 25, STACK
        ARGFRAME IOVERLAY, 0, STATIC
        ARGFRAME DOVERLAY, 0, STATIC
        FUNCALL ZDSecMgrSendNwkKey, NLME_GetShortAddr
        LOCFRAME ISTACK, 0, STACK
        LOCFRAME PSTACK, 0, STACK
        LOCFRAME XSTACK, 25, STACK
        LOCFRAME IOVERLAY, 0, STATIC
        LOCFRAME DOVERLAY, 0, STATIC
        ARGFRAME ISTACK, 0, STACK
        ARGFRAME PSTACK, 0, STACK
        ARGFRAME XSTACK, 25, STACK
        ARGFRAME IOVERLAY, 0, STATIC
        ARGFRAME DOVERLAY, 0, STATIC
        FUNCALL ZDSecMgrSendNwkKey, APSME_TransportKeyReq
        LOCFRAME ISTACK, 0, STACK
        LOCFRAME PSTACK, 0, STACK
        LOCFRAME XSTACK, 25, STACK
        LOCFRAME IOVERLAY, 0, STATIC
        LOCFRAME DOVERLAY, 0, STATIC
        ARGFRAME ISTACK, 0, STACK
        ARGFRAME PSTACK, 0, STACK
        ARGFRAME XSTACK, 25, STACK
        ARGFRAME IOVERLAY, 0, STATIC
        ARGFRAME DOVERLAY, 0, STATIC
        REQUIRE ?V0
        REQUIRE ?V1
        REQUIRE ?V2
        REQUIRE ?V3
        MOV       A,#-0xc
        LCALL     ?BANKED_ENTER_XDATA
          CFI DPH0 load(1, XDATA, add(CFA_XSP16, literal(-1)))
          CFI DPL0 load(1, XDATA, add(CFA_XSP16, literal(-2)))
          CFI ?BRET_EXT load(1, XDATA, add(CFA_XSP16, literal(-3)))
          CFI ?RET_HIGH load(1, XDATA, add(CFA_XSP16, literal(-4)))
          CFI ?RET_LOW load(1, XDATA, add(CFA_XSP16, literal(-5)))
          CFI R7 load(1, XDATA, add(CFA_XSP16, literal(-6)))
          CFI V3 load(1, XDATA, add(CFA_XSP16, literal(-7)))
          CFI V2 load(1, XDATA, add(CFA_XSP16, literal(-8)))
          CFI V1 load(1, XDATA, add(CFA_XSP16, literal(-9)))
          CFI V0 load(1, XDATA, add(CFA_XSP16, literal(-10)))
          CFI VB load(1, XDATA, add(CFA_XSP16, literal(-11)))
          CFI R6 load(1, XDATA, add(CFA_XSP16, literal(-12)))
          CFI CFA_SP SP+0
          CFI CFA_XSP16 add(XSP16, 12)
        ; Saved register size: 12
        ; Auto size: 13
        MOV       A,#-0xd
        LCALL     ?ALLOC_XSTACK8
          CFI CFA_XSP16 add(XSP16, 25)
        MOV       A,R2
        MOV       R6,A
        MOV       A,R3
        MOV       R7,A
// 1316   ZStatus_t               status;
// 1317   APSME_TransportKeyReq_t req;
// 1318   APSDE_FrameTunnel_t     tunnel;
// 1319 
// 1320   req.dstAddr   = device->nwkAddr;
        MOV       DPL,R2
        MOV       DPH,A
        LCALL     ?Subroutine49 & 0xFFFF
??CrossCallReturnLabel_59:
        MOV       A,R0
        MOVX      @DPTR,A
        INC       DPTR
        MOV       A,R1
        LCALL     ?Subroutine19 & 0xFFFF
// 1321   req.extAddr   = device->extAddr;
??CrossCallReturnLabel_7:
        LCALL     ?XSTACK_DISP0_8
        LCALL     ??Subroutine96_0 & 0xFFFF
// 1322 
// 1323   if ( ZG_CHECK_SECURITY_MODE == ZG_SECURITY_PRO_HIGH )
// 1324     req.keyType   = KEY_TYPE_NWK_HIGH;
// 1325   else
// 1326     req.keyType   = KEY_TYPE_NWK;
??CrossCallReturnLabel_185:
        LCALL     ?XSTACK_DISP0_8
        MOV       A,#0x1
        MOVX      @DPTR,A
// 1327 
// 1328   if ( (ZG_CHECK_SECURITY_MODE == ZG_SECURITY_PRO_HIGH)
// 1329       || (ZG_CHECK_SECURITY_MODE == ZG_SECURITY_SE_STANDARD) )
// 1330   {
// 1331     // set values
// 1332     req.keySeqNum = _NIB.nwkActiveKey.keySeqNum;
// 1333     req.key       = _NIB.nwkActiveKey.key;
// 1334     //devtag.pro.security.todo - make sure that if there is no link key the NWK
// 1335     //key isn't used to secure the frame at the APS layer -- since the receiving
// 1336     //device may not have a NWK key yet
// 1337     req.apsSecure = TRUE;
// 1338 
// 1339     // check if using secure hop to to parent
// 1340     if ( device->parentAddr == NLME_GetShortAddr() )
// 1341     {
// 1342       req.nwkSecure = FALSE;
// 1343       req.tunnel    = NULL;
// 1344     }
// 1345     else
// 1346     {
// 1347       req.nwkSecure   = TRUE;
// 1348       req.tunnel      = &tunnel;
// 1349       req.tunnel->tna = device->parentAddr;
// 1350       req.tunnel->dea = device->extAddr;
// 1351     }
// 1352   }
// 1353   else
// 1354   {
// 1355     // default values
// 1356     //devtag.0604.verify
// 1357     req.nwkSecure = TRUE;
        MOV       A,#0xa
        LCALL     ?XSTACK_DISP0_8
        MOV       A,#0x1
        MOVX      @DPTR,A
// 1358     req.apsSecure = FALSE;
        MOV       A,#0x9
        LCALL     ?XSTACK_DISP0_8
        CLR       A
        MOVX      @DPTR,A
// 1359     req.tunnel    = NULL;
        MOV       A,#0xb
        LCALL     ?XSTACK_DISP0_8
        CLR       A
        MOVX      @DPTR,A
        INC       DPTR
        MOVX      @DPTR,A
// 1360 
// 1361     if ( device->parentAddr != NLME_GetShortAddr() )
        ; Setup parameters for call to function NLME_GetShortAddr
        LCALL     `??NLME_GetShortAddr::?relay`; Banked call to: NLME_GetShortAddr
        MOV       ?V0,R2
        MOV       ?V1,R3
        MOV       R0,?V0
        MOV       R1,?V1
        MOV       A,R6
        LCALL     ?Subroutine61 & 0xFFFF
??CrossCallReturnLabel_86:
        MOV       DPL,?V0
        MOV       DPH,A
        LCALL     ??Subroutine85_0 & 0xFFFF
??CrossCallReturnLabel_126:
        MOV       A,R0
        XRL       A,R2
        JNZ       ??ZDSecMgrSendNwkKey_0
        MOV       A,R1
        XRL       A,R3
??ZDSecMgrSendNwkKey_0:
        JZ        ??CrossCallReturnLabel_32
// 1362     {
// 1363       req.dstAddr = device->parentAddr;
        MOV       DPL,?XSP + 0
        MOV       DPH,?XSP + 1
        LCALL     ?Subroutine35 & 0xFFFF
// 1364     }
// 1365 
// 1366     // special cases
// 1367     //devtag.0604.todo - modify to preconfig flag
// 1368     if ( device->secure == FALSE )
??CrossCallReturnLabel_32:
        MOV       DPL,R6
        MOV       DPH,R7
        INC       DPTR
        INC       DPTR
        INC       DPTR
        INC       DPTR
        INC       DPTR
        INC       DPTR
        MOVX      A,@DPTR
        JNZ       ??ZDSecMgrSendNwkKey_1
// 1369     {
// 1370       req.keySeqNum = _NIB.nwkActiveKey.keySeqNum;
        MOV       DPTR,#_NIB + 62
        MOVX      A,@DPTR
        PUSH      A
          CFI CFA_SP SP+-1
        MOV       A,#0x3
        LCALL     ?XSTACK_DISP0_8
        POP       A
          CFI CFA_SP SP+0
        MOVX      @DPTR,A
// 1371       req.key       = _NIB.nwkActiveKey.key;
        MOV       A,#0x4
        LCALL     ?XSTACK_DISP0_8
        MOV       A,#(_NIB + 63) & 0xff
        MOVX      @DPTR,A
        INC       DPTR
        MOV       A,#((_NIB + 63) >> 8) & 0xff
        MOVX      @DPTR,A
// 1372 
// 1373       // check if using secure hop to to parent
// 1374       if ( device->parentAddr == NLME_GetShortAddr() )
        ; Setup parameters for call to function NLME_GetShortAddr
        LCALL     `??NLME_GetShortAddr::?relay`; Banked call to: NLME_GetShortAddr
        MOV       ?V2,R2
        MOV       ?V3,R3
        MOV       R0,?V2
        MOV       R1,?V3
        MOV       DPL,?V0
        MOV       DPH,?V1
        MOVX      A,@DPTR
        XRL       A,R0
        JNZ       ??ZDSecMgrSendNwkKey_2
        INC       DPTR
        MOVX      A,@DPTR
        XRL       A,R1
??ZDSecMgrSendNwkKey_2:
        JNZ       ??ZDSecMgrSendNwkKey_3
// 1375       {
// 1376         req.nwkSecure = FALSE;
        MOV       A,#0xa
        SJMP      ??ZDSecMgrSendNwkKey_4
// 1377       }
// 1378     }
// 1379     else
// 1380     {
// 1381       req.key       = NULL;
??ZDSecMgrSendNwkKey_1:
        MOV       A,#0x4
        LCALL     ?XSTACK_DISP0_8
        CLR       A
        MOVX      @DPTR,A
        INC       DPTR
        MOVX      @DPTR,A
// 1382       req.keySeqNum = 0;
        MOV       A,#0x3
??ZDSecMgrSendNwkKey_4:
        LCALL     ?XSTACK_DISP0_8
        CLR       A
        MOVX      @DPTR,A
// 1383     }
// 1384   }
// 1385 
// 1386   status = APSME_TransportKeyReq( &req );
// 1387 
// 1388   return status;
??ZDSecMgrSendNwkKey_3:
        ; Setup parameters for call to function APSME_TransportKeyReq
        MOV       R2,?XSP + 0
        MOV       R3,?XSP + 1
        LCALL     `??APSME_TransportKeyReq::?relay`; Banked call to: APSME_TransportKeyReq
        MOV       A,#0xd
        SJMP      ??Subroutine82_0
// 1389 }
          CFI EndBlock cfiBlock137

        RSEG BANKED_CODE:HUGECODE:NOROOT(0)
?Subroutine19:
          CFI Block cfiCond138 Using cfiCommon0
          CFI Function ZDSecMgrSendMasterKey
          CFI Conditional ??CrossCallReturnLabel_6
          CFI R6 load(1, XDATA, add(CFA_XSP16, literal(-10)))
          CFI VB load(1, XDATA, add(CFA_XSP16, literal(-9)))
          CFI V0 load(1, XDATA, add(CFA_XSP16, literal(-8)))
          CFI V1 load(1, XDATA, add(CFA_XSP16, literal(-7)))
          CFI R7 load(1, XDATA, add(CFA_XSP16, literal(-6)))
          CFI ?RET_LOW load(1, XDATA, add(CFA_XSP16, literal(-5)))
          CFI ?RET_HIGH load(1, XDATA, add(CFA_XSP16, literal(-4)))
          CFI ?BRET_EXT load(1, XDATA, add(CFA_XSP16, literal(-3)))
          CFI DPL0 load(1, XDATA, add(CFA_XSP16, literal(-2)))
          CFI DPH0 load(1, XDATA, add(CFA_XSP16, literal(-1)))
          CFI CFA_SP SP+-2
          CFI CFA_XSP16 add(XSP16, 23)
          CFI Block cfiCond139 Using cfiCommon0
          CFI (cfiCond139) Function ZDSecMgrSendNwkKey
          CFI (cfiCond139) Conditional ??CrossCallReturnLabel_7
          CFI (cfiCond139) R6 load(1, XDATA, add(CFA_XSP16, literal(-12)))
          CFI (cfiCond139) VB load(1, XDATA, add(CFA_XSP16, literal(-11)))
          CFI (cfiCond139) V0 load(1, XDATA, add(CFA_XSP16, literal(-10)))
          CFI (cfiCond139) V1 load(1, XDATA, add(CFA_XSP16, literal(-9)))
          CFI (cfiCond139) V2 load(1, XDATA, add(CFA_XSP16, literal(-8)))
          CFI (cfiCond139) V3 load(1, XDATA, add(CFA_XSP16, literal(-7)))
          CFI (cfiCond139) R7 load(1, XDATA, add(CFA_XSP16, literal(-6)))
          CFI (cfiCond139) ?RET_LOW load(1, XDATA, add(CFA_XSP16, literal(-5)))
          CFI (cfiCond139) ?RET_HIGH load(1, XDATA, add(CFA_XSP16, literal(-4)))
          CFI (cfiCond139) ?BRET_EXT load(1, XDATA, add(CFA_XSP16, literal(-3)))
          CFI (cfiCond139) DPL0 load(1, XDATA, add(CFA_XSP16, literal(-2)))
          CFI (cfiCond139) DPH0 load(1, XDATA, add(CFA_XSP16, literal(-1)))
          CFI (cfiCond139) CFA_SP SP+-2
          CFI (cfiCond139) CFA_XSP16 add(XSP16, 25)
          CFI Block cfiPicker140 Using cfiCommon1
          CFI (cfiPicker140) NoFunction
          CFI (cfiPicker140) Picker
        LCALL     ?Subroutine62 & 0xFFFF
??CrossCallReturnLabel_88:
        MOV       A,#0x6
        RET
          CFI EndBlock cfiCond138
          CFI EndBlock cfiCond139
          CFI EndBlock cfiPicker140

        RSEG BANKED_CODE:HUGECODE:NOROOT(0)
?Subroutine4:
          CFI Block cfiBlock141 Using cfiCommon0
          CFI NoFunction
          CFI CFA_SP SP+0
          CFI CFA_XSP16 add(XSP16, 14)
          CFI VB load(1, XDATA, add(CFA_XSP16, literal(-11)))
          CFI DPL0 load(1, XDATA, add(CFA_XSP16, literal(-2)))
          CFI DPH0 load(1, XDATA, add(CFA_XSP16, literal(-1)))
          CFI R6 load(1, XDATA, add(CFA_XSP16, literal(-12)))
          CFI R7 load(1, XDATA, add(CFA_XSP16, literal(-6)))
          CFI V0 load(1, XDATA, add(CFA_XSP16, literal(-10)))
          CFI V1 load(1, XDATA, add(CFA_XSP16, literal(-9)))
          CFI V2 load(1, XDATA, add(CFA_XSP16, literal(-8)))
          CFI V3 load(1, XDATA, add(CFA_XSP16, literal(-7)))
          CFI ?BRET_EXT load(1, XDATA, add(CFA_XSP16, literal(-3)))
          CFI ?RET_HIGH load(1, XDATA, add(CFA_XSP16, literal(-4)))
          CFI ?RET_LOW load(1, XDATA, add(CFA_XSP16, literal(-5)))
        MOV       A,#0x2
          CFI EndBlock cfiBlock141
        REQUIRE ??Subroutine82_0
        ; // Fall through to label ??Subroutine82_0

        RSEG BANKED_CODE:HUGECODE:NOROOT(0)
??Subroutine82_0:
          CFI Block cfiBlock142 Using cfiCommon0
          CFI NoFunction
          CFI CFA_SP SP+0
          CFI CFA_XSP16 add(XSP16, 51)
          CFI VB load(1, XDATA, add(CFA_XSP16, literal(-11)))
          CFI DPL0 load(1, XDATA, add(CFA_XSP16, literal(-2)))
          CFI DPH0 load(1, XDATA, add(CFA_XSP16, literal(-1)))
          CFI R6 load(1, XDATA, add(CFA_XSP16, literal(-12)))
          CFI R7 load(1, XDATA, add(CFA_XSP16, literal(-6)))
          CFI V0 load(1, XDATA, add(CFA_XSP16, literal(-10)))
          CFI V1 load(1, XDATA, add(CFA_XSP16, literal(-9)))
          CFI V2 load(1, XDATA, add(CFA_XSP16, literal(-8)))
          CFI V3 load(1, XDATA, add(CFA_XSP16, literal(-7)))
          CFI ?BRET_EXT load(1, XDATA, add(CFA_XSP16, literal(-3)))
          CFI ?RET_HIGH load(1, XDATA, add(CFA_XSP16, literal(-4)))
          CFI ?RET_LOW load(1, XDATA, add(CFA_XSP16, literal(-5)))
          CFI Invalid
        LCALL     ?DEALLOC_XSTACK8
          CFI EndBlock cfiBlock142
        REQUIRE ??Subroutine83_0
        ; // Fall through to label ??Subroutine83_0

        RSEG BANKED_CODE:HUGECODE:NOROOT(0)
??Subroutine83_0:
          CFI Block cfiBlock143 Using cfiCommon0
          CFI NoFunction
          CFI CFA_SP SP+0
          CFI CFA_XSP16 add(XSP16, 12)
          CFI VB load(1, XDATA, add(CFA_XSP16, literal(-11)))
          CFI DPL0 load(1, XDATA, add(CFA_XSP16, literal(-2)))
          CFI DPH0 load(1, XDATA, add(CFA_XSP16, literal(-1)))
          CFI R6 load(1, XDATA, add(CFA_XSP16, literal(-12)))
          CFI R7 load(1, XDATA, add(CFA_XSP16, literal(-6)))
          CFI V0 load(1, XDATA, add(CFA_XSP16, literal(-10)))
          CFI V1 load(1, XDATA, add(CFA_XSP16, literal(-9)))
          CFI V2 load(1, XDATA, add(CFA_XSP16, literal(-8)))
          CFI V3 load(1, XDATA, add(CFA_XSP16, literal(-7)))
          CFI ?BRET_EXT load(1, XDATA, add(CFA_XSP16, literal(-3)))
          CFI ?RET_HIGH load(1, XDATA, add(CFA_XSP16, literal(-4)))
          CFI ?RET_LOW load(1, XDATA, add(CFA_XSP16, literal(-5)))
        MOV       R7,#0x4
        LJMP      ?BANKED_LEAVE_XDATA
          CFI EndBlock cfiBlock143
// 1390 
// 1391 /******************************************************************************
// 1392  * @fn          ZDSecMgrDeviceEntryRemove
// 1393  *
// 1394  * @brief       Remove device entry.
// 1395  *
// 1396  * @param       entry - [in] valid entry
// 1397  *
// 1398  * @return      none
// 1399  */

        RSEG BANKED_CODE:HUGECODE:NOROOT(0)
// 1400 void ZDSecMgrDeviceEntryRemove( ZDSecMgrEntry_t* entry )
ZDSecMgrDeviceEntryRemove:
          CFI Block cfiBlock144 Using cfiCommon0
          CFI Function ZDSecMgrDeviceEntryRemove
        CODE
// 1401 {
        FUNCALL ZDSecMgrDeviceEntryRemove, ZDSecMgrCtrlTerm
        LOCFRAME ISTACK, 0, STACK
        LOCFRAME PSTACK, 0, STACK
        LOCFRAME XSTACK, 9, STACK
        LOCFRAME IOVERLAY, 0, STATIC
        LOCFRAME DOVERLAY, 0, STATIC
        ARGFRAME ISTACK, 0, STACK
        ARGFRAME PSTACK, 0, STACK
        ARGFRAME XSTACK, 9, STACK
        ARGFRAME IOVERLAY, 0, STATIC
        ARGFRAME DOVERLAY, 0, STATIC
        MOV       A,#-0x9
        LCALL     ?BANKED_ENTER_XDATA
          CFI DPH0 load(1, XDATA, add(CFA_XSP16, literal(-1)))
          CFI DPL0 load(1, XDATA, add(CFA_XSP16, literal(-2)))
          CFI ?BRET_EXT load(1, XDATA, add(CFA_XSP16, literal(-3)))
          CFI ?RET_HIGH load(1, XDATA, add(CFA_XSP16, literal(-4)))
          CFI ?RET_LOW load(1, XDATA, add(CFA_XSP16, literal(-5)))
          CFI R7 load(1, XDATA, add(CFA_XSP16, literal(-6)))
          CFI V0 load(1, XDATA, add(CFA_XSP16, literal(-7)))
          CFI VB load(1, XDATA, add(CFA_XSP16, literal(-8)))
          CFI R6 load(1, XDATA, add(CFA_XSP16, literal(-9)))
          CFI CFA_SP SP+0
          CFI CFA_XSP16 add(XSP16, 9)
        ; Saved register size: 9
        ; Auto size: 0
        MOV       A,R2
        MOV       R6,A
        MOV       A,R3
        MOV       R7,A
// 1402   // terminate device control
// 1403   if ( ( ZG_BUILD_COORDINATOR_TYPE ) && ( ZG_DEVICE_COORDINATOR_TYPE ) )
// 1404   {
// 1405     ZDSecMgrCtrlTerm( entry );
        ; Setup parameters for call to function ZDSecMgrCtrlTerm
        LCALL     `??ZDSecMgrCtrlTerm::?relay`; Banked call to: ZDSecMgrCtrlTerm
// 1406   }
// 1407 
// 1408   // remove device from entry data
// 1409   ZDSecMgrEntryFree( entry );
        MOV       DPL,R6
        MOV       DPH,R7
        MOV       A,#-0x2
        MOVX      @DPTR,A
        INC       DPTR
        INC       A
        MOVX      @DPTR,A
// 1410 
// 1411   // remove EXT address
// 1412   //ZDSecMgrExtAddrRelease( aiOld );
// 1413 }
        LJMP      ??Subroutine89_0 & 0xFFFF
          CFI EndBlock cfiBlock144
// 1414 
// 1415 /******************************************************************************
// 1416  * @fn          ZDSecMgrDeviceEntryAdd
// 1417  *
// 1418  * @brief       Add entry.
// 1419  *
// 1420  * @param       device - [in] ZDSecMgrDevice_t, device info
// 1421  * @param       ami    - [in] Address Manager index
// 1422  *
// 1423  * @return      ZStatus_t
// 1424  */

        RSEG BANKED_CODE:HUGECODE:NOROOT(0)
// 1425 void ZDSecMgrAddrMgrUpdate( uint16 ami, uint16 nwkAddr )
ZDSecMgrAddrMgrUpdate:
          CFI Block cfiBlock145 Using cfiCommon0
          CFI Function ZDSecMgrAddrMgrUpdate
        CODE
// 1426 {
        FUNCALL ZDSecMgrAddrMgrUpdate, AddrMgrEntryGet
        LOCFRAME ISTACK, 0, STACK
        LOCFRAME PSTACK, 0, STACK
        LOCFRAME XSTACK, 22, STACK
        LOCFRAME IOVERLAY, 0, STATIC
        LOCFRAME DOVERLAY, 0, STATIC
        ARGFRAME ISTACK, 0, STACK
        ARGFRAME PSTACK, 0, STACK
        ARGFRAME XSTACK, 22, STACK
        ARGFRAME IOVERLAY, 0, STATIC
        ARGFRAME DOVERLAY, 0, STATIC
        FUNCALL ZDSecMgrAddrMgrUpdate, AddrMgrEntryUpdate
        LOCFRAME ISTACK, 0, STACK
        LOCFRAME PSTACK, 0, STACK
        LOCFRAME XSTACK, 22, STACK
        LOCFRAME IOVERLAY, 0, STATIC
        LOCFRAME DOVERLAY, 0, STATIC
        ARGFRAME ISTACK, 0, STACK
        ARGFRAME PSTACK, 0, STACK
        ARGFRAME XSTACK, 22, STACK
        ARGFRAME IOVERLAY, 0, STATIC
        ARGFRAME DOVERLAY, 0, STATIC
        MOV       A,#-0x9
        LCALL     ?BANKED_ENTER_XDATA
          CFI DPH0 load(1, XDATA, add(CFA_XSP16, literal(-1)))
          CFI DPL0 load(1, XDATA, add(CFA_XSP16, literal(-2)))
          CFI ?BRET_EXT load(1, XDATA, add(CFA_XSP16, literal(-3)))
          CFI ?RET_HIGH load(1, XDATA, add(CFA_XSP16, literal(-4)))
          CFI ?RET_LOW load(1, XDATA, add(CFA_XSP16, literal(-5)))
          CFI R7 load(1, XDATA, add(CFA_XSP16, literal(-6)))
          CFI V0 load(1, XDATA, add(CFA_XSP16, literal(-7)))
          CFI VB load(1, XDATA, add(CFA_XSP16, literal(-8)))
          CFI R6 load(1, XDATA, add(CFA_XSP16, literal(-9)))
          CFI CFA_SP SP+0
          CFI CFA_XSP16 add(XSP16, 9)
        ; Saved register size: 9
        ; Auto size: 13
        MOV       A,#-0xd
        LCALL     ?ALLOC_XSTACK8
          CFI CFA_XSP16 add(XSP16, 22)
        MOV       A,R4
        MOV       R6,A
        MOV       A,R5
        MOV       R7,A
// 1427   AddrMgrEntry_t entry;
// 1428 
// 1429   // get the ami data
// 1430   entry.user  = ADDRMGR_USER_SECURITY;
        MOV       DPL,?XSP + 0
        MOV       DPH,?XSP + 1
        MOV       A,#0x2
        MOVX      @DPTR,A
// 1431   entry.index = ami;
        MOV       A,#0xb
        LCALL     ?XSTACK_DISP0_8
        LCALL     ?Subroutine33 & 0xFFFF
// 1432 
// 1433   AddrMgrEntryGet( &entry );
??CrossCallReturnLabel_139:
        LCALL     `??AddrMgrEntryGet::?relay`; Banked call to: AddrMgrEntryGet
// 1434 
// 1435   // check if NWK address is same
// 1436   if ( entry.nwkAddr != nwkAddr )
        MOV       A,#0x1
        LCALL     ?XSTACK_DISP0_8
        MOVX      A,@DPTR
        XRL       A,R6
        JNZ       ??ZDSecMgrAddrMgrUpdate_0
        INC       DPTR
        MOVX      A,@DPTR
        XRL       A,R7
??ZDSecMgrAddrMgrUpdate_0:
        JZ        ??ZDSecMgrAddrMgrUpdate_1
// 1437   {
// 1438     // update NWK address
// 1439     entry.nwkAddr = nwkAddr;
        MOV       A,#0x1
        LCALL     ?XSTACK_DISP0_8
        MOV       A,R6
        MOVX      @DPTR,A
        INC       DPTR
        MOV       A,R7
        LCALL     ??Subroutine90_0 & 0xFFFF
// 1440 
// 1441     AddrMgrEntryUpdate( &entry );
// 1442   }
??CrossCallReturnLabel_141:
        LCALL     `??AddrMgrEntryUpdate::?relay`; Banked call to: AddrMgrEntryUpdate
// 1443 }
??ZDSecMgrAddrMgrUpdate_1:
        LJMP      ?Subroutine8 & 0xFFFF
          CFI EndBlock cfiBlock145
// 1444 

        RSEG BANKED_CODE:HUGECODE:NOROOT(0)
// 1445 ZStatus_t ZDSecMgrDeviceEntryAdd( ZDSecMgrDevice_t* device, uint16 ami )
ZDSecMgrDeviceEntryAdd:
          CFI Block cfiBlock146 Using cfiCommon0
          CFI Function ZDSecMgrDeviceEntryAdd
        CODE
// 1446 {
        FUNCALL ZDSecMgrDeviceEntryAdd, ZDSecMgrEntryLookup
        LOCFRAME ISTACK, 0, STACK
        LOCFRAME PSTACK, 0, STACK
        LOCFRAME XSTACK, 14, STACK
        LOCFRAME IOVERLAY, 0, STATIC
        LOCFRAME DOVERLAY, 0, STATIC
        ARGFRAME ISTACK, 0, STACK
        ARGFRAME PSTACK, 0, STACK
        ARGFRAME XSTACK, 14, STACK
        ARGFRAME IOVERLAY, 0, STATIC
        ARGFRAME DOVERLAY, 0, STATIC
        FUNCALL ZDSecMgrDeviceEntryAdd, ZDSecMgrDeviceEntryRemove
        LOCFRAME ISTACK, 0, STACK
        LOCFRAME PSTACK, 0, STACK
        LOCFRAME XSTACK, 14, STACK
        LOCFRAME IOVERLAY, 0, STATIC
        LOCFRAME DOVERLAY, 0, STATIC
        ARGFRAME ISTACK, 0, STACK
        ARGFRAME PSTACK, 0, STACK
        ARGFRAME XSTACK, 14, STACK
        ARGFRAME IOVERLAY, 0, STATIC
        ARGFRAME DOVERLAY, 0, STATIC
        FUNCALL ZDSecMgrDeviceEntryAdd, ZDSecMgrEntryLookupAMI
        LOCFRAME ISTACK, 0, STACK
        LOCFRAME PSTACK, 0, STACK
        LOCFRAME XSTACK, 14, STACK
        LOCFRAME IOVERLAY, 0, STATIC
        LOCFRAME DOVERLAY, 0, STATIC
        ARGFRAME ISTACK, 0, STACK
        ARGFRAME PSTACK, 0, STACK
        ARGFRAME XSTACK, 14, STACK
        ARGFRAME IOVERLAY, 0, STATIC
        ARGFRAME DOVERLAY, 0, STATIC
        FUNCALL ZDSecMgrDeviceEntryAdd, ZDSecMgrEntryLookupAMI
        LOCFRAME ISTACK, 0, STACK
        LOCFRAME PSTACK, 0, STACK
        LOCFRAME XSTACK, 14, STACK
        LOCFRAME IOVERLAY, 0, STATIC
        LOCFRAME DOVERLAY, 0, STATIC
        ARGFRAME ISTACK, 0, STACK
        ARGFRAME PSTACK, 0, STACK
        ARGFRAME XSTACK, 14, STACK
        ARGFRAME IOVERLAY, 0, STATIC
        ARGFRAME DOVERLAY, 0, STATIC
        FUNCALL ZDSecMgrDeviceEntryAdd, ZDSecMgrAddrMgrUpdate
        LOCFRAME ISTACK, 0, STACK
        LOCFRAME PSTACK, 0, STACK
        LOCFRAME XSTACK, 14, STACK
        LOCFRAME IOVERLAY, 0, STATIC
        LOCFRAME DOVERLAY, 0, STATIC
        ARGFRAME ISTACK, 0, STACK
        ARGFRAME PSTACK, 0, STACK
        ARGFRAME XSTACK, 14, STACK
        ARGFRAME IOVERLAY, 0, STATIC
        ARGFRAME DOVERLAY, 0, STATIC
        FUNCALL ZDSecMgrDeviceEntryAdd, ZDSecMgrEntryNew
        LOCFRAME ISTACK, 0, STACK
        LOCFRAME PSTACK, 0, STACK
        LOCFRAME XSTACK, 14, STACK
        LOCFRAME IOVERLAY, 0, STATIC
        LOCFRAME DOVERLAY, 0, STATIC
        ARGFRAME ISTACK, 0, STACK
        ARGFRAME PSTACK, 0, STACK
        ARGFRAME XSTACK, 14, STACK
        ARGFRAME IOVERLAY, 0, STATIC
        ARGFRAME DOVERLAY, 0, STATIC
        FUNCALL ZDSecMgrDeviceEntryAdd, ZDSecMgrAddrMgrUpdate
        LOCFRAME ISTACK, 0, STACK
        LOCFRAME PSTACK, 0, STACK
        LOCFRAME XSTACK, 14, STACK
        LOCFRAME IOVERLAY, 0, STATIC
        LOCFRAME DOVERLAY, 0, STATIC
        ARGFRAME ISTACK, 0, STACK
        ARGFRAME PSTACK, 0, STACK
        ARGFRAME XSTACK, 14, STACK
        ARGFRAME IOVERLAY, 0, STATIC
        ARGFRAME DOVERLAY, 0, STATIC
        FUNCALL ZDSecMgrDeviceEntryAdd, ZDSecMgrCtrlAdd
        LOCFRAME ISTACK, 0, STACK
        LOCFRAME PSTACK, 0, STACK
        LOCFRAME XSTACK, 14, STACK
        LOCFRAME IOVERLAY, 0, STATIC
        LOCFRAME DOVERLAY, 0, STATIC
        ARGFRAME ISTACK, 0, STACK
        ARGFRAME PSTACK, 0, STACK
        ARGFRAME XSTACK, 14, STACK
        ARGFRAME IOVERLAY, 0, STATIC
        ARGFRAME DOVERLAY, 0, STATIC
        FUNCALL ZDSecMgrDeviceEntryAdd, ZDSecMgrCtrlReset
        LOCFRAME ISTACK, 0, STACK
        LOCFRAME PSTACK, 0, STACK
        LOCFRAME XSTACK, 14, STACK
        LOCFRAME IOVERLAY, 0, STATIC
        LOCFRAME DOVERLAY, 0, STATIC
        ARGFRAME ISTACK, 0, STACK
        ARGFRAME PSTACK, 0, STACK
        ARGFRAME XSTACK, 14, STACK
        ARGFRAME IOVERLAY, 0, STATIC
        ARGFRAME DOVERLAY, 0, STATIC
        REQUIRE ?V0
        REQUIRE ?V2
        REQUIRE ?V3
        MOV       A,#-0xc
        LCALL     ?BANKED_ENTER_XDATA
          CFI DPH0 load(1, XDATA, add(CFA_XSP16, literal(-1)))
          CFI DPL0 load(1, XDATA, add(CFA_XSP16, literal(-2)))
          CFI ?BRET_EXT load(1, XDATA, add(CFA_XSP16, literal(-3)))
          CFI ?RET_HIGH load(1, XDATA, add(CFA_XSP16, literal(-4)))
          CFI ?RET_LOW load(1, XDATA, add(CFA_XSP16, literal(-5)))
          CFI R7 load(1, XDATA, add(CFA_XSP16, literal(-6)))
          CFI V3 load(1, XDATA, add(CFA_XSP16, literal(-7)))
          CFI V2 load(1, XDATA, add(CFA_XSP16, literal(-8)))
          CFI V1 load(1, XDATA, add(CFA_XSP16, literal(-9)))
          CFI V0 load(1, XDATA, add(CFA_XSP16, literal(-10)))
          CFI VB load(1, XDATA, add(CFA_XSP16, literal(-11)))
          CFI R6 load(1, XDATA, add(CFA_XSP16, literal(-12)))
          CFI CFA_SP SP+0
          CFI CFA_XSP16 add(XSP16, 12)
        ; Saved register size: 12
        ; Auto size: 2
        MOV       A,#-0x2
        LCALL     ?ALLOC_XSTACK8
          CFI CFA_XSP16 add(XSP16, 14)
        MOV       ?V2,R2
        MOV       ?V3,R3
        MOV       A,R4
        MOV       R6,A
        MOV       A,R5
        MOV       R7,A
// 1447   ZStatus_t        status;
// 1448   ZDSecMgrEntry_t* entry;
// 1449 
// 1450 
// 1451   // initialize as unknown until completion
// 1452   status = ZNwkUnknownDevice;
        MOV       ?V0,#-0x38
// 1453 
// 1454   device->ctrl = NULL;
        MOV       DPL,R2
        MOV       DPH,R3
        INC       DPTR
        INC       DPTR
        INC       DPTR
        INC       DPTR
        INC       DPTR
        INC       DPTR
        INC       DPTR
        INC       DPTR
        CLR       A
        MOVX      @DPTR,A
        INC       DPTR
        MOVX      @DPTR,A
// 1455 
// 1456   // make sure not already registered
// 1457   if ( ZDSecMgrEntryLookup( device->nwkAddr, &entry ) == ZSuccess )
        ; Setup parameters for call to function ZDSecMgrEntryLookup
        MOV       R4,?XSP + 0
        MOV       R5,?XSP + 1
        MOV       DPL,R2
        MOV       DPH,R3
        LCALL     ??Subroutine85_0 & 0xFFFF
??CrossCallReturnLabel_127:
        LCALL     `??ZDSecMgrEntryLookup::?relay`; Banked call to: ZDSecMgrEntryLookup
        MOV       A,R1
        JNZ       ??ZDSecMgrDeviceEntryAdd_0
// 1458   {
// 1459     // verify that address index is same
// 1460     if ( entry->ami != ami )
        LCALL     ?Subroutine46 & 0xFFFF
??CrossCallReturnLabel_117:
        MOVX      A,@DPTR
        XRL       A,R6
        JNZ       ??ZDSecMgrDeviceEntryAdd_1
        INC       DPTR
        MOVX      A,@DPTR
        XRL       A,R7
??ZDSecMgrDeviceEntryAdd_1:
        JZ        ??CrossCallReturnLabel_48
// 1461     {
// 1462       // remove conflicting entry
// 1463       ZDSecMgrDeviceEntryRemove( entry );
        ; Setup parameters for call to function ZDSecMgrDeviceEntryRemove
        MOV       DPL,?XSP + 0
        MOV       DPH,?XSP + 1
        LCALL     ??Subroutine85_0 & 0xFFFF
??CrossCallReturnLabel_128:
        LCALL     `??ZDSecMgrDeviceEntryRemove::?relay`; Banked call to: ZDSecMgrDeviceEntryRemove
// 1464 
// 1465       if ( ZDSecMgrEntryLookupAMI( ami, &entry ) == ZSuccess )
        ; Setup parameters for call to function ZDSecMgrEntryLookupAMI
        MOV       R4,?XSP + 0
        MOV       R5,?XSP + 1
        MOV       A,R6
        MOV       R2,A
        MOV       A,R7
        MOV       R3,A
        LCALL     `??ZDSecMgrEntryLookupAMI::?relay`; Banked call to: ZDSecMgrEntryLookupAMI
        MOV       A,R1
        JNZ       ??CrossCallReturnLabel_48
        SJMP      ??ZDSecMgrDeviceEntryAdd_2
// 1466       {
// 1467         // update NWK address
// 1468         ZDSecMgrAddrMgrUpdate( ami, device->nwkAddr );
// 1469       }
// 1470     }
// 1471   }
// 1472   else if ( ZDSecMgrEntryLookupAMI( ami, &entry ) == ZSuccess )
??ZDSecMgrDeviceEntryAdd_0:
        ; Setup parameters for call to function ZDSecMgrEntryLookupAMI
        MOV       R4,?XSP + 0
        MOV       R5,?XSP + 1
        MOV       A,R6
        MOV       R2,A
        MOV       A,R7
        MOV       R3,A
        LCALL     `??ZDSecMgrEntryLookupAMI::?relay`; Banked call to: ZDSecMgrEntryLookupAMI
        MOV       A,R1
        JNZ       ??CrossCallReturnLabel_48
// 1473   {
// 1474     // update NWK address
// 1475     ZDSecMgrAddrMgrUpdate( ami, device->nwkAddr );
??ZDSecMgrDeviceEntryAdd_2:
        ; Setup parameters for call to function ZDSecMgrAddrMgrUpdate
        LCALL     ?Subroutine43 & 0xFFFF
// 1476   }
// 1477 
// 1478   // check if a new entry needs to be created
// 1479   if ( entry == NULL )
??CrossCallReturnLabel_48:
        LCALL     ??Subroutine93_0 & 0xFFFF
??CrossCallReturnLabel_175:
        JNZ       ??ZDSecMgrDeviceEntryAdd_3
// 1480   {
// 1481     // get new entry
// 1482     if ( ZDSecMgrEntryNew( &entry ) == ZSuccess )
        ; Setup parameters for call to function ZDSecMgrEntryNew
        MOV       R2,?XSP + 0
        MOV       R3,?XSP + 1
        LCALL     `??ZDSecMgrEntryNew::?relay`; Banked call to: ZDSecMgrEntryNew
        MOV       A,R1
        JNZ       ??ZDSecMgrDeviceEntryAdd_4
// 1483     {
// 1484       // reset entry lkd
// 1485 
// 1486       // finish setting up entry
// 1487       entry->ami = ami;
        LCALL     ?Subroutine46 & 0xFFFF
??CrossCallReturnLabel_118:
        MOV       A,R6
        MOVX      @DPTR,A
        INC       DPTR
        MOV       A,R7
        MOVX      @DPTR,A
// 1488 
// 1489       // update NWK address
// 1490       ZDSecMgrAddrMgrUpdate( ami, device->nwkAddr );
        ; Setup parameters for call to function ZDSecMgrAddrMgrUpdate
        LCALL     ?Subroutine43 & 0xFFFF
// 1491 
// 1492       // enter new device into device control
// 1493       if ( ( ZG_BUILD_COORDINATOR_TYPE ) && ( ZG_DEVICE_COORDINATOR_TYPE ) )
// 1494       {
// 1495         status = ZDSecMgrCtrlAdd( device, entry );
??CrossCallReturnLabel_49:
        ; Setup parameters for call to function ZDSecMgrCtrlAdd
        LCALL     ?Subroutine56 & 0xFFFF
// 1496       }
// 1497       else
// 1498       {
// 1499         status = ZSuccess;
// 1500       }
// 1501     }
// 1502   }
??CrossCallReturnLabel_69:
        LCALL     `??ZDSecMgrCtrlAdd::?relay`; Banked call to: ZDSecMgrCtrlAdd
        SJMP      ??ZDSecMgrDeviceEntryAdd_5
// 1503   else
// 1504   {
// 1505     // reset entry lkd
// 1506 
// 1507     // reset entry in entry control
// 1508     if ( ( ZG_BUILD_COORDINATOR_TYPE ) && ( ZG_DEVICE_COORDINATOR_TYPE ) )
// 1509     {
// 1510       status = ZDSecMgrCtrlReset( device, entry );
??ZDSecMgrDeviceEntryAdd_3:
        ; Setup parameters for call to function ZDSecMgrCtrlReset
        LCALL     ?Subroutine56 & 0xFFFF
// 1511     }
// 1512     else
// 1513     {
// 1514       status = ZSuccess;
// 1515     }
// 1516   }
??CrossCallReturnLabel_70:
        LCALL     `??ZDSecMgrCtrlReset::?relay`; Banked call to: ZDSecMgrCtrlReset
??ZDSecMgrDeviceEntryAdd_5:
        MOV       A,R1
        MOV       ?V0,A
// 1517 
// 1518   return status;
??ZDSecMgrDeviceEntryAdd_4:
        MOV       R1,?V0
        LJMP      ?Subroutine4 & 0xFFFF
// 1519 }
          CFI EndBlock cfiBlock146

        RSEG BANKED_CODE:HUGECODE:NOROOT(0)
?Subroutine56:
          CFI Block cfiCond147 Using cfiCommon0
          CFI Function ZDSecMgrDeviceEntryAdd
          CFI Conditional ??CrossCallReturnLabel_69
          CFI R6 load(1, XDATA, add(CFA_XSP16, literal(-12)))
          CFI VB load(1, XDATA, add(CFA_XSP16, literal(-11)))
          CFI V0 load(1, XDATA, add(CFA_XSP16, literal(-10)))
          CFI V1 load(1, XDATA, add(CFA_XSP16, literal(-9)))
          CFI V2 load(1, XDATA, add(CFA_XSP16, literal(-8)))
          CFI V3 load(1, XDATA, add(CFA_XSP16, literal(-7)))
          CFI R7 load(1, XDATA, add(CFA_XSP16, literal(-6)))
          CFI ?RET_LOW load(1, XDATA, add(CFA_XSP16, literal(-5)))
          CFI ?RET_HIGH load(1, XDATA, add(CFA_XSP16, literal(-4)))
          CFI ?BRET_EXT load(1, XDATA, add(CFA_XSP16, literal(-3)))
          CFI DPL0 load(1, XDATA, add(CFA_XSP16, literal(-2)))
          CFI DPH0 load(1, XDATA, add(CFA_XSP16, literal(-1)))
          CFI CFA_SP SP+-2
          CFI CFA_XSP16 add(XSP16, 14)
          CFI Block cfiCond148 Using cfiCommon0
          CFI (cfiCond148) Function ZDSecMgrDeviceEntryAdd
          CFI (cfiCond148) Conditional ??CrossCallReturnLabel_70
          CFI (cfiCond148) R6 load(1, XDATA, add(CFA_XSP16, literal(-12)))
          CFI (cfiCond148) VB load(1, XDATA, add(CFA_XSP16, literal(-11)))
          CFI (cfiCond148) V0 load(1, XDATA, add(CFA_XSP16, literal(-10)))
          CFI (cfiCond148) V1 load(1, XDATA, add(CFA_XSP16, literal(-9)))
          CFI (cfiCond148) V2 load(1, XDATA, add(CFA_XSP16, literal(-8)))
          CFI (cfiCond148) V3 load(1, XDATA, add(CFA_XSP16, literal(-7)))
          CFI (cfiCond148) R7 load(1, XDATA, add(CFA_XSP16, literal(-6)))
          CFI (cfiCond148) ?RET_LOW load(1, XDATA, add(CFA_XSP16, literal(-5)))
          CFI (cfiCond148) ?RET_HIGH load(1, XDATA, add(CFA_XSP16, literal(-4)))
          CFI (cfiCond148) ?BRET_EXT load(1, XDATA, add(CFA_XSP16, literal(-3)))
          CFI (cfiCond148) DPL0 load(1, XDATA, add(CFA_XSP16, literal(-2)))
          CFI (cfiCond148) DPH0 load(1, XDATA, add(CFA_XSP16, literal(-1)))
          CFI (cfiCond148) CFA_SP SP+-2
          CFI (cfiCond148) CFA_XSP16 add(XSP16, 14)
          CFI Block cfiPicker149 Using cfiCommon1
          CFI (cfiPicker149) NoFunction
          CFI (cfiPicker149) Picker
        MOV       DPL,?XSP + 0
        MOV       DPH,?XSP + 1
        MOVX      A,@DPTR
        MOV       R4,A
        INC       DPTR
        MOVX      A,@DPTR
        MOV       R5,A
        MOV       R2,?V2
        MOV       R3,?V3
        RET
          CFI EndBlock cfiCond147
          CFI EndBlock cfiCond148
          CFI EndBlock cfiPicker149

        RSEG BANKED_CODE:HUGECODE:NOROOT(0)
?Subroutine43:
          CFI Block cfiCond150 Using cfiCommon0
          CFI Function ZDSecMgrDeviceEntryAdd
          CFI Conditional ??CrossCallReturnLabel_48
          CFI R6 load(1, XDATA, add(CFA_XSP16, literal(-12)))
          CFI VB load(1, XDATA, add(CFA_XSP16, literal(-11)))
          CFI V0 load(1, XDATA, add(CFA_XSP16, literal(-10)))
          CFI V1 load(1, XDATA, add(CFA_XSP16, literal(-9)))
          CFI V2 load(1, XDATA, add(CFA_XSP16, literal(-8)))
          CFI V3 load(1, XDATA, add(CFA_XSP16, literal(-7)))
          CFI R7 load(1, XDATA, add(CFA_XSP16, literal(-6)))
          CFI ?RET_LOW load(1, XDATA, add(CFA_XSP16, literal(-5)))
          CFI ?RET_HIGH load(1, XDATA, add(CFA_XSP16, literal(-4)))
          CFI ?BRET_EXT load(1, XDATA, add(CFA_XSP16, literal(-3)))
          CFI DPL0 load(1, XDATA, add(CFA_XSP16, literal(-2)))
          CFI DPH0 load(1, XDATA, add(CFA_XSP16, literal(-1)))
          CFI CFA_SP SP+-2
          CFI CFA_XSP16 add(XSP16, 14)
          CFI Block cfiCond151 Using cfiCommon0
          CFI (cfiCond151) Function ZDSecMgrDeviceEntryAdd
          CFI (cfiCond151) Conditional ??CrossCallReturnLabel_49
          CFI (cfiCond151) R6 load(1, XDATA, add(CFA_XSP16, literal(-12)))
          CFI (cfiCond151) VB load(1, XDATA, add(CFA_XSP16, literal(-11)))
          CFI (cfiCond151) V0 load(1, XDATA, add(CFA_XSP16, literal(-10)))
          CFI (cfiCond151) V1 load(1, XDATA, add(CFA_XSP16, literal(-9)))
          CFI (cfiCond151) V2 load(1, XDATA, add(CFA_XSP16, literal(-8)))
          CFI (cfiCond151) V3 load(1, XDATA, add(CFA_XSP16, literal(-7)))
          CFI (cfiCond151) R7 load(1, XDATA, add(CFA_XSP16, literal(-6)))
          CFI (cfiCond151) ?RET_LOW load(1, XDATA, add(CFA_XSP16, literal(-5)))
          CFI (cfiCond151) ?RET_HIGH load(1, XDATA, add(CFA_XSP16, literal(-4)))
          CFI (cfiCond151) ?BRET_EXT load(1, XDATA, add(CFA_XSP16, literal(-3)))
          CFI (cfiCond151) DPL0 load(1, XDATA, add(CFA_XSP16, literal(-2)))
          CFI (cfiCond151) DPH0 load(1, XDATA, add(CFA_XSP16, literal(-1)))
          CFI (cfiCond151) CFA_SP SP+-2
          CFI (cfiCond151) CFA_XSP16 add(XSP16, 14)
          CFI Block cfiPicker152 Using cfiCommon1
          CFI (cfiPicker152) NoFunction
          CFI (cfiPicker152) Picker
        MOV       DPL,?V2
        MOV       DPH,?V3
        LCALL     ?Subroutine66 & 0xFFFF
??CrossCallReturnLabel_95:
        LCALL     `??ZDSecMgrAddrMgrUpdate::?relay`; Banked call to: ZDSecMgrAddrMgrUpdate
        RET
          CFI EndBlock cfiCond150
          CFI EndBlock cfiCond151
          CFI EndBlock cfiPicker152
// 1520 
// 1521 /******************************************************************************
// 1522  * @fn          ZDSecMgrDeviceCtrlHandler
// 1523  *
// 1524  * @brief       Device control handler.
// 1525  *
// 1526  * @param       device - [in] ZDSecMgrDevice_t, device info
// 1527  *
// 1528  * @return      none
// 1529  */

        RSEG BANKED_CODE:HUGECODE:NOROOT(0)
// 1530 void ZDSecMgrDeviceCtrlHandler( ZDSecMgrDevice_t* device )
ZDSecMgrDeviceCtrlHandler:
          CFI Block cfiBlock153 Using cfiCommon0
          CFI Function ZDSecMgrDeviceCtrlHandler
        CODE
// 1531 {
        FUNCALL ZDSecMgrDeviceCtrlHandler, ZDSecMgrSendMasterKey
        LOCFRAME ISTACK, 0, STACK
        LOCFRAME PSTACK, 0, STACK
        LOCFRAME XSTACK, 9, STACK
        LOCFRAME IOVERLAY, 0, STATIC
        LOCFRAME DOVERLAY, 0, STATIC
        ARGFRAME ISTACK, 0, STACK
        ARGFRAME PSTACK, 0, STACK
        ARGFRAME XSTACK, 9, STACK
        ARGFRAME IOVERLAY, 0, STATIC
        ARGFRAME DOVERLAY, 0, STATIC
        FUNCALL ZDSecMgrDeviceCtrlHandler, ZDSecMgrEstablishKey
        LOCFRAME ISTACK, 0, STACK
        LOCFRAME PSTACK, 0, STACK
        LOCFRAME XSTACK, 9, STACK
        LOCFRAME IOVERLAY, 0, STATIC
        LOCFRAME DOVERLAY, 0, STATIC
        ARGFRAME ISTACK, 0, STACK
        ARGFRAME PSTACK, 0, STACK
        ARGFRAME XSTACK, 9, STACK
        ARGFRAME IOVERLAY, 0, STATIC
        ARGFRAME DOVERLAY, 0, STATIC
        FUNCALL ZDSecMgrDeviceCtrlHandler, ZDSecMgrSendNwkKey
        LOCFRAME ISTACK, 0, STACK
        LOCFRAME PSTACK, 0, STACK
        LOCFRAME XSTACK, 9, STACK
        LOCFRAME IOVERLAY, 0, STATIC
        LOCFRAME DOVERLAY, 0, STATIC
        ARGFRAME ISTACK, 0, STACK
        ARGFRAME PSTACK, 0, STACK
        ARGFRAME XSTACK, 9, STACK
        ARGFRAME IOVERLAY, 0, STATIC
        ARGFRAME DOVERLAY, 0, STATIC
        FUNCALL ZDSecMgrDeviceCtrlHandler, osal_start_timerEx
        LOCFRAME ISTACK, 0, STACK
        LOCFRAME PSTACK, 0, STACK
        LOCFRAME XSTACK, 9, STACK
        LOCFRAME IOVERLAY, 0, STATIC
        LOCFRAME DOVERLAY, 0, STATIC
        ARGFRAME ISTACK, 0, STACK
        ARGFRAME PSTACK, 0, STACK
        ARGFRAME XSTACK, 9, STACK
        ARGFRAME IOVERLAY, 0, STATIC
        ARGFRAME DOVERLAY, 0, STATIC
        REQUIRE ?V0
        MOV       A,#-0x9
        LCALL     ?BANKED_ENTER_XDATA
          CFI DPH0 load(1, XDATA, add(CFA_XSP16, literal(-1)))
          CFI DPL0 load(1, XDATA, add(CFA_XSP16, literal(-2)))
          CFI ?BRET_EXT load(1, XDATA, add(CFA_XSP16, literal(-3)))
          CFI ?RET_HIGH load(1, XDATA, add(CFA_XSP16, literal(-4)))
          CFI ?RET_LOW load(1, XDATA, add(CFA_XSP16, literal(-5)))
          CFI R7 load(1, XDATA, add(CFA_XSP16, literal(-6)))
          CFI V0 load(1, XDATA, add(CFA_XSP16, literal(-7)))
          CFI VB load(1, XDATA, add(CFA_XSP16, literal(-8)))
          CFI R6 load(1, XDATA, add(CFA_XSP16, literal(-9)))
          CFI CFA_SP SP+0
          CFI CFA_XSP16 add(XSP16, 9)
        ; Saved register size: 9
        ; Auto size: 0
// 1532   uint8 state;
// 1533   uint8 cntr;
// 1534 
// 1535 
// 1536   state = device->ctrl->state;
        MOV       A,R2
        ADD       A,#0x8
        MOV       R6,A
        CLR       A
        ADDC      A,R3
        MOV       R7,A
        MOV       DPL,R6
        MOV       DPH,A
        LCALL     ??Subroutine84_0 & 0xFFFF
??CrossCallReturnLabel_119:
        MOVX      A,@DPTR
        MOV       ?V0,A
// 1537   cntr  = ZDSECMGR_CTRL_BASE_CNTR;
// 1538 
// 1539   switch ( state )
        ADD       A,#-0x2
        JZ        ??ZDSecMgrDeviceCtrlHandler_0
        DEC       A
        JZ        ??ZDSecMgrDeviceCtrlHandler_1
        DEC       A
        JZ        ??ZDSecMgrDeviceCtrlHandler_2
        ADD       A,#-0x3
        JZ        ??ZDSecMgrDeviceCtrlHandler_3
        SJMP      ??ZDSecMgrDeviceCtrlHandler_4
// 1540   {
// 1541     case ZDSECMGR_CTRL_TK_MASTER:
// 1542       if ( ZDSecMgrSendMasterKey( device ) == ZSuccess )
??ZDSecMgrDeviceCtrlHandler_0:
        ; Setup parameters for call to function ZDSecMgrSendMasterKey
        LCALL     `??ZDSecMgrSendMasterKey::?relay`; Banked call to: ZDSecMgrSendMasterKey
        MOV       A,R1
        JNZ       ??ZDSecMgrDeviceCtrlHandler_2
// 1543       {
// 1544         state = ZDSECMGR_CTRL_SKKE_INIT;
        MOV       ?V0,#0x3
// 1545         cntr  = ZDSECMGR_CTRL_SKKE_INIT_CNTR;
        SJMP      ??ZDSecMgrDeviceCtrlHandler_2
// 1546       }
// 1547       break;
// 1548 
// 1549     case ZDSECMGR_CTRL_SKKE_INIT:
// 1550       if ( ZDSecMgrEstablishKey( device ) == ZSuccess )
??ZDSecMgrDeviceCtrlHandler_1:
        ; Setup parameters for call to function ZDSecMgrEstablishKey
        LCALL     `??ZDSecMgrEstablishKey::?relay`; Banked call to: ZDSecMgrEstablishKey
        MOV       A,R1
        JNZ       ??ZDSecMgrDeviceCtrlHandler_2
// 1551       {
// 1552         state = ZDSECMGR_CTRL_SKKE_WAIT;
        MOV       ?V0,#0x4
        SJMP      ??ZDSecMgrDeviceCtrlHandler_2
// 1553       }
// 1554       break;
// 1555 
// 1556     case ZDSECMGR_CTRL_SKKE_WAIT:
// 1557       // continue to wait for SKA control timeout
// 1558       break;
// 1559 
// 1560     case ZDSECMGR_CTRL_TK_NWK:
// 1561       if ( ZDSecMgrSendNwkKey( device ) == ZSuccess )
??ZDSecMgrDeviceCtrlHandler_3:
        ; Setup parameters for call to function ZDSecMgrSendNwkKey
        LCALL     `??ZDSecMgrSendNwkKey::?relay`; Banked call to: ZDSecMgrSendNwkKey
        MOV       A,R1
        JZ        ??ZDSecMgrDeviceCtrlHandler_4
// 1562       {
// 1563         state = ZDSECMGR_CTRL_NONE;
// 1564       }
// 1565       break;
// 1566 
// 1567     default:
// 1568       state = ZDSECMGR_CTRL_NONE;
// 1569       break;
// 1570   }
// 1571 
// 1572   if ( state != ZDSECMGR_CTRL_NONE )
// 1573   {
// 1574     device->ctrl->state = state;
??ZDSecMgrDeviceCtrlHandler_2:
        LCALL     ?Subroutine38 & 0xFFFF
??CrossCallReturnLabel_120:
        MOV       A,?V0
        LCALL     ?Subroutine36 & 0xFFFF
// 1575     device->ctrl->cntr  = cntr;
??CrossCallReturnLabel_38:
        XCH       A,R0
        LCALL     ?Subroutine59 & 0xFFFF
// 1576 
// 1577     osal_start_timerEx(ZDAppTaskID, ZDO_SECMGR_EVENT, 100 );
??CrossCallReturnLabel_82:
        ; Setup parameters for call to function osal_start_timerEx
        MOV       R4,#0x64
        MOV       R5,#0x0
        MOV       R2,#0x0
        MOV       R3,A
        MOV       DPTR,#ZDAppTaskID
        MOVX      A,@DPTR
        MOV       R1,A
        LCALL     `??osal_start_timerEx::?relay`; Banked call to: osal_start_timerEx
        SJMP      ??ZDSecMgrDeviceCtrlHandler_5
// 1578   }
// 1579   else
// 1580   {
// 1581     ZDSecMgrCtrlRelease( device->ctrl );
??ZDSecMgrDeviceCtrlHandler_4:
        LCALL     ?Subroutine38 & 0xFFFF
??CrossCallReturnLabel_121:
        CLR       A
        MOVX      @DPTR,A
// 1582   }
// 1583 }
??ZDSecMgrDeviceCtrlHandler_5:
        LJMP      ??Subroutine89_0 & 0xFFFF
          CFI EndBlock cfiBlock153

        RSEG BANKED_CODE:HUGECODE:NOROOT(0)
?Subroutine38:
          CFI Block cfiCond154 Using cfiCommon0
          CFI Function ZDSecMgrDeviceCtrlHandler
          CFI Conditional ??CrossCallReturnLabel_120
          CFI R6 load(1, XDATA, add(CFA_XSP16, literal(-9)))
          CFI VB load(1, XDATA, add(CFA_XSP16, literal(-8)))
          CFI V0 load(1, XDATA, add(CFA_XSP16, literal(-7)))
          CFI R7 load(1, XDATA, add(CFA_XSP16, literal(-6)))
          CFI ?RET_LOW load(1, XDATA, add(CFA_XSP16, literal(-5)))
          CFI ?RET_HIGH load(1, XDATA, add(CFA_XSP16, literal(-4)))
          CFI ?BRET_EXT load(1, XDATA, add(CFA_XSP16, literal(-3)))
          CFI DPL0 load(1, XDATA, add(CFA_XSP16, literal(-2)))
          CFI DPH0 load(1, XDATA, add(CFA_XSP16, literal(-1)))
          CFI CFA_SP SP+-2
          CFI CFA_XSP16 add(XSP16, 9)
          CFI Block cfiCond155 Using cfiCommon0
          CFI (cfiCond155) Function ZDSecMgrDeviceCtrlHandler
          CFI (cfiCond155) Conditional ??CrossCallReturnLabel_121
          CFI (cfiCond155) R6 load(1, XDATA, add(CFA_XSP16, literal(-9)))
          CFI (cfiCond155) VB load(1, XDATA, add(CFA_XSP16, literal(-8)))
          CFI (cfiCond155) V0 load(1, XDATA, add(CFA_XSP16, literal(-7)))
          CFI (cfiCond155) R7 load(1, XDATA, add(CFA_XSP16, literal(-6)))
          CFI (cfiCond155) ?RET_LOW load(1, XDATA, add(CFA_XSP16, literal(-5)))
          CFI (cfiCond155) ?RET_HIGH load(1, XDATA, add(CFA_XSP16, literal(-4)))
          CFI (cfiCond155) ?BRET_EXT load(1, XDATA, add(CFA_XSP16, literal(-3)))
          CFI (cfiCond155) DPL0 load(1, XDATA, add(CFA_XSP16, literal(-2)))
          CFI (cfiCond155) DPH0 load(1, XDATA, add(CFA_XSP16, literal(-1)))
          CFI (cfiCond155) CFA_SP SP+-2
          CFI (cfiCond155) CFA_XSP16 add(XSP16, 9)
          CFI Block cfiPicker156 Using cfiCommon1
          CFI (cfiPicker156) NoFunction
          CFI (cfiPicker156) Picker
        MOV       DPL,R6
        MOV       DPH,R7
          CFI EndBlock cfiCond154
          CFI EndBlock cfiCond155
          CFI EndBlock cfiPicker156
        REQUIRE ??Subroutine84_0
        ; // Fall through to label ??Subroutine84_0

        RSEG BANKED_CODE:HUGECODE:NOROOT(0)
??Subroutine84_0:
          CFI Block cfiCond157 Using cfiCommon0
          CFI Function ZDSecMgrDeviceCtrlHandler
          CFI Conditional ??CrossCallReturnLabel_119
          CFI R6 load(1, XDATA, add(CFA_XSP16, literal(-9)))
          CFI VB load(1, XDATA, add(CFA_XSP16, literal(-8)))
          CFI V0 load(1, XDATA, add(CFA_XSP16, literal(-7)))
          CFI R7 load(1, XDATA, add(CFA_XSP16, literal(-6)))
          CFI ?RET_LOW load(1, XDATA, add(CFA_XSP16, literal(-5)))
          CFI ?RET_HIGH load(1, XDATA, add(CFA_XSP16, literal(-4)))
          CFI ?BRET_EXT load(1, XDATA, add(CFA_XSP16, literal(-3)))
          CFI DPL0 load(1, XDATA, add(CFA_XSP16, literal(-2)))
          CFI DPH0 load(1, XDATA, add(CFA_XSP16, literal(-1)))
          CFI CFA_SP SP+-2
          CFI CFA_XSP16 add(XSP16, 9)
          CFI Block cfiCond158 Using cfiCommon0
          CFI (cfiCond158) Function ZDSecMgrDeviceCtrlHandler
          CFI (cfiCond158) Conditional ??CrossCallReturnLabel_120
          CFI (cfiCond158) R6 load(1, XDATA, add(CFA_XSP16, literal(-9)))
          CFI (cfiCond158) VB load(1, XDATA, add(CFA_XSP16, literal(-8)))
          CFI (cfiCond158) V0 load(1, XDATA, add(CFA_XSP16, literal(-7)))
          CFI (cfiCond158) R7 load(1, XDATA, add(CFA_XSP16, literal(-6)))
          CFI (cfiCond158) ?RET_LOW load(1, XDATA, add(CFA_XSP16, literal(-5)))
          CFI (cfiCond158) ?RET_HIGH load(1, XDATA, add(CFA_XSP16, literal(-4)))
          CFI (cfiCond158) ?BRET_EXT load(1, XDATA, add(CFA_XSP16, literal(-3)))
          CFI (cfiCond158) DPL0 load(1, XDATA, add(CFA_XSP16, literal(-2)))
          CFI (cfiCond158) DPH0 load(1, XDATA, add(CFA_XSP16, literal(-1)))
          CFI (cfiCond158) CFA_SP SP+-2
          CFI (cfiCond158) CFA_XSP16 add(XSP16, 9)
          CFI Block cfiCond159 Using cfiCommon0
          CFI (cfiCond159) Function ZDSecMgrDeviceCtrlHandler
          CFI (cfiCond159) Conditional ??CrossCallReturnLabel_121
          CFI (cfiCond159) R6 load(1, XDATA, add(CFA_XSP16, literal(-9)))
          CFI (cfiCond159) VB load(1, XDATA, add(CFA_XSP16, literal(-8)))
          CFI (cfiCond159) V0 load(1, XDATA, add(CFA_XSP16, literal(-7)))
          CFI (cfiCond159) R7 load(1, XDATA, add(CFA_XSP16, literal(-6)))
          CFI (cfiCond159) ?RET_LOW load(1, XDATA, add(CFA_XSP16, literal(-5)))
          CFI (cfiCond159) ?RET_HIGH load(1, XDATA, add(CFA_XSP16, literal(-4)))
          CFI (cfiCond159) ?BRET_EXT load(1, XDATA, add(CFA_XSP16, literal(-3)))
          CFI (cfiCond159) DPL0 load(1, XDATA, add(CFA_XSP16, literal(-2)))
          CFI (cfiCond159) DPH0 load(1, XDATA, add(CFA_XSP16, literal(-1)))
          CFI (cfiCond159) CFA_SP SP+-2
          CFI (cfiCond159) CFA_XSP16 add(XSP16, 9)
          CFI Block cfiPicker160 Using cfiCommon1
          CFI (cfiPicker160) NoFunction
          CFI (cfiPicker160) Picker
        LCALL     ?Subroutine67 & 0xFFFF
??CrossCallReturnLabel_124:
        INC       DPTR
        INC       DPTR
        INC       DPTR
        INC       DPTR
        INC       DPTR
        RET
          CFI EndBlock cfiCond157
          CFI EndBlock cfiCond158
          CFI EndBlock cfiCond159
          CFI EndBlock cfiPicker160

        RSEG BANKED_CODE:HUGECODE:NOROOT(0)
?Subroutine36:
          CFI Block cfiCond161 Using cfiCommon0
          CFI Function ZDSecMgrAppKeyReq
          CFI Conditional ??CrossCallReturnLabel_37
          CFI R6 load(1, XDATA, add(CFA_XSP16, literal(-12)))
          CFI VB load(1, XDATA, add(CFA_XSP16, literal(-11)))
          CFI V0 load(1, XDATA, add(CFA_XSP16, literal(-10)))
          CFI V1 load(1, XDATA, add(CFA_XSP16, literal(-9)))
          CFI V2 load(1, XDATA, add(CFA_XSP16, literal(-8)))
          CFI V3 load(1, XDATA, add(CFA_XSP16, literal(-7)))
          CFI R7 load(1, XDATA, add(CFA_XSP16, literal(-6)))
          CFI ?RET_LOW load(1, XDATA, add(CFA_XSP16, literal(-5)))
          CFI ?RET_HIGH load(1, XDATA, add(CFA_XSP16, literal(-4)))
          CFI ?BRET_EXT load(1, XDATA, add(CFA_XSP16, literal(-3)))
          CFI DPL0 load(1, XDATA, add(CFA_XSP16, literal(-2)))
          CFI DPH0 load(1, XDATA, add(CFA_XSP16, literal(-1)))
          CFI CFA_SP SP+-2
          CFI CFA_XSP16 add(XSP16, 51)
          CFI Block cfiCond162 Using cfiCommon0
          CFI (cfiCond162) Function ZDSecMgrDeviceCtrlHandler
          CFI (cfiCond162) Conditional ??CrossCallReturnLabel_38
          CFI (cfiCond162) R6 load(1, XDATA, add(CFA_XSP16, literal(-9)))
          CFI (cfiCond162) VB load(1, XDATA, add(CFA_XSP16, literal(-8)))
          CFI (cfiCond162) V0 load(1, XDATA, add(CFA_XSP16, literal(-7)))
          CFI (cfiCond162) R7 load(1, XDATA, add(CFA_XSP16, literal(-6)))
          CFI (cfiCond162) ?RET_LOW load(1, XDATA, add(CFA_XSP16, literal(-5)))
          CFI (cfiCond162) ?RET_HIGH load(1, XDATA, add(CFA_XSP16, literal(-4)))
          CFI (cfiCond162) ?BRET_EXT load(1, XDATA, add(CFA_XSP16, literal(-3)))
          CFI (cfiCond162) DPL0 load(1, XDATA, add(CFA_XSP16, literal(-2)))
          CFI (cfiCond162) DPH0 load(1, XDATA, add(CFA_XSP16, literal(-1)))
          CFI (cfiCond162) CFA_SP SP+-2
          CFI (cfiCond162) CFA_XSP16 add(XSP16, 9)
          CFI Block cfiPicker163 Using cfiCommon1
          CFI (cfiPicker163) NoFunction
          CFI (cfiPicker163) Picker
        MOVX      @DPTR,A
        MOV       DPL,R6
        MOV       DPH,R7
        LCALL     ??Subroutine104_0 & 0xFFFF
??CrossCallReturnLabel_220:
        RET
          CFI EndBlock cfiCond161
          CFI EndBlock cfiCond162
          CFI EndBlock cfiPicker163
// 1584 
// 1585 /******************************************************************************
// 1586  * @fn          ZDSecMgrDeviceCtrlSetup
// 1587  *
// 1588  * @brief       Setup device control.
// 1589  *
// 1590  * @param       device - [in] ZDSecMgrDevice_t, device info
// 1591  *
// 1592  * @return      ZStatus_t
// 1593  */

        RSEG BANKED_CODE:HUGECODE:NOROOT(0)
// 1594 void ZDSecMgrDeviceCtrlSetup( ZDSecMgrDevice_t* device )
ZDSecMgrDeviceCtrlSetup:
          CFI Block cfiBlock164 Using cfiCommon0
          CFI Function ZDSecMgrDeviceCtrlSetup
        CODE
// 1595 {
        FUNCALL ZDSecMgrDeviceCtrlSetup, ZDSecMgrDeviceCtrlHandler
        LOCFRAME ISTACK, 2, STACK
        LOCFRAME PSTACK, 0, STACK
        LOCFRAME XSTACK, 0, STACK
        LOCFRAME IOVERLAY, 0, STATIC
        LOCFRAME DOVERLAY, 0, STATIC
        ARGFRAME ISTACK, 2, STACK
        ARGFRAME PSTACK, 0, STACK
        ARGFRAME XSTACK, 0, STACK
        ARGFRAME IOVERLAY, 0, STATIC
        ARGFRAME DOVERLAY, 0, STATIC
        PUSH      DPL
          CFI DPL0 Frame(CFA_SP, 4)
          CFI CFA_SP SP+-4
        PUSH      DPH
          CFI DPH0 Frame(CFA_SP, 5)
          CFI CFA_SP SP+-5
        ; Saved register size: 2
        ; Auto size: 0
// 1596   if ( device->ctrl != NULL )
        MOV       DPL,R2
        MOV       DPH,R3
        INC       DPTR
        INC       DPTR
        INC       DPTR
        INC       DPTR
        INC       DPTR
        INC       DPTR
        INC       DPTR
        INC       DPTR
        LCALL     ??Subroutine94_0 & 0xFFFF
??CrossCallReturnLabel_170:
        JZ        ??ZDSecMgrDeviceCtrlSetup_0
// 1597   {
// 1598     if ( device->secure == FALSE )
        MOV       A,R0
        ADD       A,#0x5
        MOV       R0,A
        JNC       ??ZDSecMgrDeviceCtrlSetup_1
        INC       R1
??ZDSecMgrDeviceCtrlSetup_1:
        MOV       DPL,R2
        MOV       DPH,R3
        INC       DPTR
        INC       DPTR
        INC       DPTR
        INC       DPTR
        INC       DPTR
        INC       DPTR
        MOVX      A,@DPTR
        MOV       DPL,R0
        MOV       DPH,R1
        JNZ       ??ZDSecMgrDeviceCtrlSetup_2
// 1599     {
// 1600       // send the master key data to the joining device
// 1601       device->ctrl->state = ZDSECMGR_CTRL_TK_MASTER;
        MOV       A,#0x2
        SJMP      ??ZDSecMgrDeviceCtrlSetup_3
// 1602     }
// 1603     else
// 1604     {
// 1605       // start SKKE
// 1606       device->ctrl->state = ZDSECMGR_CTRL_SKKE_INIT;
??ZDSecMgrDeviceCtrlSetup_2:
        MOV       A,#0x3
??ZDSecMgrDeviceCtrlSetup_3:
        MOVX      @DPTR,A
// 1607     }
// 1608 
// 1609     ZDSecMgrDeviceCtrlHandler( device );
        ; Setup parameters for call to function ZDSecMgrDeviceCtrlHandler
        LCALL     `??ZDSecMgrDeviceCtrlHandler::?relay`; Banked call to: ZDSecMgrDeviceCtrlHandler
// 1610   }
// 1611 }
??ZDSecMgrDeviceCtrlSetup_0:
        LJMP      ??Subroutine86_0 & 0xFFFF
          CFI EndBlock cfiBlock164
// 1612 
// 1613 /******************************************************************************
// 1614  * @fn          ZDSecMgrDeviceCtrlUpdate
// 1615  *
// 1616  * @brief       Update control data.
// 1617  *
// 1618  * @param       extAddr - [in] EXT address
// 1619  * @param       state   - [in] new control state
// 1620  *
// 1621  * @return      none
// 1622  */

        RSEG BANKED_CODE:HUGECODE:NOROOT(0)
// 1623 void ZDSecMgrDeviceCtrlUpdate( uint8* extAddr, uint8 state )
ZDSecMgrDeviceCtrlUpdate:
          CFI Block cfiBlock165 Using cfiCommon0
          CFI Function ZDSecMgrDeviceCtrlUpdate
        CODE
// 1624 {
        FUNCALL ZDSecMgrDeviceCtrlUpdate, ZDSecMgrEntryLookupExt
        LOCFRAME ISTACK, 0, STACK
        LOCFRAME PSTACK, 0, STACK
        LOCFRAME XSTACK, 13, STACK
        LOCFRAME IOVERLAY, 0, STATIC
        LOCFRAME DOVERLAY, 0, STATIC
        ARGFRAME ISTACK, 0, STACK
        ARGFRAME PSTACK, 0, STACK
        ARGFRAME XSTACK, 13, STACK
        ARGFRAME IOVERLAY, 0, STATIC
        ARGFRAME DOVERLAY, 0, STATIC
        FUNCALL ZDSecMgrDeviceCtrlUpdate, ZDSecMgrCtrlLookup
        LOCFRAME ISTACK, 0, STACK
        LOCFRAME PSTACK, 0, STACK
        LOCFRAME XSTACK, 13, STACK
        LOCFRAME IOVERLAY, 0, STATIC
        LOCFRAME DOVERLAY, 0, STATIC
        ARGFRAME ISTACK, 0, STACK
        ARGFRAME PSTACK, 0, STACK
        ARGFRAME XSTACK, 13, STACK
        ARGFRAME IOVERLAY, 0, STATIC
        ARGFRAME DOVERLAY, 0, STATIC
        MOV       A,#-0x9
        LCALL     ?BANKED_ENTER_XDATA
          CFI DPH0 load(1, XDATA, add(CFA_XSP16, literal(-1)))
          CFI DPL0 load(1, XDATA, add(CFA_XSP16, literal(-2)))
          CFI ?BRET_EXT load(1, XDATA, add(CFA_XSP16, literal(-3)))
          CFI ?RET_HIGH load(1, XDATA, add(CFA_XSP16, literal(-4)))
          CFI ?RET_LOW load(1, XDATA, add(CFA_XSP16, literal(-5)))
          CFI R7 load(1, XDATA, add(CFA_XSP16, literal(-6)))
          CFI V0 load(1, XDATA, add(CFA_XSP16, literal(-7)))
          CFI VB load(1, XDATA, add(CFA_XSP16, literal(-8)))
          CFI R6 load(1, XDATA, add(CFA_XSP16, literal(-9)))
          CFI CFA_SP SP+0
          CFI CFA_XSP16 add(XSP16, 9)
        ; Saved register size: 9
        ; Auto size: 4
        MOV       A,#-0x4
        LCALL     ?ALLOC_XSTACK8
          CFI CFA_XSP16 add(XSP16, 13)
        MOV       A,R1
        MOV       R6,A
// 1625   ZDSecMgrEntry_t* entry;
// 1626   ZDSecMgrCtrl_t*  ctrl;
// 1627 
// 1628 
// 1629   // lookup device entry data
// 1630   ZDSecMgrEntryLookupExt( extAddr, &entry );
        ; Setup parameters for call to function ZDSecMgrEntryLookupExt
        MOV       A,#0x2
        LCALL     ?XSTACK_DISP102_8
        LCALL     `??ZDSecMgrEntryLookupExt::?relay`; Banked call to: ZDSecMgrEntryLookupExt
// 1631 
// 1632   if ( entry != NULL )
        MOV       A,#0x2
        LCALL     ?XSTACK_DISP0_8
        LCALL     ??Subroutine94_0 & 0xFFFF
??CrossCallReturnLabel_171:
        JZ        ??CrossCallReturnLabel_83
// 1633   {
// 1634     // lookup device control data
// 1635     ZDSecMgrCtrlLookup( entry, &ctrl );
        ; Setup parameters for call to function ZDSecMgrCtrlLookup
        MOV       R4,?XSP + 0
        MOV       R5,?XSP + 1
        MOV       A,#0x2
        LCALL     ?XSTACK_DISP0_8
        MOVX      A,@DPTR
        MOV       R2,A
        INC       DPTR
        MOVX      A,@DPTR
        LCALL     ?Subroutine37 & 0xFFFF
// 1636 
// 1637     // make sure control data is valid
// 1638     if ( ctrl != NULL )
??CrossCallReturnLabel_164:
        JZ        ??CrossCallReturnLabel_83
// 1639     {
// 1640       // possible state transitions
// 1641       if ( ctrl->state == ZDSECMGR_CTRL_SKKE_WAIT )
        MOV       DPL,?XSP + 0
        MOV       DPH,?XSP + 1
        MOVX      A,@DPTR
        ADD       A,#0x5
        MOV       R0,A
        INC       DPTR
        MOVX      A,@DPTR
        ADDC      A,#0x0
        MOV       DPL,R0
        MOV       DPH,A
        MOVX      A,@DPTR
        XRL       A,#0x4
        JNZ       ??CrossCallReturnLabel_83
// 1642       {
// 1643         if ( state == ZDSECMGR_CTRL_SKKE_DONE )
        MOV       A,#0x5
        XRL       A,R6
        JNZ       ??ZDSecMgrDeviceCtrlUpdate_0
// 1644         {
// 1645           // send the network key
// 1646           ctrl->state = ZDSECMGR_CTRL_TK_NWK;
        MOV       A,#0x7
        SJMP      ??ZDSecMgrDeviceCtrlUpdate_1
// 1647           ctrl->cntr  = ZDSECMGR_CTRL_TK_NWK_CNTR;
// 1648         }
// 1649         else if ( state == ZDSECMGR_CTRL_SKKE_FAIL )
??ZDSecMgrDeviceCtrlUpdate_0:
        MOV       A,#0x6
        XRL       A,R6
        JNZ       ??CrossCallReturnLabel_83
// 1650         {
// 1651           // force default timeout in order to cleanup control logic
// 1652           ctrl->state = ZDSECMGR_CTRL_SKKE_FAIL;
        MOV       A,#0x6
// 1653           ctrl->cntr  = ZDSECMGR_CTRL_BASE_CNTR;
// 1654         }
// 1655       }
// 1656       // timer should be active
// 1657     }
// 1658   }
??ZDSecMgrDeviceCtrlUpdate_1:
        LCALL     ?Subroutine23 & 0xFFFF
??CrossCallReturnLabel_10:
        LCALL     ?Subroutine59 & 0xFFFF
// 1659 }
??CrossCallReturnLabel_83:
          CFI EndBlock cfiBlock165
        REQUIRE ?Subroutine9
        ; // Fall through to label ?Subroutine9

        RSEG BANKED_CODE:HUGECODE:NOROOT(0)
?Subroutine9:
          CFI Block cfiBlock166 Using cfiCommon0
          CFI NoFunction
          CFI CFA_SP SP+0
          CFI CFA_XSP16 add(XSP16, 13)
          CFI VB load(1, XDATA, add(CFA_XSP16, literal(-8)))
          CFI DPL0 load(1, XDATA, add(CFA_XSP16, literal(-2)))
          CFI DPH0 load(1, XDATA, add(CFA_XSP16, literal(-1)))
          CFI R6 load(1, XDATA, add(CFA_XSP16, literal(-9)))
          CFI R7 load(1, XDATA, add(CFA_XSP16, literal(-6)))
          CFI V0 load(1, XDATA, add(CFA_XSP16, literal(-7)))
          CFI ?BRET_EXT load(1, XDATA, add(CFA_XSP16, literal(-3)))
          CFI ?RET_HIGH load(1, XDATA, add(CFA_XSP16, literal(-4)))
          CFI ?RET_LOW load(1, XDATA, add(CFA_XSP16, literal(-5)))
        MOV       A,#0x4
        LJMP      ??Subroutine88_0 & 0xFFFF
          CFI EndBlock cfiBlock166

        RSEG BANKED_CODE:HUGECODE:NOROOT(0)
?Subroutine59:
          CFI Block cfiCond167 Using cfiCommon0
          CFI Function ZDSecMgrDeviceCtrlHandler
          CFI Conditional ??CrossCallReturnLabel_82
          CFI R6 load(1, XDATA, add(CFA_XSP16, literal(-9)))
          CFI VB load(1, XDATA, add(CFA_XSP16, literal(-8)))
          CFI V0 load(1, XDATA, add(CFA_XSP16, literal(-7)))
          CFI R7 load(1, XDATA, add(CFA_XSP16, literal(-6)))
          CFI ?RET_LOW load(1, XDATA, add(CFA_XSP16, literal(-5)))
          CFI ?RET_HIGH load(1, XDATA, add(CFA_XSP16, literal(-4)))
          CFI ?BRET_EXT load(1, XDATA, add(CFA_XSP16, literal(-3)))
          CFI DPL0 load(1, XDATA, add(CFA_XSP16, literal(-2)))
          CFI DPH0 load(1, XDATA, add(CFA_XSP16, literal(-1)))
          CFI CFA_SP SP+-2
          CFI CFA_XSP16 add(XSP16, 9)
          CFI Block cfiCond168 Using cfiCommon0
          CFI (cfiCond168) Function ZDSecMgrDeviceCtrlUpdate
          CFI (cfiCond168) Conditional ??CrossCallReturnLabel_83
          CFI (cfiCond168) R6 load(1, XDATA, add(CFA_XSP16, literal(-9)))
          CFI (cfiCond168) VB load(1, XDATA, add(CFA_XSP16, literal(-8)))
          CFI (cfiCond168) V0 load(1, XDATA, add(CFA_XSP16, literal(-7)))
          CFI (cfiCond168) R7 load(1, XDATA, add(CFA_XSP16, literal(-6)))
          CFI (cfiCond168) ?RET_LOW load(1, XDATA, add(CFA_XSP16, literal(-5)))
          CFI (cfiCond168) ?RET_HIGH load(1, XDATA, add(CFA_XSP16, literal(-4)))
          CFI (cfiCond168) ?BRET_EXT load(1, XDATA, add(CFA_XSP16, literal(-3)))
          CFI (cfiCond168) DPL0 load(1, XDATA, add(CFA_XSP16, literal(-2)))
          CFI (cfiCond168) DPH0 load(1, XDATA, add(CFA_XSP16, literal(-1)))
          CFI (cfiCond168) CFA_SP SP+-2
          CFI (cfiCond168) CFA_XSP16 add(XSP16, 13)
          CFI Block cfiPicker169 Using cfiCommon1
          CFI (cfiPicker169) NoFunction
          CFI (cfiPicker169) Picker
        ADD       A,#0x6
        MOV       DPL,A
        CLR       A
        ADDC      A,R0
        MOV       DPH,A
        MOV       A,#0x1
        MOVX      @DPTR,A
        RET
          CFI EndBlock cfiCond167
          CFI EndBlock cfiCond168
          CFI EndBlock cfiPicker169
// 1660 
// 1661 void APSME_SKA_TimerExpired( uint8 initiator, uint8* partExtAddr );

        RSEG BANKED_CODE:HUGECODE:NOROOT(0)
// 1662 void APSME_SKA_TimerExpired( uint8 initiator, uint8* partExtAddr )
APSME_SKA_TimerExpired:
          CFI Block cfiBlock170 Using cfiCommon0
          CFI Function APSME_SKA_TimerExpired
        CODE
// 1663 {
        FUNCALL APSME_SKA_TimerExpired, ZDSecMgrDeviceCtrlUpdate
        LOCFRAME ISTACK, 0, STACK
        LOCFRAME PSTACK, 0, STACK
        LOCFRAME XSTACK, 9, STACK
        LOCFRAME IOVERLAY, 0, STATIC
        LOCFRAME DOVERLAY, 0, STATIC
        ARGFRAME ISTACK, 0, STACK
        ARGFRAME PSTACK, 0, STACK
        ARGFRAME XSTACK, 9, STACK
        ARGFRAME IOVERLAY, 0, STATIC
        ARGFRAME DOVERLAY, 0, STATIC
        MOV       A,#-0x9
        LCALL     ?BANKED_ENTER_XDATA
          CFI DPH0 load(1, XDATA, add(CFA_XSP16, literal(-1)))
          CFI DPL0 load(1, XDATA, add(CFA_XSP16, literal(-2)))
          CFI ?BRET_EXT load(1, XDATA, add(CFA_XSP16, literal(-3)))
          CFI ?RET_HIGH load(1, XDATA, add(CFA_XSP16, literal(-4)))
          CFI ?RET_LOW load(1, XDATA, add(CFA_XSP16, literal(-5)))
          CFI R7 load(1, XDATA, add(CFA_XSP16, literal(-6)))
          CFI V0 load(1, XDATA, add(CFA_XSP16, literal(-7)))
          CFI VB load(1, XDATA, add(CFA_XSP16, literal(-8)))
          CFI R6 load(1, XDATA, add(CFA_XSP16, literal(-9)))
          CFI CFA_SP SP+0
          CFI CFA_XSP16 add(XSP16, 9)
        ; Saved register size: 9
        ; Auto size: 0
        MOV       A,R1
        MOV       R6,A
// 1664   if ( ( ZG_BUILD_COORDINATOR_TYPE ) && ( ZG_DEVICE_COORDINATOR_TYPE ) )
// 1665   {
// 1666     if ( initiator == TRUE )
        MOV       A,#0x1
        XRL       A,R6
        JNZ       ??APSME_SKA_TimerExpired_0
// 1667     {
// 1668       ZDSecMgrDeviceCtrlUpdate( partExtAddr, ZDSECMGR_CTRL_SKKE_FAIL );
        ; Setup parameters for call to function ZDSecMgrDeviceCtrlUpdate
        MOV       R1,#0x6
        LCALL     `??ZDSecMgrDeviceCtrlUpdate::?relay`; Banked call to: ZDSecMgrDeviceCtrlUpdate
// 1669     }
// 1670   }
// 1671 }
??APSME_SKA_TimerExpired_0:
        LJMP      ??Subroutine89_0 & 0xFFFF
          CFI EndBlock cfiBlock170
// 1672 
// 1673 /******************************************************************************
// 1674  * @fn          ZDSecMgrDeviceRemove
// 1675  *
// 1676  * @brief       Remove device from network.
// 1677  *
// 1678  * @param       device - [in] ZDSecMgrDevice_t, device info
// 1679  *
// 1680  * @return      none
// 1681  */

        RSEG BANKED_CODE:HUGECODE:NOROOT(0)
// 1682 void ZDSecMgrDeviceRemove( ZDSecMgrDevice_t* device )
ZDSecMgrDeviceRemove:
          CFI Block cfiBlock171 Using cfiCommon0
          CFI Function ZDSecMgrDeviceRemove
        CODE
// 1683 {
        FUNCALL ZDSecMgrDeviceRemove, NLME_GetShortAddr
        LOCFRAME ISTACK, 0, STACK
        LOCFRAME PSTACK, 0, STACK
        LOCFRAME XSTACK, 19, STACK
        LOCFRAME IOVERLAY, 0, STATIC
        LOCFRAME DOVERLAY, 0, STATIC
        ARGFRAME ISTACK, 0, STACK
        ARGFRAME PSTACK, 0, STACK
        ARGFRAME XSTACK, 19, STACK
        ARGFRAME IOVERLAY, 0, STATIC
        ARGFRAME DOVERLAY, 0, STATIC
        FUNCALL ZDSecMgrDeviceRemove, AssocGetWithExt
        LOCFRAME ISTACK, 0, STACK
        LOCFRAME PSTACK, 0, STACK
        LOCFRAME XSTACK, 19, STACK
        LOCFRAME IOVERLAY, 0, STATIC
        LOCFRAME DOVERLAY, 0, STATIC
        ARGFRAME ISTACK, 0, STACK
        ARGFRAME PSTACK, 0, STACK
        ARGFRAME XSTACK, 19, STACK
        ARGFRAME IOVERLAY, 0, STATIC
        ARGFRAME DOVERLAY, 0, STATIC
        FUNCALL ZDSecMgrDeviceRemove, NLME_LeaveReq
        LOCFRAME ISTACK, 0, STACK
        LOCFRAME PSTACK, 0, STACK
        LOCFRAME XSTACK, 19, STACK
        LOCFRAME IOVERLAY, 0, STATIC
        LOCFRAME DOVERLAY, 0, STATIC
        ARGFRAME ISTACK, 0, STACK
        ARGFRAME PSTACK, 0, STACK
        ARGFRAME XSTACK, 19, STACK
        ARGFRAME IOVERLAY, 0, STATIC
        ARGFRAME DOVERLAY, 0, STATIC
        FUNCALL ZDSecMgrDeviceRemove, APSME_RemoveDeviceReq
        LOCFRAME ISTACK, 0, STACK
        LOCFRAME PSTACK, 0, STACK
        LOCFRAME XSTACK, 19, STACK
        LOCFRAME IOVERLAY, 0, STATIC
        LOCFRAME DOVERLAY, 0, STATIC
        ARGFRAME ISTACK, 0, STACK
        ARGFRAME PSTACK, 0, STACK
        ARGFRAME XSTACK, 19, STACK
        ARGFRAME IOVERLAY, 0, STATIC
        ARGFRAME DOVERLAY, 0, STATIC
        REQUIRE ?V0
        REQUIRE ?V1
        MOV       A,#-0xa
        LCALL     ?BANKED_ENTER_XDATA
          CFI DPH0 load(1, XDATA, add(CFA_XSP16, literal(-1)))
          CFI DPL0 load(1, XDATA, add(CFA_XSP16, literal(-2)))
          CFI ?BRET_EXT load(1, XDATA, add(CFA_XSP16, literal(-3)))
          CFI ?RET_HIGH load(1, XDATA, add(CFA_XSP16, literal(-4)))
          CFI ?RET_LOW load(1, XDATA, add(CFA_XSP16, literal(-5)))
          CFI R7 load(1, XDATA, add(CFA_XSP16, literal(-6)))
          CFI V1 load(1, XDATA, add(CFA_XSP16, literal(-7)))
          CFI V0 load(1, XDATA, add(CFA_XSP16, literal(-8)))
          CFI VB load(1, XDATA, add(CFA_XSP16, literal(-9)))
          CFI R6 load(1, XDATA, add(CFA_XSP16, literal(-10)))
          CFI CFA_SP SP+0
          CFI CFA_XSP16 add(XSP16, 10)
        ; Saved register size: 10
        ; Auto size: 9
        MOV       A,#-0x9
        LCALL     ?ALLOC_XSTACK8
          CFI CFA_XSP16 add(XSP16, 19)
        MOV       A,R2
        MOV       R6,A
        MOV       A,R3
        MOV       R7,A
// 1684   APSME_RemoveDeviceReq_t remDevReq;
// 1685   NLME_LeaveReq_t         leaveReq;
// 1686   associated_devices_t*   assoc;
// 1687 
// 1688 
// 1689   // check if parent, remove the device
// 1690   if ( device->parentAddr == NLME_GetShortAddr() )
        ; Setup parameters for call to function NLME_GetShortAddr
        LCALL     `??NLME_GetShortAddr::?relay`; Banked call to: NLME_GetShortAddr
        MOV       ?V0,R2
        MOV       ?V1,R3
        MOV       DPL,R6
        MOV       DPH,R7
        INC       DPTR
        INC       DPTR
        INC       DPTR
        INC       DPTR
        LCALL     ??Subroutine85_0 & 0xFFFF
??CrossCallReturnLabel_129:
        MOV       A,R6
        ADD       A,#0x2
        MOV       R0,A
        CLR       A
        ADDC      A,R7
        MOV       R1,A
        MOV       A,?V0
        XRL       A,R2
        JNZ       ??ZDSecMgrDeviceRemove_0
        MOV       A,?V1
        XRL       A,R3
??ZDSecMgrDeviceRemove_0:
        JNZ       ??ZDSecMgrDeviceRemove_1
// 1691   {
// 1692     // this is the parent of the device
// 1693     leaveReq.extAddr        = device->extAddr;
        MOV       DPL,R0
        MOV       DPH,R1
        LCALL     ??Subroutine85_0 & 0xFFFF
??CrossCallReturnLabel_130:
        LCALL     ?Subroutine21 & 0xFFFF
// 1694     leaveReq.removeChildren = FALSE;
??CrossCallReturnLabel_215:
        LCALL     ?XSTACK_DISP0_8
        CLR       A
        MOVX      @DPTR,A
// 1695     leaveReq.rejoin         = FALSE;
        MOV       A,#0x3
        LCALL     ?XSTACK_DISP0_8
        CLR       A
        LCALL     ?Subroutine65 & 0xFFFF
// 1696 
// 1697     // find child association
// 1698     assoc = AssocGetWithExt( device->extAddr );
??CrossCallReturnLabel_92:
        LCALL     ?Subroutine54 & 0xFFFF
??CrossCallReturnLabel_67:
        MOV       ?V1,R3
        MOV       R1,?V1
// 1699 
// 1700     if ( ( assoc != NULL                            ) &&
// 1701          ( assoc->nodeRelation >= CHILD_RFD         ) &&
// 1702          ( assoc->nodeRelation <= CHILD_FFD_RX_IDLE )    )
        MOV       A,R2
        ORL       A,R1
        JZ        ??ZDSecMgrDeviceRemove_2
        MOV       DPL,R2
        MOV       DPH,R3
        INC       DPTR
        INC       DPTR
        INC       DPTR
        INC       DPTR
        MOVX      A,@DPTR
        JZ        ??ZDSecMgrDeviceRemove_2
        CLR       C
        SUBB      A,#0x5
        JNC       ??ZDSecMgrDeviceRemove_2
// 1703     {
// 1704       // check if associated device is authenticated
// 1705       if ( assoc->devStatus & DEV_SEC_AUTH_STATUS )
        MOV       DPL,R2
        MOV       DPH,R3
        INC       DPTR
        INC       DPTR
        INC       DPTR
        INC       DPTR
        INC       DPTR
        MOVX      A,@DPTR
        MOV       C,0xE0 /* A   */.3
        MOV       A,#0x4
        JNC       ??ZDSecMgrDeviceRemove_3
// 1706       {
// 1707         leaveReq.silent = FALSE;
        LCALL     ?XSTACK_DISP0_8
        CLR       A
        SJMP      ??ZDSecMgrDeviceRemove_4
// 1708       }
// 1709       else
// 1710       {
// 1711         leaveReq.silent = TRUE;
??ZDSecMgrDeviceRemove_3:
        LCALL     ?XSTACK_DISP0_8
        MOV       A,#0x1
// 1712       }
// 1713 
// 1714       NLME_LeaveReq( &leaveReq );
// 1715     }
// 1716   }
??ZDSecMgrDeviceRemove_4:
        LCALL     ??Subroutine90_0 & 0xFFFF
??CrossCallReturnLabel_142:
        LCALL     `??NLME_LeaveReq::?relay`; Banked call to: NLME_LeaveReq
        SJMP      ??ZDSecMgrDeviceRemove_2
// 1717   else
// 1718   {
// 1719     // this is not the parent of the device
// 1720     remDevReq.parentAddr   = device->parentAddr;
??ZDSecMgrDeviceRemove_1:
        MOV       A,#0x5
        LCALL     ?XSTACK_DISP0_8
        MOV       A,R2
        MOVX      @DPTR,A
        INC       DPTR
        MOV       A,R3
        LCALL     ?Subroutine34 & 0xFFFF
// 1721     remDevReq.childExtAddr = device->extAddr;
// 1722 
// 1723     APSME_RemoveDeviceReq( &remDevReq );
// 1724   }
??CrossCallReturnLabel_27:
        MOV       R1,A
        MOV       A,#0x7
        LCALL     ?XSTACK_DISP0_8
        LCALL     ??Subroutine80_0 & 0xFFFF
??CrossCallReturnLabel_114:
        LCALL     ?XSTACK_DISP101_8
        LCALL     `??APSME_RemoveDeviceReq::?relay`; Banked call to: APSME_RemoveDeviceReq
// 1725 }
??ZDSecMgrDeviceRemove_2:
        MOV       A,#0x9
        LJMP      ??Subroutine101_0 & 0xFFFF
          CFI EndBlock cfiBlock171

        RSEG BANKED_CODE:HUGECODE:NOROOT(0)
?Subroutine65:
          CFI Block cfiCond172 Using cfiCommon0
          CFI Function ZDSecMgrCtrlSet
          CFI Conditional ??CrossCallReturnLabel_90
          CFI R6 load(1, XDATA, add(CFA_XSP16, literal(-9)))
          CFI VB load(1, XDATA, add(CFA_XSP16, literal(-8)))
          CFI V0 load(1, XDATA, add(CFA_XSP16, literal(-7)))
          CFI R7 load(1, XDATA, add(CFA_XSP16, literal(-6)))
          CFI ?RET_LOW load(1, XDATA, add(CFA_XSP16, literal(-5)))
          CFI ?RET_HIGH load(1, XDATA, add(CFA_XSP16, literal(-4)))
          CFI ?BRET_EXT load(1, XDATA, add(CFA_XSP16, literal(-3)))
          CFI DPL0 load(1, XDATA, add(CFA_XSP16, literal(-2)))
          CFI DPH0 load(1, XDATA, add(CFA_XSP16, literal(-1)))
          CFI CFA_SP SP+-2
          CFI CFA_XSP16 add(XSP16, 9)
          CFI Block cfiCond173 Using cfiCommon0
          CFI (cfiCond173) Function ZDSecMgrCtrlSet
          CFI (cfiCond173) Conditional ??CrossCallReturnLabel_91, ??CrossCallReturnLabel_17
          CFI (cfiCond173) R6 load(1, XDATA, add(CFA_XSP16, literal(-9)))
          CFI (cfiCond173) VB load(1, XDATA, add(CFA_XSP16, literal(-8)))
          CFI (cfiCond173) V0 load(1, XDATA, add(CFA_XSP16, literal(-7)))
          CFI (cfiCond173) R7 load(1, XDATA, add(CFA_XSP16, literal(-6)))
          CFI (cfiCond173) ?RET_LOW load(1, XDATA, add(CFA_XSP16, literal(-5)))
          CFI (cfiCond173) ?RET_HIGH load(1, XDATA, add(CFA_XSP16, literal(-4)))
          CFI (cfiCond173) ?BRET_EXT load(1, XDATA, add(CFA_XSP16, literal(-3)))
          CFI (cfiCond173) DPL0 load(1, XDATA, add(CFA_XSP16, literal(-2)))
          CFI (cfiCond173) DPH0 load(1, XDATA, add(CFA_XSP16, literal(-1)))
          CFI (cfiCond173) CFA_SP SP+-4
          CFI (cfiCond173) CFA_XSP16 add(XSP16, 9)
          CFI Block cfiCond174 Using cfiCommon0
          CFI (cfiCond174) Function ZDSecMgrCtrlSet
          CFI (cfiCond174) Conditional ??CrossCallReturnLabel_91, ??CrossCallReturnLabel_18
          CFI (cfiCond174) R6 load(1, XDATA, add(CFA_XSP16, literal(-9)))
          CFI (cfiCond174) VB load(1, XDATA, add(CFA_XSP16, literal(-8)))
          CFI (cfiCond174) V0 load(1, XDATA, add(CFA_XSP16, literal(-7)))
          CFI (cfiCond174) R7 load(1, XDATA, add(CFA_XSP16, literal(-6)))
          CFI (cfiCond174) ?RET_LOW load(1, XDATA, add(CFA_XSP16, literal(-5)))
          CFI (cfiCond174) ?RET_HIGH load(1, XDATA, add(CFA_XSP16, literal(-4)))
          CFI (cfiCond174) ?BRET_EXT load(1, XDATA, add(CFA_XSP16, literal(-3)))
          CFI (cfiCond174) DPL0 load(1, XDATA, add(CFA_XSP16, literal(-2)))
          CFI (cfiCond174) DPH0 load(1, XDATA, add(CFA_XSP16, literal(-1)))
          CFI (cfiCond174) CFA_SP SP+-4
          CFI (cfiCond174) CFA_XSP16 add(XSP16, 9)
          CFI Block cfiCond175 Using cfiCommon0
          CFI (cfiCond175) Function ZDSecMgrDeviceRemove
          CFI (cfiCond175) Conditional ??CrossCallReturnLabel_92
          CFI (cfiCond175) R6 load(1, XDATA, add(CFA_XSP16, literal(-10)))
          CFI (cfiCond175) VB load(1, XDATA, add(CFA_XSP16, literal(-9)))
          CFI (cfiCond175) V0 load(1, XDATA, add(CFA_XSP16, literal(-8)))
          CFI (cfiCond175) V1 load(1, XDATA, add(CFA_XSP16, literal(-7)))
          CFI (cfiCond175) R7 load(1, XDATA, add(CFA_XSP16, literal(-6)))
          CFI (cfiCond175) ?RET_LOW load(1, XDATA, add(CFA_XSP16, literal(-5)))
          CFI (cfiCond175) ?RET_HIGH load(1, XDATA, add(CFA_XSP16, literal(-4)))
          CFI (cfiCond175) ?BRET_EXT load(1, XDATA, add(CFA_XSP16, literal(-3)))
          CFI (cfiCond175) DPL0 load(1, XDATA, add(CFA_XSP16, literal(-2)))
          CFI (cfiCond175) DPH0 load(1, XDATA, add(CFA_XSP16, literal(-1)))
          CFI (cfiCond175) CFA_SP SP+-2
          CFI (cfiCond175) CFA_XSP16 add(XSP16, 19)
          CFI Block cfiCond176 Using cfiCommon0
          CFI (cfiCond176) Function ZDSecMgrDeviceRemove
          CFI (cfiCond176) Conditional ??CrossCallReturnLabel_93, ??CrossCallReturnLabel_27
          CFI (cfiCond176) R6 load(1, XDATA, add(CFA_XSP16, literal(-10)))
          CFI (cfiCond176) VB load(1, XDATA, add(CFA_XSP16, literal(-9)))
          CFI (cfiCond176) V0 load(1, XDATA, add(CFA_XSP16, literal(-8)))
          CFI (cfiCond176) V1 load(1, XDATA, add(CFA_XSP16, literal(-7)))
          CFI (cfiCond176) R7 load(1, XDATA, add(CFA_XSP16, literal(-6)))
          CFI (cfiCond176) ?RET_LOW load(1, XDATA, add(CFA_XSP16, literal(-5)))
          CFI (cfiCond176) ?RET_HIGH load(1, XDATA, add(CFA_XSP16, literal(-4)))
          CFI (cfiCond176) ?BRET_EXT load(1, XDATA, add(CFA_XSP16, literal(-3)))
          CFI (cfiCond176) DPL0 load(1, XDATA, add(CFA_XSP16, literal(-2)))
          CFI (cfiCond176) DPH0 load(1, XDATA, add(CFA_XSP16, literal(-1)))
          CFI (cfiCond176) CFA_SP SP+-4
          CFI (cfiCond176) CFA_XSP16 add(XSP16, 19)
          CFI Block cfiCond177 Using cfiCommon0
          CFI (cfiCond177) Function ZDSecMgrEvent
          CFI (cfiCond177) Conditional ??CrossCallReturnLabel_93, ??CrossCallReturnLabel_28
          CFI (cfiCond177) R6 load(1, XDATA, add(CFA_XSP16, literal(-10)))
          CFI (cfiCond177) VB load(1, XDATA, add(CFA_XSP16, literal(-9)))
          CFI (cfiCond177) V0 load(1, XDATA, add(CFA_XSP16, literal(-8)))
          CFI (cfiCond177) V1 load(1, XDATA, add(CFA_XSP16, literal(-7)))
          CFI (cfiCond177) R7 load(1, XDATA, add(CFA_XSP16, literal(-6)))
          CFI (cfiCond177) ?RET_LOW load(1, XDATA, add(CFA_XSP16, literal(-5)))
          CFI (cfiCond177) ?RET_HIGH load(1, XDATA, add(CFA_XSP16, literal(-4)))
          CFI (cfiCond177) ?BRET_EXT load(1, XDATA, add(CFA_XSP16, literal(-3)))
          CFI (cfiCond177) DPL0 load(1, XDATA, add(CFA_XSP16, literal(-2)))
          CFI (cfiCond177) DPH0 load(1, XDATA, add(CFA_XSP16, literal(-1)))
          CFI (cfiCond177) CFA_SP SP+-4
          CFI (cfiCond177) CFA_XSP16 add(XSP16, 33)
          CFI Block cfiPicker178 Using cfiCommon1
          CFI (cfiPicker178) NoFunction
          CFI (cfiPicker178) Picker
        MOVX      @DPTR,A
        ; Setup parameters for call to function AssocGetWithExt
        MOV       DPL,R0
        MOV       DPH,R1
        RET
          CFI EndBlock cfiCond172
          CFI EndBlock cfiCond173
          CFI EndBlock cfiCond174
          CFI EndBlock cfiCond175
          CFI EndBlock cfiCond176
          CFI EndBlock cfiCond177
          CFI EndBlock cfiPicker178
// 1726 
// 1727 /******************************************************************************
// 1728  * @fn          ZDSecMgrDeviceValidateSKKE
// 1729  *
// 1730  * @brief       Decide whether device is allowed for SKKE.
// 1731  *
// 1732  * @param       device - [in] ZDSecMgrDevice_t, device info
// 1733  *
// 1734  * @return      ZStatus_t
// 1735  */

        RSEG BANKED_CODE:HUGECODE:NOROOT(0)
// 1736 ZStatus_t ZDSecMgrDeviceValidateSKKE( ZDSecMgrDevice_t* device )
ZDSecMgrDeviceValidateSKKE:
          CFI Block cfiBlock179 Using cfiCommon0
          CFI Function ZDSecMgrDeviceValidateSKKE
        CODE
// 1737 {
        FUNCALL ZDSecMgrDeviceValidateSKKE, ZDSecMgrExtAddrLookup
        LOCFRAME ISTACK, 0, STACK
        LOCFRAME PSTACK, 0, STACK
        LOCFRAME XSTACK, 13, STACK
        LOCFRAME IOVERLAY, 0, STATIC
        LOCFRAME DOVERLAY, 0, STATIC
        ARGFRAME ISTACK, 0, STACK
        ARGFRAME PSTACK, 0, STACK
        ARGFRAME XSTACK, 13, STACK
        ARGFRAME IOVERLAY, 0, STATIC
        ARGFRAME DOVERLAY, 0, STATIC
        FUNCALL ZDSecMgrDeviceValidateSKKE, ZDSecMgrMasterKeyLookup
        LOCFRAME ISTACK, 0, STACK
        LOCFRAME PSTACK, 0, STACK
        LOCFRAME XSTACK, 13, STACK
        LOCFRAME IOVERLAY, 0, STATIC
        LOCFRAME DOVERLAY, 0, STATIC
        ARGFRAME ISTACK, 0, STACK
        ARGFRAME PSTACK, 0, STACK
        ARGFRAME XSTACK, 13, STACK
        ARGFRAME IOVERLAY, 0, STATIC
        ARGFRAME DOVERLAY, 0, STATIC
        FUNCALL ZDSecMgrDeviceValidateSKKE, ZDSecMgrDeviceEntryAdd
        LOCFRAME ISTACK, 0, STACK
        LOCFRAME PSTACK, 0, STACK
        LOCFRAME XSTACK, 13, STACK
        LOCFRAME IOVERLAY, 0, STATIC
        LOCFRAME DOVERLAY, 0, STATIC
        ARGFRAME ISTACK, 0, STACK
        ARGFRAME PSTACK, 0, STACK
        ARGFRAME XSTACK, 13, STACK
        ARGFRAME IOVERLAY, 0, STATIC
        ARGFRAME DOVERLAY, 0, STATIC
        MOV       A,#-0x9
        LCALL     ?BANKED_ENTER_XDATA
          CFI DPH0 load(1, XDATA, add(CFA_XSP16, literal(-1)))
          CFI DPL0 load(1, XDATA, add(CFA_XSP16, literal(-2)))
          CFI ?BRET_EXT load(1, XDATA, add(CFA_XSP16, literal(-3)))
          CFI ?RET_HIGH load(1, XDATA, add(CFA_XSP16, literal(-4)))
          CFI ?RET_LOW load(1, XDATA, add(CFA_XSP16, literal(-5)))
          CFI R7 load(1, XDATA, add(CFA_XSP16, literal(-6)))
          CFI V0 load(1, XDATA, add(CFA_XSP16, literal(-7)))
          CFI VB load(1, XDATA, add(CFA_XSP16, literal(-8)))
          CFI R6 load(1, XDATA, add(CFA_XSP16, literal(-9)))
          CFI CFA_SP SP+0
          CFI CFA_XSP16 add(XSP16, 9)
        ; Saved register size: 9
        ; Auto size: 4
        MOV       A,#-0x4
        LCALL     ?ALLOC_XSTACK8
          CFI CFA_XSP16 add(XSP16, 13)
        MOV       A,R2
        MOV       R6,A
        MOV       A,R3
        MOV       R7,A
// 1738   ZStatus_t status;
// 1739   uint16    ami;
// 1740   uint8*    key;
// 1741 
// 1742 
// 1743   // get EXT address
// 1744   status = ZDSecMgrExtAddrLookup( device->extAddr, &ami );
        ; Setup parameters for call to function ZDSecMgrExtAddrLookup
        MOV       R4,?XSP + 0
        MOV       R5,?XSP + 1
        MOV       DPL,R2
        MOV       DPH,A
        INC       DPTR
        INC       DPTR
        LCALL     ??Subroutine85_0 & 0xFFFF
??CrossCallReturnLabel_131:
        LCALL     `??ZDSecMgrExtAddrLookup::?relay`; Banked call to: ZDSecMgrExtAddrLookup
        MOV       A,R1
        MOV       R1,A
// 1745 
// 1746   if ( status == ZSuccess )
        JNZ       ??ZDSecMgrDeviceValidateSKKE_0
// 1747   {
// 1748     // get MASTER key
// 1749     status = ZDSecMgrMasterKeyLookup( ami, &key );
        ; Setup parameters for call to function ZDSecMgrMasterKeyLookup
        MOV       A,#0x2
        LCALL     ?XSTACK_DISP102_8
        LCALL     ?Subroutine42 & 0xFFFF
??CrossCallReturnLabel_46:
        MOV       R1,A
// 1750 
// 1751     if ( status == ZSuccess )
        JNZ       ??ZDSecMgrDeviceValidateSKKE_0
// 1752     {
// 1753     //  // check if initiator is Trust Center
// 1754     //  if ( device->nwkAddr == APSME_TRUSTCENTER_NWKADDR )
// 1755     //  {
// 1756     //    // verify NWK key not sent
// 1757     //    // devtag.todo
// 1758     //    // temporary - add device to internal data
// 1759     //    status = ZDSecMgrDeviceEntryAdd( device, ami );
// 1760     //  }
// 1761     //  else
// 1762     //  {
// 1763     //    // initiator not Trust Center - End to End SKKE - set policy
// 1764     //    // for accepting an SKKE initiation
// 1765     //    // temporary - add device to internal data
// 1766     //    status = ZDSecMgrDeviceEntryAdd( device, ami );
// 1767     //  }
// 1768         status = ZDSecMgrDeviceEntryAdd( device, ami );
        ; Setup parameters for call to function ZDSecMgrDeviceEntryAdd
        LCALL     ?Subroutine44 & 0xFFFF
// 1769     }
// 1770   }
??CrossCallReturnLabel_50:
        MOV       R1,A
// 1771 
// 1772   return status;
??ZDSecMgrDeviceValidateSKKE_0:
        LJMP      ?Subroutine9 & 0xFFFF
// 1773 }
          CFI EndBlock cfiBlock179

        RSEG BANKED_CODE:HUGECODE:NOROOT(0)
?Subroutine42:
          CFI Block cfiCond180 Using cfiCommon0
          CFI Function ZDSecMgrMasterKeyLoad
          CFI Conditional ??CrossCallReturnLabel_45
          CFI R6 load(1, XDATA, add(CFA_XSP16, literal(-15)))
          CFI VB load(1, XDATA, add(CFA_XSP16, literal(-14)))
          CFI V0 load(1, XDATA, add(CFA_XSP16, literal(-13)))
          CFI V1 load(1, XDATA, add(CFA_XSP16, literal(-12)))
          CFI V2 load(1, XDATA, add(CFA_XSP16, literal(-11)))
          CFI V3 load(1, XDATA, add(CFA_XSP16, literal(-10)))
          CFI V4 load(1, XDATA, add(CFA_XSP16, literal(-9)))
          CFI V5 load(1, XDATA, add(CFA_XSP16, literal(-8)))
          CFI V6 load(1, XDATA, add(CFA_XSP16, literal(-7)))
          CFI R7 load(1, XDATA, add(CFA_XSP16, literal(-6)))
          CFI ?RET_LOW load(1, XDATA, add(CFA_XSP16, literal(-5)))
          CFI ?RET_HIGH load(1, XDATA, add(CFA_XSP16, literal(-4)))
          CFI ?BRET_EXT load(1, XDATA, add(CFA_XSP16, literal(-3)))
          CFI DPL0 load(1, XDATA, add(CFA_XSP16, literal(-2)))
          CFI DPH0 load(1, XDATA, add(CFA_XSP16, literal(-1)))
          CFI CFA_SP SP+-2
          CFI CFA_XSP16 add(XSP16, 19)
          CFI Block cfiCond181 Using cfiCommon0
          CFI (cfiCond181) Function ZDSecMgrDeviceValidateSKKE
          CFI (cfiCond181) Conditional ??CrossCallReturnLabel_46
          CFI (cfiCond181) R6 load(1, XDATA, add(CFA_XSP16, literal(-9)))
          CFI (cfiCond181) VB load(1, XDATA, add(CFA_XSP16, literal(-8)))
          CFI (cfiCond181) V0 load(1, XDATA, add(CFA_XSP16, literal(-7)))
          CFI (cfiCond181) R7 load(1, XDATA, add(CFA_XSP16, literal(-6)))
          CFI (cfiCond181) ?RET_LOW load(1, XDATA, add(CFA_XSP16, literal(-5)))
          CFI (cfiCond181) ?RET_HIGH load(1, XDATA, add(CFA_XSP16, literal(-4)))
          CFI (cfiCond181) ?BRET_EXT load(1, XDATA, add(CFA_XSP16, literal(-3)))
          CFI (cfiCond181) DPL0 load(1, XDATA, add(CFA_XSP16, literal(-2)))
          CFI (cfiCond181) DPH0 load(1, XDATA, add(CFA_XSP16, literal(-1)))
          CFI (cfiCond181) CFA_SP SP+-2
          CFI (cfiCond181) CFA_XSP16 add(XSP16, 13)
          CFI Block cfiCond182 Using cfiCommon0
          CFI (cfiCond182) Function ZDSecMgrTCDataLoad
          CFI (cfiCond182) Conditional ??CrossCallReturnLabel_47
          CFI (cfiCond182) R6 load(1, XDATA, add(CFA_XSP16, literal(-10)))
          CFI (cfiCond182) VB load(1, XDATA, add(CFA_XSP16, literal(-9)))
          CFI (cfiCond182) V0 load(1, XDATA, add(CFA_XSP16, literal(-8)))
          CFI (cfiCond182) V1 load(1, XDATA, add(CFA_XSP16, literal(-7)))
          CFI (cfiCond182) R7 load(1, XDATA, add(CFA_XSP16, literal(-6)))
          CFI (cfiCond182) ?RET_LOW load(1, XDATA, add(CFA_XSP16, literal(-5)))
          CFI (cfiCond182) ?RET_HIGH load(1, XDATA, add(CFA_XSP16, literal(-4)))
          CFI (cfiCond182) ?BRET_EXT load(1, XDATA, add(CFA_XSP16, literal(-3)))
          CFI (cfiCond182) DPL0 load(1, XDATA, add(CFA_XSP16, literal(-2)))
          CFI (cfiCond182) DPH0 load(1, XDATA, add(CFA_XSP16, literal(-1)))
          CFI (cfiCond182) CFA_SP SP+-2
          CFI (cfiCond182) CFA_XSP16 add(XSP16, 14)
          CFI Block cfiPicker183 Using cfiCommon1
          CFI (cfiPicker183) NoFunction
          CFI (cfiPicker183) Picker
        LCALL     ?Subroutine68 & 0xFFFF
??CrossCallReturnLabel_228:
        LCALL     `??ZDSecMgrMasterKeyLookup::?relay`; Banked call to: ZDSecMgrMasterKeyLookup
        MOV       A,R1
        RET
          CFI EndBlock cfiCond180
          CFI EndBlock cfiCond181
          CFI EndBlock cfiCond182
          CFI EndBlock cfiPicker183
// 1774 
// 1775 /******************************************************************************
// 1776  * @fn          ZDSecMgrDeviceValidateRM (RESIDENTIAL MODE)
// 1777  *
// 1778  * @brief       Decide whether device is allowed.
// 1779  *
// 1780  * @param       device - [in] ZDSecMgrDevice_t, device info
// 1781  *
// 1782  * @return      ZStatus_t
// 1783  */

        RSEG BANKED_CODE:HUGECODE:NOROOT(0)
// 1784 ZStatus_t ZDSecMgrDeviceValidateRM( ZDSecMgrDevice_t* device )
ZDSecMgrDeviceValidateRM:
          CFI Block cfiBlock184 Using cfiCommon0
          CFI Function ZDSecMgrDeviceValidateRM
        CODE
// 1785 {
        PUSH      DPL
          CFI DPL0 Frame(CFA_SP, 4)
          CFI CFA_SP SP+-4
        PUSH      DPH
          CFI DPH0 Frame(CFA_SP, 5)
          CFI CFA_SP SP+-5
        ; Saved register size: 2
        ; Auto size: 0
// 1786 
// 1787   ZStatus_t status;
// 1788   status = ZSuccess;
        MOV       R1,#0x0
// 1789 
// 1790   (void)device;  // Intentionally unreferenced parameter
// 1791   
// 1792   // For test purpose, turning off the zgSecurePermitJoin flag will force
// 1793   // the trust center to reject any newly joining devices by sending
// 1794   // Remove-device to the parents.
// 1795   if ( zgSecurePermitJoin == false )
        MOV       DPTR,#zgSecurePermitJoin
        MOVX      A,@DPTR
        JNZ       ??ZDSecMgrDeviceValidateRM_0
// 1796   {
// 1797     status = ZNwkUnknownDevice;
        MOV       R1,#-0x38
// 1798   }
// 1799 
// 1800 
// 1801 
// 1802 #if 0  // Taken out because the following functionality is only used for test
// 1803        // purpose. A more efficient (above) way is used. It can be put
// 1804        // back in if customers request for a white/black list feature.
// 1805        // ZDSecMgrStoredDeviceList[] is defined in ZDSecMgr.c
// 1806 
// 1807   // The following code processes the device black list (stored device list)
// 1808   // If the joining device is not part of the forbidden device list
// 1809   // Return ZSuccess. Otherwise, return ZNwkUnknownDevice. The trust center
// 1810   // will send Remove-device and ban the device from joining.
// 1811 
// 1812   uint8     index;
// 1813   uint8*    restricted;
// 1814 
// 1815   // Look through the stored device list - used for restricted devices
// 1816   for ( index = 0; index < ZDSECMGR_STORED_DEVICES; index++ )
// 1817   {
// 1818     restricted = ZDSecMgrStoredDeviceList[index];
// 1819 
// 1820     if ( AddrMgrExtAddrEqual( restricted, device->extAddr )  == TRUE )
// 1821     {
// 1822       // return as unknown device in regards to validation
// 1823       status = ZNwkUnknownDevice;
// 1824 
// 1825       // break from loop
// 1826       index = ZDSECMGR_STORED_DEVICES;
// 1827     }
// 1828   }
// 1829 
// 1830 #endif
// 1831 
// 1832   return status;
??ZDSecMgrDeviceValidateRM_0:
        LJMP      ??Subroutine86_0 & 0xFFFF
// 1833 }
          CFI EndBlock cfiBlock184
// 1834 
// 1835 /******************************************************************************
// 1836  * @fn          ZDSecMgrDeviceValidateCM (COMMERCIAL MODE)
// 1837  *
// 1838  * @brief       Decide whether device is allowed.
// 1839  *
// 1840  * @param       device - [in] ZDSecMgrDevice_t, device info
// 1841  *
// 1842  * @return      ZStatus_t
// 1843  */
// 1844 //devtag.pro.security

        RSEG BANKED_CODE:HUGECODE:NOROOT(0)
// 1845 ZStatus_t ZDSecMgrDeviceValidateCM( ZDSecMgrDevice_t* device )
ZDSecMgrDeviceValidateCM:
          CFI Block cfiBlock185 Using cfiCommon0
          CFI Function ZDSecMgrDeviceValidateCM
        CODE
// 1846 {
        FUNCALL ZDSecMgrDeviceValidateCM, ZDSecMgrAddrStore
        LOCFRAME ISTACK, 0, STACK
        LOCFRAME PSTACK, 0, STACK
        LOCFRAME XSTACK, 16, STACK
        LOCFRAME IOVERLAY, 0, STATIC
        LOCFRAME DOVERLAY, 0, STATIC
        ARGFRAME ISTACK, 0, STACK
        ARGFRAME PSTACK, 0, STACK
        ARGFRAME XSTACK, 16, STACK
        ARGFRAME IOVERLAY, 0, STATIC
        ARGFRAME DOVERLAY, 0, STATIC
        FUNCALL ZDSecMgrDeviceValidateCM, ZDSecMgrMasterKeyLoad
        LOCFRAME ISTACK, 0, STACK
        LOCFRAME PSTACK, 0, STACK
        LOCFRAME XSTACK, 14, STACK
        LOCFRAME IOVERLAY, 0, STATIC
        LOCFRAME DOVERLAY, 0, STATIC
        ARGFRAME ISTACK, 0, STACK
        ARGFRAME PSTACK, 0, STACK
        ARGFRAME XSTACK, 14, STACK
        ARGFRAME IOVERLAY, 0, STATIC
        ARGFRAME DOVERLAY, 0, STATIC
        FUNCALL ZDSecMgrDeviceValidateCM, ZDSecMgrDeviceEntryAdd
        LOCFRAME ISTACK, 0, STACK
        LOCFRAME PSTACK, 0, STACK
        LOCFRAME XSTACK, 14, STACK
        LOCFRAME IOVERLAY, 0, STATIC
        LOCFRAME DOVERLAY, 0, STATIC
        ARGFRAME ISTACK, 0, STACK
        ARGFRAME PSTACK, 0, STACK
        ARGFRAME XSTACK, 14, STACK
        ARGFRAME IOVERLAY, 0, STATIC
        ARGFRAME DOVERLAY, 0, STATIC
        REQUIRE ?V0
        REQUIRE ?V1
        REQUIRE ?V2
        REQUIRE ?V3
        MOV       A,#-0xc
        LCALL     ?BANKED_ENTER_XDATA
          CFI DPH0 load(1, XDATA, add(CFA_XSP16, literal(-1)))
          CFI DPL0 load(1, XDATA, add(CFA_XSP16, literal(-2)))
          CFI ?BRET_EXT load(1, XDATA, add(CFA_XSP16, literal(-3)))
          CFI ?RET_HIGH load(1, XDATA, add(CFA_XSP16, literal(-4)))
          CFI ?RET_LOW load(1, XDATA, add(CFA_XSP16, literal(-5)))
          CFI R7 load(1, XDATA, add(CFA_XSP16, literal(-6)))
          CFI V3 load(1, XDATA, add(CFA_XSP16, literal(-7)))
          CFI V2 load(1, XDATA, add(CFA_XSP16, literal(-8)))
          CFI V1 load(1, XDATA, add(CFA_XSP16, literal(-9)))
          CFI V0 load(1, XDATA, add(CFA_XSP16, literal(-10)))
          CFI VB load(1, XDATA, add(CFA_XSP16, literal(-11)))
          CFI R6 load(1, XDATA, add(CFA_XSP16, literal(-12)))
          CFI CFA_SP SP+0
          CFI CFA_XSP16 add(XSP16, 12)
        ; Saved register size: 12
        ; Auto size: 2
        MOV       A,#-0x2
        LCALL     ?ALLOC_XSTACK8
          CFI CFA_XSP16 add(XSP16, 14)
        MOV       A,R2
        MOV       R6,A
        MOV       A,R3
        MOV       R7,A
// 1847   ZStatus_t status;
// 1848   uint16    ami;
// 1849   uint8*    key;
// 1850 
// 1851 
// 1852 //  // check for pre configured setting
// 1853 //  if ( device->secure == TRUE )
// 1854 //  {
// 1855 //    // get EXT address and MASTER key
// 1856 //    status = ZDSecMgrExtAddrLookup( device->extAddr, &ami );
// 1857 //
// 1858 //    if ( status == ZSuccess )
// 1859 //    {
// 1860 //      status = ZDSecMgrMasterKeyLookup( ami, &key );
// 1861 //    }
// 1862 //  }
// 1863 //  else
// 1864 //  {
// 1865     // implement EXT address and MASTER key policy here -- the total number of
// 1866     // Security Manager entries should never exceed the number of EXT addresses
// 1867     // and MASTER keys available
// 1868 
// 1869     // set status based on policy
// 1870     //status = ZNwkUnknownDevice;
// 1871 
// 1872     // set status based on policy
// 1873     status = ZSuccess; // ZNwkUnknownDevice;
// 1874 
// 1875     // get key based on policy
// 1876     key = ZDSecMgrTCMasterKey;
// 1877 
// 1878     // if policy, store new EXT address
// 1879     status = ZDSecMgrAddrStore( device->nwkAddr, device->extAddr, &ami );
        MOV       A,R2
        ADD       A,#0x2
        MOV       ?V0,A
        CLR       A
        ADDC      A,R7
        MOV       ?V1,A
        ; Setup parameters for call to function ZDSecMgrAddrStore
        MOV       R0,?XSP + 0
        MOV       R1,?XSP + 1
        MOV       ?V2,R0
        MOV       ?V3,R1
        MOV       R0,#?V2
        LCALL     ?PUSH_XSTACK_I_TWO
          CFI CFA_XSP16 add(XSP16, 16)
        MOV       DPL,?V0
        MOV       DPH,?V1
        LCALL     ?Subroutine51 & 0xFFFF
??CrossCallReturnLabel_62:
        MOV       R2,A
        INC       DPTR
        MOVX      A,@DPTR
        MOV       R3,A
        LCALL     `??ZDSecMgrAddrStore::?relay`; Banked call to: ZDSecMgrAddrStore
        MOV       A,#0x2
        LCALL     ?DEALLOC_XSTACK8
          CFI CFA_XSP16 add(XSP16, 14)
        MOV       A,R1
        MOV       ?V2,A
// 1880 
// 1881     // set the key
// 1882     ZDSecMgrMasterKeyLoad( device->extAddr, key );
        ; Setup parameters for call to function ZDSecMgrMasterKeyLoad
        MOV       R4,#ZDSecMgrTCMasterKey & 0xff
        MOV       R5,#(ZDSecMgrTCMasterKey >> 8) & 0xff
        MOV       DPL,?V0
        MOV       DPH,?V1
        LCALL     ??Subroutine85_0 & 0xFFFF
??CrossCallReturnLabel_132:
        LCALL     `??ZDSecMgrMasterKeyLoad::?relay`; Banked call to: ZDSecMgrMasterKeyLoad
// 1883 //  }
// 1884 
// 1885   // if EXT address and MASTER key available -- add device
// 1886   if ( status == ZSuccess )
        MOV       A,?V2
        JNZ       ??ZDSecMgrDeviceValidateCM_0
// 1887   {
// 1888     // add device to internal data - with control
// 1889     status = ZDSecMgrDeviceEntryAdd( device, ami );
        ; Setup parameters for call to function ZDSecMgrDeviceEntryAdd
        LCALL     ?Subroutine44 & 0xFFFF
// 1890   }
??CrossCallReturnLabel_51:
        MOV       ?V2,A
// 1891 
// 1892   return status;
??ZDSecMgrDeviceValidateCM_0:
        MOV       R1,?V2
        LJMP      ?Subroutine4 & 0xFFFF
// 1893 }
          CFI EndBlock cfiBlock185

        RSEG BANKED_CODE:HUGECODE:NOROOT(0)
?Subroutine55:
          CFI Block cfiCond186 Using cfiCommon0
          CFI Function ZDSecMgrAppKeyReq
          CFI Conditional ??CrossCallReturnLabel_135
          CFI R6 load(1, XDATA, add(CFA_XSP16, literal(-12)))
          CFI VB load(1, XDATA, add(CFA_XSP16, literal(-11)))
          CFI V0 load(1, XDATA, add(CFA_XSP16, literal(-10)))
          CFI V1 load(1, XDATA, add(CFA_XSP16, literal(-9)))
          CFI V2 load(1, XDATA, add(CFA_XSP16, literal(-8)))
          CFI V3 load(1, XDATA, add(CFA_XSP16, literal(-7)))
          CFI R7 load(1, XDATA, add(CFA_XSP16, literal(-6)))
          CFI ?RET_LOW load(1, XDATA, add(CFA_XSP16, literal(-5)))
          CFI ?RET_HIGH load(1, XDATA, add(CFA_XSP16, literal(-4)))
          CFI ?BRET_EXT load(1, XDATA, add(CFA_XSP16, literal(-3)))
          CFI DPL0 load(1, XDATA, add(CFA_XSP16, literal(-2)))
          CFI DPH0 load(1, XDATA, add(CFA_XSP16, literal(-1)))
          CFI CFA_SP SP+-2
          CFI CFA_XSP16 add(XSP16, 51)
          CFI Block cfiCond187 Using cfiCommon0
          CFI (cfiCond187) Function ZDSecMgrAppKeyReq
          CFI (cfiCond187) Conditional ??CrossCallReturnLabel_136
          CFI (cfiCond187) R6 load(1, XDATA, add(CFA_XSP16, literal(-12)))
          CFI (cfiCond187) VB load(1, XDATA, add(CFA_XSP16, literal(-11)))
          CFI (cfiCond187) V0 load(1, XDATA, add(CFA_XSP16, literal(-10)))
          CFI (cfiCond187) V1 load(1, XDATA, add(CFA_XSP16, literal(-9)))
          CFI (cfiCond187) V2 load(1, XDATA, add(CFA_XSP16, literal(-8)))
          CFI (cfiCond187) V3 load(1, XDATA, add(CFA_XSP16, literal(-7)))
          CFI (cfiCond187) R7 load(1, XDATA, add(CFA_XSP16, literal(-6)))
          CFI (cfiCond187) ?RET_LOW load(1, XDATA, add(CFA_XSP16, literal(-5)))
          CFI (cfiCond187) ?RET_HIGH load(1, XDATA, add(CFA_XSP16, literal(-4)))
          CFI (cfiCond187) ?BRET_EXT load(1, XDATA, add(CFA_XSP16, literal(-3)))
          CFI (cfiCond187) DPL0 load(1, XDATA, add(CFA_XSP16, literal(-2)))
          CFI (cfiCond187) DPH0 load(1, XDATA, add(CFA_XSP16, literal(-1)))
          CFI (cfiCond187) CFA_SP SP+-2
          CFI (cfiCond187) CFA_XSP16 add(XSP16, 59)
          CFI Block cfiCond188 Using cfiCommon0
          CFI (cfiCond188) Function ZDSecMgrDeviceJoinDirect
          CFI (cfiCond188) Conditional ??CrossCallReturnLabel_137
          CFI (cfiCond188) R6 load(1, XDATA, add(CFA_XSP16, literal(-9)))
          CFI (cfiCond188) VB load(1, XDATA, add(CFA_XSP16, literal(-8)))
          CFI (cfiCond188) V0 load(1, XDATA, add(CFA_XSP16, literal(-7)))
          CFI (cfiCond188) R7 load(1, XDATA, add(CFA_XSP16, literal(-6)))
          CFI (cfiCond188) ?RET_LOW load(1, XDATA, add(CFA_XSP16, literal(-5)))
          CFI (cfiCond188) ?RET_HIGH load(1, XDATA, add(CFA_XSP16, literal(-4)))
          CFI (cfiCond188) ?BRET_EXT load(1, XDATA, add(CFA_XSP16, literal(-3)))
          CFI (cfiCond188) DPL0 load(1, XDATA, add(CFA_XSP16, literal(-2)))
          CFI (cfiCond188) DPH0 load(1, XDATA, add(CFA_XSP16, literal(-1)))
          CFI (cfiCond188) CFA_SP SP+-2
          CFI (cfiCond188) CFA_XSP16 add(XSP16, 9)
          CFI Block cfiPicker189 Using cfiCommon1
          CFI (cfiPicker189) NoFunction
          CFI (cfiPicker189) Picker
        MOV       DPL,R6
        MOV       DPH,R7
          CFI EndBlock cfiCond186
          CFI EndBlock cfiCond187
          CFI EndBlock cfiCond188
          CFI EndBlock cfiPicker189
        REQUIRE ??Subroutine85_0
        ; // Fall through to label ??Subroutine85_0

        RSEG BANKED_CODE:HUGECODE:NOROOT(0)
??Subroutine85_0:
          CFI Block cfiCond190 Using cfiCommon0
          CFI Function ZDSecMgrMasterKeyLoad
          CFI Conditional ??CrossCallReturnLabel_125
          CFI R6 load(1, XDATA, add(CFA_XSP16, literal(-15)))
          CFI VB load(1, XDATA, add(CFA_XSP16, literal(-14)))
          CFI V0 load(1, XDATA, add(CFA_XSP16, literal(-13)))
          CFI V1 load(1, XDATA, add(CFA_XSP16, literal(-12)))
          CFI V2 load(1, XDATA, add(CFA_XSP16, literal(-11)))
          CFI V3 load(1, XDATA, add(CFA_XSP16, literal(-10)))
          CFI V4 load(1, XDATA, add(CFA_XSP16, literal(-9)))
          CFI V5 load(1, XDATA, add(CFA_XSP16, literal(-8)))
          CFI V6 load(1, XDATA, add(CFA_XSP16, literal(-7)))
          CFI R7 load(1, XDATA, add(CFA_XSP16, literal(-6)))
          CFI ?RET_LOW load(1, XDATA, add(CFA_XSP16, literal(-5)))
          CFI ?RET_HIGH load(1, XDATA, add(CFA_XSP16, literal(-4)))
          CFI ?BRET_EXT load(1, XDATA, add(CFA_XSP16, literal(-3)))
          CFI DPL0 load(1, XDATA, add(CFA_XSP16, literal(-2)))
          CFI DPH0 load(1, XDATA, add(CFA_XSP16, literal(-1)))
          CFI CFA_SP SP+-2
          CFI CFA_XSP16 add(XSP16, 22)
          CFI Block cfiCond191 Using cfiCommon0
          CFI (cfiCond191) Function ZDSecMgrSendNwkKey
          CFI (cfiCond191) Conditional ??CrossCallReturnLabel_126
          CFI (cfiCond191) R6 load(1, XDATA, add(CFA_XSP16, literal(-12)))
          CFI (cfiCond191) VB load(1, XDATA, add(CFA_XSP16, literal(-11)))
          CFI (cfiCond191) V0 load(1, XDATA, add(CFA_XSP16, literal(-10)))
          CFI (cfiCond191) V1 load(1, XDATA, add(CFA_XSP16, literal(-9)))
          CFI (cfiCond191) V2 load(1, XDATA, add(CFA_XSP16, literal(-8)))
          CFI (cfiCond191) V3 load(1, XDATA, add(CFA_XSP16, literal(-7)))
          CFI (cfiCond191) R7 load(1, XDATA, add(CFA_XSP16, literal(-6)))
          CFI (cfiCond191) ?RET_LOW load(1, XDATA, add(CFA_XSP16, literal(-5)))
          CFI (cfiCond191) ?RET_HIGH load(1, XDATA, add(CFA_XSP16, literal(-4)))
          CFI (cfiCond191) ?BRET_EXT load(1, XDATA, add(CFA_XSP16, literal(-3)))
          CFI (cfiCond191) DPL0 load(1, XDATA, add(CFA_XSP16, literal(-2)))
          CFI (cfiCond191) DPH0 load(1, XDATA, add(CFA_XSP16, literal(-1)))
          CFI (cfiCond191) CFA_SP SP+-2
          CFI (cfiCond191) CFA_XSP16 add(XSP16, 25)
          CFI Block cfiCond192 Using cfiCommon0
          CFI (cfiCond192) Function ZDSecMgrDeviceEntryAdd
          CFI (cfiCond192) Conditional ??CrossCallReturnLabel_127
          CFI (cfiCond192) R6 load(1, XDATA, add(CFA_XSP16, literal(-12)))
          CFI (cfiCond192) VB load(1, XDATA, add(CFA_XSP16, literal(-11)))
          CFI (cfiCond192) V0 load(1, XDATA, add(CFA_XSP16, literal(-10)))
          CFI (cfiCond192) V1 load(1, XDATA, add(CFA_XSP16, literal(-9)))
          CFI (cfiCond192) V2 load(1, XDATA, add(CFA_XSP16, literal(-8)))
          CFI (cfiCond192) V3 load(1, XDATA, add(CFA_XSP16, literal(-7)))
          CFI (cfiCond192) R7 load(1, XDATA, add(CFA_XSP16, literal(-6)))
          CFI (cfiCond192) ?RET_LOW load(1, XDATA, add(CFA_XSP16, literal(-5)))
          CFI (cfiCond192) ?RET_HIGH load(1, XDATA, add(CFA_XSP16, literal(-4)))
          CFI (cfiCond192) ?BRET_EXT load(1, XDATA, add(CFA_XSP16, literal(-3)))
          CFI (cfiCond192) DPL0 load(1, XDATA, add(CFA_XSP16, literal(-2)))
          CFI (cfiCond192) DPH0 load(1, XDATA, add(CFA_XSP16, literal(-1)))
          CFI (cfiCond192) CFA_SP SP+-2
          CFI (cfiCond192) CFA_XSP16 add(XSP16, 14)
          CFI Block cfiCond193 Using cfiCommon0
          CFI (cfiCond193) Function ZDSecMgrDeviceEntryAdd
          CFI (cfiCond193) Conditional ??CrossCallReturnLabel_128
          CFI (cfiCond193) R6 load(1, XDATA, add(CFA_XSP16, literal(-12)))
          CFI (cfiCond193) VB load(1, XDATA, add(CFA_XSP16, literal(-11)))
          CFI (cfiCond193) V0 load(1, XDATA, add(CFA_XSP16, literal(-10)))
          CFI (cfiCond193) V1 load(1, XDATA, add(CFA_XSP16, literal(-9)))
          CFI (cfiCond193) V2 load(1, XDATA, add(CFA_XSP16, literal(-8)))
          CFI (cfiCond193) V3 load(1, XDATA, add(CFA_XSP16, literal(-7)))
          CFI (cfiCond193) R7 load(1, XDATA, add(CFA_XSP16, literal(-6)))
          CFI (cfiCond193) ?RET_LOW load(1, XDATA, add(CFA_XSP16, literal(-5)))
          CFI (cfiCond193) ?RET_HIGH load(1, XDATA, add(CFA_XSP16, literal(-4)))
          CFI (cfiCond193) ?BRET_EXT load(1, XDATA, add(CFA_XSP16, literal(-3)))
          CFI (cfiCond193) DPL0 load(1, XDATA, add(CFA_XSP16, literal(-2)))
          CFI (cfiCond193) DPH0 load(1, XDATA, add(CFA_XSP16, literal(-1)))
          CFI (cfiCond193) CFA_SP SP+-2
          CFI (cfiCond193) CFA_XSP16 add(XSP16, 14)
          CFI Block cfiCond194 Using cfiCommon0
          CFI (cfiCond194) Function ZDSecMgrDeviceRemove
          CFI (cfiCond194) Conditional ??CrossCallReturnLabel_129
          CFI (cfiCond194) R6 load(1, XDATA, add(CFA_XSP16, literal(-10)))
          CFI (cfiCond194) VB load(1, XDATA, add(CFA_XSP16, literal(-9)))
          CFI (cfiCond194) V0 load(1, XDATA, add(CFA_XSP16, literal(-8)))
          CFI (cfiCond194) V1 load(1, XDATA, add(CFA_XSP16, literal(-7)))
          CFI (cfiCond194) R7 load(1, XDATA, add(CFA_XSP16, literal(-6)))
          CFI (cfiCond194) ?RET_LOW load(1, XDATA, add(CFA_XSP16, literal(-5)))
          CFI (cfiCond194) ?RET_HIGH load(1, XDATA, add(CFA_XSP16, literal(-4)))
          CFI (cfiCond194) ?BRET_EXT load(1, XDATA, add(CFA_XSP16, literal(-3)))
          CFI (cfiCond194) DPL0 load(1, XDATA, add(CFA_XSP16, literal(-2)))
          CFI (cfiCond194) DPH0 load(1, XDATA, add(CFA_XSP16, literal(-1)))
          CFI (cfiCond194) CFA_SP SP+-2
          CFI (cfiCond194) CFA_XSP16 add(XSP16, 19)
          CFI Block cfiCond195 Using cfiCommon0
          CFI (cfiCond195) Function ZDSecMgrDeviceRemove
          CFI (cfiCond195) Conditional ??CrossCallReturnLabel_130
          CFI (cfiCond195) R6 load(1, XDATA, add(CFA_XSP16, literal(-10)))
          CFI (cfiCond195) VB load(1, XDATA, add(CFA_XSP16, literal(-9)))
          CFI (cfiCond195) V0 load(1, XDATA, add(CFA_XSP16, literal(-8)))
          CFI (cfiCond195) V1 load(1, XDATA, add(CFA_XSP16, literal(-7)))
          CFI (cfiCond195) R7 load(1, XDATA, add(CFA_XSP16, literal(-6)))
          CFI (cfiCond195) ?RET_LOW load(1, XDATA, add(CFA_XSP16, literal(-5)))
          CFI (cfiCond195) ?RET_HIGH load(1, XDATA, add(CFA_XSP16, literal(-4)))
          CFI (cfiCond195) ?BRET_EXT load(1, XDATA, add(CFA_XSP16, literal(-3)))
          CFI (cfiCond195) DPL0 load(1, XDATA, add(CFA_XSP16, literal(-2)))
          CFI (cfiCond195) DPH0 load(1, XDATA, add(CFA_XSP16, literal(-1)))
          CFI (cfiCond195) CFA_SP SP+-2
          CFI (cfiCond195) CFA_XSP16 add(XSP16, 19)
          CFI Block cfiCond196 Using cfiCommon0
          CFI (cfiCond196) Function ZDSecMgrDeviceValidateSKKE
          CFI (cfiCond196) Conditional ??CrossCallReturnLabel_131
          CFI (cfiCond196) R6 load(1, XDATA, add(CFA_XSP16, literal(-9)))
          CFI (cfiCond196) VB load(1, XDATA, add(CFA_XSP16, literal(-8)))
          CFI (cfiCond196) V0 load(1, XDATA, add(CFA_XSP16, literal(-7)))
          CFI (cfiCond196) R7 load(1, XDATA, add(CFA_XSP16, literal(-6)))
          CFI (cfiCond196) ?RET_LOW load(1, XDATA, add(CFA_XSP16, literal(-5)))
          CFI (cfiCond196) ?RET_HIGH load(1, XDATA, add(CFA_XSP16, literal(-4)))
          CFI (cfiCond196) ?BRET_EXT load(1, XDATA, add(CFA_XSP16, literal(-3)))
          CFI (cfiCond196) DPL0 load(1, XDATA, add(CFA_XSP16, literal(-2)))
          CFI (cfiCond196) DPH0 load(1, XDATA, add(CFA_XSP16, literal(-1)))
          CFI (cfiCond196) CFA_SP SP+-2
          CFI (cfiCond196) CFA_XSP16 add(XSP16, 13)
          CFI Block cfiCond197 Using cfiCommon0
          CFI (cfiCond197) Function ZDSecMgrDeviceValidateCM
          CFI (cfiCond197) Conditional ??CrossCallReturnLabel_132
          CFI (cfiCond197) R6 load(1, XDATA, add(CFA_XSP16, literal(-12)))
          CFI (cfiCond197) VB load(1, XDATA, add(CFA_XSP16, literal(-11)))
          CFI (cfiCond197) V0 load(1, XDATA, add(CFA_XSP16, literal(-10)))
          CFI (cfiCond197) V1 load(1, XDATA, add(CFA_XSP16, literal(-9)))
          CFI (cfiCond197) V2 load(1, XDATA, add(CFA_XSP16, literal(-8)))
          CFI (cfiCond197) V3 load(1, XDATA, add(CFA_XSP16, literal(-7)))
          CFI (cfiCond197) R7 load(1, XDATA, add(CFA_XSP16, literal(-6)))
          CFI (cfiCond197) ?RET_LOW load(1, XDATA, add(CFA_XSP16, literal(-5)))
          CFI (cfiCond197) ?RET_HIGH load(1, XDATA, add(CFA_XSP16, literal(-4)))
          CFI (cfiCond197) ?BRET_EXT load(1, XDATA, add(CFA_XSP16, literal(-3)))
          CFI (cfiCond197) DPL0 load(1, XDATA, add(CFA_XSP16, literal(-2)))
          CFI (cfiCond197) DPH0 load(1, XDATA, add(CFA_XSP16, literal(-1)))
          CFI (cfiCond197) CFA_SP SP+-2
          CFI (cfiCond197) CFA_XSP16 add(XSP16, 14)
          CFI Block cfiCond198 Using cfiCommon0
          CFI (cfiCond198) Function ZDSecMgrEvent
          CFI (cfiCond198) Conditional ??CrossCallReturnLabel_133
          CFI (cfiCond198) R6 load(1, XDATA, add(CFA_XSP16, literal(-10)))
          CFI (cfiCond198) VB load(1, XDATA, add(CFA_XSP16, literal(-9)))
          CFI (cfiCond198) V0 load(1, XDATA, add(CFA_XSP16, literal(-8)))
          CFI (cfiCond198) V1 load(1, XDATA, add(CFA_XSP16, literal(-7)))
          CFI (cfiCond198) R7 load(1, XDATA, add(CFA_XSP16, literal(-6)))
          CFI (cfiCond198) ?RET_LOW load(1, XDATA, add(CFA_XSP16, literal(-5)))
          CFI (cfiCond198) ?RET_HIGH load(1, XDATA, add(CFA_XSP16, literal(-4)))
          CFI (cfiCond198) ?BRET_EXT load(1, XDATA, add(CFA_XSP16, literal(-3)))
          CFI (cfiCond198) DPL0 load(1, XDATA, add(CFA_XSP16, literal(-2)))
          CFI (cfiCond198) DPH0 load(1, XDATA, add(CFA_XSP16, literal(-1)))
          CFI (cfiCond198) CFA_SP SP+-2
          CFI (cfiCond198) CFA_XSP16 add(XSP16, 33)
          CFI Block cfiCond199 Using cfiCommon0
          CFI (cfiCond199) Function APSME_MasterKeyGet
          CFI (cfiCond199) Conditional ??CrossCallReturnLabel_134
          CFI (cfiCond199) R6 load(1, XDATA, add(CFA_XSP16, literal(-9)))
          CFI (cfiCond199) VB load(1, XDATA, add(CFA_XSP16, literal(-8)))
          CFI (cfiCond199) V0 load(1, XDATA, add(CFA_XSP16, literal(-7)))
          CFI (cfiCond199) R7 load(1, XDATA, add(CFA_XSP16, literal(-6)))
          CFI (cfiCond199) ?RET_LOW load(1, XDATA, add(CFA_XSP16, literal(-5)))
          CFI (cfiCond199) ?RET_HIGH load(1, XDATA, add(CFA_XSP16, literal(-4)))
          CFI (cfiCond199) ?BRET_EXT load(1, XDATA, add(CFA_XSP16, literal(-3)))
          CFI (cfiCond199) DPL0 load(1, XDATA, add(CFA_XSP16, literal(-2)))
          CFI (cfiCond199) DPH0 load(1, XDATA, add(CFA_XSP16, literal(-1)))
          CFI (cfiCond199) CFA_SP SP+-2
          CFI (cfiCond199) CFA_XSP16 add(XSP16, 11)
          CFI Block cfiCond200 Using cfiCommon0
          CFI (cfiCond200) Function ZDSecMgrAppKeyReq
          CFI (cfiCond200) Conditional ??CrossCallReturnLabel_135
          CFI (cfiCond200) R6 load(1, XDATA, add(CFA_XSP16, literal(-12)))
          CFI (cfiCond200) VB load(1, XDATA, add(CFA_XSP16, literal(-11)))
          CFI (cfiCond200) V0 load(1, XDATA, add(CFA_XSP16, literal(-10)))
          CFI (cfiCond200) V1 load(1, XDATA, add(CFA_XSP16, literal(-9)))
          CFI (cfiCond200) V2 load(1, XDATA, add(CFA_XSP16, literal(-8)))
          CFI (cfiCond200) V3 load(1, XDATA, add(CFA_XSP16, literal(-7)))
          CFI (cfiCond200) R7 load(1, XDATA, add(CFA_XSP16, literal(-6)))
          CFI (cfiCond200) ?RET_LOW load(1, XDATA, add(CFA_XSP16, literal(-5)))
          CFI (cfiCond200) ?RET_HIGH load(1, XDATA, add(CFA_XSP16, literal(-4)))
          CFI (cfiCond200) ?BRET_EXT load(1, XDATA, add(CFA_XSP16, literal(-3)))
          CFI (cfiCond200) DPL0 load(1, XDATA, add(CFA_XSP16, literal(-2)))
          CFI (cfiCond200) DPH0 load(1, XDATA, add(CFA_XSP16, literal(-1)))
          CFI (cfiCond200) CFA_SP SP+-2
          CFI (cfiCond200) CFA_XSP16 add(XSP16, 51)
          CFI Block cfiCond201 Using cfiCommon0
          CFI (cfiCond201) Function ZDSecMgrAppKeyReq
          CFI (cfiCond201) Conditional ??CrossCallReturnLabel_136
          CFI (cfiCond201) R6 load(1, XDATA, add(CFA_XSP16, literal(-12)))
          CFI (cfiCond201) VB load(1, XDATA, add(CFA_XSP16, literal(-11)))
          CFI (cfiCond201) V0 load(1, XDATA, add(CFA_XSP16, literal(-10)))
          CFI (cfiCond201) V1 load(1, XDATA, add(CFA_XSP16, literal(-9)))
          CFI (cfiCond201) V2 load(1, XDATA, add(CFA_XSP16, literal(-8)))
          CFI (cfiCond201) V3 load(1, XDATA, add(CFA_XSP16, literal(-7)))
          CFI (cfiCond201) R7 load(1, XDATA, add(CFA_XSP16, literal(-6)))
          CFI (cfiCond201) ?RET_LOW load(1, XDATA, add(CFA_XSP16, literal(-5)))
          CFI (cfiCond201) ?RET_HIGH load(1, XDATA, add(CFA_XSP16, literal(-4)))
          CFI (cfiCond201) ?BRET_EXT load(1, XDATA, add(CFA_XSP16, literal(-3)))
          CFI (cfiCond201) DPL0 load(1, XDATA, add(CFA_XSP16, literal(-2)))
          CFI (cfiCond201) DPH0 load(1, XDATA, add(CFA_XSP16, literal(-1)))
          CFI (cfiCond201) CFA_SP SP+-2
          CFI (cfiCond201) CFA_XSP16 add(XSP16, 59)
          CFI Block cfiCond202 Using cfiCommon0
          CFI (cfiCond202) Function ZDSecMgrDeviceJoinDirect
          CFI (cfiCond202) Conditional ??CrossCallReturnLabel_137
          CFI (cfiCond202) R6 load(1, XDATA, add(CFA_XSP16, literal(-9)))
          CFI (cfiCond202) VB load(1, XDATA, add(CFA_XSP16, literal(-8)))
          CFI (cfiCond202) V0 load(1, XDATA, add(CFA_XSP16, literal(-7)))
          CFI (cfiCond202) R7 load(1, XDATA, add(CFA_XSP16, literal(-6)))
          CFI (cfiCond202) ?RET_LOW load(1, XDATA, add(CFA_XSP16, literal(-5)))
          CFI (cfiCond202) ?RET_HIGH load(1, XDATA, add(CFA_XSP16, literal(-4)))
          CFI (cfiCond202) ?BRET_EXT load(1, XDATA, add(CFA_XSP16, literal(-3)))
          CFI (cfiCond202) DPL0 load(1, XDATA, add(CFA_XSP16, literal(-2)))
          CFI (cfiCond202) DPH0 load(1, XDATA, add(CFA_XSP16, literal(-1)))
          CFI (cfiCond202) CFA_SP SP+-2
          CFI (cfiCond202) CFA_XSP16 add(XSP16, 9)
          CFI Block cfiPicker203 Using cfiCommon1
          CFI (cfiPicker203) NoFunction
          CFI (cfiPicker203) Picker
        LCALL     ??Subroutine105_0 & 0xFFFF
??CrossCallReturnLabel_230:
        RET
          CFI EndBlock cfiCond190
          CFI EndBlock cfiCond191
          CFI EndBlock cfiCond192
          CFI EndBlock cfiCond193
          CFI EndBlock cfiCond194
          CFI EndBlock cfiCond195
          CFI EndBlock cfiCond196
          CFI EndBlock cfiCond197
          CFI EndBlock cfiCond198
          CFI EndBlock cfiCond199
          CFI EndBlock cfiCond200
          CFI EndBlock cfiCond201
          CFI EndBlock cfiCond202
          CFI EndBlock cfiPicker203

        RSEG BANKED_CODE:HUGECODE:NOROOT(0)
?Subroutine51:
          CFI Block cfiCond204 Using cfiCommon0
          CFI Function ZDSecMgrEntryLookup
          CFI Conditional ??CrossCallReturnLabel_61
          CFI R6 load(1, XDATA, add(CFA_XSP16, literal(-10)))
          CFI VB load(1, XDATA, add(CFA_XSP16, literal(-9)))
          CFI V0 load(1, XDATA, add(CFA_XSP16, literal(-8)))
          CFI V1 load(1, XDATA, add(CFA_XSP16, literal(-7)))
          CFI R7 load(1, XDATA, add(CFA_XSP16, literal(-6)))
          CFI ?RET_LOW load(1, XDATA, add(CFA_XSP16, literal(-5)))
          CFI ?RET_HIGH load(1, XDATA, add(CFA_XSP16, literal(-4)))
          CFI ?BRET_EXT load(1, XDATA, add(CFA_XSP16, literal(-3)))
          CFI DPL0 load(1, XDATA, add(CFA_XSP16, literal(-2)))
          CFI DPH0 load(1, XDATA, add(CFA_XSP16, literal(-1)))
          CFI CFA_SP SP+-2
          CFI CFA_XSP16 add(XSP16, 23)
          CFI Block cfiCond205 Using cfiCommon0
          CFI (cfiCond205) Function ZDSecMgrDeviceValidateCM
          CFI (cfiCond205) Conditional ??CrossCallReturnLabel_62
          CFI (cfiCond205) R6 load(1, XDATA, add(CFA_XSP16, literal(-12)))
          CFI (cfiCond205) VB load(1, XDATA, add(CFA_XSP16, literal(-11)))
          CFI (cfiCond205) V0 load(1, XDATA, add(CFA_XSP16, literal(-10)))
          CFI (cfiCond205) V1 load(1, XDATA, add(CFA_XSP16, literal(-9)))
          CFI (cfiCond205) V2 load(1, XDATA, add(CFA_XSP16, literal(-8)))
          CFI (cfiCond205) V3 load(1, XDATA, add(CFA_XSP16, literal(-7)))
          CFI (cfiCond205) R7 load(1, XDATA, add(CFA_XSP16, literal(-6)))
          CFI (cfiCond205) ?RET_LOW load(1, XDATA, add(CFA_XSP16, literal(-5)))
          CFI (cfiCond205) ?RET_HIGH load(1, XDATA, add(CFA_XSP16, literal(-4)))
          CFI (cfiCond205) ?BRET_EXT load(1, XDATA, add(CFA_XSP16, literal(-3)))
          CFI (cfiCond205) DPL0 load(1, XDATA, add(CFA_XSP16, literal(-2)))
          CFI (cfiCond205) DPH0 load(1, XDATA, add(CFA_XSP16, literal(-1)))
          CFI (cfiCond205) CFA_SP SP+-2
          CFI (cfiCond205) CFA_XSP16 add(XSP16, 16)
          CFI Block cfiPicker206 Using cfiCommon1
          CFI (cfiPicker206) NoFunction
          CFI (cfiPicker206) Picker
        MOVX      A,@DPTR
        MOV       R4,A
        INC       DPTR
        MOVX      A,@DPTR
        MOV       R5,A
        MOV       DPL,R2
        MOV       DPH,R3
        MOVX      A,@DPTR
        RET
          CFI EndBlock cfiCond204
          CFI EndBlock cfiCond205
          CFI EndBlock cfiPicker206

        RSEG BANKED_CODE:HUGECODE:NOROOT(0)
?Subroutine44:
          CFI Block cfiCond207 Using cfiCommon0
          CFI Function ZDSecMgrDeviceValidateSKKE
          CFI Conditional ??CrossCallReturnLabel_50
          CFI R6 load(1, XDATA, add(CFA_XSP16, literal(-9)))
          CFI VB load(1, XDATA, add(CFA_XSP16, literal(-8)))
          CFI V0 load(1, XDATA, add(CFA_XSP16, literal(-7)))
          CFI R7 load(1, XDATA, add(CFA_XSP16, literal(-6)))
          CFI ?RET_LOW load(1, XDATA, add(CFA_XSP16, literal(-5)))
          CFI ?RET_HIGH load(1, XDATA, add(CFA_XSP16, literal(-4)))
          CFI ?BRET_EXT load(1, XDATA, add(CFA_XSP16, literal(-3)))
          CFI DPL0 load(1, XDATA, add(CFA_XSP16, literal(-2)))
          CFI DPH0 load(1, XDATA, add(CFA_XSP16, literal(-1)))
          CFI CFA_SP SP+-2
          CFI CFA_XSP16 add(XSP16, 13)
          CFI Block cfiCond208 Using cfiCommon0
          CFI (cfiCond208) Function ZDSecMgrDeviceValidateCM
          CFI (cfiCond208) Conditional ??CrossCallReturnLabel_51
          CFI (cfiCond208) R6 load(1, XDATA, add(CFA_XSP16, literal(-12)))
          CFI (cfiCond208) VB load(1, XDATA, add(CFA_XSP16, literal(-11)))
          CFI (cfiCond208) V0 load(1, XDATA, add(CFA_XSP16, literal(-10)))
          CFI (cfiCond208) V1 load(1, XDATA, add(CFA_XSP16, literal(-9)))
          CFI (cfiCond208) V2 load(1, XDATA, add(CFA_XSP16, literal(-8)))
          CFI (cfiCond208) V3 load(1, XDATA, add(CFA_XSP16, literal(-7)))
          CFI (cfiCond208) R7 load(1, XDATA, add(CFA_XSP16, literal(-6)))
          CFI (cfiCond208) ?RET_LOW load(1, XDATA, add(CFA_XSP16, literal(-5)))
          CFI (cfiCond208) ?RET_HIGH load(1, XDATA, add(CFA_XSP16, literal(-4)))
          CFI (cfiCond208) ?BRET_EXT load(1, XDATA, add(CFA_XSP16, literal(-3)))
          CFI (cfiCond208) DPL0 load(1, XDATA, add(CFA_XSP16, literal(-2)))
          CFI (cfiCond208) DPH0 load(1, XDATA, add(CFA_XSP16, literal(-1)))
          CFI (cfiCond208) CFA_SP SP+-2
          CFI (cfiCond208) CFA_XSP16 add(XSP16, 14)
          CFI Block cfiPicker209 Using cfiCommon1
          CFI (cfiPicker209) NoFunction
          CFI (cfiPicker209) Picker
        MOV       DPL,?XSP + 0
        MOV       DPH,?XSP + 1
        LCALL     ?Subroutine66 & 0xFFFF
??CrossCallReturnLabel_96:
        LCALL     `??ZDSecMgrDeviceEntryAdd::?relay`; Banked call to: ZDSecMgrDeviceEntryAdd
        MOV       A,R1
        RET
          CFI EndBlock cfiCond207
          CFI EndBlock cfiCond208
          CFI EndBlock cfiPicker209

        RSEG BANKED_CODE:HUGECODE:NOROOT(0)
?Subroutine66:
          CFI Block cfiCond210 Using cfiCommon0
          CFI Function ZDSecMgrDeviceEntryAdd
          CFI Conditional ??CrossCallReturnLabel_95, ??CrossCallReturnLabel_48
          CFI R6 load(1, XDATA, add(CFA_XSP16, literal(-12)))
          CFI VB load(1, XDATA, add(CFA_XSP16, literal(-11)))
          CFI V0 load(1, XDATA, add(CFA_XSP16, literal(-10)))
          CFI V1 load(1, XDATA, add(CFA_XSP16, literal(-9)))
          CFI V2 load(1, XDATA, add(CFA_XSP16, literal(-8)))
          CFI V3 load(1, XDATA, add(CFA_XSP16, literal(-7)))
          CFI R7 load(1, XDATA, add(CFA_XSP16, literal(-6)))
          CFI ?RET_LOW load(1, XDATA, add(CFA_XSP16, literal(-5)))
          CFI ?RET_HIGH load(1, XDATA, add(CFA_XSP16, literal(-4)))
          CFI ?BRET_EXT load(1, XDATA, add(CFA_XSP16, literal(-3)))
          CFI DPL0 load(1, XDATA, add(CFA_XSP16, literal(-2)))
          CFI DPH0 load(1, XDATA, add(CFA_XSP16, literal(-1)))
          CFI CFA_SP SP+-4
          CFI CFA_XSP16 add(XSP16, 14)
          CFI Block cfiCond211 Using cfiCommon0
          CFI (cfiCond211) Function ZDSecMgrDeviceEntryAdd
          CFI (cfiCond211) Conditional ??CrossCallReturnLabel_95, ??CrossCallReturnLabel_49
          CFI (cfiCond211) R6 load(1, XDATA, add(CFA_XSP16, literal(-12)))
          CFI (cfiCond211) VB load(1, XDATA, add(CFA_XSP16, literal(-11)))
          CFI (cfiCond211) V0 load(1, XDATA, add(CFA_XSP16, literal(-10)))
          CFI (cfiCond211) V1 load(1, XDATA, add(CFA_XSP16, literal(-9)))
          CFI (cfiCond211) V2 load(1, XDATA, add(CFA_XSP16, literal(-8)))
          CFI (cfiCond211) V3 load(1, XDATA, add(CFA_XSP16, literal(-7)))
          CFI (cfiCond211) R7 load(1, XDATA, add(CFA_XSP16, literal(-6)))
          CFI (cfiCond211) ?RET_LOW load(1, XDATA, add(CFA_XSP16, literal(-5)))
          CFI (cfiCond211) ?RET_HIGH load(1, XDATA, add(CFA_XSP16, literal(-4)))
          CFI (cfiCond211) ?BRET_EXT load(1, XDATA, add(CFA_XSP16, literal(-3)))
          CFI (cfiCond211) DPL0 load(1, XDATA, add(CFA_XSP16, literal(-2)))
          CFI (cfiCond211) DPH0 load(1, XDATA, add(CFA_XSP16, literal(-1)))
          CFI (cfiCond211) CFA_SP SP+-4
          CFI (cfiCond211) CFA_XSP16 add(XSP16, 14)
          CFI Block cfiCond212 Using cfiCommon0
          CFI (cfiCond212) Function ZDSecMgrDeviceValidateSKKE
          CFI (cfiCond212) Conditional ??CrossCallReturnLabel_96, ??CrossCallReturnLabel_50
          CFI (cfiCond212) R6 load(1, XDATA, add(CFA_XSP16, literal(-9)))
          CFI (cfiCond212) VB load(1, XDATA, add(CFA_XSP16, literal(-8)))
          CFI (cfiCond212) V0 load(1, XDATA, add(CFA_XSP16, literal(-7)))
          CFI (cfiCond212) R7 load(1, XDATA, add(CFA_XSP16, literal(-6)))
          CFI (cfiCond212) ?RET_LOW load(1, XDATA, add(CFA_XSP16, literal(-5)))
          CFI (cfiCond212) ?RET_HIGH load(1, XDATA, add(CFA_XSP16, literal(-4)))
          CFI (cfiCond212) ?BRET_EXT load(1, XDATA, add(CFA_XSP16, literal(-3)))
          CFI (cfiCond212) DPL0 load(1, XDATA, add(CFA_XSP16, literal(-2)))
          CFI (cfiCond212) DPH0 load(1, XDATA, add(CFA_XSP16, literal(-1)))
          CFI (cfiCond212) CFA_SP SP+-4
          CFI (cfiCond212) CFA_XSP16 add(XSP16, 13)
          CFI Block cfiCond213 Using cfiCommon0
          CFI (cfiCond213) Function ZDSecMgrDeviceValidateCM
          CFI (cfiCond213) Conditional ??CrossCallReturnLabel_96, ??CrossCallReturnLabel_51
          CFI (cfiCond213) R6 load(1, XDATA, add(CFA_XSP16, literal(-12)))
          CFI (cfiCond213) VB load(1, XDATA, add(CFA_XSP16, literal(-11)))
          CFI (cfiCond213) V0 load(1, XDATA, add(CFA_XSP16, literal(-10)))
          CFI (cfiCond213) V1 load(1, XDATA, add(CFA_XSP16, literal(-9)))
          CFI (cfiCond213) V2 load(1, XDATA, add(CFA_XSP16, literal(-8)))
          CFI (cfiCond213) V3 load(1, XDATA, add(CFA_XSP16, literal(-7)))
          CFI (cfiCond213) R7 load(1, XDATA, add(CFA_XSP16, literal(-6)))
          CFI (cfiCond213) ?RET_LOW load(1, XDATA, add(CFA_XSP16, literal(-5)))
          CFI (cfiCond213) ?RET_HIGH load(1, XDATA, add(CFA_XSP16, literal(-4)))
          CFI (cfiCond213) ?BRET_EXT load(1, XDATA, add(CFA_XSP16, literal(-3)))
          CFI (cfiCond213) DPL0 load(1, XDATA, add(CFA_XSP16, literal(-2)))
          CFI (cfiCond213) DPH0 load(1, XDATA, add(CFA_XSP16, literal(-1)))
          CFI (cfiCond213) CFA_SP SP+-4
          CFI (cfiCond213) CFA_XSP16 add(XSP16, 14)
          CFI Block cfiCond214 Using cfiCommon0
          CFI (cfiCond214) Function ZDSecMgrAddLinkKey
          CFI (cfiCond214) Conditional ??CrossCallReturnLabel_94
          CFI (cfiCond214) R6 load(1, XDATA, add(CFA_XSP16, literal(-10)))
          CFI (cfiCond214) VB load(1, XDATA, add(CFA_XSP16, literal(-9)))
          CFI (cfiCond214) V0 load(1, XDATA, add(CFA_XSP16, literal(-8)))
          CFI (cfiCond214) V1 load(1, XDATA, add(CFA_XSP16, literal(-7)))
          CFI (cfiCond214) R7 load(1, XDATA, add(CFA_XSP16, literal(-6)))
          CFI (cfiCond214) ?RET_LOW load(1, XDATA, add(CFA_XSP16, literal(-5)))
          CFI (cfiCond214) ?RET_HIGH load(1, XDATA, add(CFA_XSP16, literal(-4)))
          CFI (cfiCond214) ?BRET_EXT load(1, XDATA, add(CFA_XSP16, literal(-3)))
          CFI (cfiCond214) DPL0 load(1, XDATA, add(CFA_XSP16, literal(-2)))
          CFI (cfiCond214) DPH0 load(1, XDATA, add(CFA_XSP16, literal(-1)))
          CFI (cfiCond214) CFA_SP SP+-2
          CFI (cfiCond214) CFA_XSP16 add(XSP16, 14)
          CFI Block cfiPicker215 Using cfiCommon1
          CFI (cfiPicker215) NoFunction
          CFI (cfiPicker215) Picker
        MOVX      A,@DPTR
        MOV       R4,A
        INC       DPTR
        MOVX      A,@DPTR
        MOV       R5,A
        MOV       A,R6
        MOV       R2,A
        MOV       A,R7
        MOV       R3,A
        RET
          CFI EndBlock cfiCond210
          CFI EndBlock cfiCond211
          CFI EndBlock cfiCond212
          CFI EndBlock cfiCond213
          CFI EndBlock cfiCond214
          CFI EndBlock cfiPicker215
// 1894 //devtag.pro.security
// 1895 #if 0
// 1896 ZStatus_t ZDSecMgrDeviceValidateCM( ZDSecMgrDevice_t* device )
// 1897 {
// 1898   ZStatus_t status;
// 1899   uint16    ami;
// 1900   uint8*    key;
// 1901 
// 1902 
// 1903   // check for pre configured setting
// 1904   if ( device->secure == TRUE )
// 1905   {
// 1906     // get EXT address and MASTER key
// 1907     status = ZDSecMgrExtAddrLookup( device->extAddr, &ami );
// 1908 
// 1909     if ( status == ZSuccess )
// 1910     {
// 1911       status = ZDSecMgrMasterKeyLookup( ami, &key );
// 1912     }
// 1913   }
// 1914   else
// 1915   {
// 1916     // implement EXT address and MASTER key policy here -- the total number of
// 1917     // Security Manager entries should never exceed the number of EXT addresses
// 1918     // and MASTER keys available
// 1919 
// 1920     // set status based on policy
// 1921     status = ZSuccess; // ZNwkUnknownDevice;
// 1922 
// 1923     // get the address index
// 1924     if ( ZDSecMgrExtAddrLookup( device->extAddr, &ami ) != ZSuccess )
// 1925     {
// 1926       // if policy, store new EXT address
// 1927       status = ZDSecMgrAddrStore( device->nwkAddr, device->extAddr, &ami );
// 1928     }
// 1929 
// 1930     // get the address index
// 1931     if ( ZDSecMgrMasterKeyLookup( ami, &key ) != ZSuccess )
// 1932     {
// 1933       // if policy, store new key -- NULL will zero key
// 1934       status = ZDSecMgrMasterKeyStore( ami, NULL );
// 1935     }
// 1936   }
// 1937 
// 1938   // if EXT address and MASTER key available -- add device
// 1939   if ( status == ZSuccess )
// 1940   {
// 1941     // add device to internal data - with control
// 1942     status = ZDSecMgrDeviceEntryAdd( device, ami );
// 1943   }
// 1944 
// 1945   return status;
// 1946 }
// 1947 #endif
// 1948 
// 1949 /******************************************************************************
// 1950  * @fn          ZDSecMgrDeviceValidate
// 1951  *
// 1952  * @brief       Decide whether device is allowed.
// 1953  *
// 1954  * @param       device - [in] ZDSecMgrDevice_t, device info
// 1955  *
// 1956  * @return      ZStatus_t
// 1957  */

        RSEG BANKED_CODE:HUGECODE:NOROOT(0)
// 1958 ZStatus_t ZDSecMgrDeviceValidate( ZDSecMgrDevice_t* device )
ZDSecMgrDeviceValidate:
          CFI Block cfiBlock216 Using cfiCommon0
          CFI Function ZDSecMgrDeviceValidate
        CODE
// 1959 {
        FUNCALL ZDSecMgrDeviceValidate, ZDSecMgrDeviceValidateRM
        LOCFRAME ISTACK, 2, STACK
        LOCFRAME PSTACK, 0, STACK
        LOCFRAME XSTACK, 0, STACK
        LOCFRAME IOVERLAY, 0, STATIC
        LOCFRAME DOVERLAY, 0, STATIC
        ARGFRAME ISTACK, 2, STACK
        ARGFRAME PSTACK, 0, STACK
        ARGFRAME XSTACK, 0, STACK
        ARGFRAME IOVERLAY, 0, STATIC
        ARGFRAME DOVERLAY, 0, STATIC
        PUSH      DPL
          CFI DPL0 Frame(CFA_SP, 4)
          CFI CFA_SP SP+-4
        PUSH      DPH
          CFI DPH0 Frame(CFA_SP, 5)
          CFI CFA_SP SP+-5
        ; Saved register size: 2
        ; Auto size: 0
// 1960   ZStatus_t status;
// 1961 
// 1962 
// 1963   if ( ZDSecMgrPermitJoiningEnabled == TRUE )
        MOV       DPTR,#ZDSecMgrPermitJoiningEnabled
        MOVX      A,@DPTR
        XRL       A,#0x1
        JNZ       ??ZDSecMgrDeviceValidate_0
// 1964   {
// 1965     // device may be joining with a secure flag but it is ultimately the Trust
// 1966     // Center that decides -- check if expected pre configured device --
// 1967     // override settings
// 1968     if ( zgPreConfigKeys == TRUE )
        MOV       A,R2
        ADD       A,#0x6
        MOV       R0,A
        CLR       A
        ADDC      A,R3
        MOV       R1,A
        MOV       DPTR,#zgPreConfigKeys
        MOVX      A,@DPTR
        XRL       A,#0x1
        MOV       DPL,R0
        MOV       DPH,R1
        JNZ       ??ZDSecMgrDeviceValidate_1
// 1969     {
// 1970       device->secure = TRUE;
        MOV       A,#0x1
        SJMP      ??ZDSecMgrDeviceValidate_2
// 1971     }
// 1972     else
// 1973     {
// 1974       device->secure = FALSE;
??ZDSecMgrDeviceValidate_1:
        CLR       A
??ZDSecMgrDeviceValidate_2:
        MOVX      @DPTR,A
// 1975     }
// 1976 
// 1977     if ( ZG_CHECK_SECURITY_MODE == ZG_SECURITY_PRO_HIGH )
// 1978     {
// 1979       status = ZDSecMgrDeviceValidateCM( device );
// 1980     }
// 1981     else // ( ZG_CHECK_SECURITY_MODE == ZG_SECURITY_RESIDENTIAL )
// 1982     {
// 1983       status = ZDSecMgrDeviceValidateRM( device );
        ; Setup parameters for call to function ZDSecMgrDeviceValidateRM
        LCALL     `??ZDSecMgrDeviceValidateRM::?relay`; Banked call to: ZDSecMgrDeviceValidateRM
        MOV       A,R1
        MOV       R1,A
        SJMP      ??ZDSecMgrDeviceValidate_3
// 1984     }
// 1985   }
// 1986   else
// 1987   {
// 1988     status = ZNwkUnknownDevice;
??ZDSecMgrDeviceValidate_0:
        MOV       R1,#-0x38
// 1989   }
// 1990 
// 1991   return status;
??ZDSecMgrDeviceValidate_3:
        LJMP      ??Subroutine86_0 & 0xFFFF
// 1992 }
          CFI EndBlock cfiBlock216
// 1993 
// 1994 /******************************************************************************
// 1995  * @fn          ZDSecMgrDeviceJoin
// 1996  *
// 1997  * @brief       Try to join this device.
// 1998  *
// 1999  * @param       device - [in] ZDSecMgrDevice_t, device info
// 2000  *
// 2001  * @return      ZStatus_t
// 2002  */

        RSEG BANKED_CODE:HUGECODE:NOROOT(0)
// 2003 ZStatus_t ZDSecMgrDeviceJoin( ZDSecMgrDevice_t* device )
ZDSecMgrDeviceJoin:
          CFI Block cfiBlock217 Using cfiCommon0
          CFI Function ZDSecMgrDeviceJoin
        CODE
// 2004 {
        FUNCALL ZDSecMgrDeviceJoin, ZDSecMgrDeviceValidate
        LOCFRAME ISTACK, 0, STACK
        LOCFRAME PSTACK, 0, STACK
        LOCFRAME XSTACK, 9, STACK
        LOCFRAME IOVERLAY, 0, STATIC
        LOCFRAME DOVERLAY, 0, STATIC
        ARGFRAME ISTACK, 0, STACK
        ARGFRAME PSTACK, 0, STACK
        ARGFRAME XSTACK, 9, STACK
        ARGFRAME IOVERLAY, 0, STATIC
        ARGFRAME DOVERLAY, 0, STATIC
        FUNCALL ZDSecMgrDeviceJoin, ZDSecMgrSendNwkKey
        LOCFRAME ISTACK, 0, STACK
        LOCFRAME PSTACK, 0, STACK
        LOCFRAME XSTACK, 9, STACK
        LOCFRAME IOVERLAY, 0, STATIC
        LOCFRAME DOVERLAY, 0, STATIC
        ARGFRAME ISTACK, 0, STACK
        ARGFRAME PSTACK, 0, STACK
        ARGFRAME XSTACK, 9, STACK
        ARGFRAME IOVERLAY, 0, STATIC
        ARGFRAME DOVERLAY, 0, STATIC
        FUNCALL ZDSecMgrDeviceJoin, ZDSecMgrDeviceRemove
        LOCFRAME ISTACK, 0, STACK
        LOCFRAME PSTACK, 0, STACK
        LOCFRAME XSTACK, 9, STACK
        LOCFRAME IOVERLAY, 0, STATIC
        LOCFRAME DOVERLAY, 0, STATIC
        ARGFRAME ISTACK, 0, STACK
        ARGFRAME PSTACK, 0, STACK
        ARGFRAME XSTACK, 9, STACK
        ARGFRAME IOVERLAY, 0, STATIC
        ARGFRAME DOVERLAY, 0, STATIC
        REQUIRE ?V0
        MOV       A,#-0x9
        LCALL     ?BANKED_ENTER_XDATA
          CFI DPH0 load(1, XDATA, add(CFA_XSP16, literal(-1)))
          CFI DPL0 load(1, XDATA, add(CFA_XSP16, literal(-2)))
          CFI ?BRET_EXT load(1, XDATA, add(CFA_XSP16, literal(-3)))
          CFI ?RET_HIGH load(1, XDATA, add(CFA_XSP16, literal(-4)))
          CFI ?RET_LOW load(1, XDATA, add(CFA_XSP16, literal(-5)))
          CFI R7 load(1, XDATA, add(CFA_XSP16, literal(-6)))
          CFI V0 load(1, XDATA, add(CFA_XSP16, literal(-7)))
          CFI VB load(1, XDATA, add(CFA_XSP16, literal(-8)))
          CFI R6 load(1, XDATA, add(CFA_XSP16, literal(-9)))
          CFI CFA_SP SP+0
          CFI CFA_XSP16 add(XSP16, 9)
        ; Saved register size: 9
        ; Auto size: 0
        MOV       A,R2
        MOV       R6,A
        MOV       A,R3
        MOV       R7,A
// 2005   ZStatus_t status;
// 2006 
// 2007   // attempt to validate device
// 2008   status = ZDSecMgrDeviceValidate( device );
        ; Setup parameters for call to function ZDSecMgrDeviceValidate
        LCALL     `??ZDSecMgrDeviceValidate::?relay`; Banked call to: ZDSecMgrDeviceValidate
        MOV       A,R1
        MOV       ?V0,A
// 2009 
// 2010   if ( status == ZSuccess )
        JNZ       ??ZDSecMgrDeviceJoin_0
// 2011   {
// 2012     if ( ZG_CHECK_SECURITY_MODE == ZG_SECURITY_PRO_HIGH )
// 2013     {
// 2014       ZDSecMgrDeviceCtrlSetup( device );
// 2015     }
// 2016     else // ( ZG_CHECK_SECURITY_MODE == ZG_SECURITY_RESIDENTIAL )
// 2017     {
// 2018       //send the nwk key data to the joining device
// 2019       status = ZDSecMgrSendNwkKey( device );
        ; Setup parameters for call to function ZDSecMgrSendNwkKey
        MOV       A,R6
        MOV       R2,A
        MOV       A,R7
        MOV       R3,A
        LCALL     `??ZDSecMgrSendNwkKey::?relay`; Banked call to: ZDSecMgrSendNwkKey
        MOV       A,R1
        MOV       ?V0,A
        SJMP      ??ZDSecMgrDeviceJoin_1
// 2020     }
// 2021   }
// 2022   else
// 2023   {
// 2024     // not allowed, remove the device
// 2025     ZDSecMgrDeviceRemove( device );
??ZDSecMgrDeviceJoin_0:
        ; Setup parameters for call to function ZDSecMgrDeviceRemove
        MOV       A,R6
        MOV       R2,A
        MOV       A,R7
        MOV       R3,A
        LCALL     `??ZDSecMgrDeviceRemove::?relay`; Banked call to: ZDSecMgrDeviceRemove
// 2026   }
// 2027 
// 2028   return status;
??ZDSecMgrDeviceJoin_1:
          CFI EndBlock cfiBlock217
        REQUIRE ?Subroutine14
        ; // Fall through to label ?Subroutine14
// 2029 }

        RSEG BANKED_CODE:HUGECODE:NOROOT(0)
?Subroutine14:
          CFI Block cfiBlock218 Using cfiCommon0
          CFI NoFunction
          CFI CFA_SP SP+0
          CFI CFA_XSP16 add(XSP16, 9)
          CFI VB load(1, XDATA, add(CFA_XSP16, literal(-8)))
          CFI DPL0 load(1, XDATA, add(CFA_XSP16, literal(-2)))
          CFI DPH0 load(1, XDATA, add(CFA_XSP16, literal(-1)))
          CFI R6 load(1, XDATA, add(CFA_XSP16, literal(-9)))
          CFI R7 load(1, XDATA, add(CFA_XSP16, literal(-6)))
          CFI V0 load(1, XDATA, add(CFA_XSP16, literal(-7)))
          CFI ?BRET_EXT load(1, XDATA, add(CFA_XSP16, literal(-3)))
          CFI ?RET_HIGH load(1, XDATA, add(CFA_XSP16, literal(-4)))
          CFI ?RET_LOW load(1, XDATA, add(CFA_XSP16, literal(-5)))
        MOV       R1,?V0
        LJMP      ??Subroutine89_0 & 0xFFFF
          CFI EndBlock cfiBlock218
// 2030 
// 2031 /******************************************************************************
// 2032  * @fn          ZDSecMgrDeviceJoinDirect
// 2033  *
// 2034  * @brief       Try to join this device as a direct child.
// 2035  *
// 2036  * @param       device - [in] ZDSecMgrDevice_t, device info
// 2037  *
// 2038  * @return      ZStatus_t
// 2039  */

        RSEG BANKED_CODE:HUGECODE:NOROOT(0)
// 2040 ZStatus_t ZDSecMgrDeviceJoinDirect( ZDSecMgrDevice_t* device )
ZDSecMgrDeviceJoinDirect:
          CFI Block cfiBlock219 Using cfiCommon0
          CFI Function ZDSecMgrDeviceJoinDirect
        CODE
// 2041 {
        FUNCALL ZDSecMgrDeviceJoinDirect, ZDSecMgrDeviceJoin
        LOCFRAME ISTACK, 0, STACK
        LOCFRAME PSTACK, 0, STACK
        LOCFRAME XSTACK, 9, STACK
        LOCFRAME IOVERLAY, 0, STATIC
        LOCFRAME DOVERLAY, 0, STATIC
        ARGFRAME ISTACK, 0, STACK
        ARGFRAME PSTACK, 0, STACK
        ARGFRAME XSTACK, 9, STACK
        ARGFRAME IOVERLAY, 0, STATIC
        ARGFRAME DOVERLAY, 0, STATIC
        FUNCALL ZDSecMgrDeviceJoinDirect, AssocGetWithShort
        LOCFRAME ISTACK, 0, STACK
        LOCFRAME PSTACK, 0, STACK
        LOCFRAME XSTACK, 9, STACK
        LOCFRAME IOVERLAY, 0, STATIC
        LOCFRAME DOVERLAY, 0, STATIC
        ARGFRAME ISTACK, 0, STACK
        ARGFRAME PSTACK, 0, STACK
        ARGFRAME XSTACK, 9, STACK
        ARGFRAME IOVERLAY, 0, STATIC
        ARGFRAME DOVERLAY, 0, STATIC
        FUNCALL ZDSecMgrDeviceJoinDirect, ZDSecMgrAssocDeviceAuth
        LOCFRAME ISTACK, 0, STACK
        LOCFRAME PSTACK, 0, STACK
        LOCFRAME XSTACK, 9, STACK
        LOCFRAME IOVERLAY, 0, STATIC
        LOCFRAME DOVERLAY, 0, STATIC
        ARGFRAME ISTACK, 0, STACK
        ARGFRAME PSTACK, 0, STACK
        ARGFRAME XSTACK, 9, STACK
        ARGFRAME IOVERLAY, 0, STATIC
        ARGFRAME DOVERLAY, 0, STATIC
        REQUIRE ?V0
        MOV       A,#-0x9
        LCALL     ?BANKED_ENTER_XDATA
          CFI DPH0 load(1, XDATA, add(CFA_XSP16, literal(-1)))
          CFI DPL0 load(1, XDATA, add(CFA_XSP16, literal(-2)))
          CFI ?BRET_EXT load(1, XDATA, add(CFA_XSP16, literal(-3)))
          CFI ?RET_HIGH load(1, XDATA, add(CFA_XSP16, literal(-4)))
          CFI ?RET_LOW load(1, XDATA, add(CFA_XSP16, literal(-5)))
          CFI R7 load(1, XDATA, add(CFA_XSP16, literal(-6)))
          CFI V0 load(1, XDATA, add(CFA_XSP16, literal(-7)))
          CFI VB load(1, XDATA, add(CFA_XSP16, literal(-8)))
          CFI R6 load(1, XDATA, add(CFA_XSP16, literal(-9)))
          CFI CFA_SP SP+0
          CFI CFA_XSP16 add(XSP16, 9)
        ; Saved register size: 9
        ; Auto size: 0
        MOV       A,R2
        MOV       R6,A
        MOV       A,R3
        MOV       R7,A
// 2042   ZStatus_t status;
// 2043 
// 2044   status = ZDSecMgrDeviceJoin( device );
        ; Setup parameters for call to function ZDSecMgrDeviceJoin
        LCALL     `??ZDSecMgrDeviceJoin::?relay`; Banked call to: ZDSecMgrDeviceJoin
        MOV       A,R1
        MOV       ?V0,A
// 2045 
// 2046   if ( status == ZSuccess )
        JNZ       ??ZDSecMgrDeviceJoinDirect_0
// 2047   {
// 2048     // set association status to authenticated
// 2049     ZDSecMgrAssocDeviceAuth( AssocGetWithShort( device->nwkAddr ) );
        ; Setup parameters for call to function ZDSecMgrAssocDeviceAuth
        ; Setup parameters for call to function AssocGetWithShort
        LCALL     ?Subroutine55 & 0xFFFF
// 2050   }
??CrossCallReturnLabel_137:
        LCALL     `??AssocGetWithShort::?relay`; Banked call to: AssocGetWithShort
        LCALL     `??ZDSecMgrAssocDeviceAuth::?relay`; Banked call to: ZDSecMgrAssocDeviceAuth
// 2051 
// 2052   return status;
??ZDSecMgrDeviceJoinDirect_0:
        SJMP      ?Subroutine14
// 2053 }
          CFI EndBlock cfiBlock219
// 2054 
// 2055 /******************************************************************************
// 2056  * @fn          ZDSecMgrDeviceJoinFwd
// 2057  *
// 2058  * @brief       Forward join to Trust Center.
// 2059  *
// 2060  * @param       device - [in] ZDSecMgrDevice_t, device info
// 2061  *
// 2062  * @return      ZStatus_t
// 2063  */

        RSEG BANKED_CODE:HUGECODE:NOROOT(0)
// 2064 ZStatus_t ZDSecMgrDeviceJoinFwd( ZDSecMgrDevice_t* device )
ZDSecMgrDeviceJoinFwd:
          CFI Block cfiBlock220 Using cfiCommon0
          CFI Function ZDSecMgrDeviceJoinFwd
        CODE
// 2065 {
        FUNCALL ZDSecMgrDeviceJoinFwd, APSME_UpdateDeviceReq
        LOCFRAME ISTACK, 2, STACK
        LOCFRAME PSTACK, 0, STACK
        LOCFRAME XSTACK, 8, STACK
        LOCFRAME IOVERLAY, 0, STATIC
        LOCFRAME DOVERLAY, 0, STATIC
        ARGFRAME ISTACK, 2, STACK
        ARGFRAME PSTACK, 0, STACK
        ARGFRAME XSTACK, 8, STACK
        ARGFRAME IOVERLAY, 0, STATIC
        ARGFRAME DOVERLAY, 0, STATIC
        PUSH      DPL
          CFI DPL0 Frame(CFA_SP, 4)
          CFI CFA_SP SP+-4
        PUSH      DPH
          CFI DPH0 Frame(CFA_SP, 5)
          CFI CFA_SP SP+-5
        ; Saved register size: 2
        ; Auto size: 8
        MOV       A,#-0x8
        LCALL     ?ALLOC_XSTACK8
          CFI CFA_XSP16 add(XSP16, 8)
// 2066   ZStatus_t               status;
// 2067   APSME_UpdateDeviceReq_t req;
// 2068 
// 2069 
// 2070   // forward any joining device to the Trust Center -- the Trust Center will
// 2071   // decide if the device is allowed to join
// 2072   status = ZSuccess;
// 2073 
// 2074   // forward authorization to the Trust Center
// 2075   req.dstAddr    = APSME_TRUSTCENTER_NWKADDR;
        MOV       DPL,?XSP + 0
        MOV       DPH,?XSP + 1
        CLR       A
        MOVX      @DPTR,A
        INC       DPTR
        MOVX      @DPTR,A
// 2076   req.devAddr    = device->nwkAddr;
        MOV       DPL,R2
        MOV       DPH,R3
        LCALL     ?Subroutine48 & 0xFFFF
??CrossCallReturnLabel_58:
        LCALL     ?XSTACK_DISP0_8
        LCALL     ?Subroutine18 & 0xFFFF
// 2077   req.devExtAddr = device->extAddr;
??CrossCallReturnLabel_4:
        LCALL     ?XSTACK_DISP0_8
        LCALL     ??Subroutine91_0 & 0xFFFF
// 2078 
// 2079   // set security status, option for router to reject if policy set
// 2080   if ( (device->devStatus & DEV_HIGH_SEC_STATUS) )
??CrossCallReturnLabel_155:
        MOV       A,R2
        ADD       A,#0x7
        MOV       DPL,A
        CLR       A
        ADDC      A,R3
        MOV       DPH,A
        MOVX      A,@DPTR
        MOV       C,0xE0 /* A   */.7
        JNC       ??ZDSecMgrDeviceJoinFwd_0
// 2081   {
// 2082     if ( device->devStatus & DEV_REJOIN_STATUS )
        MOV       C,0xE0 /* A   */.6
        JNC       ??ZDSecMgrDeviceJoinFwd_1
// 2083     {
// 2084       if ( device->secure == TRUE )
        MOV       DPL,R2
        MOV       DPH,R3
        INC       DPTR
        INC       DPTR
        INC       DPTR
        INC       DPTR
        INC       DPTR
        INC       DPTR
        MOVX      A,@DPTR
        XRL       A,#0x1
        JNZ       ??ZDSecMgrDeviceJoinFwd_2
// 2085         req.status = APSME_UD_HIGH_SECURED_REJOIN;
        MOV       A,#0x6
        LCALL     ?XSTACK_DISP0_8
        MOV       A,#0x4
        SJMP      ??ZDSecMgrDeviceJoinFwd_3
// 2086       else
// 2087         req.status = APSME_UD_HIGH_UNSECURED_REJOIN;
??ZDSecMgrDeviceJoinFwd_2:
        MOV       A,#0x6
        LCALL     ?XSTACK_DISP0_8
        MOV       A,#0x7
        SJMP      ??ZDSecMgrDeviceJoinFwd_3
// 2088     }
// 2089     else
// 2090       req.status = APSME_UD_HIGH_UNSECURED_JOIN;
??ZDSecMgrDeviceJoinFwd_1:
        MOV       A,#0x6
        LCALL     ?XSTACK_DISP0_8
        MOV       A,#0x5
        SJMP      ??ZDSecMgrDeviceJoinFwd_3
// 2091   }
// 2092   else
// 2093   {
// 2094     if ( device->devStatus & DEV_REJOIN_STATUS )
??ZDSecMgrDeviceJoinFwd_0:
        MOV       C,0xE0 /* A   */.6
        JNC       ??ZDSecMgrDeviceJoinFwd_4
// 2095     {
// 2096       if ( device->secure == TRUE )
        MOV       DPL,R2
        MOV       DPH,R3
        INC       DPTR
        INC       DPTR
        INC       DPTR
        INC       DPTR
        INC       DPTR
        INC       DPTR
        MOVX      A,@DPTR
        XRL       A,#0x1
        JNZ       ??ZDSecMgrDeviceJoinFwd_5
// 2097         req.status = APSME_UD_STANDARD_SECURED_REJOIN;
        MOV       A,#0x6
        LCALL     ?XSTACK_DISP0_8
        CLR       A
        SJMP      ??ZDSecMgrDeviceJoinFwd_3
// 2098       else
// 2099         req.status = APSME_UD_STANDARD_UNSECURED_REJOIN;
??ZDSecMgrDeviceJoinFwd_5:
        MOV       A,#0x6
        LCALL     ?XSTACK_DISP0_8
        MOV       A,#0x3
        SJMP      ??ZDSecMgrDeviceJoinFwd_3
// 2100     }
// 2101     else
// 2102       req.status = APSME_UD_STANDARD_UNSECURED_JOIN;
??ZDSecMgrDeviceJoinFwd_4:
        MOV       A,#0x6
        LCALL     ?XSTACK_DISP0_8
        MOV       A,#0x1
??ZDSecMgrDeviceJoinFwd_3:
        MOVX      @DPTR,A
// 2103   }
// 2104 
// 2105   if ( ZG_CHECK_SECURITY_MODE == ZG_SECURITY_PRO_HIGH )
// 2106     req.apsSecure = TRUE;
// 2107   else
// 2108     req.apsSecure = FALSE;
        MOV       A,#0x7
        LCALL     ?XSTACK_DISP0_8
        CLR       A
        LCALL     ??Subroutine90_0 & 0xFFFF
// 2109 
// 2110   // send and APSME_UPDATE_DEVICE request to the trust center
// 2111   status = APSME_UpdateDeviceReq( &req );
// 2112 
// 2113   return status;
??CrossCallReturnLabel_143:
        LCALL     `??APSME_UpdateDeviceReq::?relay`; Banked call to: APSME_UpdateDeviceReq
        MOV       A,#0x8
        LJMP      ??Subroutine79_0 & 0xFFFF
// 2114 }
          CFI EndBlock cfiBlock220

        RSEG BANKED_CODE:HUGECODE:NOROOT(0)
?Subroutine0:
          CFI Block cfiBlock221 Using cfiCommon0
          CFI NoFunction
        PUSH      DPL
          CFI CFA_SP SP+-4
          CFI DPL0 Frame(CFA_SP, 4)
        PUSH      DPH
          CFI CFA_SP SP+-5
          CFI DPH0 Frame(CFA_SP, 5)
        ; Saved register size: 2
        ; Auto size: 0
        ; Setup parameters for call to function APSME_SecurityNM
        ; Saved register size: 2
        ; Auto size: 0
        ; Setup parameters for call to function APSME_SecurityNM
        LCALL     `??APSME_SecurityNM::?relay`; Banked call to: APSME_SecurityNM
          CFI EndBlock cfiBlock221
        REQUIRE ??Subroutine86_0
        ; // Fall through to label ??Subroutine86_0

        RSEG BANKED_CODE:HUGECODE:NOROOT(0)
??Subroutine86_0:
          CFI Block cfiBlock222 Using cfiCommon0
          CFI NoFunction
          CFI CFA_SP SP+-5
          CFI DPL0 Frame(CFA_SP, 4)
          CFI DPH0 Frame(CFA_SP, 5)
        POP       DPH
          CFI CFA_SP SP+-4
          CFI DPH0 SameValue
        POP       DPL
          CFI CFA_SP SP+-3
          CFI DPL0 SameValue
        LJMP      ?BRET
          CFI EndBlock cfiBlock222
// 2115 
// 2116 /******************************************************************************
// 2117  * @fn          ZDSecMgrDeviceNew
// 2118  *
// 2119  * @brief       Process a new device.
// 2120  *
// 2121  * @param       device - [in] ZDSecMgrDevice_t, device info
// 2122  *
// 2123  * @return      ZStatus_t
// 2124  */

        RSEG BANKED_CODE:HUGECODE:NOROOT(0)
// 2125 ZStatus_t ZDSecMgrDeviceNew( ZDSecMgrDevice_t* joiner )
ZDSecMgrDeviceNew:
          CFI Block cfiBlock223 Using cfiCommon0
          CFI Function ZDSecMgrDeviceNew
        CODE
// 2126 {
        FUNCALL ZDSecMgrDeviceNew, ZDSecMgrDeviceJoinDirect
        LOCFRAME ISTACK, 2, STACK
        LOCFRAME PSTACK, 0, STACK
        LOCFRAME XSTACK, 0, STACK
        LOCFRAME IOVERLAY, 0, STATIC
        LOCFRAME DOVERLAY, 0, STATIC
        ARGFRAME ISTACK, 2, STACK
        ARGFRAME PSTACK, 0, STACK
        ARGFRAME XSTACK, 0, STACK
        ARGFRAME IOVERLAY, 0, STATIC
        ARGFRAME DOVERLAY, 0, STATIC
        PUSH      DPL
          CFI DPL0 Frame(CFA_SP, 4)
          CFI CFA_SP SP+-4
        PUSH      DPH
          CFI DPH0 Frame(CFA_SP, 5)
          CFI CFA_SP SP+-5
        ; Saved register size: 2
        ; Auto size: 0
// 2127   ZStatus_t status;
// 2128 
// 2129   if ( ( ZG_BUILD_COORDINATOR_TYPE ) && ( ZG_DEVICE_COORDINATOR_TYPE ) )
// 2130   {
// 2131     // try to join this device
// 2132     status = ZDSecMgrDeviceJoinDirect( joiner );
// 2133   }
// 2134   else
// 2135   {
// 2136     status = ZDSecMgrDeviceJoinFwd( joiner );
// 2137   }
// 2138 
// 2139   return status;
        ; Setup parameters for call to function ZDSecMgrDeviceJoinDirect
        LCALL     `??ZDSecMgrDeviceJoinDirect::?relay`; Banked call to: ZDSecMgrDeviceJoinDirect
        SJMP      ??Subroutine86_0
// 2140 }
          CFI EndBlock cfiBlock223
// 2141 
// 2142 /******************************************************************************
// 2143  * @fn          ZDSecMgrAssocDeviceAuth
// 2144  *
// 2145  * @brief       Set associated device status to authenticated
// 2146  *
// 2147  * @param       assoc - [in, out] associated_devices_t
// 2148  *
// 2149  * @return      none
// 2150  */

        RSEG BANKED_CODE:HUGECODE:NOROOT(0)
// 2151 void ZDSecMgrAssocDeviceAuth( associated_devices_t* assoc )
ZDSecMgrAssocDeviceAuth:
          CFI Block cfiBlock224 Using cfiCommon0
          CFI Function ZDSecMgrAssocDeviceAuth
        CODE
// 2152 {
        PUSH      DPL
          CFI DPL0 Frame(CFA_SP, 4)
          CFI CFA_SP SP+-4
        PUSH      DPH
          CFI DPH0 Frame(CFA_SP, 5)
          CFI CFA_SP SP+-5
        ; Saved register size: 2
        ; Auto size: 0
// 2153   if ( assoc != NULL )
        MOV       A,R2
        ORL       A,R3
        JZ        ??ZDSecMgrAssocDeviceAuth_0
// 2154   {
// 2155     assoc->devStatus |= DEV_SEC_AUTH_STATUS;
        MOV       DPL,R2
        MOV       DPH,R3
        INC       DPTR
        INC       DPTR
        INC       DPTR
        INC       DPTR
        INC       DPTR
        MOVX      A,@DPTR
        SETB      0xE0 /* A   */.3
        MOVX      @DPTR,A
// 2156   }
// 2157 }
??ZDSecMgrAssocDeviceAuth_0:
        SJMP      ??Subroutine86_0
          CFI EndBlock cfiBlock224
// 2158 
// 2159 /******************************************************************************
// 2160  * @fn          ZDSecMgrAuthInitiate
// 2161  *
// 2162  * @brief       Initiate entity authentication
// 2163  *
// 2164  * @param       responder - [in] responder EXT address
// 2165  *
// 2166  * @return      none
// 2167  */

        RSEG BANKED_CODE:HUGECODE:NOROOT(0)
// 2168 void ZDSecMgrAuthInitiate( uint8* responder )
ZDSecMgrAuthInitiate:
          CFI Block cfiBlock225 Using cfiCommon0
          CFI Function ZDSecMgrAuthInitiate
        CODE
// 2169 {
        FUNCALL ZDSecMgrAuthInitiate, APSME_LookupNwkAddr
        LOCFRAME ISTACK, 0, STACK
        LOCFRAME PSTACK, 0, STACK
        LOCFRAME XSTACK, 16, STACK
        LOCFRAME IOVERLAY, 0, STATIC
        LOCFRAME DOVERLAY, 0, STATIC
        ARGFRAME ISTACK, 0, STACK
        ARGFRAME PSTACK, 0, STACK
        ARGFRAME XSTACK, 16, STACK
        ARGFRAME IOVERLAY, 0, STATIC
        ARGFRAME DOVERLAY, 0, STATIC
        FUNCALL ZDSecMgrAuthInitiate, APSME_AuthenticateReq
        LOCFRAME ISTACK, 0, STACK
        LOCFRAME PSTACK, 0, STACK
        LOCFRAME XSTACK, 16, STACK
        LOCFRAME IOVERLAY, 0, STATIC
        LOCFRAME DOVERLAY, 0, STATIC
        ARGFRAME ISTACK, 0, STACK
        ARGFRAME PSTACK, 0, STACK
        ARGFRAME XSTACK, 16, STACK
        ARGFRAME IOVERLAY, 0, STATIC
        ARGFRAME DOVERLAY, 0, STATIC
        MOV       A,#-0x9
        LCALL     ?BANKED_ENTER_XDATA
          CFI DPH0 load(1, XDATA, add(CFA_XSP16, literal(-1)))
          CFI DPL0 load(1, XDATA, add(CFA_XSP16, literal(-2)))
          CFI ?BRET_EXT load(1, XDATA, add(CFA_XSP16, literal(-3)))
          CFI ?RET_HIGH load(1, XDATA, add(CFA_XSP16, literal(-4)))
          CFI ?RET_LOW load(1, XDATA, add(CFA_XSP16, literal(-5)))
          CFI R7 load(1, XDATA, add(CFA_XSP16, literal(-6)))
          CFI V0 load(1, XDATA, add(CFA_XSP16, literal(-7)))
          CFI VB load(1, XDATA, add(CFA_XSP16, literal(-8)))
          CFI R6 load(1, XDATA, add(CFA_XSP16, literal(-9)))
          CFI CFA_SP SP+0
          CFI CFA_XSP16 add(XSP16, 9)
        ; Saved register size: 9
        ; Auto size: 7
        MOV       A,#-0x7
        LCALL     ?ALLOC_XSTACK8
          CFI CFA_XSP16 add(XSP16, 16)
        MOV       A,R2
        MOV       R6,A
        MOV       A,R3
        MOV       R7,A
// 2170   APSME_AuthenticateReq_t req;
// 2171 
// 2172 
// 2173   // make sure NWK address is available
// 2174   if ( APSME_LookupNwkAddr( responder, &req.nwkAddr ) )
        ; Setup parameters for call to function APSME_LookupNwkAddr
        MOV       R4,?XSP + 0
        MOV       R5,?XSP + 1
        LCALL     `??APSME_LookupNwkAddr::?relay`; Banked call to: APSME_LookupNwkAddr
        MOV       A,R1
        JZ        ??ZDSecMgrAuthInitiate_0
// 2175   {
// 2176     // set request fields
// 2177     req.extAddr   = responder;
        MOV       A,#0x2
        LCALL     ?XSTACK_DISP0_8
        MOV       A,R6
        MOVX      @DPTR,A
        INC       DPTR
        MOV       A,R7
        MOVX      @DPTR,A
// 2178     req.action    = APSME_EA_INITIATE;
        MOV       A,#0x6
        LCALL     ?XSTACK_DISP0_8
        CLR       A
        MOVX      @DPTR,A
// 2179     req.challenge = NULL;
        MOV       A,#0x4
        LCALL     ?XSTACK_DISP0_8
        CLR       A
        MOVX      @DPTR,A
        INC       DPTR
        LCALL     ??Subroutine90_0 & 0xFFFF
// 2180 
// 2181     // start EA processing
// 2182     APSME_AuthenticateReq( &req );
// 2183   }
??CrossCallReturnLabel_144:
        LCALL     `??APSME_AuthenticateReq::?relay`; Banked call to: APSME_AuthenticateReq
// 2184 }
??ZDSecMgrAuthInitiate_0:
        MOV       A,#0x7
        SJMP      ??Subroutine88_0
          CFI EndBlock cfiBlock225

        RSEG BANKED_CODE:HUGECODE:NOROOT(0)
?Subroutine1:
          CFI Block cfiBlock226 Using cfiCommon0
          CFI NoFunction
          CFI CFA_SP SP+0
          CFI CFA_XSP16 add(XSP16, 11)
          CFI VB load(1, XDATA, add(CFA_XSP16, literal(-8)))
          CFI DPL0 load(1, XDATA, add(CFA_XSP16, literal(-2)))
          CFI DPH0 load(1, XDATA, add(CFA_XSP16, literal(-1)))
          CFI R6 load(1, XDATA, add(CFA_XSP16, literal(-9)))
          CFI R7 load(1, XDATA, add(CFA_XSP16, literal(-6)))
          CFI V0 load(1, XDATA, add(CFA_XSP16, literal(-7)))
          CFI ?BRET_EXT load(1, XDATA, add(CFA_XSP16, literal(-3)))
          CFI ?RET_HIGH load(1, XDATA, add(CFA_XSP16, literal(-4)))
          CFI ?RET_LOW load(1, XDATA, add(CFA_XSP16, literal(-5)))
        MOV       R1,?V0
          CFI EndBlock cfiBlock226
        REQUIRE ??Subroutine87_0
        ; // Fall through to label ??Subroutine87_0

        RSEG BANKED_CODE:HUGECODE:NOROOT(0)
??Subroutine87_0:
          CFI Block cfiBlock227 Using cfiCommon0
          CFI NoFunction
          CFI CFA_SP SP+0
          CFI CFA_XSP16 add(XSP16, 11)
          CFI VB load(1, XDATA, add(CFA_XSP16, literal(-8)))
          CFI DPL0 load(1, XDATA, add(CFA_XSP16, literal(-2)))
          CFI DPH0 load(1, XDATA, add(CFA_XSP16, literal(-1)))
          CFI R6 load(1, XDATA, add(CFA_XSP16, literal(-9)))
          CFI R7 load(1, XDATA, add(CFA_XSP16, literal(-6)))
          CFI V0 load(1, XDATA, add(CFA_XSP16, literal(-7)))
          CFI ?BRET_EXT load(1, XDATA, add(CFA_XSP16, literal(-3)))
          CFI ?RET_HIGH load(1, XDATA, add(CFA_XSP16, literal(-4)))
          CFI ?RET_LOW load(1, XDATA, add(CFA_XSP16, literal(-5)))
        MOV       A,#0x2
          CFI EndBlock cfiBlock227
        REQUIRE ??Subroutine88_0
        ; // Fall through to label ??Subroutine88_0

        RSEG BANKED_CODE:HUGECODE:NOROOT(0)
??Subroutine88_0:
          CFI Block cfiBlock228 Using cfiCommon0
          CFI NoFunction
          CFI CFA_SP SP+0
          CFI CFA_XSP16 add(XSP16, 22)
          CFI VB load(1, XDATA, add(CFA_XSP16, literal(-8)))
          CFI DPL0 load(1, XDATA, add(CFA_XSP16, literal(-2)))
          CFI DPH0 load(1, XDATA, add(CFA_XSP16, literal(-1)))
          CFI R6 load(1, XDATA, add(CFA_XSP16, literal(-9)))
          CFI R7 load(1, XDATA, add(CFA_XSP16, literal(-6)))
          CFI V0 load(1, XDATA, add(CFA_XSP16, literal(-7)))
          CFI ?BRET_EXT load(1, XDATA, add(CFA_XSP16, literal(-3)))
          CFI ?RET_HIGH load(1, XDATA, add(CFA_XSP16, literal(-4)))
          CFI ?RET_LOW load(1, XDATA, add(CFA_XSP16, literal(-5)))
          CFI Invalid
        LCALL     ?DEALLOC_XSTACK8
          CFI EndBlock cfiBlock228
        REQUIRE ??Subroutine89_0
        ; // Fall through to label ??Subroutine89_0

        RSEG BANKED_CODE:HUGECODE:NOROOT(0)
??Subroutine89_0:
          CFI Block cfiBlock229 Using cfiCommon0
          CFI NoFunction
          CFI CFA_SP SP+0
          CFI CFA_XSP16 add(XSP16, 9)
          CFI VB load(1, XDATA, add(CFA_XSP16, literal(-8)))
          CFI DPL0 load(1, XDATA, add(CFA_XSP16, literal(-2)))
          CFI DPH0 load(1, XDATA, add(CFA_XSP16, literal(-1)))
          CFI R6 load(1, XDATA, add(CFA_XSP16, literal(-9)))
          CFI R7 load(1, XDATA, add(CFA_XSP16, literal(-6)))
          CFI V0 load(1, XDATA, add(CFA_XSP16, literal(-7)))
          CFI ?BRET_EXT load(1, XDATA, add(CFA_XSP16, literal(-3)))
          CFI ?RET_HIGH load(1, XDATA, add(CFA_XSP16, literal(-4)))
          CFI ?RET_LOW load(1, XDATA, add(CFA_XSP16, literal(-5)))
        MOV       R7,#0x1
        LJMP      ?BANKED_LEAVE_XDATA
          CFI EndBlock cfiBlock229
// 2185 
// 2186 /******************************************************************************
// 2187  * @fn          ZDSecMgrAuthNwkKey
// 2188  *
// 2189  * @brief       Handle next step in authentication process
// 2190  *
// 2191  * @param       none
// 2192  *
// 2193  * @return      none
// 2194  */

        RSEG BANKED_CODE:HUGECODE:NOROOT(0)
// 2195 void ZDSecMgrAuthNwkKey()
ZDSecMgrAuthNwkKey:
          CFI Block cfiBlock230 Using cfiCommon0
          CFI Function ZDSecMgrAuthNwkKey
        CODE
// 2196 {
        FUNCALL ZDSecMgrAuthNwkKey, osal_set_event
        LOCFRAME ISTACK, 2, STACK
        LOCFRAME PSTACK, 0, STACK
        LOCFRAME XSTACK, 0, STACK
        LOCFRAME IOVERLAY, 0, STATIC
        LOCFRAME DOVERLAY, 0, STATIC
        ARGFRAME ISTACK, 2, STACK
        ARGFRAME PSTACK, 0, STACK
        ARGFRAME XSTACK, 0, STACK
        ARGFRAME IOVERLAY, 0, STATIC
        ARGFRAME DOVERLAY, 0, STATIC
        PUSH      DPL
          CFI DPL0 Frame(CFA_SP, 4)
          CFI CFA_SP SP+-4
        PUSH      DPH
          CFI DPH0 Frame(CFA_SP, 5)
          CFI CFA_SP SP+-5
        ; Saved register size: 2
        ; Auto size: 0
// 2197   if ( devState == DEV_END_DEVICE_UNAUTH )
        MOV       DPTR,#devState
        MOVX      A,@DPTR
        XRL       A,#0x5
        JNZ       ??ZDSecMgrAuthNwkKey_0
// 2198   {
// 2199     if ( ZG_CHECK_SECURITY_MODE == ZG_SECURITY_PRO_HIGH )
// 2200     {
// 2201       uint8 parent[Z_EXTADDR_LEN];
// 2202 
// 2203       // get parent's EXT address
// 2204       NLME_GetCoordExtAddr( parent );
// 2205 
// 2206       // begin entity authentication with parent
// 2207       ZDSecMgrAuthInitiate( parent );
// 2208     }
// 2209     else // ( ZG_CHECK_SECURITY_MODE == ZG_SECURITY_RESIDENTIAL )
// 2210     {
// 2211       // inform ZDO that device has been authenticated
// 2212       osal_set_event ( ZDAppTaskID, ZDO_DEVICE_AUTH );
        ; Setup parameters for call to function osal_set_event
        MOV       R2,#-0x80
        MOV       R3,#0x0
        MOV       DPTR,#ZDAppTaskID
        MOVX      A,@DPTR
        MOV       R1,A
        LCALL     `??osal_set_event::?relay`; Banked call to: osal_set_event
// 2213     }
// 2214   }
// 2215 }
??ZDSecMgrAuthNwkKey_0:
        LJMP      ??Subroutine86_0 & 0xFFFF
          CFI EndBlock cfiBlock230
// 2216 
// 2217 /******************************************************************************
// 2218  * PUBLIC FUNCTIONS
// 2219  */
// 2220 /******************************************************************************
// 2221  * @fn          ZDSecMgrInit
// 2222  *
// 2223  * @brief       Initialize ZigBee Device Security Manager.
// 2224  *
// 2225  * @param       none
// 2226  *
// 2227  * @return      none
// 2228  */
// 2229 #if ( ADDRMGR_CALLBACK_ENABLED == 1 )
// 2230 void ZDSecMgrAddrMgrCB( uint8 update, AddrMgrEntry_t* newEntry, AddrMgrEntry_t* oldEntry );
// 2231 void ZDSecMgrAddrMgrCB( uint8           update,
// 2232                         AddrMgrEntry_t* newEntry,
// 2233                         AddrMgrEntry_t* oldEntry )
// 2234 {
// 2235   (void)update;
// 2236   (void)newEntry;
// 2237   (void)oldEntry;
// 2238 }
// 2239 #endif // ( ADDRMGR_CALLBACK_ENABLED == 1 )
// 2240 

        RSEG BANKED_CODE:HUGECODE:NOROOT(0)
// 2241 void ZDSecMgrInit( void )
ZDSecMgrInit:
          CFI Block cfiBlock231 Using cfiCommon0
          CFI Function ZDSecMgrInit
        CODE
        FUNCALL ZDSecMgrInit, APSME_SecurityNM
        LOCFRAME ISTACK, 2, STACK
        LOCFRAME PSTACK, 0, STACK
        LOCFRAME XSTACK, 0, STACK
        LOCFRAME IOVERLAY, 0, STATIC
        LOCFRAME DOVERLAY, 0, STATIC
        ARGFRAME ISTACK, 2, STACK
        ARGFRAME PSTACK, 0, STACK
        ARGFRAME XSTACK, 0, STACK
        ARGFRAME IOVERLAY, 0, STATIC
        ARGFRAME DOVERLAY, 0, STATIC
        LJMP      ?Subroutine0 & 0xFFFF
          CFI EndBlock cfiBlock231
// 2242 {
// 2243   if ( (ZG_CHECK_SECURITY_MODE == ZG_SECURITY_PRO_HIGH)
// 2244       || (ZG_CHECK_SECURITY_MODE == ZG_SECURITY_SE_STANDARD) )
// 2245   {
// 2246     // initialize sub modules
// 2247     ZDSecMgrMasterKeyInit();
// 2248     ZDSecMgrEntryInit();
// 2249 
// 2250     if ( ( ZG_BUILD_COORDINATOR_TYPE ) && ( ZG_DEVICE_COORDINATOR_TYPE ) )
// 2251     {
// 2252       ZDSecMgrCtrlInit();
// 2253     }
// 2254 
// 2255     // register with Address Manager
// 2256     #if ( ADDRMGR_CALLBACK_ENABLED == 1 )
// 2257     AddrMgrRegister( ADDRMGR_REG_SECURITY, ZDSecMgrAddrMgrCB );
// 2258     #endif
// 2259   }
// 2260 
// 2261   if ( ZG_CHECK_SECURITY_MODE == ZG_SECURITY_PRO_HIGH )
// 2262   {
// 2263     // configure SKA slot data
// 2264     APSME_SKA_SlotInit( ZDSECMGR_SKA_SLOT_MAX );
// 2265   }
// 2266   else if ( ZG_CHECK_SECURITY_MODE == ZG_SECURITY_SE_STANDARD )
// 2267   {
// 2268     // Setup the preconfig Trust Center Link Key
// 2269     TrustCenterLinkKey.key = zgPreConfigTCLinkKey;
// 2270     TrustCenterLinkKey.txFrmCntr = 0;
// 2271     TrustCenterLinkKey.rxFrmCntr = 0;
// 2272 #if defined ( NV_RESTORE )
// 2273     if ( osal_nv_item_init( ZCD_NV_SECURE_TCLINKKEY_TXFRAME, sizeof(uint32), &(TrustCenterLinkKey.txFrmCntr) ) == ZSUCCESS )
// 2274     {
// 2275       osal_nv_read( ZCD_NV_SECURE_TCLINKKEY_TXFRAME, 0, sizeof(uint32), &(TrustCenterLinkKey.txFrmCntr) );
// 2276     }
// 2277     if ( osal_nv_item_init( ZCD_NV_SECURE_TCLINKKEY_RXFRAME, sizeof(uint32), &(TrustCenterLinkKey.rxFrmCntr) ) == ZSUCCESS )
// 2278     {
// 2279       osal_nv_read( ZCD_NV_SECURE_TCLINKKEY_RXFRAME, 0, sizeof(uint32), &(TrustCenterLinkKey.rxFrmCntr) );
// 2280     }
// 2281 #endif
// 2282     APSME_TCLinkKeySetup( 0x0000, &TrustCenterLinkKey );
// 2283   }
// 2284 
// 2285   if ( ZG_SECURE_ENABLED )
// 2286   {
// 2287     if ( ( ZG_BUILD_COORDINATOR_TYPE ) && ( ZG_DEVICE_COORDINATOR_TYPE ) )
// 2288     {
// 2289       // setup joining permissions
// 2290       ZDSecMgrPermitJoiningEnabled = TRUE;
// 2291       ZDSecMgrPermitJoiningTimed   = FALSE;
// 2292     }
// 2293   }
// 2294 
// 2295   // configure security based on security mode and type of device
// 2296   ZDSecMgrConfig();
// 2297 }
// 2298 
// 2299 /******************************************************************************
// 2300  * @fn          ZDSecMgrConfig
// 2301  *
// 2302  * @brief       Configure ZigBee Device Security Manager.
// 2303  *
// 2304  * @param       none
// 2305  *
// 2306  * @return      none
// 2307  */

        RSEG BANKED_CODE:HUGECODE:NOROOT(0)
// 2308 void ZDSecMgrConfig( void )
ZDSecMgrConfig:
          CFI Block cfiBlock232 Using cfiCommon0
          CFI Function ZDSecMgrConfig
        CODE
        FUNCALL ZDSecMgrConfig, APSME_SecurityNM
        LOCFRAME ISTACK, 2, STACK
        LOCFRAME PSTACK, 0, STACK
        LOCFRAME XSTACK, 0, STACK
        LOCFRAME IOVERLAY, 0, STATIC
        LOCFRAME DOVERLAY, 0, STATIC
        ARGFRAME ISTACK, 2, STACK
        ARGFRAME PSTACK, 0, STACK
        ARGFRAME XSTACK, 0, STACK
        ARGFRAME IOVERLAY, 0, STATIC
        ARGFRAME DOVERLAY, 0, STATIC
        LJMP      ?Subroutine0 & 0xFFFF
          CFI EndBlock cfiBlock232
// 2309 {
// 2310   if ( ZG_SECURE_ENABLED )
// 2311   {
// 2312     SSP_Init();
// 2313 
// 2314     if ( (ZG_CHECK_SECURITY_MODE == ZG_SECURITY_PRO_HIGH)
// 2315         || (ZG_CHECK_SECURITY_MODE == ZG_SECURITY_SE_STANDARD) )
// 2316     {
// 2317       if ( ( ZG_BUILD_COORDINATOR_TYPE ) && ( ZG_DEVICE_COORDINATOR_TYPE ) )
// 2318       {
// 2319         // COMMERCIAL MODE - COORDINATOR DEVICE
// 2320         APSME_SecurityCM_CD();
// 2321       }
// 2322       else if ( ZSTACK_ROUTER_BUILD )
// 2323       {
// 2324         // COMMERCIAL MODE - ROUTER DEVICE
// 2325         APSME_SecurityCM_RD();
// 2326       }
// 2327       else
// 2328       {
// 2329         // COMMERCIAL MODE - END DEVICE
// 2330         APSME_SecurityCM_ED();
// 2331       }
// 2332     }
// 2333     else // ( ZG_CHECK_SECURITY_MODE == ZG_SECURITY_RESIDENTIAL )
// 2334     {
// 2335       if ( ( ZG_BUILD_COORDINATOR_TYPE ) && ( ZG_DEVICE_COORDINATOR_TYPE ) )
// 2336       {
// 2337         // RESIDENTIAL MODE - COORDINATOR DEVICE
// 2338         APSME_SecurityRM_CD();
// 2339       }
// 2340       else if ( ZSTACK_ROUTER_BUILD )
// 2341       {
// 2342         // RESIDENTIAL MODE - ROUTER DEVICE
// 2343         APSME_SecurityRM_RD();
// 2344       }
// 2345       else
// 2346       {
// 2347         // RESIDENTIAL MODE - END DEVICE
// 2348         APSME_SecurityRM_ED();
// 2349       }
// 2350     }
// 2351   }
// 2352   else
// 2353   {
// 2354     // NO SECURITY
// 2355     APSME_SecurityNM();
// 2356   }
// 2357 }
// 2358 
// 2359 /******************************************************************************
// 2360  * @fn          ZDSecMgrPermitJoining
// 2361  *
// 2362  * @brief       Process request to change joining permissions.
// 2363  *
// 2364  * @param       duration - [in] timed duration for join in seconds
// 2365  *                         - 0x00 not allowed
// 2366  *                         - 0xFF allowed without timeout
// 2367  *
// 2368  * @return      uint8 - success(TRUE:FALSE)
// 2369  */

        RSEG BANKED_CODE:HUGECODE:NOROOT(0)
// 2370 uint8 ZDSecMgrPermitJoining( uint8 duration )
ZDSecMgrPermitJoining:
          CFI Block cfiBlock233 Using cfiCommon0
          CFI Function ZDSecMgrPermitJoining
        CODE
// 2371 {
        PUSH      DPL
          CFI DPL0 Frame(CFA_SP, 4)
          CFI CFA_SP SP+-4
        PUSH      DPH
          CFI DPH0 Frame(CFA_SP, 5)
          CFI CFA_SP SP+-5
        ; Saved register size: 2
        ; Auto size: 0
        MOV       A,R1
        MOV       R0,A
// 2372   uint8 accept;
// 2373 
// 2374 
// 2375   ZDSecMgrPermitJoiningTimed = FALSE;
        MOV       DPTR,#ZDSecMgrPermitJoiningTimed
        CLR       A
        MOVX      @DPTR,A
// 2376 
// 2377   if ( duration > 0 )
        MOV       A,R1
        MOV       DPTR,#ZDSecMgrPermitJoiningEnabled
        JZ        ??ZDSecMgrPermitJoining_0
// 2378   {
// 2379     ZDSecMgrPermitJoiningEnabled = TRUE;
        MOV       A,#0x1
        MOVX      @DPTR,A
// 2380 
// 2381     if ( duration != 0xFF )
        MOV       A,#-0x1
        XRL       A,R0
        JZ        ??ZDSecMgrPermitJoining_1
// 2382     {
// 2383       ZDSecMgrPermitJoiningTimed = TRUE;
        MOV       DPTR,#ZDSecMgrPermitJoiningTimed
        MOV       A,#0x1
        SJMP      ??ZDSecMgrPermitJoining_2
// 2384     }
// 2385   }
// 2386   else
// 2387   {
// 2388     ZDSecMgrPermitJoiningEnabled = FALSE;
??ZDSecMgrPermitJoining_0:
        CLR       A
??ZDSecMgrPermitJoining_2:
        MOVX      @DPTR,A
// 2389   }
// 2390 
// 2391   accept = TRUE;
// 2392 
// 2393   return accept;
??ZDSecMgrPermitJoining_1:
        MOV       R1,#0x1
        LJMP      ??Subroutine86_0 & 0xFFFF
// 2394 }
          CFI EndBlock cfiBlock233
// 2395 
// 2396 /******************************************************************************
// 2397  * @fn          ZDSecMgrPermitJoiningTimeout
// 2398  *
// 2399  * @brief       Process permit joining timeout
// 2400  *
// 2401  * @param       none
// 2402  *
// 2403  * @return      none
// 2404  */

        RSEG BANKED_CODE:HUGECODE:NOROOT(0)
// 2405 void ZDSecMgrPermitJoiningTimeout( void )
ZDSecMgrPermitJoiningTimeout:
          CFI Block cfiBlock234 Using cfiCommon0
          CFI Function ZDSecMgrPermitJoiningTimeout
        CODE
// 2406 {
        PUSH      DPL
          CFI DPL0 Frame(CFA_SP, 4)
          CFI CFA_SP SP+-4
        PUSH      DPH
          CFI DPH0 Frame(CFA_SP, 5)
          CFI CFA_SP SP+-5
        ; Saved register size: 2
        ; Auto size: 0
// 2407   if ( ZDSecMgrPermitJoiningTimed == TRUE )
        MOV       DPTR,#ZDSecMgrPermitJoiningTimed
        MOVX      A,@DPTR
        XRL       A,#0x1
        JNZ       ??ZDSecMgrPermitJoiningTimeout_0
// 2408   {
// 2409     ZDSecMgrPermitJoiningEnabled = FALSE;
        MOV       DPTR,#ZDSecMgrPermitJoiningEnabled
        CLR       A
        MOVX      @DPTR,A
// 2410     ZDSecMgrPermitJoiningTimed   = FALSE;
        MOV       DPTR,#ZDSecMgrPermitJoiningTimed
        MOVX      @DPTR,A
// 2411   }
// 2412 }
??ZDSecMgrPermitJoiningTimeout_0:
        LJMP      ??Subroutine86_0 & 0xFFFF
          CFI EndBlock cfiBlock234
// 2413 
// 2414 /******************************************************************************
// 2415  * @fn          ZDSecMgrNewDeviceEvent
// 2416  *
// 2417  * @brief       Process a the new device event, if found reset new device
// 2418  *              event/timer.
// 2419  *
// 2420  * @param       none
// 2421  *
// 2422  * @return      uint8 - found(TRUE:FALSE)
// 2423  */

        RSEG BANKED_CODE:HUGECODE:NOROOT(0)
// 2424 uint8 ZDSecMgrNewDeviceEvent( void )
ZDSecMgrNewDeviceEvent:
          CFI Block cfiBlock235 Using cfiCommon0
          CFI Function ZDSecMgrNewDeviceEvent
        CODE
// 2425 {
        FUNCALL ZDSecMgrNewDeviceEvent, AssocMatchDeviceStatus
        LOCFRAME ISTACK, 0, STACK
        LOCFRAME PSTACK, 0, STACK
        LOCFRAME XSTACK, 35, STACK
        LOCFRAME IOVERLAY, 0, STATIC
        LOCFRAME DOVERLAY, 0, STATIC
        ARGFRAME ISTACK, 0, STACK
        ARGFRAME PSTACK, 0, STACK
        ARGFRAME XSTACK, 35, STACK
        ARGFRAME IOVERLAY, 0, STATIC
        ARGFRAME DOVERLAY, 0, STATIC
        FUNCALL ZDSecMgrNewDeviceEvent, ZDSecMgrAssocDeviceAuth
        LOCFRAME ISTACK, 0, STACK
        LOCFRAME PSTACK, 0, STACK
        LOCFRAME XSTACK, 35, STACK
        LOCFRAME IOVERLAY, 0, STATIC
        LOCFRAME DOVERLAY, 0, STATIC
        ARGFRAME ISTACK, 0, STACK
        ARGFRAME PSTACK, 0, STACK
        ARGFRAME XSTACK, 35, STACK
        ARGFRAME IOVERLAY, 0, STATIC
        ARGFRAME DOVERLAY, 0, STATIC
        FUNCALL ZDSecMgrNewDeviceEvent, AddrMgrEntryGet
        LOCFRAME ISTACK, 0, STACK
        LOCFRAME PSTACK, 0, STACK
        LOCFRAME XSTACK, 35, STACK
        LOCFRAME IOVERLAY, 0, STATIC
        LOCFRAME DOVERLAY, 0, STATIC
        ARGFRAME ISTACK, 0, STACK
        ARGFRAME PSTACK, 0, STACK
        ARGFRAME XSTACK, 35, STACK
        ARGFRAME IOVERLAY, 0, STATIC
        ARGFRAME DOVERLAY, 0, STATIC
        FUNCALL ZDSecMgrNewDeviceEvent, NLME_GetShortAddr
        LOCFRAME ISTACK, 0, STACK
        LOCFRAME PSTACK, 0, STACK
        LOCFRAME XSTACK, 35, STACK
        LOCFRAME IOVERLAY, 0, STATIC
        LOCFRAME DOVERLAY, 0, STATIC
        ARGFRAME ISTACK, 0, STACK
        ARGFRAME PSTACK, 0, STACK
        ARGFRAME XSTACK, 35, STACK
        ARGFRAME IOVERLAY, 0, STATIC
        ARGFRAME DOVERLAY, 0, STATIC
        FUNCALL ZDSecMgrNewDeviceEvent, ZDSecMgrDeviceNew
        LOCFRAME ISTACK, 0, STACK
        LOCFRAME PSTACK, 0, STACK
        LOCFRAME XSTACK, 35, STACK
        LOCFRAME IOVERLAY, 0, STATIC
        LOCFRAME DOVERLAY, 0, STATIC
        ARGFRAME ISTACK, 0, STACK
        ARGFRAME PSTACK, 0, STACK
        ARGFRAME XSTACK, 35, STACK
        ARGFRAME IOVERLAY, 0, STATIC
        ARGFRAME DOVERLAY, 0, STATIC
        FUNCALL ZDSecMgrNewDeviceEvent, AssocRemove
        LOCFRAME ISTACK, 0, STACK
        LOCFRAME PSTACK, 0, STACK
        LOCFRAME XSTACK, 35, STACK
        LOCFRAME IOVERLAY, 0, STATIC
        LOCFRAME DOVERLAY, 0, STATIC
        ARGFRAME ISTACK, 0, STACK
        ARGFRAME PSTACK, 0, STACK
        ARGFRAME XSTACK, 35, STACK
        ARGFRAME IOVERLAY, 0, STATIC
        ARGFRAME DOVERLAY, 0, STATIC
        REQUIRE ?V0
        REQUIRE ?V2
        REQUIRE ?V3
        MOV       A,#-0xc
        LCALL     ?BANKED_ENTER_XDATA
          CFI DPH0 load(1, XDATA, add(CFA_XSP16, literal(-1)))
          CFI DPL0 load(1, XDATA, add(CFA_XSP16, literal(-2)))
          CFI ?BRET_EXT load(1, XDATA, add(CFA_XSP16, literal(-3)))
          CFI ?RET_HIGH load(1, XDATA, add(CFA_XSP16, literal(-4)))
          CFI ?RET_LOW load(1, XDATA, add(CFA_XSP16, literal(-5)))
          CFI R7 load(1, XDATA, add(CFA_XSP16, literal(-6)))
          CFI V3 load(1, XDATA, add(CFA_XSP16, literal(-7)))
          CFI V2 load(1, XDATA, add(CFA_XSP16, literal(-8)))
          CFI V1 load(1, XDATA, add(CFA_XSP16, literal(-9)))
          CFI V0 load(1, XDATA, add(CFA_XSP16, literal(-10)))
          CFI VB load(1, XDATA, add(CFA_XSP16, literal(-11)))
          CFI R6 load(1, XDATA, add(CFA_XSP16, literal(-12)))
          CFI CFA_SP SP+0
          CFI CFA_XSP16 add(XSP16, 12)
        ; Saved register size: 12
        ; Auto size: 23
        MOV       A,#-0x17
        LCALL     ?ALLOC_XSTACK8
          CFI CFA_XSP16 add(XSP16, 35)
// 2426   uint8                 found;
// 2427   ZDSecMgrDevice_t      device;
// 2428   AddrMgrEntry_t        addrEntry;
// 2429   associated_devices_t* assoc;
// 2430   ZStatus_t             status;
// 2431 
// 2432   // initialize return results
// 2433   found = FALSE;
        MOV       ?V0,#0x0
// 2434 
// 2435   // look for device in the security init state
// 2436   assoc = AssocMatchDeviceStatus( DEV_SEC_INIT_STATUS );
        ; Setup parameters for call to function AssocMatchDeviceStatus
        MOV       R1,#0x4
        LCALL     `??AssocMatchDeviceStatus::?relay`; Banked call to: AssocMatchDeviceStatus
        MOV       ?V2,R2
        MOV       ?V3,R3
        MOV       R6,?V2
        MOV       R7,?V3
// 2437 
// 2438   if ( assoc != NULL )
        MOV       A,R2
        ORL       A,R7
        JNZ       $+5
        LJMP      ??ZDSecMgrNewDeviceEvent_0 & 0xFFFF
// 2439   {
// 2440     // device found
// 2441     found = TRUE;
        MOV       ?V0,#0x1
// 2442 
// 2443     // check for preconfigured security
// 2444     if ( zgPreConfigKeys == TRUE )
        MOV       DPTR,#zgPreConfigKeys
        MOVX      A,@DPTR
        XRL       A,#0x1
        JNZ       ??ZDSecMgrNewDeviceEvent_1
// 2445     {
// 2446       // set association status to authenticated
// 2447       ZDSecMgrAssocDeviceAuth( assoc );
        ; Setup parameters for call to function ZDSecMgrAssocDeviceAuth
        LCALL     `??ZDSecMgrAssocDeviceAuth::?relay`; Banked call to: ZDSecMgrAssocDeviceAuth
// 2448     }
// 2449 
// 2450     // set up device info
// 2451     addrEntry.user  = ADDRMGR_USER_DEFAULT;
??ZDSecMgrNewDeviceEvent_1:
        MOV       A,#0xa
        LCALL     ?XSTACK_DISP0_8
        CLR       A
        MOVX      @DPTR,A
// 2452     addrEntry.index = assoc->addrIdx;
        MOV       DPL,R6
        MOV       DPH,R7
        LCALL     ??Subroutine98_0 & 0xFFFF
??CrossCallReturnLabel_205:
        MOV       A,#0x15
        LCALL     ?XSTACK_DISP0_8
        LCALL     ??Subroutine95_0 & 0xFFFF
// 2453     AddrMgrEntryGet( &addrEntry );
??CrossCallReturnLabel_180:
        LCALL     ?XSTACK_DISP101_8
        LCALL     `??AddrMgrEntryGet::?relay`; Banked call to: AddrMgrEntryGet
// 2454 
// 2455     device.nwkAddr    = assoc->shortAddr;
        MOV       DPL,R6
        MOV       DPH,R7
        LCALL     ?Subroutine31 & 0xFFFF
// 2456     device.extAddr    = addrEntry.extAddr;
??CrossCallReturnLabel_160:
        MOV       A,#0xd
        LCALL     ?XSTACK_DISP0_8
        MOV       R0,DPL
        MOV       R1,DPH
        MOV       A,#0x2
        LCALL     ?XSTACK_DISP0_8
        LCALL     ??Subroutine91_0 & 0xFFFF
// 2457     device.parentAddr = NLME_GetShortAddr();
??CrossCallReturnLabel_156:
        ; Setup parameters for call to function NLME_GetShortAddr
        LCALL     `??NLME_GetShortAddr::?relay`; Banked call to: NLME_GetShortAddr
        MOV       A,#0x4
        LCALL     ?XSTACK_DISP0_8
        LCALL     ?Subroutine35 & 0xFFFF
// 2458     device.secure     = FALSE;
??CrossCallReturnLabel_33:
        MOV       A,#0x6
        LCALL     ?XSTACK_DISP0_8
        CLR       A
        MOVX      @DPTR,A
// 2459     device.devStatus  = assoc->devStatus;
        MOV       A,R6
        ADD       A,#0x5
        MOV       R6,A
        JNC       ??ZDSecMgrNewDeviceEvent_2
        INC       R7
??ZDSecMgrNewDeviceEvent_2:
        MOV       DPL,A
        MOV       DPH,R7
        MOVX      A,@DPTR
        PUSH      A
          CFI CFA_SP SP+-1
        MOV       A,#0x7
        LCALL     ?XSTACK_DISP0_8
        POP       A
          CFI CFA_SP SP+0
        LCALL     ??Subroutine90_0 & 0xFFFF
// 2460 
// 2461     // process new device
// 2462     status = ZDSecMgrDeviceNew( &device );
??CrossCallReturnLabel_145:
        LCALL     `??ZDSecMgrDeviceNew::?relay`; Banked call to: ZDSecMgrDeviceNew
        MOV       A,R1
        MOV       R0,A
// 2463 
// 2464     if ( status == ZSuccess )
        JNZ       ??ZDSecMgrNewDeviceEvent_3
// 2465     {
// 2466       assoc->devStatus &= ~DEV_SEC_INIT_STATUS;
        MOV       DPL,R6
        MOV       DPH,R7
        MOVX      A,@DPTR
        CLR       0xE0 /* A   */.2
        MOVX      @DPTR,A
        SJMP      ??ZDSecMgrNewDeviceEvent_0
// 2467     }
// 2468     else if ( status == ZNwkUnknownDevice )
??ZDSecMgrNewDeviceEvent_3:
        MOV       A,#-0x38
        XRL       A,R0
        JNZ       ??ZDSecMgrNewDeviceEvent_0
// 2469     {
// 2470       AssocRemove( addrEntry.extAddr );
        ; Setup parameters for call to function AssocRemove
        MOV       A,#0xd
        LCALL     ?XSTACK_DISP0_8
        MOV       R2,DPL
        MOV       R3,DPH
        LCALL     `??AssocRemove::?relay`; Banked call to: AssocRemove
// 2471     }
// 2472   }
// 2473 
// 2474   return found;
??ZDSecMgrNewDeviceEvent_0:
        MOV       R1,?V0
        MOV       A,#0x17
        LJMP      ??Subroutine82_0 & 0xFFFF
// 2475 }
          CFI EndBlock cfiBlock235

        RSEG BANKED_CODE:HUGECODE:NOROOT(0)
?Subroutine35:
          CFI Block cfiCond236 Using cfiCommon0
          CFI Function ZDSecMgrAddrStore
          CFI Conditional ??CrossCallReturnLabel_29
          CFI R6 load(1, XDATA, add(CFA_XSP16, literal(-9)))
          CFI VB load(1, XDATA, add(CFA_XSP16, literal(-8)))
          CFI V0 load(1, XDATA, add(CFA_XSP16, literal(-7)))
          CFI R7 load(1, XDATA, add(CFA_XSP16, literal(-6)))
          CFI ?RET_LOW load(1, XDATA, add(CFA_XSP16, literal(-5)))
          CFI ?RET_HIGH load(1, XDATA, add(CFA_XSP16, literal(-4)))
          CFI ?BRET_EXT load(1, XDATA, add(CFA_XSP16, literal(-3)))
          CFI DPL0 load(1, XDATA, add(CFA_XSP16, literal(-2)))
          CFI DPH0 load(1, XDATA, add(CFA_XSP16, literal(-1)))
          CFI CFA_SP SP+-2
          CFI CFA_XSP16 add(XSP16, 22)
          CFI Block cfiCond237 Using cfiCommon0
          CFI (cfiCond237) Function ZDSecMgrExtAddrStore
          CFI (cfiCond237) Conditional ??CrossCallReturnLabel_30
          CFI (cfiCond237) R6 load(1, XDATA, add(CFA_XSP16, literal(-9)))
          CFI (cfiCond237) VB load(1, XDATA, add(CFA_XSP16, literal(-8)))
          CFI (cfiCond237) V0 load(1, XDATA, add(CFA_XSP16, literal(-7)))
          CFI (cfiCond237) R7 load(1, XDATA, add(CFA_XSP16, literal(-6)))
          CFI (cfiCond237) ?RET_LOW load(1, XDATA, add(CFA_XSP16, literal(-5)))
          CFI (cfiCond237) ?RET_HIGH load(1, XDATA, add(CFA_XSP16, literal(-4)))
          CFI (cfiCond237) ?BRET_EXT load(1, XDATA, add(CFA_XSP16, literal(-3)))
          CFI (cfiCond237) DPL0 load(1, XDATA, add(CFA_XSP16, literal(-2)))
          CFI (cfiCond237) DPH0 load(1, XDATA, add(CFA_XSP16, literal(-1)))
          CFI (cfiCond237) CFA_SP SP+-2
          CFI (cfiCond237) CFA_XSP16 add(XSP16, 22)
          CFI Block cfiCond238 Using cfiCommon0
          CFI (cfiCond238) Function ZDSecMgrCtrlLookup
          CFI (cfiCond238) Conditional ??CrossCallReturnLabel_31
          CFI (cfiCond238) R6 load(1, XDATA, add(CFA_XSP16, literal(-10)))
          CFI (cfiCond238) VB load(1, XDATA, add(CFA_XSP16, literal(-9)))
          CFI (cfiCond238) V0 load(1, XDATA, add(CFA_XSP16, literal(-8)))
          CFI (cfiCond238) V1 load(1, XDATA, add(CFA_XSP16, literal(-7)))
          CFI (cfiCond238) R7 load(1, XDATA, add(CFA_XSP16, literal(-6)))
          CFI (cfiCond238) ?RET_LOW load(1, XDATA, add(CFA_XSP16, literal(-5)))
          CFI (cfiCond238) ?RET_HIGH load(1, XDATA, add(CFA_XSP16, literal(-4)))
          CFI (cfiCond238) ?BRET_EXT load(1, XDATA, add(CFA_XSP16, literal(-3)))
          CFI (cfiCond238) DPL0 load(1, XDATA, add(CFA_XSP16, literal(-2)))
          CFI (cfiCond238) DPH0 load(1, XDATA, add(CFA_XSP16, literal(-1)))
          CFI (cfiCond238) CFA_SP SP+-2
          CFI (cfiCond238) CFA_XSP16 add(XSP16, 10)
          CFI Block cfiCond239 Using cfiCommon0
          CFI (cfiCond239) Function ZDSecMgrSendNwkKey
          CFI (cfiCond239) Conditional ??CrossCallReturnLabel_32
          CFI (cfiCond239) R6 load(1, XDATA, add(CFA_XSP16, literal(-12)))
          CFI (cfiCond239) VB load(1, XDATA, add(CFA_XSP16, literal(-11)))
          CFI (cfiCond239) V0 load(1, XDATA, add(CFA_XSP16, literal(-10)))
          CFI (cfiCond239) V1 load(1, XDATA, add(CFA_XSP16, literal(-9)))
          CFI (cfiCond239) V2 load(1, XDATA, add(CFA_XSP16, literal(-8)))
          CFI (cfiCond239) V3 load(1, XDATA, add(CFA_XSP16, literal(-7)))
          CFI (cfiCond239) R7 load(1, XDATA, add(CFA_XSP16, literal(-6)))
          CFI (cfiCond239) ?RET_LOW load(1, XDATA, add(CFA_XSP16, literal(-5)))
          CFI (cfiCond239) ?RET_HIGH load(1, XDATA, add(CFA_XSP16, literal(-4)))
          CFI (cfiCond239) ?BRET_EXT load(1, XDATA, add(CFA_XSP16, literal(-3)))
          CFI (cfiCond239) DPL0 load(1, XDATA, add(CFA_XSP16, literal(-2)))
          CFI (cfiCond239) DPH0 load(1, XDATA, add(CFA_XSP16, literal(-1)))
          CFI (cfiCond239) CFA_SP SP+-2
          CFI (cfiCond239) CFA_XSP16 add(XSP16, 25)
          CFI Block cfiCond240 Using cfiCommon0
          CFI (cfiCond240) Function ZDSecMgrNewDeviceEvent
          CFI (cfiCond240) Conditional ??CrossCallReturnLabel_33
          CFI (cfiCond240) R6 load(1, XDATA, add(CFA_XSP16, literal(-12)))
          CFI (cfiCond240) VB load(1, XDATA, add(CFA_XSP16, literal(-11)))
          CFI (cfiCond240) V0 load(1, XDATA, add(CFA_XSP16, literal(-10)))
          CFI (cfiCond240) V1 load(1, XDATA, add(CFA_XSP16, literal(-9)))
          CFI (cfiCond240) V2 load(1, XDATA, add(CFA_XSP16, literal(-8)))
          CFI (cfiCond240) V3 load(1, XDATA, add(CFA_XSP16, literal(-7)))
          CFI (cfiCond240) R7 load(1, XDATA, add(CFA_XSP16, literal(-6)))
          CFI (cfiCond240) ?RET_LOW load(1, XDATA, add(CFA_XSP16, literal(-5)))
          CFI (cfiCond240) ?RET_HIGH load(1, XDATA, add(CFA_XSP16, literal(-4)))
          CFI (cfiCond240) ?BRET_EXT load(1, XDATA, add(CFA_XSP16, literal(-3)))
          CFI (cfiCond240) DPL0 load(1, XDATA, add(CFA_XSP16, literal(-2)))
          CFI (cfiCond240) DPH0 load(1, XDATA, add(CFA_XSP16, literal(-1)))
          CFI (cfiCond240) CFA_SP SP+-2
          CFI (cfiCond240) CFA_XSP16 add(XSP16, 35)
          CFI Block cfiCond241 Using cfiCommon0
          CFI (cfiCond241) Function ZDSecMgrEvent
          CFI (cfiCond241) Conditional ??CrossCallReturnLabel_34
          CFI (cfiCond241) R6 load(1, XDATA, add(CFA_XSP16, literal(-10)))
          CFI (cfiCond241) VB load(1, XDATA, add(CFA_XSP16, literal(-9)))
          CFI (cfiCond241) V0 load(1, XDATA, add(CFA_XSP16, literal(-8)))
          CFI (cfiCond241) V1 load(1, XDATA, add(CFA_XSP16, literal(-7)))
          CFI (cfiCond241) R7 load(1, XDATA, add(CFA_XSP16, literal(-6)))
          CFI (cfiCond241) ?RET_LOW load(1, XDATA, add(CFA_XSP16, literal(-5)))
          CFI (cfiCond241) ?RET_HIGH load(1, XDATA, add(CFA_XSP16, literal(-4)))
          CFI (cfiCond241) ?BRET_EXT load(1, XDATA, add(CFA_XSP16, literal(-3)))
          CFI (cfiCond241) DPL0 load(1, XDATA, add(CFA_XSP16, literal(-2)))
          CFI (cfiCond241) DPH0 load(1, XDATA, add(CFA_XSP16, literal(-1)))
          CFI (cfiCond241) CFA_SP SP+-2
          CFI (cfiCond241) CFA_XSP16 add(XSP16, 33)
          CFI Block cfiCond242 Using cfiCommon0
          CFI (cfiCond242) Function ZDSecMgrUpdateNwkKey
          CFI (cfiCond242) Conditional ??CrossCallReturnLabel_35
          CFI (cfiCond242) R6 load(1, XDATA, add(CFA_XSP16, literal(-10)))
          CFI (cfiCond242) VB load(1, XDATA, add(CFA_XSP16, literal(-9)))
          CFI (cfiCond242) V0 load(1, XDATA, add(CFA_XSP16, literal(-8)))
          CFI (cfiCond242) V1 load(1, XDATA, add(CFA_XSP16, literal(-7)))
          CFI (cfiCond242) R7 load(1, XDATA, add(CFA_XSP16, literal(-6)))
          CFI (cfiCond242) ?RET_LOW load(1, XDATA, add(CFA_XSP16, literal(-5)))
          CFI (cfiCond242) ?RET_HIGH load(1, XDATA, add(CFA_XSP16, literal(-4)))
          CFI (cfiCond242) ?BRET_EXT load(1, XDATA, add(CFA_XSP16, literal(-3)))
          CFI (cfiCond242) DPL0 load(1, XDATA, add(CFA_XSP16, literal(-2)))
          CFI (cfiCond242) DPH0 load(1, XDATA, add(CFA_XSP16, literal(-1)))
          CFI (cfiCond242) CFA_SP SP+-2
          CFI (cfiCond242) CFA_XSP16 add(XSP16, 23)
          CFI Block cfiCond243 Using cfiCommon0
          CFI (cfiCond243) Function APSME_LinkKeyDataGet
          CFI (cfiCond243) Conditional ??CrossCallReturnLabel_36
          CFI (cfiCond243) R6 load(1, XDATA, add(CFA_XSP16, literal(-9)))
          CFI (cfiCond243) VB load(1, XDATA, add(CFA_XSP16, literal(-8)))
          CFI (cfiCond243) V0 load(1, XDATA, add(CFA_XSP16, literal(-7)))
          CFI (cfiCond243) R7 load(1, XDATA, add(CFA_XSP16, literal(-6)))
          CFI (cfiCond243) ?RET_LOW load(1, XDATA, add(CFA_XSP16, literal(-5)))
          CFI (cfiCond243) ?RET_HIGH load(1, XDATA, add(CFA_XSP16, literal(-4)))
          CFI (cfiCond243) ?BRET_EXT load(1, XDATA, add(CFA_XSP16, literal(-3)))
          CFI (cfiCond243) DPL0 load(1, XDATA, add(CFA_XSP16, literal(-2)))
          CFI (cfiCond243) DPH0 load(1, XDATA, add(CFA_XSP16, literal(-1)))
          CFI (cfiCond243) CFA_SP SP+-2
          CFI (cfiCond243) CFA_XSP16 add(XSP16, 11)
          CFI Block cfiPicker244 Using cfiCommon1
          CFI (cfiPicker244) NoFunction
          CFI (cfiPicker244) Picker
        MOV       A,R2
        MOVX      @DPTR,A
        INC       DPTR
        MOV       A,R3
        MOVX      @DPTR,A
        RET
          CFI EndBlock cfiCond236
          CFI EndBlock cfiCond237
          CFI EndBlock cfiCond238
          CFI EndBlock cfiCond239
          CFI EndBlock cfiCond240
          CFI EndBlock cfiCond241
          CFI EndBlock cfiCond242
          CFI EndBlock cfiCond243
          CFI EndBlock cfiPicker244

        RSEG BANKED_CODE:HUGECODE:NOROOT(0)
?Subroutine33:
          CFI Block cfiCond245 Using cfiCommon0
          CFI Function ZDSecMgrEntryLookup
          CFI Conditional ??CrossCallReturnLabel_138
          CFI R6 load(1, XDATA, add(CFA_XSP16, literal(-10)))
          CFI VB load(1, XDATA, add(CFA_XSP16, literal(-9)))
          CFI V0 load(1, XDATA, add(CFA_XSP16, literal(-8)))
          CFI V1 load(1, XDATA, add(CFA_XSP16, literal(-7)))
          CFI R7 load(1, XDATA, add(CFA_XSP16, literal(-6)))
          CFI ?RET_LOW load(1, XDATA, add(CFA_XSP16, literal(-5)))
          CFI ?RET_HIGH load(1, XDATA, add(CFA_XSP16, literal(-4)))
          CFI ?BRET_EXT load(1, XDATA, add(CFA_XSP16, literal(-3)))
          CFI DPL0 load(1, XDATA, add(CFA_XSP16, literal(-2)))
          CFI DPH0 load(1, XDATA, add(CFA_XSP16, literal(-1)))
          CFI CFA_SP SP+-2
          CFI CFA_XSP16 add(XSP16, 23)
          CFI Block cfiCond246 Using cfiCommon0
          CFI (cfiCond246) Function ZDSecMgrAddrMgrUpdate
          CFI (cfiCond246) Conditional ??CrossCallReturnLabel_139
          CFI (cfiCond246) R6 load(1, XDATA, add(CFA_XSP16, literal(-9)))
          CFI (cfiCond246) VB load(1, XDATA, add(CFA_XSP16, literal(-8)))
          CFI (cfiCond246) V0 load(1, XDATA, add(CFA_XSP16, literal(-7)))
          CFI (cfiCond246) R7 load(1, XDATA, add(CFA_XSP16, literal(-6)))
          CFI (cfiCond246) ?RET_LOW load(1, XDATA, add(CFA_XSP16, literal(-5)))
          CFI (cfiCond246) ?RET_HIGH load(1, XDATA, add(CFA_XSP16, literal(-4)))
          CFI (cfiCond246) ?BRET_EXT load(1, XDATA, add(CFA_XSP16, literal(-3)))
          CFI (cfiCond246) DPL0 load(1, XDATA, add(CFA_XSP16, literal(-2)))
          CFI (cfiCond246) DPH0 load(1, XDATA, add(CFA_XSP16, literal(-1)))
          CFI (cfiCond246) CFA_SP SP+-2
          CFI (cfiCond246) CFA_XSP16 add(XSP16, 22)
          CFI Block cfiPicker247 Using cfiCommon1
          CFI (cfiPicker247) NoFunction
          CFI (cfiPicker247) Picker
        MOV       A,R2
        MOVX      @DPTR,A
        INC       DPTR
        MOV       A,R3
          CFI EndBlock cfiCond245
          CFI EndBlock cfiCond246
          CFI EndBlock cfiPicker247
        REQUIRE ??Subroutine90_0
        ; // Fall through to label ??Subroutine90_0

        RSEG BANKED_CODE:HUGECODE:NOROOT(0)
??Subroutine90_0:
          CFI Block cfiCond248 Using cfiCommon0
          CFI Function ZDSecMgrEstablishKey
          CFI Conditional ??CrossCallReturnLabel_140
          CFI R6 load(1, XDATA, add(CFA_XSP16, literal(-10)))
          CFI VB load(1, XDATA, add(CFA_XSP16, literal(-9)))
          CFI V0 load(1, XDATA, add(CFA_XSP16, literal(-8)))
          CFI V1 load(1, XDATA, add(CFA_XSP16, literal(-7)))
          CFI R7 load(1, XDATA, add(CFA_XSP16, literal(-6)))
          CFI ?RET_LOW load(1, XDATA, add(CFA_XSP16, literal(-5)))
          CFI ?RET_HIGH load(1, XDATA, add(CFA_XSP16, literal(-4)))
          CFI ?BRET_EXT load(1, XDATA, add(CFA_XSP16, literal(-3)))
          CFI DPL0 load(1, XDATA, add(CFA_XSP16, literal(-2)))
          CFI DPH0 load(1, XDATA, add(CFA_XSP16, literal(-1)))
          CFI CFA_SP SP+-2
          CFI CFA_XSP16 add(XSP16, 17)
          CFI Block cfiCond249 Using cfiCommon0
          CFI (cfiCond249) Function ZDSecMgrAddrMgrUpdate
          CFI (cfiCond249) Conditional ??CrossCallReturnLabel_141
          CFI (cfiCond249) R6 load(1, XDATA, add(CFA_XSP16, literal(-9)))
          CFI (cfiCond249) VB load(1, XDATA, add(CFA_XSP16, literal(-8)))
          CFI (cfiCond249) V0 load(1, XDATA, add(CFA_XSP16, literal(-7)))
          CFI (cfiCond249) R7 load(1, XDATA, add(CFA_XSP16, literal(-6)))
          CFI (cfiCond249) ?RET_LOW load(1, XDATA, add(CFA_XSP16, literal(-5)))
          CFI (cfiCond249) ?RET_HIGH load(1, XDATA, add(CFA_XSP16, literal(-4)))
          CFI (cfiCond249) ?BRET_EXT load(1, XDATA, add(CFA_XSP16, literal(-3)))
          CFI (cfiCond249) DPL0 load(1, XDATA, add(CFA_XSP16, literal(-2)))
          CFI (cfiCond249) DPH0 load(1, XDATA, add(CFA_XSP16, literal(-1)))
          CFI (cfiCond249) CFA_SP SP+-2
          CFI (cfiCond249) CFA_XSP16 add(XSP16, 22)
          CFI Block cfiCond250 Using cfiCommon0
          CFI (cfiCond250) Function ZDSecMgrDeviceRemove
          CFI (cfiCond250) Conditional ??CrossCallReturnLabel_142
          CFI (cfiCond250) R6 load(1, XDATA, add(CFA_XSP16, literal(-10)))
          CFI (cfiCond250) VB load(1, XDATA, add(CFA_XSP16, literal(-9)))
          CFI (cfiCond250) V0 load(1, XDATA, add(CFA_XSP16, literal(-8)))
          CFI (cfiCond250) V1 load(1, XDATA, add(CFA_XSP16, literal(-7)))
          CFI (cfiCond250) R7 load(1, XDATA, add(CFA_XSP16, literal(-6)))
          CFI (cfiCond250) ?RET_LOW load(1, XDATA, add(CFA_XSP16, literal(-5)))
          CFI (cfiCond250) ?RET_HIGH load(1, XDATA, add(CFA_XSP16, literal(-4)))
          CFI (cfiCond250) ?BRET_EXT load(1, XDATA, add(CFA_XSP16, literal(-3)))
          CFI (cfiCond250) DPL0 load(1, XDATA, add(CFA_XSP16, literal(-2)))
          CFI (cfiCond250) DPH0 load(1, XDATA, add(CFA_XSP16, literal(-1)))
          CFI (cfiCond250) CFA_SP SP+-2
          CFI (cfiCond250) CFA_XSP16 add(XSP16, 19)
          CFI Block cfiCond251 Using cfiCommon0
          CFI (cfiCond251) Function ZDSecMgrDeviceJoinFwd
          CFI (cfiCond251) Conditional ??CrossCallReturnLabel_143
          CFI (cfiCond251) DPL0 Frame(CFA_SP, 4)
          CFI (cfiCond251) DPH0 Frame(CFA_SP, 5)
          CFI (cfiCond251) CFA_SP SP+-7
          CFI (cfiCond251) CFA_XSP16 add(XSP16, 8)
          CFI Block cfiCond252 Using cfiCommon0
          CFI (cfiCond252) Function ZDSecMgrAuthInitiate
          CFI (cfiCond252) Conditional ??CrossCallReturnLabel_144
          CFI (cfiCond252) R6 load(1, XDATA, add(CFA_XSP16, literal(-9)))
          CFI (cfiCond252) VB load(1, XDATA, add(CFA_XSP16, literal(-8)))
          CFI (cfiCond252) V0 load(1, XDATA, add(CFA_XSP16, literal(-7)))
          CFI (cfiCond252) R7 load(1, XDATA, add(CFA_XSP16, literal(-6)))
          CFI (cfiCond252) ?RET_LOW load(1, XDATA, add(CFA_XSP16, literal(-5)))
          CFI (cfiCond252) ?RET_HIGH load(1, XDATA, add(CFA_XSP16, literal(-4)))
          CFI (cfiCond252) ?BRET_EXT load(1, XDATA, add(CFA_XSP16, literal(-3)))
          CFI (cfiCond252) DPL0 load(1, XDATA, add(CFA_XSP16, literal(-2)))
          CFI (cfiCond252) DPH0 load(1, XDATA, add(CFA_XSP16, literal(-1)))
          CFI (cfiCond252) CFA_SP SP+-2
          CFI (cfiCond252) CFA_XSP16 add(XSP16, 16)
          CFI Block cfiCond253 Using cfiCommon0
          CFI (cfiCond253) Function ZDSecMgrNewDeviceEvent
          CFI (cfiCond253) Conditional ??CrossCallReturnLabel_145
          CFI (cfiCond253) R6 load(1, XDATA, add(CFA_XSP16, literal(-12)))
          CFI (cfiCond253) VB load(1, XDATA, add(CFA_XSP16, literal(-11)))
          CFI (cfiCond253) V0 load(1, XDATA, add(CFA_XSP16, literal(-10)))
          CFI (cfiCond253) V1 load(1, XDATA, add(CFA_XSP16, literal(-9)))
          CFI (cfiCond253) V2 load(1, XDATA, add(CFA_XSP16, literal(-8)))
          CFI (cfiCond253) V3 load(1, XDATA, add(CFA_XSP16, literal(-7)))
          CFI (cfiCond253) R7 load(1, XDATA, add(CFA_XSP16, literal(-6)))
          CFI (cfiCond253) ?RET_LOW load(1, XDATA, add(CFA_XSP16, literal(-5)))
          CFI (cfiCond253) ?RET_HIGH load(1, XDATA, add(CFA_XSP16, literal(-4)))
          CFI (cfiCond253) ?BRET_EXT load(1, XDATA, add(CFA_XSP16, literal(-3)))
          CFI (cfiCond253) DPL0 load(1, XDATA, add(CFA_XSP16, literal(-2)))
          CFI (cfiCond253) DPH0 load(1, XDATA, add(CFA_XSP16, literal(-1)))
          CFI (cfiCond253) CFA_SP SP+-2
          CFI (cfiCond253) CFA_XSP16 add(XSP16, 35)
          CFI Block cfiCond254 Using cfiCommon0
          CFI (cfiCond254) Function ZDSecMgrEstablishKeyInd
          CFI (cfiCond254) Conditional ??CrossCallReturnLabel_146
          CFI (cfiCond254) R6 load(1, XDATA, add(CFA_XSP16, literal(-14)))
          CFI (cfiCond254) VB load(1, XDATA, add(CFA_XSP16, literal(-13)))
          CFI (cfiCond254) V0 load(1, XDATA, add(CFA_XSP16, literal(-12)))
          CFI (cfiCond254) V1 load(1, XDATA, add(CFA_XSP16, literal(-11)))
          CFI (cfiCond254) V2 load(1, XDATA, add(CFA_XSP16, literal(-10)))
          CFI (cfiCond254) V3 load(1, XDATA, add(CFA_XSP16, literal(-9)))
          CFI (cfiCond254) V4 load(1, XDATA, add(CFA_XSP16, literal(-8)))
          CFI (cfiCond254) V5 load(1, XDATA, add(CFA_XSP16, literal(-7)))
          CFI (cfiCond254) R7 load(1, XDATA, add(CFA_XSP16, literal(-6)))
          CFI (cfiCond254) ?RET_LOW load(1, XDATA, add(CFA_XSP16, literal(-5)))
          CFI (cfiCond254) ?RET_HIGH load(1, XDATA, add(CFA_XSP16, literal(-4)))
          CFI (cfiCond254) ?BRET_EXT load(1, XDATA, add(CFA_XSP16, literal(-3)))
          CFI (cfiCond254) DPL0 load(1, XDATA, add(CFA_XSP16, literal(-2)))
          CFI (cfiCond254) DPH0 load(1, XDATA, add(CFA_XSP16, literal(-1)))
          CFI (cfiCond254) CFA_SP SP+-2
          CFI (cfiCond254) CFA_XSP16 add(XSP16, 31)
          CFI Block cfiCond255 Using cfiCommon0
          CFI (cfiCond255) Function ZDSecMgrRemoveDeviceInd
          CFI (cfiCond255) Conditional ??CrossCallReturnLabel_147
          CFI (cfiCond255) R6 load(1, XDATA, add(CFA_XSP16, literal(-9)))
          CFI (cfiCond255) VB load(1, XDATA, add(CFA_XSP16, literal(-8)))
          CFI (cfiCond255) V0 load(1, XDATA, add(CFA_XSP16, literal(-7)))
          CFI (cfiCond255) R7 load(1, XDATA, add(CFA_XSP16, literal(-6)))
          CFI (cfiCond255) ?RET_LOW load(1, XDATA, add(CFA_XSP16, literal(-5)))
          CFI (cfiCond255) ?RET_HIGH load(1, XDATA, add(CFA_XSP16, literal(-4)))
          CFI (cfiCond255) ?BRET_EXT load(1, XDATA, add(CFA_XSP16, literal(-3)))
          CFI (cfiCond255) DPL0 load(1, XDATA, add(CFA_XSP16, literal(-2)))
          CFI (cfiCond255) DPH0 load(1, XDATA, add(CFA_XSP16, literal(-1)))
          CFI (cfiCond255) CFA_SP SP+-2
          CFI (cfiCond255) CFA_XSP16 add(XSP16, 19)
          CFI Block cfiCond256 Using cfiCommon0
          CFI (cfiCond256) Function ZDSecMgrSwitchNwkKey
          CFI (cfiCond256) Conditional ??CrossCallReturnLabel_148
          CFI (cfiCond256) R6 load(1, XDATA, add(CFA_XSP16, literal(-9)))
          CFI (cfiCond256) VB load(1, XDATA, add(CFA_XSP16, literal(-8)))
          CFI (cfiCond256) V0 load(1, XDATA, add(CFA_XSP16, literal(-7)))
          CFI (cfiCond256) R7 load(1, XDATA, add(CFA_XSP16, literal(-6)))
          CFI (cfiCond256) ?RET_LOW load(1, XDATA, add(CFA_XSP16, literal(-5)))
          CFI (cfiCond256) ?RET_HIGH load(1, XDATA, add(CFA_XSP16, literal(-4)))
          CFI (cfiCond256) ?BRET_EXT load(1, XDATA, add(CFA_XSP16, literal(-3)))
          CFI (cfiCond256) DPL0 load(1, XDATA, add(CFA_XSP16, literal(-2)))
          CFI (cfiCond256) DPH0 load(1, XDATA, add(CFA_XSP16, literal(-1)))
          CFI (cfiCond256) CFA_SP SP+-2
          CFI (cfiCond256) CFA_XSP16 add(XSP16, 12)
          CFI Block cfiCond257 Using cfiCommon0
          CFI (cfiCond257) Function ZDSecMgrEntryLookup
          CFI (cfiCond257) Conditional ??CrossCallReturnLabel_138
          CFI (cfiCond257) R6 load(1, XDATA, add(CFA_XSP16, literal(-10)))
          CFI (cfiCond257) VB load(1, XDATA, add(CFA_XSP16, literal(-9)))
          CFI (cfiCond257) V0 load(1, XDATA, add(CFA_XSP16, literal(-8)))
          CFI (cfiCond257) V1 load(1, XDATA, add(CFA_XSP16, literal(-7)))
          CFI (cfiCond257) R7 load(1, XDATA, add(CFA_XSP16, literal(-6)))
          CFI (cfiCond257) ?RET_LOW load(1, XDATA, add(CFA_XSP16, literal(-5)))
          CFI (cfiCond257) ?RET_HIGH load(1, XDATA, add(CFA_XSP16, literal(-4)))
          CFI (cfiCond257) ?BRET_EXT load(1, XDATA, add(CFA_XSP16, literal(-3)))
          CFI (cfiCond257) DPL0 load(1, XDATA, add(CFA_XSP16, literal(-2)))
          CFI (cfiCond257) DPH0 load(1, XDATA, add(CFA_XSP16, literal(-1)))
          CFI (cfiCond257) CFA_SP SP+-2
          CFI (cfiCond257) CFA_XSP16 add(XSP16, 23)
          CFI Block cfiCond258 Using cfiCommon0
          CFI (cfiCond258) Function ZDSecMgrAddrMgrUpdate
          CFI (cfiCond258) Conditional ??CrossCallReturnLabel_139
          CFI (cfiCond258) R6 load(1, XDATA, add(CFA_XSP16, literal(-9)))
          CFI (cfiCond258) VB load(1, XDATA, add(CFA_XSP16, literal(-8)))
          CFI (cfiCond258) V0 load(1, XDATA, add(CFA_XSP16, literal(-7)))
          CFI (cfiCond258) R7 load(1, XDATA, add(CFA_XSP16, literal(-6)))
          CFI (cfiCond258) ?RET_LOW load(1, XDATA, add(CFA_XSP16, literal(-5)))
          CFI (cfiCond258) ?RET_HIGH load(1, XDATA, add(CFA_XSP16, literal(-4)))
          CFI (cfiCond258) ?BRET_EXT load(1, XDATA, add(CFA_XSP16, literal(-3)))
          CFI (cfiCond258) DPL0 load(1, XDATA, add(CFA_XSP16, literal(-2)))
          CFI (cfiCond258) DPH0 load(1, XDATA, add(CFA_XSP16, literal(-1)))
          CFI (cfiCond258) CFA_SP SP+-2
          CFI (cfiCond258) CFA_XSP16 add(XSP16, 22)
          CFI Block cfiPicker259 Using cfiCommon1
          CFI (cfiPicker259) NoFunction
          CFI (cfiPicker259) Picker
        MOVX      @DPTR,A
        ; Setup parameters for call to function AddrMgrEntryLookupNwk
        ; Setup parameters for call to function AddrMgrEntryGet
        ; Setup parameters for call to function APSME_EstablishKeyReq
        ; Setup parameters for call to function AddrMgrEntryUpdate
        ; Setup parameters for call to function NLME_LeaveReq
        ; Setup parameters for call to function APSME_UpdateDeviceReq
        ; Setup parameters for call to function APSME_AuthenticateReq
        ; Setup parameters for call to function ZDSecMgrDeviceNew
        ; Setup parameters for call to function APSME_EstablishKeyRsp
        ; Setup parameters for call to function ZDSecMgrDeviceRemove
        ; Setup parameters for call to function APSME_SwitchKeyReq
        MOV       R2,?XSP + 0
        MOV       R3,?XSP + 1
        RET
          CFI EndBlock cfiCond248
          CFI EndBlock cfiCond249
          CFI EndBlock cfiCond250
          CFI EndBlock cfiCond251
          CFI EndBlock cfiCond252
          CFI EndBlock cfiCond253
          CFI EndBlock cfiCond254
          CFI EndBlock cfiCond255
          CFI EndBlock cfiCond256
          CFI EndBlock cfiCond257
          CFI EndBlock cfiCond258
          CFI EndBlock cfiPicker259

        RSEG BANKED_CODE:HUGECODE:NOROOT(0)
?Subroutine31:
          CFI Block cfiCond260 Using cfiCommon0
          CFI Function ZDSecMgrNewDeviceEvent
          CFI Conditional ??CrossCallReturnLabel_160
          CFI R6 load(1, XDATA, add(CFA_XSP16, literal(-12)))
          CFI VB load(1, XDATA, add(CFA_XSP16, literal(-11)))
          CFI V0 load(1, XDATA, add(CFA_XSP16, literal(-10)))
          CFI V1 load(1, XDATA, add(CFA_XSP16, literal(-9)))
          CFI V2 load(1, XDATA, add(CFA_XSP16, literal(-8)))
          CFI V3 load(1, XDATA, add(CFA_XSP16, literal(-7)))
          CFI R7 load(1, XDATA, add(CFA_XSP16, literal(-6)))
          CFI ?RET_LOW load(1, XDATA, add(CFA_XSP16, literal(-5)))
          CFI ?RET_HIGH load(1, XDATA, add(CFA_XSP16, literal(-4)))
          CFI ?BRET_EXT load(1, XDATA, add(CFA_XSP16, literal(-3)))
          CFI DPL0 load(1, XDATA, add(CFA_XSP16, literal(-2)))
          CFI DPH0 load(1, XDATA, add(CFA_XSP16, literal(-1)))
          CFI CFA_SP SP+-2
          CFI CFA_XSP16 add(XSP16, 35)
          CFI Block cfiCond261 Using cfiCommon0
          CFI (cfiCond261) Function ZDSecMgrEvent
          CFI (cfiCond261) Conditional ??CrossCallReturnLabel_161
          CFI (cfiCond261) R6 load(1, XDATA, add(CFA_XSP16, literal(-10)))
          CFI (cfiCond261) VB load(1, XDATA, add(CFA_XSP16, literal(-9)))
          CFI (cfiCond261) V0 load(1, XDATA, add(CFA_XSP16, literal(-8)))
          CFI (cfiCond261) V1 load(1, XDATA, add(CFA_XSP16, literal(-7)))
          CFI (cfiCond261) R7 load(1, XDATA, add(CFA_XSP16, literal(-6)))
          CFI (cfiCond261) ?RET_LOW load(1, XDATA, add(CFA_XSP16, literal(-5)))
          CFI (cfiCond261) ?RET_HIGH load(1, XDATA, add(CFA_XSP16, literal(-4)))
          CFI (cfiCond261) ?BRET_EXT load(1, XDATA, add(CFA_XSP16, literal(-3)))
          CFI (cfiCond261) DPL0 load(1, XDATA, add(CFA_XSP16, literal(-2)))
          CFI (cfiCond261) DPH0 load(1, XDATA, add(CFA_XSP16, literal(-1)))
          CFI (cfiCond261) CFA_SP SP+-2
          CFI (cfiCond261) CFA_XSP16 add(XSP16, 33)
          CFI Block cfiCond262 Using cfiCommon0
          CFI (cfiCond262) Function ZDSecMgrUpdateDeviceInd
          CFI (cfiCond262) Conditional ??CrossCallReturnLabel_162
          CFI (cfiCond262) DPL0 Frame(CFA_SP, 4)
          CFI (cfiCond262) DPH0 Frame(CFA_SP, 5)
          CFI (cfiCond262) CFA_SP SP+-7
          CFI (cfiCond262) CFA_XSP16 add(XSP16, 10)
          CFI Block cfiPicker263 Using cfiCommon1
          CFI (cfiPicker263) NoFunction
          CFI (cfiPicker263) Picker
        LCALL     ?Subroutine70 & 0xFFFF
??CrossCallReturnLabel_99:
          CFI EndBlock cfiCond260
          CFI EndBlock cfiCond261
          CFI EndBlock cfiCond262
          CFI EndBlock cfiPicker263
        REQUIRE ??Subroutine91_0
        ; // Fall through to label ??Subroutine91_0

        RSEG BANKED_CODE:HUGECODE:NOROOT(0)
??Subroutine91_0:
          CFI Block cfiCond264 Using cfiCommon0
          CFI Function ZDSecMgrCtrlSet
          CFI Conditional ??CrossCallReturnLabel_149
          CFI R6 load(1, XDATA, add(CFA_XSP16, literal(-9)))
          CFI VB load(1, XDATA, add(CFA_XSP16, literal(-8)))
          CFI V0 load(1, XDATA, add(CFA_XSP16, literal(-7)))
          CFI R7 load(1, XDATA, add(CFA_XSP16, literal(-6)))
          CFI ?RET_LOW load(1, XDATA, add(CFA_XSP16, literal(-5)))
          CFI ?RET_HIGH load(1, XDATA, add(CFA_XSP16, literal(-4)))
          CFI ?BRET_EXT load(1, XDATA, add(CFA_XSP16, literal(-3)))
          CFI DPL0 load(1, XDATA, add(CFA_XSP16, literal(-2)))
          CFI DPH0 load(1, XDATA, add(CFA_XSP16, literal(-1)))
          CFI CFA_SP SP+-2
          CFI CFA_XSP16 add(XSP16, 9)
          CFI Block cfiCond265 Using cfiCommon0
          CFI (cfiCond265) Function ZDSecMgrAppKeyReq
          CFI (cfiCond265) Conditional ??CrossCallReturnLabel_150
          CFI (cfiCond265) R6 load(1, XDATA, add(CFA_XSP16, literal(-12)))
          CFI (cfiCond265) VB load(1, XDATA, add(CFA_XSP16, literal(-11)))
          CFI (cfiCond265) V0 load(1, XDATA, add(CFA_XSP16, literal(-10)))
          CFI (cfiCond265) V1 load(1, XDATA, add(CFA_XSP16, literal(-9)))
          CFI (cfiCond265) V2 load(1, XDATA, add(CFA_XSP16, literal(-8)))
          CFI (cfiCond265) V3 load(1, XDATA, add(CFA_XSP16, literal(-7)))
          CFI (cfiCond265) R7 load(1, XDATA, add(CFA_XSP16, literal(-6)))
          CFI (cfiCond265) ?RET_LOW load(1, XDATA, add(CFA_XSP16, literal(-5)))
          CFI (cfiCond265) ?RET_HIGH load(1, XDATA, add(CFA_XSP16, literal(-4)))
          CFI (cfiCond265) ?BRET_EXT load(1, XDATA, add(CFA_XSP16, literal(-3)))
          CFI (cfiCond265) DPL0 load(1, XDATA, add(CFA_XSP16, literal(-2)))
          CFI (cfiCond265) DPH0 load(1, XDATA, add(CFA_XSP16, literal(-1)))
          CFI (cfiCond265) CFA_SP SP+-2
          CFI (cfiCond265) CFA_XSP16 add(XSP16, 51)
          CFI Block cfiCond266 Using cfiCommon0
          CFI (cfiCond266) Function ZDSecMgrAppKeyReq
          CFI (cfiCond266) Conditional ??CrossCallReturnLabel_151
          CFI (cfiCond266) R6 load(1, XDATA, add(CFA_XSP16, literal(-12)))
          CFI (cfiCond266) VB load(1, XDATA, add(CFA_XSP16, literal(-11)))
          CFI (cfiCond266) V0 load(1, XDATA, add(CFA_XSP16, literal(-10)))
          CFI (cfiCond266) V1 load(1, XDATA, add(CFA_XSP16, literal(-9)))
          CFI (cfiCond266) V2 load(1, XDATA, add(CFA_XSP16, literal(-8)))
          CFI (cfiCond266) V3 load(1, XDATA, add(CFA_XSP16, literal(-7)))
          CFI (cfiCond266) R7 load(1, XDATA, add(CFA_XSP16, literal(-6)))
          CFI (cfiCond266) ?RET_LOW load(1, XDATA, add(CFA_XSP16, literal(-5)))
          CFI (cfiCond266) ?RET_HIGH load(1, XDATA, add(CFA_XSP16, literal(-4)))
          CFI (cfiCond266) ?BRET_EXT load(1, XDATA, add(CFA_XSP16, literal(-3)))
          CFI (cfiCond266) DPL0 load(1, XDATA, add(CFA_XSP16, literal(-2)))
          CFI (cfiCond266) DPH0 load(1, XDATA, add(CFA_XSP16, literal(-1)))
          CFI (cfiCond266) CFA_SP SP+-2
          CFI (cfiCond266) CFA_XSP16 add(XSP16, 51)
          CFI Block cfiCond267 Using cfiCommon0
          CFI (cfiCond267) Function ZDSecMgrAppKeyReq
          CFI (cfiCond267) Conditional ??CrossCallReturnLabel_152
          CFI (cfiCond267) R6 load(1, XDATA, add(CFA_XSP16, literal(-12)))
          CFI (cfiCond267) VB load(1, XDATA, add(CFA_XSP16, literal(-11)))
          CFI (cfiCond267) V0 load(1, XDATA, add(CFA_XSP16, literal(-10)))
          CFI (cfiCond267) V1 load(1, XDATA, add(CFA_XSP16, literal(-9)))
          CFI (cfiCond267) V2 load(1, XDATA, add(CFA_XSP16, literal(-8)))
          CFI (cfiCond267) V3 load(1, XDATA, add(CFA_XSP16, literal(-7)))
          CFI (cfiCond267) R7 load(1, XDATA, add(CFA_XSP16, literal(-6)))
          CFI (cfiCond267) ?RET_LOW load(1, XDATA, add(CFA_XSP16, literal(-5)))
          CFI (cfiCond267) ?RET_HIGH load(1, XDATA, add(CFA_XSP16, literal(-4)))
          CFI (cfiCond267) ?BRET_EXT load(1, XDATA, add(CFA_XSP16, literal(-3)))
          CFI (cfiCond267) DPL0 load(1, XDATA, add(CFA_XSP16, literal(-2)))
          CFI (cfiCond267) DPH0 load(1, XDATA, add(CFA_XSP16, literal(-1)))
          CFI (cfiCond267) CFA_SP SP+-2
          CFI (cfiCond267) CFA_XSP16 add(XSP16, 51)
          CFI Block cfiCond268 Using cfiCommon0
          CFI (cfiCond268) Function ZDSecMgrEstablishKey
          CFI (cfiCond268) Conditional ??CrossCallReturnLabel_153
          CFI (cfiCond268) R6 load(1, XDATA, add(CFA_XSP16, literal(-10)))
          CFI (cfiCond268) VB load(1, XDATA, add(CFA_XSP16, literal(-9)))
          CFI (cfiCond268) V0 load(1, XDATA, add(CFA_XSP16, literal(-8)))
          CFI (cfiCond268) V1 load(1, XDATA, add(CFA_XSP16, literal(-7)))
          CFI (cfiCond268) R7 load(1, XDATA, add(CFA_XSP16, literal(-6)))
          CFI (cfiCond268) ?RET_LOW load(1, XDATA, add(CFA_XSP16, literal(-5)))
          CFI (cfiCond268) ?RET_HIGH load(1, XDATA, add(CFA_XSP16, literal(-4)))
          CFI (cfiCond268) ?BRET_EXT load(1, XDATA, add(CFA_XSP16, literal(-3)))
          CFI (cfiCond268) DPL0 load(1, XDATA, add(CFA_XSP16, literal(-2)))
          CFI (cfiCond268) DPH0 load(1, XDATA, add(CFA_XSP16, literal(-1)))
          CFI (cfiCond268) CFA_SP SP+-2
          CFI (cfiCond268) CFA_XSP16 add(XSP16, 17)
          CFI Block cfiCond269 Using cfiCommon0
          CFI (cfiCond269) Function ZDSecMgrSendMasterKey
          CFI (cfiCond269) Conditional ??CrossCallReturnLabel_154
          CFI (cfiCond269) R6 load(1, XDATA, add(CFA_XSP16, literal(-10)))
          CFI (cfiCond269) VB load(1, XDATA, add(CFA_XSP16, literal(-9)))
          CFI (cfiCond269) V0 load(1, XDATA, add(CFA_XSP16, literal(-8)))
          CFI (cfiCond269) V1 load(1, XDATA, add(CFA_XSP16, literal(-7)))
          CFI (cfiCond269) R7 load(1, XDATA, add(CFA_XSP16, literal(-6)))
          CFI (cfiCond269) ?RET_LOW load(1, XDATA, add(CFA_XSP16, literal(-5)))
          CFI (cfiCond269) ?RET_HIGH load(1, XDATA, add(CFA_XSP16, literal(-4)))
          CFI (cfiCond269) ?BRET_EXT load(1, XDATA, add(CFA_XSP16, literal(-3)))
          CFI (cfiCond269) DPL0 load(1, XDATA, add(CFA_XSP16, literal(-2)))
          CFI (cfiCond269) DPH0 load(1, XDATA, add(CFA_XSP16, literal(-1)))
          CFI (cfiCond269) CFA_SP SP+-2
          CFI (cfiCond269) CFA_XSP16 add(XSP16, 23)
          CFI Block cfiCond270 Using cfiCommon0
          CFI (cfiCond270) Function ZDSecMgrDeviceJoinFwd
          CFI (cfiCond270) Conditional ??CrossCallReturnLabel_155
          CFI (cfiCond270) DPL0 Frame(CFA_SP, 4)
          CFI (cfiCond270) DPH0 Frame(CFA_SP, 5)
          CFI (cfiCond270) CFA_SP SP+-7
          CFI (cfiCond270) CFA_XSP16 add(XSP16, 8)
          CFI Block cfiCond271 Using cfiCommon0
          CFI (cfiCond271) Function ZDSecMgrNewDeviceEvent
          CFI (cfiCond271) Conditional ??CrossCallReturnLabel_156
          CFI (cfiCond271) R6 load(1, XDATA, add(CFA_XSP16, literal(-12)))
          CFI (cfiCond271) VB load(1, XDATA, add(CFA_XSP16, literal(-11)))
          CFI (cfiCond271) V0 load(1, XDATA, add(CFA_XSP16, literal(-10)))
          CFI (cfiCond271) V1 load(1, XDATA, add(CFA_XSP16, literal(-9)))
          CFI (cfiCond271) V2 load(1, XDATA, add(CFA_XSP16, literal(-8)))
          CFI (cfiCond271) V3 load(1, XDATA, add(CFA_XSP16, literal(-7)))
          CFI (cfiCond271) R7 load(1, XDATA, add(CFA_XSP16, literal(-6)))
          CFI (cfiCond271) ?RET_LOW load(1, XDATA, add(CFA_XSP16, literal(-5)))
          CFI (cfiCond271) ?RET_HIGH load(1, XDATA, add(CFA_XSP16, literal(-4)))
          CFI (cfiCond271) ?BRET_EXT load(1, XDATA, add(CFA_XSP16, literal(-3)))
          CFI (cfiCond271) DPL0 load(1, XDATA, add(CFA_XSP16, literal(-2)))
          CFI (cfiCond271) DPH0 load(1, XDATA, add(CFA_XSP16, literal(-1)))
          CFI (cfiCond271) CFA_SP SP+-2
          CFI (cfiCond271) CFA_XSP16 add(XSP16, 35)
          CFI Block cfiCond272 Using cfiCommon0
          CFI (cfiCond272) Function ZDSecMgrEstablishKeyInd
          CFI (cfiCond272) Conditional ??CrossCallReturnLabel_157
          CFI (cfiCond272) R6 load(1, XDATA, add(CFA_XSP16, literal(-14)))
          CFI (cfiCond272) VB load(1, XDATA, add(CFA_XSP16, literal(-13)))
          CFI (cfiCond272) V0 load(1, XDATA, add(CFA_XSP16, literal(-12)))
          CFI (cfiCond272) V1 load(1, XDATA, add(CFA_XSP16, literal(-11)))
          CFI (cfiCond272) V2 load(1, XDATA, add(CFA_XSP16, literal(-10)))
          CFI (cfiCond272) V3 load(1, XDATA, add(CFA_XSP16, literal(-9)))
          CFI (cfiCond272) V4 load(1, XDATA, add(CFA_XSP16, literal(-8)))
          CFI (cfiCond272) V5 load(1, XDATA, add(CFA_XSP16, literal(-7)))
          CFI (cfiCond272) R7 load(1, XDATA, add(CFA_XSP16, literal(-6)))
          CFI (cfiCond272) ?RET_LOW load(1, XDATA, add(CFA_XSP16, literal(-5)))
          CFI (cfiCond272) ?RET_HIGH load(1, XDATA, add(CFA_XSP16, literal(-4)))
          CFI (cfiCond272) ?BRET_EXT load(1, XDATA, add(CFA_XSP16, literal(-3)))
          CFI (cfiCond272) DPL0 load(1, XDATA, add(CFA_XSP16, literal(-2)))
          CFI (cfiCond272) DPH0 load(1, XDATA, add(CFA_XSP16, literal(-1)))
          CFI (cfiCond272) CFA_SP SP+-2
          CFI (cfiCond272) CFA_XSP16 add(XSP16, 31)
          CFI Block cfiCond273 Using cfiCommon0
          CFI (cfiCond273) Function ZDSecMgrAuthenticateInd
          CFI (cfiCond273) Conditional ??CrossCallReturnLabel_158
          CFI (cfiCond273) R6 load(1, XDATA, add(CFA_XSP16, literal(-12)))
          CFI (cfiCond273) VB load(1, XDATA, add(CFA_XSP16, literal(-11)))
          CFI (cfiCond273) V0 load(1, XDATA, add(CFA_XSP16, literal(-10)))
          CFI (cfiCond273) V1 load(1, XDATA, add(CFA_XSP16, literal(-9)))
          CFI (cfiCond273) V2 load(1, XDATA, add(CFA_XSP16, literal(-8)))
          CFI (cfiCond273) V3 load(1, XDATA, add(CFA_XSP16, literal(-7)))
          CFI (cfiCond273) R7 load(1, XDATA, add(CFA_XSP16, literal(-6)))
          CFI (cfiCond273) ?RET_LOW load(1, XDATA, add(CFA_XSP16, literal(-5)))
          CFI (cfiCond273) ?RET_HIGH load(1, XDATA, add(CFA_XSP16, literal(-4)))
          CFI (cfiCond273) ?BRET_EXT load(1, XDATA, add(CFA_XSP16, literal(-3)))
          CFI (cfiCond273) DPL0 load(1, XDATA, add(CFA_XSP16, literal(-2)))
          CFI (cfiCond273) DPH0 load(1, XDATA, add(CFA_XSP16, literal(-1)))
          CFI (cfiCond273) CFA_SP SP+-2
          CFI (cfiCond273) CFA_XSP16 add(XSP16, 32)
          CFI Block cfiCond274 Using cfiCommon0
          CFI (cfiCond274) Function ZDSecMgrAddLinkKey
          CFI (cfiCond274) Conditional ??CrossCallReturnLabel_159
          CFI (cfiCond274) R6 load(1, XDATA, add(CFA_XSP16, literal(-10)))
          CFI (cfiCond274) VB load(1, XDATA, add(CFA_XSP16, literal(-9)))
          CFI (cfiCond274) V0 load(1, XDATA, add(CFA_XSP16, literal(-8)))
          CFI (cfiCond274) V1 load(1, XDATA, add(CFA_XSP16, literal(-7)))
          CFI (cfiCond274) R7 load(1, XDATA, add(CFA_XSP16, literal(-6)))
          CFI (cfiCond274) ?RET_LOW load(1, XDATA, add(CFA_XSP16, literal(-5)))
          CFI (cfiCond274) ?RET_HIGH load(1, XDATA, add(CFA_XSP16, literal(-4)))
          CFI (cfiCond274) ?BRET_EXT load(1, XDATA, add(CFA_XSP16, literal(-3)))
          CFI (cfiCond274) DPL0 load(1, XDATA, add(CFA_XSP16, literal(-2)))
          CFI (cfiCond274) DPH0 load(1, XDATA, add(CFA_XSP16, literal(-1)))
          CFI (cfiCond274) CFA_SP SP+-2
          CFI (cfiCond274) CFA_XSP16 add(XSP16, 14)
          CFI Block cfiCond275 Using cfiCommon0
          CFI (cfiCond275) Function ZDSecMgrNewDeviceEvent
          CFI (cfiCond275) Conditional ??CrossCallReturnLabel_160
          CFI (cfiCond275) R6 load(1, XDATA, add(CFA_XSP16, literal(-12)))
          CFI (cfiCond275) VB load(1, XDATA, add(CFA_XSP16, literal(-11)))
          CFI (cfiCond275) V0 load(1, XDATA, add(CFA_XSP16, literal(-10)))
          CFI (cfiCond275) V1 load(1, XDATA, add(CFA_XSP16, literal(-9)))
          CFI (cfiCond275) V2 load(1, XDATA, add(CFA_XSP16, literal(-8)))
          CFI (cfiCond275) V3 load(1, XDATA, add(CFA_XSP16, literal(-7)))
          CFI (cfiCond275) R7 load(1, XDATA, add(CFA_XSP16, literal(-6)))
          CFI (cfiCond275) ?RET_LOW load(1, XDATA, add(CFA_XSP16, literal(-5)))
          CFI (cfiCond275) ?RET_HIGH load(1, XDATA, add(CFA_XSP16, literal(-4)))
          CFI (cfiCond275) ?BRET_EXT load(1, XDATA, add(CFA_XSP16, literal(-3)))
          CFI (cfiCond275) DPL0 load(1, XDATA, add(CFA_XSP16, literal(-2)))
          CFI (cfiCond275) DPH0 load(1, XDATA, add(CFA_XSP16, literal(-1)))
          CFI (cfiCond275) CFA_SP SP+-2
          CFI (cfiCond275) CFA_XSP16 add(XSP16, 35)
          CFI Block cfiCond276 Using cfiCommon0
          CFI (cfiCond276) Function ZDSecMgrEvent
          CFI (cfiCond276) Conditional ??CrossCallReturnLabel_161
          CFI (cfiCond276) R6 load(1, XDATA, add(CFA_XSP16, literal(-10)))
          CFI (cfiCond276) VB load(1, XDATA, add(CFA_XSP16, literal(-9)))
          CFI (cfiCond276) V0 load(1, XDATA, add(CFA_XSP16, literal(-8)))
          CFI (cfiCond276) V1 load(1, XDATA, add(CFA_XSP16, literal(-7)))
          CFI (cfiCond276) R7 load(1, XDATA, add(CFA_XSP16, literal(-6)))
          CFI (cfiCond276) ?RET_LOW load(1, XDATA, add(CFA_XSP16, literal(-5)))
          CFI (cfiCond276) ?RET_HIGH load(1, XDATA, add(CFA_XSP16, literal(-4)))
          CFI (cfiCond276) ?BRET_EXT load(1, XDATA, add(CFA_XSP16, literal(-3)))
          CFI (cfiCond276) DPL0 load(1, XDATA, add(CFA_XSP16, literal(-2)))
          CFI (cfiCond276) DPH0 load(1, XDATA, add(CFA_XSP16, literal(-1)))
          CFI (cfiCond276) CFA_SP SP+-2
          CFI (cfiCond276) CFA_XSP16 add(XSP16, 33)
          CFI Block cfiCond277 Using cfiCommon0
          CFI (cfiCond277) Function ZDSecMgrUpdateDeviceInd
          CFI (cfiCond277) Conditional ??CrossCallReturnLabel_162
          CFI (cfiCond277) DPL0 Frame(CFA_SP, 4)
          CFI (cfiCond277) DPH0 Frame(CFA_SP, 5)
          CFI (cfiCond277) CFA_SP SP+-7
          CFI (cfiCond277) CFA_XSP16 add(XSP16, 10)
          CFI Block cfiPicker278 Using cfiCommon1
          CFI (cfiPicker278) NoFunction
          CFI (cfiPicker278) Picker
        LCALL     ??Subroutine97_0 & 0xFFFF
??CrossCallReturnLabel_190:
        RET
          CFI EndBlock cfiCond264
          CFI EndBlock cfiCond265
          CFI EndBlock cfiCond266
          CFI EndBlock cfiCond267
          CFI EndBlock cfiCond268
          CFI EndBlock cfiCond269
          CFI EndBlock cfiCond270
          CFI EndBlock cfiCond271
          CFI EndBlock cfiCond272
          CFI EndBlock cfiCond273
          CFI EndBlock cfiCond274
          CFI EndBlock cfiCond275
          CFI EndBlock cfiCond276
          CFI EndBlock cfiCond277
          CFI EndBlock cfiPicker278
// 2476 
// 2477 /******************************************************************************
// 2478  * @fn          ZDSecMgrEvent
// 2479  *
// 2480  * @brief       Handle ZDO Security Manager event/timer(ZDO_SECMGR_EVENT).
// 2481  *
// 2482  * @param       none
// 2483  *
// 2484  * @return      none
// 2485  */

        RSEG BANKED_CODE:HUGECODE:NOROOT(0)
// 2486 void ZDSecMgrEvent( void )
ZDSecMgrEvent:
          CFI Block cfiBlock279 Using cfiCommon0
          CFI Function ZDSecMgrEvent
        CODE
// 2487 {
        FUNCALL ZDSecMgrEvent, AddrMgrEntryGet
        LOCFRAME ISTACK, 0, STACK
        LOCFRAME PSTACK, 0, STACK
        LOCFRAME XSTACK, 33, STACK
        LOCFRAME IOVERLAY, 0, STATIC
        LOCFRAME DOVERLAY, 0, STATIC
        ARGFRAME ISTACK, 0, STACK
        ARGFRAME PSTACK, 0, STACK
        ARGFRAME XSTACK, 33, STACK
        ARGFRAME IOVERLAY, 0, STATIC
        ARGFRAME DOVERLAY, 0, STATIC
        FUNCALL ZDSecMgrEvent, ZDSecMgrDeviceCtrlHandler
        LOCFRAME ISTACK, 0, STACK
        LOCFRAME PSTACK, 0, STACK
        LOCFRAME XSTACK, 33, STACK
        LOCFRAME IOVERLAY, 0, STATIC
        LOCFRAME DOVERLAY, 0, STATIC
        ARGFRAME ISTACK, 0, STACK
        ARGFRAME PSTACK, 0, STACK
        ARGFRAME XSTACK, 33, STACK
        ARGFRAME IOVERLAY, 0, STATIC
        ARGFRAME DOVERLAY, 0, STATIC
        FUNCALL ZDSecMgrEvent, osal_start_timerEx
        LOCFRAME ISTACK, 0, STACK
        LOCFRAME PSTACK, 0, STACK
        LOCFRAME XSTACK, 33, STACK
        LOCFRAME IOVERLAY, 0, STATIC
        LOCFRAME DOVERLAY, 0, STATIC
        ARGFRAME ISTACK, 0, STACK
        ARGFRAME PSTACK, 0, STACK
        ARGFRAME XSTACK, 33, STACK
        ARGFRAME IOVERLAY, 0, STATIC
        ARGFRAME DOVERLAY, 0, STATIC
        REQUIRE ?V0
        REQUIRE ?V1
        MOV       A,#-0xa
        LCALL     ?BANKED_ENTER_XDATA
          CFI DPH0 load(1, XDATA, add(CFA_XSP16, literal(-1)))
          CFI DPL0 load(1, XDATA, add(CFA_XSP16, literal(-2)))
          CFI ?BRET_EXT load(1, XDATA, add(CFA_XSP16, literal(-3)))
          CFI ?RET_HIGH load(1, XDATA, add(CFA_XSP16, literal(-4)))
          CFI ?RET_LOW load(1, XDATA, add(CFA_XSP16, literal(-5)))
          CFI R7 load(1, XDATA, add(CFA_XSP16, literal(-6)))
          CFI V1 load(1, XDATA, add(CFA_XSP16, literal(-7)))
          CFI V0 load(1, XDATA, add(CFA_XSP16, literal(-8)))
          CFI VB load(1, XDATA, add(CFA_XSP16, literal(-9)))
          CFI R6 load(1, XDATA, add(CFA_XSP16, literal(-10)))
          CFI CFA_SP SP+0
          CFI CFA_XSP16 add(XSP16, 10)
        ; Saved register size: 10
        ; Auto size: 23
        MOV       A,#-0x17
        LCALL     ?ALLOC_XSTACK8
          CFI CFA_XSP16 add(XSP16, 33)
// 2488   uint8            action;
// 2489   uint8            restart;
// 2490   uint16           index;
// 2491   AddrMgrEntry_t   entry;
// 2492   ZDSecMgrDevice_t device;
// 2493 
// 2494 
// 2495   // verify data is available
// 2496   if ( ZDSecMgrCtrlData != NULL )
        MOV       DPTR,#ZDSecMgrCtrlData
        LCALL     ??Subroutine94_0 & 0xFFFF
??CrossCallReturnLabel_172:
        JNZ       $+5
        LJMP      ??ZDSecMgrEvent_0 & 0xFFFF
// 2497   {
// 2498     action  = FALSE;
        MOV       ?V1,#0x0
// 2499     restart = FALSE;
        MOV       ?V0,#0x0
// 2500 
// 2501     // update all the counters
// 2502     for ( index = 0; index < ZDSECMGR_ENTRY_MAX; index++ )
        MOV       R6,#0x0
        MOV       R7,#0x0
// 2503     {
// 2504       if ( ZDSecMgrCtrlData[index].state !=  ZDSECMGR_CTRL_NONE )
??ZDSecMgrEvent_1:
        MOV       A,R6
        MOV       R0,A
        MOV       A,R7
        MOV       R1,A
        MOV       A,R0
        MOV       B,#0x7
        MUL       AB
        MOV       R0,A
        MOV       R2,B
        MOV       B,#0x7
        MOV       A,R1
        MUL       AB
        ADD       A,R2
        MOV       R1,A
        MOV       DPTR,#ZDSecMgrCtrlData
        MOVX      A,@DPTR
        ADD       A,R0
        MOV       R2,A
        INC       DPTR
        MOVX      A,@DPTR
        ADDC      A,R1
        MOV       R3,A
        MOV       DPL,R2
        MOV       DPH,A
        INC       DPTR
        INC       DPTR
        INC       DPTR
        INC       DPTR
        INC       DPTR
        MOVX      A,@DPTR
        JNZ       $+5
        LJMP      ??ZDSecMgrEvent_2 & 0xFFFF
// 2505       {
// 2506         if ( ZDSecMgrCtrlData[index].cntr != 0 )
        MOV       A,R2
        ADD       A,#0x6
        MOV       DPL,A
        CLR       A
        ADDC      A,R3
        MOV       DPH,A
        MOVX      A,@DPTR
        JZ        ??ZDSecMgrEvent_3
// 2507         {
// 2508           ZDSecMgrCtrlData[index].cntr--;
        DEC       A
        MOVX      @DPTR,A
// 2509         }
// 2510 
// 2511         if ( ( action == FALSE ) && ( ZDSecMgrCtrlData[index].cntr == 0 ) )
??ZDSecMgrEvent_3:
        MOV       A,?V1
        MOV       C,0xE0 /* A   */.0
        JNC       $+5
        LJMP      ??ZDSecMgrEvent_4 & 0xFFFF
        MOV       DPTR,#ZDSecMgrCtrlData
        MOVX      A,@DPTR
        ADD       A,R0
        MOV       R0,A
        INC       DPTR
        MOVX      A,@DPTR
        ADDC      A,R1
        MOV       R1,A
        MOV       DPL,R0
        MOV       DPH,A
        INC       DPTR
        INC       DPTR
        INC       DPTR
        INC       DPTR
        INC       DPTR
        INC       DPTR
        MOVX      A,@DPTR
        JNZ       ??ZDSecMgrEvent_4
// 2512         {
// 2513           action = TRUE;
        MOV       ?V1,#0x1
// 2514 
// 2515           // update from control data
// 2516           device.parentAddr = ZDSecMgrCtrlData[index].parentAddr;
        MOV       DPL,R0
        MOV       DPH,R1
        INC       DPTR
        INC       DPTR
        LCALL     ??Subroutine85_0 & 0xFFFF
??CrossCallReturnLabel_133:
        MOV       A,#0x4
        LCALL     ?XSTACK_DISP0_8
        LCALL     ?Subroutine35 & 0xFFFF
// 2517           device.secure     = ZDSecMgrCtrlData[index].secure;
??CrossCallReturnLabel_34:
        MOV       DPL,R0
        MOV       DPH,R1
        INC       DPTR
        INC       DPTR
        INC       DPTR
        INC       DPTR
        MOVX      A,@DPTR
        PUSH      A
          CFI CFA_SP SP+-1
        MOV       A,#0x6
        LCALL     ?XSTACK_DISP0_8
        POP       A
          CFI CFA_SP SP+0
        MOVX      @DPTR,A
// 2518           device.ctrl       = &ZDSecMgrCtrlData[index];
        MOV       A,#0x8
        LCALL     ?XSTACK_DISP0_8
        LCALL     ??Subroutine95_0 & 0xFFFF
// 2519 
// 2520           // set the user and address index
// 2521           entry.user  = ADDRMGR_USER_SECURITY;
??CrossCallReturnLabel_181:
        LCALL     ?XSTACK_DISP0_8
        MOV       A,#0x2
        LCALL     ?Subroutine34 & 0xFFFF
// 2522           entry.index = ZDSecMgrCtrlData[index].entry->ami;
??CrossCallReturnLabel_28:
        MOV       DPH,A
        MOV       DPL,R0
        LCALL     ??Subroutine99_0 & 0xFFFF
??CrossCallReturnLabel_198:
        MOV       A,#0x15
        LCALL     ?XSTACK_DISP0_8
        LCALL     ??Subroutine95_0 & 0xFFFF
// 2523 
// 2524           // get the address data
// 2525           AddrMgrEntryGet( &entry );
??CrossCallReturnLabel_182:
        LCALL     ?XSTACK_DISP101_8
        LCALL     `??AddrMgrEntryGet::?relay`; Banked call to: AddrMgrEntryGet
// 2526 
// 2527           // set device address data
// 2528           device.nwkAddr = entry.nwkAddr;
        MOV       A,#0xb
        LCALL     ?XSTACK_DISP0_8
        LCALL     ?Subroutine31 & 0xFFFF
// 2529           device.extAddr = entry.extAddr;
??CrossCallReturnLabel_161:
        MOV       A,#0xd
        LCALL     ?XSTACK_DISP0_8
        MOV       R0,DPL
        MOV       R1,DPH
        MOV       A,#0x2
        LCALL     ?XSTACK_DISP0_8
        LCALL     ?Subroutine17 & 0xFFFF
// 2530 
// 2531           // update from entry data
// 2532           ZDSecMgrDeviceCtrlHandler( &device );
// 2533         }
??CrossCallReturnLabel_0:
        LCALL     `??ZDSecMgrDeviceCtrlHandler::?relay`; Banked call to: ZDSecMgrDeviceCtrlHandler
        SJMP      ??ZDSecMgrEvent_2
// 2534         else
// 2535         {
// 2536           restart = TRUE;
??ZDSecMgrEvent_4:
        MOV       ?V0,#0x1
// 2537         }
// 2538       }
// 2539     }
??ZDSecMgrEvent_2:
        INC       R6
        MOV       A,R6
        JNZ       ??ZDSecMgrEvent_5
        INC       R7
??ZDSecMgrEvent_5:
        CLR       C
        SUBB      A,#0x3
        MOV       A,R7
        SUBB      A,#0x0
        JNC       $+5
        LJMP      ??ZDSecMgrEvent_1 & 0xFFFF
// 2540 
// 2541     // check for timer restart
// 2542     if ( restart == TRUE )
        MOV       A,?V0
        MOV       C,0xE0 /* A   */.0
        JNC       ??ZDSecMgrEvent_0
// 2543     {
// 2544       osal_start_timerEx(ZDAppTaskID, ZDO_SECMGR_EVENT, 100 );
        ; Setup parameters for call to function osal_start_timerEx
        MOV       R4,#0x64
        MOV       R5,#0x0
        MOV       R2,#0x0
        MOV       R3,#0x1
        MOV       DPTR,#ZDAppTaskID
        MOVX      A,@DPTR
        MOV       R1,A
        LCALL     `??osal_start_timerEx::?relay`; Banked call to: osal_start_timerEx
// 2545     }
// 2546   }
// 2547 }
??ZDSecMgrEvent_0:
        MOV       A,#0x17
        LJMP      ??Subroutine101_0 & 0xFFFF
          CFI EndBlock cfiBlock279

        RSEG BANKED_CODE:HUGECODE:NOROOT(0)
?Subroutine37:
          CFI Block cfiCond280 Using cfiCommon0
          CFI Function ZDSecMgrCtrlReset
          CFI Conditional ??CrossCallReturnLabel_163
          CFI R6 load(1, XDATA, add(CFA_XSP16, literal(-10)))
          CFI VB load(1, XDATA, add(CFA_XSP16, literal(-9)))
          CFI V0 load(1, XDATA, add(CFA_XSP16, literal(-8)))
          CFI V1 load(1, XDATA, add(CFA_XSP16, literal(-7)))
          CFI R7 load(1, XDATA, add(CFA_XSP16, literal(-6)))
          CFI ?RET_LOW load(1, XDATA, add(CFA_XSP16, literal(-5)))
          CFI ?RET_HIGH load(1, XDATA, add(CFA_XSP16, literal(-4)))
          CFI ?BRET_EXT load(1, XDATA, add(CFA_XSP16, literal(-3)))
          CFI DPL0 load(1, XDATA, add(CFA_XSP16, literal(-2)))
          CFI DPH0 load(1, XDATA, add(CFA_XSP16, literal(-1)))
          CFI CFA_SP SP+-2
          CFI CFA_XSP16 add(XSP16, 12)
          CFI Block cfiCond281 Using cfiCommon0
          CFI (cfiCond281) Function ZDSecMgrDeviceCtrlUpdate
          CFI (cfiCond281) Conditional ??CrossCallReturnLabel_164
          CFI (cfiCond281) R6 load(1, XDATA, add(CFA_XSP16, literal(-9)))
          CFI (cfiCond281) VB load(1, XDATA, add(CFA_XSP16, literal(-8)))
          CFI (cfiCond281) V0 load(1, XDATA, add(CFA_XSP16, literal(-7)))
          CFI (cfiCond281) R7 load(1, XDATA, add(CFA_XSP16, literal(-6)))
          CFI (cfiCond281) ?RET_LOW load(1, XDATA, add(CFA_XSP16, literal(-5)))
          CFI (cfiCond281) ?RET_HIGH load(1, XDATA, add(CFA_XSP16, literal(-4)))
          CFI (cfiCond281) ?BRET_EXT load(1, XDATA, add(CFA_XSP16, literal(-3)))
          CFI (cfiCond281) DPL0 load(1, XDATA, add(CFA_XSP16, literal(-2)))
          CFI (cfiCond281) DPH0 load(1, XDATA, add(CFA_XSP16, literal(-1)))
          CFI (cfiCond281) CFA_SP SP+-2
          CFI (cfiCond281) CFA_XSP16 add(XSP16, 13)
          CFI Block cfiPicker282 Using cfiCommon1
          CFI (cfiPicker282) NoFunction
          CFI (cfiPicker282) Picker
        MOV       R3,A
          CFI EndBlock cfiCond280
          CFI EndBlock cfiCond281
          CFI EndBlock cfiPicker282
        REQUIRE ??Subroutine92_0
        ; // Fall through to label ??Subroutine92_0

        RSEG BANKED_CODE:HUGECODE:NOROOT(0)
??Subroutine92_0:
          CFI Block cfiCond283 Using cfiCommon0
          CFI Function ZDSecMgrCtrlTerm
          CFI Conditional ??CrossCallReturnLabel_165
          CFI DPL0 Frame(CFA_SP, 4)
          CFI DPH0 Frame(CFA_SP, 5)
          CFI CFA_SP SP+-7
          CFI CFA_XSP16 add(XSP16, 2)
          CFI Block cfiCond284 Using cfiCommon0
          CFI (cfiCond284) Function ZDSecMgrCtrlReset
          CFI (cfiCond284) Conditional ??CrossCallReturnLabel_163
          CFI (cfiCond284) R6 load(1, XDATA, add(CFA_XSP16, literal(-10)))
          CFI (cfiCond284) VB load(1, XDATA, add(CFA_XSP16, literal(-9)))
          CFI (cfiCond284) V0 load(1, XDATA, add(CFA_XSP16, literal(-8)))
          CFI (cfiCond284) V1 load(1, XDATA, add(CFA_XSP16, literal(-7)))
          CFI (cfiCond284) R7 load(1, XDATA, add(CFA_XSP16, literal(-6)))
          CFI (cfiCond284) ?RET_LOW load(1, XDATA, add(CFA_XSP16, literal(-5)))
          CFI (cfiCond284) ?RET_HIGH load(1, XDATA, add(CFA_XSP16, literal(-4)))
          CFI (cfiCond284) ?BRET_EXT load(1, XDATA, add(CFA_XSP16, literal(-3)))
          CFI (cfiCond284) DPL0 load(1, XDATA, add(CFA_XSP16, literal(-2)))
          CFI (cfiCond284) DPH0 load(1, XDATA, add(CFA_XSP16, literal(-1)))
          CFI (cfiCond284) CFA_SP SP+-2
          CFI (cfiCond284) CFA_XSP16 add(XSP16, 12)
          CFI Block cfiCond285 Using cfiCommon0
          CFI (cfiCond285) Function ZDSecMgrDeviceCtrlUpdate
          CFI (cfiCond285) Conditional ??CrossCallReturnLabel_164
          CFI (cfiCond285) R6 load(1, XDATA, add(CFA_XSP16, literal(-9)))
          CFI (cfiCond285) VB load(1, XDATA, add(CFA_XSP16, literal(-8)))
          CFI (cfiCond285) V0 load(1, XDATA, add(CFA_XSP16, literal(-7)))
          CFI (cfiCond285) R7 load(1, XDATA, add(CFA_XSP16, literal(-6)))
          CFI (cfiCond285) ?RET_LOW load(1, XDATA, add(CFA_XSP16, literal(-5)))
          CFI (cfiCond285) ?RET_HIGH load(1, XDATA, add(CFA_XSP16, literal(-4)))
          CFI (cfiCond285) ?BRET_EXT load(1, XDATA, add(CFA_XSP16, literal(-3)))
          CFI (cfiCond285) DPL0 load(1, XDATA, add(CFA_XSP16, literal(-2)))
          CFI (cfiCond285) DPH0 load(1, XDATA, add(CFA_XSP16, literal(-1)))
          CFI (cfiCond285) CFA_SP SP+-2
          CFI (cfiCond285) CFA_XSP16 add(XSP16, 13)
          CFI Block cfiPicker286 Using cfiCommon1
          CFI (cfiPicker286) NoFunction
          CFI (cfiPicker286) Picker
        LCALL     `??ZDSecMgrCtrlLookup::?relay`; Banked call to: ZDSecMgrCtrlLookup
          CFI EndBlock cfiCond283
          CFI EndBlock cfiCond284
          CFI EndBlock cfiCond285
          CFI EndBlock cfiPicker286
        REQUIRE ??Subroutine93_0
        ; // Fall through to label ??Subroutine93_0

        RSEG BANKED_CODE:HUGECODE:NOROOT(0)
??Subroutine93_0:
          CFI Block cfiCond287 Using cfiCommon0
          CFI Function ZDSecMgrDeviceEntryAdd
          CFI Conditional ??CrossCallReturnLabel_175
          CFI R6 load(1, XDATA, add(CFA_XSP16, literal(-12)))
          CFI VB load(1, XDATA, add(CFA_XSP16, literal(-11)))
          CFI V0 load(1, XDATA, add(CFA_XSP16, literal(-10)))
          CFI V1 load(1, XDATA, add(CFA_XSP16, literal(-9)))
          CFI V2 load(1, XDATA, add(CFA_XSP16, literal(-8)))
          CFI V3 load(1, XDATA, add(CFA_XSP16, literal(-7)))
          CFI R7 load(1, XDATA, add(CFA_XSP16, literal(-6)))
          CFI ?RET_LOW load(1, XDATA, add(CFA_XSP16, literal(-5)))
          CFI ?RET_HIGH load(1, XDATA, add(CFA_XSP16, literal(-4)))
          CFI ?BRET_EXT load(1, XDATA, add(CFA_XSP16, literal(-3)))
          CFI DPL0 load(1, XDATA, add(CFA_XSP16, literal(-2)))
          CFI DPH0 load(1, XDATA, add(CFA_XSP16, literal(-1)))
          CFI CFA_SP SP+-2
          CFI CFA_XSP16 add(XSP16, 14)
          CFI Block cfiCond288 Using cfiCommon0
          CFI (cfiCond288) Function ZDSecMgrAddLinkKey
          CFI (cfiCond288) Conditional ??CrossCallReturnLabel_176
          CFI (cfiCond288) R6 load(1, XDATA, add(CFA_XSP16, literal(-10)))
          CFI (cfiCond288) VB load(1, XDATA, add(CFA_XSP16, literal(-9)))
          CFI (cfiCond288) V0 load(1, XDATA, add(CFA_XSP16, literal(-8)))
          CFI (cfiCond288) V1 load(1, XDATA, add(CFA_XSP16, literal(-7)))
          CFI (cfiCond288) R7 load(1, XDATA, add(CFA_XSP16, literal(-6)))
          CFI (cfiCond288) ?RET_LOW load(1, XDATA, add(CFA_XSP16, literal(-5)))
          CFI (cfiCond288) ?RET_HIGH load(1, XDATA, add(CFA_XSP16, literal(-4)))
          CFI (cfiCond288) ?BRET_EXT load(1, XDATA, add(CFA_XSP16, literal(-3)))
          CFI (cfiCond288) DPL0 load(1, XDATA, add(CFA_XSP16, literal(-2)))
          CFI (cfiCond288) DPH0 load(1, XDATA, add(CFA_XSP16, literal(-1)))
          CFI (cfiCond288) CFA_SP SP+-2
          CFI (cfiCond288) CFA_XSP16 add(XSP16, 14)
          CFI Block cfiCond289 Using cfiCommon0
          CFI (cfiCond289) Function ZDSecMgrCtrlTerm
          CFI (cfiCond289) Conditional ??CrossCallReturnLabel_165
          CFI (cfiCond289) DPL0 Frame(CFA_SP, 4)
          CFI (cfiCond289) DPH0 Frame(CFA_SP, 5)
          CFI (cfiCond289) CFA_SP SP+-7
          CFI (cfiCond289) CFA_XSP16 add(XSP16, 2)
          CFI Block cfiCond290 Using cfiCommon0
          CFI (cfiCond290) Function ZDSecMgrCtrlReset
          CFI (cfiCond290) Conditional ??CrossCallReturnLabel_163
          CFI (cfiCond290) R6 load(1, XDATA, add(CFA_XSP16, literal(-10)))
          CFI (cfiCond290) VB load(1, XDATA, add(CFA_XSP16, literal(-9)))
          CFI (cfiCond290) V0 load(1, XDATA, add(CFA_XSP16, literal(-8)))
          CFI (cfiCond290) V1 load(1, XDATA, add(CFA_XSP16, literal(-7)))
          CFI (cfiCond290) R7 load(1, XDATA, add(CFA_XSP16, literal(-6)))
          CFI (cfiCond290) ?RET_LOW load(1, XDATA, add(CFA_XSP16, literal(-5)))
          CFI (cfiCond290) ?RET_HIGH load(1, XDATA, add(CFA_XSP16, literal(-4)))
          CFI (cfiCond290) ?BRET_EXT load(1, XDATA, add(CFA_XSP16, literal(-3)))
          CFI (cfiCond290) DPL0 load(1, XDATA, add(CFA_XSP16, literal(-2)))
          CFI (cfiCond290) DPH0 load(1, XDATA, add(CFA_XSP16, literal(-1)))
          CFI (cfiCond290) CFA_SP SP+-2
          CFI (cfiCond290) CFA_XSP16 add(XSP16, 12)
          CFI Block cfiCond291 Using cfiCommon0
          CFI (cfiCond291) Function ZDSecMgrDeviceCtrlUpdate
          CFI (cfiCond291) Conditional ??CrossCallReturnLabel_164
          CFI (cfiCond291) R6 load(1, XDATA, add(CFA_XSP16, literal(-9)))
          CFI (cfiCond291) VB load(1, XDATA, add(CFA_XSP16, literal(-8)))
          CFI (cfiCond291) V0 load(1, XDATA, add(CFA_XSP16, literal(-7)))
          CFI (cfiCond291) R7 load(1, XDATA, add(CFA_XSP16, literal(-6)))
          CFI (cfiCond291) ?RET_LOW load(1, XDATA, add(CFA_XSP16, literal(-5)))
          CFI (cfiCond291) ?RET_HIGH load(1, XDATA, add(CFA_XSP16, literal(-4)))
          CFI (cfiCond291) ?BRET_EXT load(1, XDATA, add(CFA_XSP16, literal(-3)))
          CFI (cfiCond291) DPL0 load(1, XDATA, add(CFA_XSP16, literal(-2)))
          CFI (cfiCond291) DPH0 load(1, XDATA, add(CFA_XSP16, literal(-1)))
          CFI (cfiCond291) CFA_SP SP+-2
          CFI (cfiCond291) CFA_XSP16 add(XSP16, 13)
          CFI Block cfiPicker292 Using cfiCommon1
          CFI (cfiPicker292) NoFunction
          CFI (cfiPicker292) Picker
        MOV       DPL,?XSP + 0
        MOV       DPH,?XSP + 1
          CFI EndBlock cfiCond287
          CFI EndBlock cfiCond288
          CFI EndBlock cfiCond289
          CFI EndBlock cfiCond290
          CFI EndBlock cfiCond291
          CFI EndBlock cfiPicker292
        REQUIRE ??Subroutine94_0
        ; // Fall through to label ??Subroutine94_0

        RSEG BANKED_CODE:HUGECODE:NOROOT(0)
??Subroutine94_0:
          CFI Block cfiCond293 Using cfiCommon0
          CFI Function ZDSecMgrMasterKeyLookup
          CFI Conditional ??CrossCallReturnLabel_166
          CFI R6 load(1, XDATA, add(CFA_XSP16, literal(-10)))
          CFI VB load(1, XDATA, add(CFA_XSP16, literal(-9)))
          CFI V0 load(1, XDATA, add(CFA_XSP16, literal(-8)))
          CFI V1 load(1, XDATA, add(CFA_XSP16, literal(-7)))
          CFI R7 load(1, XDATA, add(CFA_XSP16, literal(-6)))
          CFI ?RET_LOW load(1, XDATA, add(CFA_XSP16, literal(-5)))
          CFI ?RET_HIGH load(1, XDATA, add(CFA_XSP16, literal(-4)))
          CFI ?BRET_EXT load(1, XDATA, add(CFA_XSP16, literal(-3)))
          CFI DPL0 load(1, XDATA, add(CFA_XSP16, literal(-2)))
          CFI DPH0 load(1, XDATA, add(CFA_XSP16, literal(-1)))
          CFI CFA_SP SP+-2
          CFI CFA_XSP16 add(XSP16, 10)
          CFI Block cfiCond294 Using cfiCommon0
          CFI (cfiCond294) Function ZDSecMgrMasterKeyStore
          CFI (cfiCond294) Conditional ??CrossCallReturnLabel_167
          CFI (cfiCond294) R6 load(1, XDATA, add(CFA_XSP16, literal(-14)))
          CFI (cfiCond294) VB load(1, XDATA, add(CFA_XSP16, literal(-13)))
          CFI (cfiCond294) V0 load(1, XDATA, add(CFA_XSP16, literal(-12)))
          CFI (cfiCond294) V1 load(1, XDATA, add(CFA_XSP16, literal(-11)))
          CFI (cfiCond294) V2 load(1, XDATA, add(CFA_XSP16, literal(-10)))
          CFI (cfiCond294) V3 load(1, XDATA, add(CFA_XSP16, literal(-9)))
          CFI (cfiCond294) V4 load(1, XDATA, add(CFA_XSP16, literal(-8)))
          CFI (cfiCond294) V5 load(1, XDATA, add(CFA_XSP16, literal(-7)))
          CFI (cfiCond294) R7 load(1, XDATA, add(CFA_XSP16, literal(-6)))
          CFI (cfiCond294) ?RET_LOW load(1, XDATA, add(CFA_XSP16, literal(-5)))
          CFI (cfiCond294) ?RET_HIGH load(1, XDATA, add(CFA_XSP16, literal(-4)))
          CFI (cfiCond294) ?BRET_EXT load(1, XDATA, add(CFA_XSP16, literal(-3)))
          CFI (cfiCond294) DPL0 load(1, XDATA, add(CFA_XSP16, literal(-2)))
          CFI (cfiCond294) DPH0 load(1, XDATA, add(CFA_XSP16, literal(-1)))
          CFI (cfiCond294) CFA_SP SP+-2
          CFI (cfiCond294) CFA_XSP16 add(XSP16, 14)
          CFI Block cfiCond295 Using cfiCommon0
          CFI (cfiCond295) Function ZDSecMgrCtrlLookup
          CFI (cfiCond295) Conditional ??CrossCallReturnLabel_168
          CFI (cfiCond295) R6 load(1, XDATA, add(CFA_XSP16, literal(-10)))
          CFI (cfiCond295) VB load(1, XDATA, add(CFA_XSP16, literal(-9)))
          CFI (cfiCond295) V0 load(1, XDATA, add(CFA_XSP16, literal(-8)))
          CFI (cfiCond295) V1 load(1, XDATA, add(CFA_XSP16, literal(-7)))
          CFI (cfiCond295) R7 load(1, XDATA, add(CFA_XSP16, literal(-6)))
          CFI (cfiCond295) ?RET_LOW load(1, XDATA, add(CFA_XSP16, literal(-5)))
          CFI (cfiCond295) ?RET_HIGH load(1, XDATA, add(CFA_XSP16, literal(-4)))
          CFI (cfiCond295) ?BRET_EXT load(1, XDATA, add(CFA_XSP16, literal(-3)))
          CFI (cfiCond295) DPL0 load(1, XDATA, add(CFA_XSP16, literal(-2)))
          CFI (cfiCond295) DPH0 load(1, XDATA, add(CFA_XSP16, literal(-1)))
          CFI (cfiCond295) CFA_SP SP+-2
          CFI (cfiCond295) CFA_XSP16 add(XSP16, 10)
          CFI Block cfiCond296 Using cfiCommon0
          CFI (cfiCond296) Function ZDSecMgrCtrlAdd
          CFI (cfiCond296) Conditional ??CrossCallReturnLabel_169
          CFI (cfiCond296) R6 load(1, XDATA, add(CFA_XSP16, literal(-12)))
          CFI (cfiCond296) VB load(1, XDATA, add(CFA_XSP16, literal(-11)))
          CFI (cfiCond296) V0 load(1, XDATA, add(CFA_XSP16, literal(-10)))
          CFI (cfiCond296) V1 load(1, XDATA, add(CFA_XSP16, literal(-9)))
          CFI (cfiCond296) V2 load(1, XDATA, add(CFA_XSP16, literal(-8)))
          CFI (cfiCond296) V3 load(1, XDATA, add(CFA_XSP16, literal(-7)))
          CFI (cfiCond296) R7 load(1, XDATA, add(CFA_XSP16, literal(-6)))
          CFI (cfiCond296) ?RET_LOW load(1, XDATA, add(CFA_XSP16, literal(-5)))
          CFI (cfiCond296) ?RET_HIGH load(1, XDATA, add(CFA_XSP16, literal(-4)))
          CFI (cfiCond296) ?BRET_EXT load(1, XDATA, add(CFA_XSP16, literal(-3)))
          CFI (cfiCond296) DPL0 load(1, XDATA, add(CFA_XSP16, literal(-2)))
          CFI (cfiCond296) DPH0 load(1, XDATA, add(CFA_XSP16, literal(-1)))
          CFI (cfiCond296) CFA_SP SP+-2
          CFI (cfiCond296) CFA_XSP16 add(XSP16, 12)
          CFI Block cfiCond297 Using cfiCommon0
          CFI (cfiCond297) Function ZDSecMgrDeviceCtrlSetup
          CFI (cfiCond297) Conditional ??CrossCallReturnLabel_170
          CFI (cfiCond297) DPL0 Frame(CFA_SP, 4)
          CFI (cfiCond297) DPH0 Frame(CFA_SP, 5)
          CFI (cfiCond297) CFA_SP SP+-7
          CFI Block cfiCond298 Using cfiCommon0
          CFI (cfiCond298) Function ZDSecMgrDeviceCtrlUpdate
          CFI (cfiCond298) Conditional ??CrossCallReturnLabel_171
          CFI (cfiCond298) R6 load(1, XDATA, add(CFA_XSP16, literal(-9)))
          CFI (cfiCond298) VB load(1, XDATA, add(CFA_XSP16, literal(-8)))
          CFI (cfiCond298) V0 load(1, XDATA, add(CFA_XSP16, literal(-7)))
          CFI (cfiCond298) R7 load(1, XDATA, add(CFA_XSP16, literal(-6)))
          CFI (cfiCond298) ?RET_LOW load(1, XDATA, add(CFA_XSP16, literal(-5)))
          CFI (cfiCond298) ?RET_HIGH load(1, XDATA, add(CFA_XSP16, literal(-4)))
          CFI (cfiCond298) ?BRET_EXT load(1, XDATA, add(CFA_XSP16, literal(-3)))
          CFI (cfiCond298) DPL0 load(1, XDATA, add(CFA_XSP16, literal(-2)))
          CFI (cfiCond298) DPH0 load(1, XDATA, add(CFA_XSP16, literal(-1)))
          CFI (cfiCond298) CFA_SP SP+-2
          CFI (cfiCond298) CFA_XSP16 add(XSP16, 13)
          CFI Block cfiCond299 Using cfiCommon0
          CFI (cfiCond299) Function ZDSecMgrEvent
          CFI (cfiCond299) Conditional ??CrossCallReturnLabel_172
          CFI (cfiCond299) R6 load(1, XDATA, add(CFA_XSP16, literal(-10)))
          CFI (cfiCond299) VB load(1, XDATA, add(CFA_XSP16, literal(-9)))
          CFI (cfiCond299) V0 load(1, XDATA, add(CFA_XSP16, literal(-8)))
          CFI (cfiCond299) V1 load(1, XDATA, add(CFA_XSP16, literal(-7)))
          CFI (cfiCond299) R7 load(1, XDATA, add(CFA_XSP16, literal(-6)))
          CFI (cfiCond299) ?RET_LOW load(1, XDATA, add(CFA_XSP16, literal(-5)))
          CFI (cfiCond299) ?RET_HIGH load(1, XDATA, add(CFA_XSP16, literal(-4)))
          CFI (cfiCond299) ?BRET_EXT load(1, XDATA, add(CFA_XSP16, literal(-3)))
          CFI (cfiCond299) DPL0 load(1, XDATA, add(CFA_XSP16, literal(-2)))
          CFI (cfiCond299) DPH0 load(1, XDATA, add(CFA_XSP16, literal(-1)))
          CFI (cfiCond299) CFA_SP SP+-2
          CFI (cfiCond299) CFA_XSP16 add(XSP16, 33)
          CFI Block cfiCond300 Using cfiCommon0
          CFI (cfiCond300) Function ZDSecMgrRemoveDeviceInd
          CFI (cfiCond300) Conditional ??CrossCallReturnLabel_173
          CFI (cfiCond300) R6 load(1, XDATA, add(CFA_XSP16, literal(-9)))
          CFI (cfiCond300) VB load(1, XDATA, add(CFA_XSP16, literal(-8)))
          CFI (cfiCond300) V0 load(1, XDATA, add(CFA_XSP16, literal(-7)))
          CFI (cfiCond300) R7 load(1, XDATA, add(CFA_XSP16, literal(-6)))
          CFI (cfiCond300) ?RET_LOW load(1, XDATA, add(CFA_XSP16, literal(-5)))
          CFI (cfiCond300) ?RET_HIGH load(1, XDATA, add(CFA_XSP16, literal(-4)))
          CFI (cfiCond300) ?BRET_EXT load(1, XDATA, add(CFA_XSP16, literal(-3)))
          CFI (cfiCond300) DPL0 load(1, XDATA, add(CFA_XSP16, literal(-2)))
          CFI (cfiCond300) DPH0 load(1, XDATA, add(CFA_XSP16, literal(-1)))
          CFI (cfiCond300) CFA_SP SP+-2
          CFI (cfiCond300) CFA_XSP16 add(XSP16, 19)
          CFI Block cfiCond301 Using cfiCommon0
          CFI (cfiCond301) Function APSME_KeyFwdToChild
          CFI (cfiCond301) Conditional ??CrossCallReturnLabel_174
          CFI (cfiCond301) R6 load(1, XDATA, add(CFA_XSP16, literal(-10)))
          CFI (cfiCond301) VB load(1, XDATA, add(CFA_XSP16, literal(-9)))
          CFI (cfiCond301) V0 load(1, XDATA, add(CFA_XSP16, literal(-8)))
          CFI (cfiCond301) V1 load(1, XDATA, add(CFA_XSP16, literal(-7)))
          CFI (cfiCond301) R7 load(1, XDATA, add(CFA_XSP16, literal(-6)))
          CFI (cfiCond301) ?RET_LOW load(1, XDATA, add(CFA_XSP16, literal(-5)))
          CFI (cfiCond301) ?RET_HIGH load(1, XDATA, add(CFA_XSP16, literal(-4)))
          CFI (cfiCond301) ?BRET_EXT load(1, XDATA, add(CFA_XSP16, literal(-3)))
          CFI (cfiCond301) DPL0 load(1, XDATA, add(CFA_XSP16, literal(-2)))
          CFI (cfiCond301) DPH0 load(1, XDATA, add(CFA_XSP16, literal(-1)))
          CFI (cfiCond301) CFA_SP SP+-2
          CFI (cfiCond301) CFA_XSP16 add(XSP16, 10)
          CFI Block cfiCond302 Using cfiCommon0
          CFI (cfiCond302) Function ZDSecMgrDeviceEntryAdd
          CFI (cfiCond302) Conditional ??CrossCallReturnLabel_175
          CFI (cfiCond302) R6 load(1, XDATA, add(CFA_XSP16, literal(-12)))
          CFI (cfiCond302) VB load(1, XDATA, add(CFA_XSP16, literal(-11)))
          CFI (cfiCond302) V0 load(1, XDATA, add(CFA_XSP16, literal(-10)))
          CFI (cfiCond302) V1 load(1, XDATA, add(CFA_XSP16, literal(-9)))
          CFI (cfiCond302) V2 load(1, XDATA, add(CFA_XSP16, literal(-8)))
          CFI (cfiCond302) V3 load(1, XDATA, add(CFA_XSP16, literal(-7)))
          CFI (cfiCond302) R7 load(1, XDATA, add(CFA_XSP16, literal(-6)))
          CFI (cfiCond302) ?RET_LOW load(1, XDATA, add(CFA_XSP16, literal(-5)))
          CFI (cfiCond302) ?RET_HIGH load(1, XDATA, add(CFA_XSP16, literal(-4)))
          CFI (cfiCond302) ?BRET_EXT load(1, XDATA, add(CFA_XSP16, literal(-3)))
          CFI (cfiCond302) DPL0 load(1, XDATA, add(CFA_XSP16, literal(-2)))
          CFI (cfiCond302) DPH0 load(1, XDATA, add(CFA_XSP16, literal(-1)))
          CFI (cfiCond302) CFA_SP SP+-2
          CFI (cfiCond302) CFA_XSP16 add(XSP16, 14)
          CFI Block cfiCond303 Using cfiCommon0
          CFI (cfiCond303) Function ZDSecMgrAddLinkKey
          CFI (cfiCond303) Conditional ??CrossCallReturnLabel_176
          CFI (cfiCond303) R6 load(1, XDATA, add(CFA_XSP16, literal(-10)))
          CFI (cfiCond303) VB load(1, XDATA, add(CFA_XSP16, literal(-9)))
          CFI (cfiCond303) V0 load(1, XDATA, add(CFA_XSP16, literal(-8)))
          CFI (cfiCond303) V1 load(1, XDATA, add(CFA_XSP16, literal(-7)))
          CFI (cfiCond303) R7 load(1, XDATA, add(CFA_XSP16, literal(-6)))
          CFI (cfiCond303) ?RET_LOW load(1, XDATA, add(CFA_XSP16, literal(-5)))
          CFI (cfiCond303) ?RET_HIGH load(1, XDATA, add(CFA_XSP16, literal(-4)))
          CFI (cfiCond303) ?BRET_EXT load(1, XDATA, add(CFA_XSP16, literal(-3)))
          CFI (cfiCond303) DPL0 load(1, XDATA, add(CFA_XSP16, literal(-2)))
          CFI (cfiCond303) DPH0 load(1, XDATA, add(CFA_XSP16, literal(-1)))
          CFI (cfiCond303) CFA_SP SP+-2
          CFI (cfiCond303) CFA_XSP16 add(XSP16, 14)
          CFI Block cfiCond304 Using cfiCommon0
          CFI (cfiCond304) Function ZDSecMgrCtrlTerm
          CFI (cfiCond304) Conditional ??CrossCallReturnLabel_165
          CFI (cfiCond304) DPL0 Frame(CFA_SP, 4)
          CFI (cfiCond304) DPH0 Frame(CFA_SP, 5)
          CFI (cfiCond304) CFA_SP SP+-7
          CFI (cfiCond304) CFA_XSP16 add(XSP16, 2)
          CFI Block cfiCond305 Using cfiCommon0
          CFI (cfiCond305) Function ZDSecMgrCtrlReset
          CFI (cfiCond305) Conditional ??CrossCallReturnLabel_163
          CFI (cfiCond305) R6 load(1, XDATA, add(CFA_XSP16, literal(-10)))
          CFI (cfiCond305) VB load(1, XDATA, add(CFA_XSP16, literal(-9)))
          CFI (cfiCond305) V0 load(1, XDATA, add(CFA_XSP16, literal(-8)))
          CFI (cfiCond305) V1 load(1, XDATA, add(CFA_XSP16, literal(-7)))
          CFI (cfiCond305) R7 load(1, XDATA, add(CFA_XSP16, literal(-6)))
          CFI (cfiCond305) ?RET_LOW load(1, XDATA, add(CFA_XSP16, literal(-5)))
          CFI (cfiCond305) ?RET_HIGH load(1, XDATA, add(CFA_XSP16, literal(-4)))
          CFI (cfiCond305) ?BRET_EXT load(1, XDATA, add(CFA_XSP16, literal(-3)))
          CFI (cfiCond305) DPL0 load(1, XDATA, add(CFA_XSP16, literal(-2)))
          CFI (cfiCond305) DPH0 load(1, XDATA, add(CFA_XSP16, literal(-1)))
          CFI (cfiCond305) CFA_SP SP+-2
          CFI (cfiCond305) CFA_XSP16 add(XSP16, 12)
          CFI Block cfiCond306 Using cfiCommon0
          CFI (cfiCond306) Function ZDSecMgrDeviceCtrlUpdate
          CFI (cfiCond306) Conditional ??CrossCallReturnLabel_164
          CFI (cfiCond306) R6 load(1, XDATA, add(CFA_XSP16, literal(-9)))
          CFI (cfiCond306) VB load(1, XDATA, add(CFA_XSP16, literal(-8)))
          CFI (cfiCond306) V0 load(1, XDATA, add(CFA_XSP16, literal(-7)))
          CFI (cfiCond306) R7 load(1, XDATA, add(CFA_XSP16, literal(-6)))
          CFI (cfiCond306) ?RET_LOW load(1, XDATA, add(CFA_XSP16, literal(-5)))
          CFI (cfiCond306) ?RET_HIGH load(1, XDATA, add(CFA_XSP16, literal(-4)))
          CFI (cfiCond306) ?BRET_EXT load(1, XDATA, add(CFA_XSP16, literal(-3)))
          CFI (cfiCond306) DPL0 load(1, XDATA, add(CFA_XSP16, literal(-2)))
          CFI (cfiCond306) DPH0 load(1, XDATA, add(CFA_XSP16, literal(-1)))
          CFI (cfiCond306) CFA_SP SP+-2
          CFI (cfiCond306) CFA_XSP16 add(XSP16, 13)
          CFI Block cfiPicker307 Using cfiCommon1
          CFI (cfiPicker307) NoFunction
          CFI (cfiPicker307) Picker
        LCALL     ?Subroutine71 & 0xFFFF
??CrossCallReturnLabel_209:
        MOV       A,R0
        ORL       A,R1
        RET
          CFI EndBlock cfiCond293
          CFI EndBlock cfiCond294
          CFI EndBlock cfiCond295
          CFI EndBlock cfiCond296
          CFI EndBlock cfiCond297
          CFI EndBlock cfiCond298
          CFI EndBlock cfiCond299
          CFI EndBlock cfiCond300
          CFI EndBlock cfiCond301
          CFI EndBlock cfiCond302
          CFI EndBlock cfiCond303
          CFI EndBlock cfiCond304
          CFI EndBlock cfiCond305
          CFI EndBlock cfiCond306
          CFI EndBlock cfiPicker307

        RSEG BANKED_CODE:HUGECODE:NOROOT(0)
?Subroutine34:
          CFI Block cfiCond308 Using cfiCommon0
          CFI Function ZDSecMgrDeviceRemove
          CFI Conditional ??CrossCallReturnLabel_27
          CFI R6 load(1, XDATA, add(CFA_XSP16, literal(-10)))
          CFI VB load(1, XDATA, add(CFA_XSP16, literal(-9)))
          CFI V0 load(1, XDATA, add(CFA_XSP16, literal(-8)))
          CFI V1 load(1, XDATA, add(CFA_XSP16, literal(-7)))
          CFI R7 load(1, XDATA, add(CFA_XSP16, literal(-6)))
          CFI ?RET_LOW load(1, XDATA, add(CFA_XSP16, literal(-5)))
          CFI ?RET_HIGH load(1, XDATA, add(CFA_XSP16, literal(-4)))
          CFI ?BRET_EXT load(1, XDATA, add(CFA_XSP16, literal(-3)))
          CFI DPL0 load(1, XDATA, add(CFA_XSP16, literal(-2)))
          CFI DPH0 load(1, XDATA, add(CFA_XSP16, literal(-1)))
          CFI CFA_SP SP+-2
          CFI CFA_XSP16 add(XSP16, 19)
          CFI Block cfiCond309 Using cfiCommon0
          CFI (cfiCond309) Function ZDSecMgrEvent
          CFI (cfiCond309) Conditional ??CrossCallReturnLabel_28
          CFI (cfiCond309) R6 load(1, XDATA, add(CFA_XSP16, literal(-10)))
          CFI (cfiCond309) VB load(1, XDATA, add(CFA_XSP16, literal(-9)))
          CFI (cfiCond309) V0 load(1, XDATA, add(CFA_XSP16, literal(-8)))
          CFI (cfiCond309) V1 load(1, XDATA, add(CFA_XSP16, literal(-7)))
          CFI (cfiCond309) R7 load(1, XDATA, add(CFA_XSP16, literal(-6)))
          CFI (cfiCond309) ?RET_LOW load(1, XDATA, add(CFA_XSP16, literal(-5)))
          CFI (cfiCond309) ?RET_HIGH load(1, XDATA, add(CFA_XSP16, literal(-4)))
          CFI (cfiCond309) ?BRET_EXT load(1, XDATA, add(CFA_XSP16, literal(-3)))
          CFI (cfiCond309) DPL0 load(1, XDATA, add(CFA_XSP16, literal(-2)))
          CFI (cfiCond309) DPH0 load(1, XDATA, add(CFA_XSP16, literal(-1)))
          CFI (cfiCond309) CFA_SP SP+-2
          CFI (cfiCond309) CFA_XSP16 add(XSP16, 33)
          CFI Block cfiPicker310 Using cfiCommon1
          CFI (cfiPicker310) NoFunction
          CFI (cfiPicker310) Picker
        LCALL     ?Subroutine65 & 0xFFFF
??CrossCallReturnLabel_93:
        LCALL     ??Subroutine104_0 & 0xFFFF
??CrossCallReturnLabel_219:
        RET
          CFI EndBlock cfiCond308
          CFI EndBlock cfiCond309
          CFI EndBlock cfiPicker310

        RSEG BANKED_CODE:HUGECODE:NOROOT(0)
?Subroutine16:
          CFI Block cfiCond311 Using cfiCommon0
          CFI Function ZDSecMgrSendMasterKey
          CFI Conditional ??CrossCallReturnLabel_177
          CFI R6 load(1, XDATA, add(CFA_XSP16, literal(-10)))
          CFI VB load(1, XDATA, add(CFA_XSP16, literal(-9)))
          CFI V0 load(1, XDATA, add(CFA_XSP16, literal(-8)))
          CFI V1 load(1, XDATA, add(CFA_XSP16, literal(-7)))
          CFI R7 load(1, XDATA, add(CFA_XSP16, literal(-6)))
          CFI ?RET_LOW load(1, XDATA, add(CFA_XSP16, literal(-5)))
          CFI ?RET_HIGH load(1, XDATA, add(CFA_XSP16, literal(-4)))
          CFI ?BRET_EXT load(1, XDATA, add(CFA_XSP16, literal(-3)))
          CFI DPL0 load(1, XDATA, add(CFA_XSP16, literal(-2)))
          CFI DPH0 load(1, XDATA, add(CFA_XSP16, literal(-1)))
          CFI CFA_SP SP+-2
          CFI CFA_XSP16 add(XSP16, 23)
          CFI Block cfiCond312 Using cfiCommon0
          CFI (cfiCond312) Function ZDSecMgrSendMasterKey
          CFI (cfiCond312) Conditional ??CrossCallReturnLabel_178
          CFI (cfiCond312) R6 load(1, XDATA, add(CFA_XSP16, literal(-10)))
          CFI (cfiCond312) VB load(1, XDATA, add(CFA_XSP16, literal(-9)))
          CFI (cfiCond312) V0 load(1, XDATA, add(CFA_XSP16, literal(-8)))
          CFI (cfiCond312) V1 load(1, XDATA, add(CFA_XSP16, literal(-7)))
          CFI (cfiCond312) R7 load(1, XDATA, add(CFA_XSP16, literal(-6)))
          CFI (cfiCond312) ?RET_LOW load(1, XDATA, add(CFA_XSP16, literal(-5)))
          CFI (cfiCond312) ?RET_HIGH load(1, XDATA, add(CFA_XSP16, literal(-4)))
          CFI (cfiCond312) ?BRET_EXT load(1, XDATA, add(CFA_XSP16, literal(-3)))
          CFI (cfiCond312) DPL0 load(1, XDATA, add(CFA_XSP16, literal(-2)))
          CFI (cfiCond312) DPH0 load(1, XDATA, add(CFA_XSP16, literal(-1)))
          CFI (cfiCond312) CFA_SP SP+-2
          CFI (cfiCond312) CFA_XSP16 add(XSP16, 23)
          CFI Block cfiPicker313 Using cfiCommon1
          CFI (cfiPicker313) NoFunction
          CFI (cfiPicker313) Picker
        MOV       DPL,?XSP + 0
        MOV       DPH,?XSP + 1
          CFI EndBlock cfiCond311
          CFI EndBlock cfiCond312
          CFI EndBlock cfiPicker313
        REQUIRE ??Subroutine95_0
        ; // Fall through to label ??Subroutine95_0

        RSEG BANKED_CODE:HUGECODE:NOROOT(0)
??Subroutine95_0:
          CFI Block cfiCond314 Using cfiCommon0
          CFI Function ZDSecMgrAppKeyReq
          CFI Conditional ??CrossCallReturnLabel_179
          CFI R6 load(1, XDATA, add(CFA_XSP16, literal(-12)))
          CFI VB load(1, XDATA, add(CFA_XSP16, literal(-11)))
          CFI V0 load(1, XDATA, add(CFA_XSP16, literal(-10)))
          CFI V1 load(1, XDATA, add(CFA_XSP16, literal(-9)))
          CFI V2 load(1, XDATA, add(CFA_XSP16, literal(-8)))
          CFI V3 load(1, XDATA, add(CFA_XSP16, literal(-7)))
          CFI R7 load(1, XDATA, add(CFA_XSP16, literal(-6)))
          CFI ?RET_LOW load(1, XDATA, add(CFA_XSP16, literal(-5)))
          CFI ?RET_HIGH load(1, XDATA, add(CFA_XSP16, literal(-4)))
          CFI ?BRET_EXT load(1, XDATA, add(CFA_XSP16, literal(-3)))
          CFI DPL0 load(1, XDATA, add(CFA_XSP16, literal(-2)))
          CFI DPH0 load(1, XDATA, add(CFA_XSP16, literal(-1)))
          CFI CFA_SP SP+-2
          CFI CFA_XSP16 add(XSP16, 51)
          CFI Block cfiCond315 Using cfiCommon0
          CFI (cfiCond315) Function ZDSecMgrNewDeviceEvent
          CFI (cfiCond315) Conditional ??CrossCallReturnLabel_180
          CFI (cfiCond315) R6 load(1, XDATA, add(CFA_XSP16, literal(-12)))
          CFI (cfiCond315) VB load(1, XDATA, add(CFA_XSP16, literal(-11)))
          CFI (cfiCond315) V0 load(1, XDATA, add(CFA_XSP16, literal(-10)))
          CFI (cfiCond315) V1 load(1, XDATA, add(CFA_XSP16, literal(-9)))
          CFI (cfiCond315) V2 load(1, XDATA, add(CFA_XSP16, literal(-8)))
          CFI (cfiCond315) V3 load(1, XDATA, add(CFA_XSP16, literal(-7)))
          CFI (cfiCond315) R7 load(1, XDATA, add(CFA_XSP16, literal(-6)))
          CFI (cfiCond315) ?RET_LOW load(1, XDATA, add(CFA_XSP16, literal(-5)))
          CFI (cfiCond315) ?RET_HIGH load(1, XDATA, add(CFA_XSP16, literal(-4)))
          CFI (cfiCond315) ?BRET_EXT load(1, XDATA, add(CFA_XSP16, literal(-3)))
          CFI (cfiCond315) DPL0 load(1, XDATA, add(CFA_XSP16, literal(-2)))
          CFI (cfiCond315) DPH0 load(1, XDATA, add(CFA_XSP16, literal(-1)))
          CFI (cfiCond315) CFA_SP SP+-2
          CFI (cfiCond315) CFA_XSP16 add(XSP16, 35)
          CFI Block cfiCond316 Using cfiCommon0
          CFI (cfiCond316) Function ZDSecMgrEvent
          CFI (cfiCond316) Conditional ??CrossCallReturnLabel_181
          CFI (cfiCond316) R6 load(1, XDATA, add(CFA_XSP16, literal(-10)))
          CFI (cfiCond316) VB load(1, XDATA, add(CFA_XSP16, literal(-9)))
          CFI (cfiCond316) V0 load(1, XDATA, add(CFA_XSP16, literal(-8)))
          CFI (cfiCond316) V1 load(1, XDATA, add(CFA_XSP16, literal(-7)))
          CFI (cfiCond316) R7 load(1, XDATA, add(CFA_XSP16, literal(-6)))
          CFI (cfiCond316) ?RET_LOW load(1, XDATA, add(CFA_XSP16, literal(-5)))
          CFI (cfiCond316) ?RET_HIGH load(1, XDATA, add(CFA_XSP16, literal(-4)))
          CFI (cfiCond316) ?BRET_EXT load(1, XDATA, add(CFA_XSP16, literal(-3)))
          CFI (cfiCond316) DPL0 load(1, XDATA, add(CFA_XSP16, literal(-2)))
          CFI (cfiCond316) DPH0 load(1, XDATA, add(CFA_XSP16, literal(-1)))
          CFI (cfiCond316) CFA_SP SP+-2
          CFI (cfiCond316) CFA_XSP16 add(XSP16, 33)
          CFI Block cfiCond317 Using cfiCommon0
          CFI (cfiCond317) Function ZDSecMgrEvent
          CFI (cfiCond317) Conditional ??CrossCallReturnLabel_182
          CFI (cfiCond317) R6 load(1, XDATA, add(CFA_XSP16, literal(-10)))
          CFI (cfiCond317) VB load(1, XDATA, add(CFA_XSP16, literal(-9)))
          CFI (cfiCond317) V0 load(1, XDATA, add(CFA_XSP16, literal(-8)))
          CFI (cfiCond317) V1 load(1, XDATA, add(CFA_XSP16, literal(-7)))
          CFI (cfiCond317) R7 load(1, XDATA, add(CFA_XSP16, literal(-6)))
          CFI (cfiCond317) ?RET_LOW load(1, XDATA, add(CFA_XSP16, literal(-5)))
          CFI (cfiCond317) ?RET_HIGH load(1, XDATA, add(CFA_XSP16, literal(-4)))
          CFI (cfiCond317) ?BRET_EXT load(1, XDATA, add(CFA_XSP16, literal(-3)))
          CFI (cfiCond317) DPL0 load(1, XDATA, add(CFA_XSP16, literal(-2)))
          CFI (cfiCond317) DPH0 load(1, XDATA, add(CFA_XSP16, literal(-1)))
          CFI (cfiCond317) CFA_SP SP+-2
          CFI (cfiCond317) CFA_XSP16 add(XSP16, 33)
          CFI Block cfiCond318 Using cfiCommon0
          CFI (cfiCond318) Function ZDSecMgrSendMasterKey
          CFI (cfiCond318) Conditional ??CrossCallReturnLabel_177
          CFI (cfiCond318) R6 load(1, XDATA, add(CFA_XSP16, literal(-10)))
          CFI (cfiCond318) VB load(1, XDATA, add(CFA_XSP16, literal(-9)))
          CFI (cfiCond318) V0 load(1, XDATA, add(CFA_XSP16, literal(-8)))
          CFI (cfiCond318) V1 load(1, XDATA, add(CFA_XSP16, literal(-7)))
          CFI (cfiCond318) R7 load(1, XDATA, add(CFA_XSP16, literal(-6)))
          CFI (cfiCond318) ?RET_LOW load(1, XDATA, add(CFA_XSP16, literal(-5)))
          CFI (cfiCond318) ?RET_HIGH load(1, XDATA, add(CFA_XSP16, literal(-4)))
          CFI (cfiCond318) ?BRET_EXT load(1, XDATA, add(CFA_XSP16, literal(-3)))
          CFI (cfiCond318) DPL0 load(1, XDATA, add(CFA_XSP16, literal(-2)))
          CFI (cfiCond318) DPH0 load(1, XDATA, add(CFA_XSP16, literal(-1)))
          CFI (cfiCond318) CFA_SP SP+-2
          CFI (cfiCond318) CFA_XSP16 add(XSP16, 23)
          CFI Block cfiCond319 Using cfiCommon0
          CFI (cfiCond319) Function ZDSecMgrSendMasterKey
          CFI (cfiCond319) Conditional ??CrossCallReturnLabel_178
          CFI (cfiCond319) R6 load(1, XDATA, add(CFA_XSP16, literal(-10)))
          CFI (cfiCond319) VB load(1, XDATA, add(CFA_XSP16, literal(-9)))
          CFI (cfiCond319) V0 load(1, XDATA, add(CFA_XSP16, literal(-8)))
          CFI (cfiCond319) V1 load(1, XDATA, add(CFA_XSP16, literal(-7)))
          CFI (cfiCond319) R7 load(1, XDATA, add(CFA_XSP16, literal(-6)))
          CFI (cfiCond319) ?RET_LOW load(1, XDATA, add(CFA_XSP16, literal(-5)))
          CFI (cfiCond319) ?RET_HIGH load(1, XDATA, add(CFA_XSP16, literal(-4)))
          CFI (cfiCond319) ?BRET_EXT load(1, XDATA, add(CFA_XSP16, literal(-3)))
          CFI (cfiCond319) DPL0 load(1, XDATA, add(CFA_XSP16, literal(-2)))
          CFI (cfiCond319) DPH0 load(1, XDATA, add(CFA_XSP16, literal(-1)))
          CFI (cfiCond319) CFA_SP SP+-2
          CFI (cfiCond319) CFA_XSP16 add(XSP16, 23)
          CFI Block cfiPicker320 Using cfiCommon1
          CFI (cfiPicker320) NoFunction
          CFI (cfiPicker320) Picker
        LCALL     ??Subroutine97_0 & 0xFFFF
??CrossCallReturnLabel_191:
        ; Setup parameters for call to function AddrMgrEntryGet
        ; Setup parameters for call to function AddrMgrEntryGet
        MOV       A,#0xa
        RET
          CFI EndBlock cfiCond314
          CFI EndBlock cfiCond315
          CFI EndBlock cfiCond316
          CFI EndBlock cfiCond317
          CFI EndBlock cfiCond318
          CFI EndBlock cfiCond319
          CFI EndBlock cfiPicker320
// 2548 
// 2549 /******************************************************************************
// 2550  * @fn          ZDSecMgrEstablishKeyCfm
// 2551  *
// 2552  * @brief       Process the ZDO_EstablishKeyCfm_t message.
// 2553  *
// 2554  * @param       cfm - [in] ZDO_EstablishKeyCfm_t confirmation
// 2555  *
// 2556  * @return      none
// 2557  */

        RSEG BANKED_CODE:HUGECODE:NOROOT(0)
// 2558 void ZDSecMgrEstablishKeyCfm( ZDO_EstablishKeyCfm_t* cfm )
ZDSecMgrEstablishKeyCfm:
          CFI Block cfiBlock321 Using cfiCommon0
          CFI Function ZDSecMgrEstablishKeyCfm
        CODE
// 2559 {
        FUNCALL ZDSecMgrEstablishKeyCfm, ZDSecMgrDeviceCtrlUpdate
        LOCFRAME ISTACK, 2, STACK
        LOCFRAME PSTACK, 0, STACK
        LOCFRAME XSTACK, 0, STACK
        LOCFRAME IOVERLAY, 0, STATIC
        LOCFRAME DOVERLAY, 0, STATIC
        ARGFRAME ISTACK, 2, STACK
        ARGFRAME PSTACK, 0, STACK
        ARGFRAME XSTACK, 0, STACK
        ARGFRAME IOVERLAY, 0, STATIC
        ARGFRAME DOVERLAY, 0, STATIC
        PUSH      DPL
          CFI DPL0 Frame(CFA_SP, 4)
          CFI CFA_SP SP+-4
        PUSH      DPH
          CFI DPH0 Frame(CFA_SP, 5)
          CFI CFA_SP SP+-5
        ; Saved register size: 2
        ; Auto size: 0
// 2560   // send the NWK key
// 2561   if ( ( ZG_BUILD_COORDINATOR_TYPE ) && ( ZG_DEVICE_COORDINATOR_TYPE ) )
// 2562   {
// 2563     // update control for specified EXT address
// 2564     ZDSecMgrDeviceCtrlUpdate( cfm->partExtAddr, ZDSECMGR_CTRL_SKKE_DONE );
        ; Setup parameters for call to function ZDSecMgrDeviceCtrlUpdate
        MOV       R1,#0x5
        MOV       A,R2
        ADD       A,#0x2
        MOV       R2,A
        JNC       ??ZDSecMgrEstablishKeyCfm_0
        INC       R3
??ZDSecMgrEstablishKeyCfm_0:
        LCALL     `??ZDSecMgrDeviceCtrlUpdate::?relay`; Banked call to: ZDSecMgrDeviceCtrlUpdate
// 2565   }
// 2566   else
// 2567   {
// 2568     // this should be done when receiving the NWK key
// 2569     // if devState ==
// 2570     //if ( devState == DEV_END_DEVICE_UNAUTH )
// 2571         //osal_set_event( ZDAppTaskID, ZDO_DEVICE_AUTH );
// 2572 
// 2573     // if not in joining state -- this should trigger an event for an
// 2574     // end point that requested SKKE
// 2575     // if ( devState == DEV_END_DEVICE )
// 2576    //       devState == DEV_ROUTER;
// 2577 
// 2578   }
// 2579 }
        LJMP      ??Subroutine86_0 & 0xFFFF
          CFI EndBlock cfiBlock321
// 2580 
// 2581 uint8 ZDSecMgrTCExtAddrCheck( uint8* extAddr );

        RSEG BANKED_CODE:HUGECODE:NOROOT(0)
// 2582 uint8 ZDSecMgrTCExtAddrCheck( uint8* extAddr )
ZDSecMgrTCExtAddrCheck:
          CFI Block cfiBlock322 Using cfiCommon0
          CFI Function ZDSecMgrTCExtAddrCheck
        CODE
// 2583 {
        FUNCALL ZDSecMgrTCExtAddrCheck, AddrMgrExtAddrLookup
        LOCFRAME ISTACK, 0, STACK
        LOCFRAME PSTACK, 0, STACK
        LOCFRAME XSTACK, 17, STACK
        LOCFRAME IOVERLAY, 0, STATIC
        LOCFRAME DOVERLAY, 0, STATIC
        ARGFRAME ISTACK, 0, STACK
        ARGFRAME PSTACK, 0, STACK
        ARGFRAME XSTACK, 17, STACK
        ARGFRAME IOVERLAY, 0, STATIC
        ARGFRAME DOVERLAY, 0, STATIC
        FUNCALL ZDSecMgrTCExtAddrCheck, AddrMgrExtAddrEqual
        LOCFRAME ISTACK, 0, STACK
        LOCFRAME PSTACK, 0, STACK
        LOCFRAME XSTACK, 17, STACK
        LOCFRAME IOVERLAY, 0, STATIC
        LOCFRAME DOVERLAY, 0, STATIC
        ARGFRAME ISTACK, 0, STACK
        ARGFRAME PSTACK, 0, STACK
        ARGFRAME XSTACK, 17, STACK
        ARGFRAME IOVERLAY, 0, STATIC
        ARGFRAME DOVERLAY, 0, STATIC
        REQUIRE ?V0
        MOV       A,#-0x9
        LCALL     ?BANKED_ENTER_XDATA
          CFI DPH0 load(1, XDATA, add(CFA_XSP16, literal(-1)))
          CFI DPL0 load(1, XDATA, add(CFA_XSP16, literal(-2)))
          CFI ?BRET_EXT load(1, XDATA, add(CFA_XSP16, literal(-3)))
          CFI ?RET_HIGH load(1, XDATA, add(CFA_XSP16, literal(-4)))
          CFI ?RET_LOW load(1, XDATA, add(CFA_XSP16, literal(-5)))
          CFI R7 load(1, XDATA, add(CFA_XSP16, literal(-6)))
          CFI V0 load(1, XDATA, add(CFA_XSP16, literal(-7)))
          CFI VB load(1, XDATA, add(CFA_XSP16, literal(-8)))
          CFI R6 load(1, XDATA, add(CFA_XSP16, literal(-9)))
          CFI CFA_SP SP+0
          CFI CFA_XSP16 add(XSP16, 9)
        ; Saved register size: 9
        ; Auto size: 8
        MOV       A,#-0x8
        LCALL     ?ALLOC_XSTACK8
          CFI CFA_XSP16 add(XSP16, 17)
        MOV       A,R2
        MOV       R6,A
        MOV       A,R3
        MOV       R7,A
// 2584   uint8  match;
// 2585   uint8  lookup[Z_EXTADDR_LEN];
// 2586 
// 2587   match = FALSE;
        MOV       ?V0,#0x0
// 2588 
// 2589   if ( AddrMgrExtAddrLookup( APSME_TRUSTCENTER_NWKADDR, lookup ) )
        ; Setup parameters for call to function AddrMgrExtAddrLookup
        MOV       R4,?XSP + 0
        MOV       R5,?XSP + 1
        MOV       R2,#0x0
        MOV       R3,#0x0
        LCALL     `??AddrMgrExtAddrLookup::?relay`; Banked call to: AddrMgrExtAddrLookup
        MOV       A,R1
        JZ        ??ZDSecMgrTCExtAddrCheck_0
// 2590   {
// 2591     match = AddrMgrExtAddrEqual( lookup, extAddr );
        ; Setup parameters for call to function AddrMgrExtAddrEqual
        MOV       A,R6
        MOV       R4,A
        MOV       A,R7
        MOV       R5,A
        MOV       R2,?XSP + 0
        MOV       R3,?XSP + 1
        LCALL     `??AddrMgrExtAddrEqual::?relay`; Banked call to: AddrMgrExtAddrEqual
        MOV       A,R1
        MOV       ?V0,A
// 2592   }
// 2593 
// 2594   return match;
??ZDSecMgrTCExtAddrCheck_0:
        MOV       R1,?V0
        MOV       A,#0x8
        LJMP      ??Subroutine88_0 & 0xFFFF
// 2595 }
          CFI EndBlock cfiBlock322
// 2596 
// 2597 void ZDSecMgrTCDataLoad( uint8* extAddr );

        RSEG BANKED_CODE:HUGECODE:NOROOT(0)
// 2598 void ZDSecMgrTCDataLoad( uint8* extAddr )
ZDSecMgrTCDataLoad:
          CFI Block cfiBlock323 Using cfiCommon0
          CFI Function ZDSecMgrTCDataLoad
        CODE
// 2599 {
        FUNCALL ZDSecMgrTCDataLoad, ZDSecMgrAddrStore
        LOCFRAME ISTACK, 0, STACK
        LOCFRAME PSTACK, 0, STACK
        LOCFRAME XSTACK, 16, STACK
        LOCFRAME IOVERLAY, 0, STATIC
        LOCFRAME DOVERLAY, 0, STATIC
        ARGFRAME ISTACK, 0, STACK
        ARGFRAME PSTACK, 0, STACK
        ARGFRAME XSTACK, 16, STACK
        ARGFRAME IOVERLAY, 0, STATIC
        ARGFRAME DOVERLAY, 0, STATIC
        FUNCALL ZDSecMgrTCDataLoad, ZDSecMgrMasterKeyLookup
        LOCFRAME ISTACK, 0, STACK
        LOCFRAME PSTACK, 0, STACK
        LOCFRAME XSTACK, 14, STACK
        LOCFRAME IOVERLAY, 0, STATIC
        LOCFRAME DOVERLAY, 0, STATIC
        ARGFRAME ISTACK, 0, STACK
        ARGFRAME PSTACK, 0, STACK
        ARGFRAME XSTACK, 14, STACK
        ARGFRAME IOVERLAY, 0, STATIC
        ARGFRAME DOVERLAY, 0, STATIC
        FUNCALL ZDSecMgrTCDataLoad, ZDSecMgrMasterKeyStore
        LOCFRAME ISTACK, 0, STACK
        LOCFRAME PSTACK, 0, STACK
        LOCFRAME XSTACK, 14, STACK
        LOCFRAME IOVERLAY, 0, STATIC
        LOCFRAME DOVERLAY, 0, STATIC
        ARGFRAME ISTACK, 0, STACK
        ARGFRAME PSTACK, 0, STACK
        ARGFRAME XSTACK, 14, STACK
        ARGFRAME IOVERLAY, 0, STATIC
        ARGFRAME DOVERLAY, 0, STATIC
        REQUIRE ?V0
        REQUIRE ?V1
        MOV       A,#-0xa
        LCALL     ?BANKED_ENTER_XDATA
          CFI DPH0 load(1, XDATA, add(CFA_XSP16, literal(-1)))
          CFI DPL0 load(1, XDATA, add(CFA_XSP16, literal(-2)))
          CFI ?BRET_EXT load(1, XDATA, add(CFA_XSP16, literal(-3)))
          CFI ?RET_HIGH load(1, XDATA, add(CFA_XSP16, literal(-4)))
          CFI ?RET_LOW load(1, XDATA, add(CFA_XSP16, literal(-5)))
          CFI R7 load(1, XDATA, add(CFA_XSP16, literal(-6)))
          CFI V1 load(1, XDATA, add(CFA_XSP16, literal(-7)))
          CFI V0 load(1, XDATA, add(CFA_XSP16, literal(-8)))
          CFI VB load(1, XDATA, add(CFA_XSP16, literal(-9)))
          CFI R6 load(1, XDATA, add(CFA_XSP16, literal(-10)))
          CFI CFA_SP SP+0
          CFI CFA_XSP16 add(XSP16, 10)
        ; Saved register size: 10
        ; Auto size: 4
        MOV       A,#-0x4
        LCALL     ?ALLOC_XSTACK8
          CFI CFA_XSP16 add(XSP16, 14)
// 2600   uint16 ami;
// 2601   uint8* key;
// 2602 
// 2603   if ( !ZDSecMgrTCDataLoaded )
        MOV       DPTR,#ZDSecMgrTCDataLoaded
        MOVX      A,@DPTR
        JNZ       ??ZDSecMgrTCDataLoad_0
// 2604   {
// 2605     if ( ZDSecMgrAddrStore( APSME_TRUSTCENTER_NWKADDR, extAddr, &ami ) == ZSuccess )
        ; Setup parameters for call to function ZDSecMgrAddrStore
        MOV       R0,?XSP + 0
        MOV       R1,?XSP + 1
        MOV       ?V0,R0
        MOV       ?V1,R1
        MOV       R0,#?V0
        LCALL     ?PUSH_XSTACK_I_TWO
          CFI CFA_XSP16 add(XSP16, 16)
        MOV       A,R2
        MOV       R4,A
        MOV       A,R3
        MOV       R5,A
        MOV       R2,#0x0
        MOV       R3,#0x0
        LCALL     `??ZDSecMgrAddrStore::?relay`; Banked call to: ZDSecMgrAddrStore
        MOV       A,#0x2
        LCALL     ?DEALLOC_XSTACK8
          CFI CFA_XSP16 add(XSP16, 14)
        MOV       A,R1
        JNZ       ??CrossCallReturnLabel_66
// 2606     {
// 2607       // if preconfigured load key
// 2608       if ( zgPreConfigKeys == TRUE )
        MOV       DPTR,#zgPreConfigKeys
        MOVX      A,@DPTR
        XRL       A,#0x1
        JNZ       ??CrossCallReturnLabel_66
// 2609       {
// 2610         if ( ZDSecMgrMasterKeyLookup( ami, &key ) != ZSuccess )
        ; Setup parameters for call to function ZDSecMgrMasterKeyLookup
        MOV       A,#0x2
        LCALL     ?XSTACK_DISP102_8
        LCALL     ?Subroutine42 & 0xFFFF
??CrossCallReturnLabel_47:
        JZ        ??CrossCallReturnLabel_66
// 2611         {
// 2612           ZDSecMgrMasterKeyStore( ami, ZDSecMgrTCMasterKey );
        ; Setup parameters for call to function ZDSecMgrMasterKeyStore
        MOV       R4,#ZDSecMgrTCMasterKey & 0xff
        MOV       R5,#(ZDSecMgrTCMasterKey >> 8) & 0xff
        LCALL     ?Subroutine53 & 0xFFFF
// 2613         }
// 2614       }
// 2615     }
// 2616 
// 2617     ZDSecMgrTCDataLoaded = TRUE;
??CrossCallReturnLabel_66:
        MOV       DPTR,#ZDSecMgrTCDataLoaded
        MOV       A,#0x1
        MOVX      @DPTR,A
// 2618   }
// 2619 }
??ZDSecMgrTCDataLoad_0:
          CFI EndBlock cfiBlock323
        REQUIRE ?Subroutine13
        ; // Fall through to label ?Subroutine13

        RSEG BANKED_CODE:HUGECODE:NOROOT(0)
?Subroutine13:
          CFI Block cfiBlock324 Using cfiCommon0
          CFI NoFunction
          CFI CFA_SP SP+0
          CFI CFA_XSP16 add(XSP16, 14)
          CFI VB load(1, XDATA, add(CFA_XSP16, literal(-9)))
          CFI DPL0 load(1, XDATA, add(CFA_XSP16, literal(-2)))
          CFI DPH0 load(1, XDATA, add(CFA_XSP16, literal(-1)))
          CFI R6 load(1, XDATA, add(CFA_XSP16, literal(-10)))
          CFI R7 load(1, XDATA, add(CFA_XSP16, literal(-6)))
          CFI V0 load(1, XDATA, add(CFA_XSP16, literal(-8)))
          CFI V1 load(1, XDATA, add(CFA_XSP16, literal(-7)))
          CFI ?BRET_EXT load(1, XDATA, add(CFA_XSP16, literal(-3)))
          CFI ?RET_HIGH load(1, XDATA, add(CFA_XSP16, literal(-4)))
          CFI ?RET_LOW load(1, XDATA, add(CFA_XSP16, literal(-5)))
        MOV       A,#0x4
        LJMP      ??Subroutine101_0 & 0xFFFF
          CFI EndBlock cfiBlock324

        RSEG BANKED_CODE:HUGECODE:NOROOT(0)
?Subroutine53:
          CFI Block cfiCond325 Using cfiCommon0
          CFI Function ZDSecMgrMasterKeyLoad
          CFI Conditional ??CrossCallReturnLabel_65
          CFI R6 load(1, XDATA, add(CFA_XSP16, literal(-15)))
          CFI VB load(1, XDATA, add(CFA_XSP16, literal(-14)))
          CFI V0 load(1, XDATA, add(CFA_XSP16, literal(-13)))
          CFI V1 load(1, XDATA, add(CFA_XSP16, literal(-12)))
          CFI V2 load(1, XDATA, add(CFA_XSP16, literal(-11)))
          CFI V3 load(1, XDATA, add(CFA_XSP16, literal(-10)))
          CFI V4 load(1, XDATA, add(CFA_XSP16, literal(-9)))
          CFI V5 load(1, XDATA, add(CFA_XSP16, literal(-8)))
          CFI V6 load(1, XDATA, add(CFA_XSP16, literal(-7)))
          CFI R7 load(1, XDATA, add(CFA_XSP16, literal(-6)))
          CFI ?RET_LOW load(1, XDATA, add(CFA_XSP16, literal(-5)))
          CFI ?RET_HIGH load(1, XDATA, add(CFA_XSP16, literal(-4)))
          CFI ?BRET_EXT load(1, XDATA, add(CFA_XSP16, literal(-3)))
          CFI DPL0 load(1, XDATA, add(CFA_XSP16, literal(-2)))
          CFI DPH0 load(1, XDATA, add(CFA_XSP16, literal(-1)))
          CFI CFA_SP SP+-2
          CFI CFA_XSP16 add(XSP16, 19)
          CFI Block cfiCond326 Using cfiCommon0
          CFI (cfiCond326) Function ZDSecMgrTCDataLoad
          CFI (cfiCond326) Conditional ??CrossCallReturnLabel_66
          CFI (cfiCond326) R6 load(1, XDATA, add(CFA_XSP16, literal(-10)))
          CFI (cfiCond326) VB load(1, XDATA, add(CFA_XSP16, literal(-9)))
          CFI (cfiCond326) V0 load(1, XDATA, add(CFA_XSP16, literal(-8)))
          CFI (cfiCond326) V1 load(1, XDATA, add(CFA_XSP16, literal(-7)))
          CFI (cfiCond326) R7 load(1, XDATA, add(CFA_XSP16, literal(-6)))
          CFI (cfiCond326) ?RET_LOW load(1, XDATA, add(CFA_XSP16, literal(-5)))
          CFI (cfiCond326) ?RET_HIGH load(1, XDATA, add(CFA_XSP16, literal(-4)))
          CFI (cfiCond326) ?BRET_EXT load(1, XDATA, add(CFA_XSP16, literal(-3)))
          CFI (cfiCond326) DPL0 load(1, XDATA, add(CFA_XSP16, literal(-2)))
          CFI (cfiCond326) DPH0 load(1, XDATA, add(CFA_XSP16, literal(-1)))
          CFI (cfiCond326) CFA_SP SP+-2
          CFI (cfiCond326) CFA_XSP16 add(XSP16, 14)
          CFI Block cfiPicker327 Using cfiCommon1
          CFI (cfiPicker327) NoFunction
          CFI (cfiPicker327) Picker
        LCALL     ?Subroutine68 & 0xFFFF
??CrossCallReturnLabel_229:
        LCALL     `??ZDSecMgrMasterKeyStore::?relay`; Banked call to: ZDSecMgrMasterKeyStore
        RET
          CFI EndBlock cfiCond325
          CFI EndBlock cfiCond326
          CFI EndBlock cfiPicker327
// 2620 
// 2621 /******************************************************************************
// 2622  * @fn          ZDSecMgrEstablishKeyInd
// 2623  *
// 2624  * @brief       Process the ZDO_EstablishKeyInd_t message.
// 2625  *
// 2626  * @param       ind - [in] ZDO_EstablishKeyInd_t indication
// 2627  *
// 2628  * @return      none
// 2629  */

        RSEG BANKED_CODE:HUGECODE:NOROOT(0)
// 2630 void ZDSecMgrEstablishKeyInd( ZDO_EstablishKeyInd_t* ind )
ZDSecMgrEstablishKeyInd:
          CFI Block cfiBlock328 Using cfiCommon0
          CFI Function ZDSecMgrEstablishKeyInd
        CODE
// 2631 {
        FUNCALL ZDSecMgrEstablishKeyInd, ZDSecMgrTCDataLoad
        LOCFRAME ISTACK, 0, STACK
        LOCFRAME PSTACK, 0, STACK
        LOCFRAME XSTACK, 31, STACK
        LOCFRAME IOVERLAY, 0, STATIC
        LOCFRAME DOVERLAY, 0, STATIC
        ARGFRAME ISTACK, 0, STACK
        ARGFRAME PSTACK, 0, STACK
        ARGFRAME XSTACK, 31, STACK
        ARGFRAME IOVERLAY, 0, STATIC
        ARGFRAME DOVERLAY, 0, STATIC
        FUNCALL ZDSecMgrEstablishKeyInd, ZDSecMgrTCExtAddrCheck
        LOCFRAME ISTACK, 0, STACK
        LOCFRAME PSTACK, 0, STACK
        LOCFRAME XSTACK, 31, STACK
        LOCFRAME IOVERLAY, 0, STATIC
        LOCFRAME DOVERLAY, 0, STATIC
        ARGFRAME ISTACK, 0, STACK
        ARGFRAME PSTACK, 0, STACK
        ARGFRAME XSTACK, 31, STACK
        ARGFRAME IOVERLAY, 0, STATIC
        ARGFRAME DOVERLAY, 0, STATIC
        FUNCALL ZDSecMgrEstablishKeyInd, ZDSecMgrDeviceValidateSKKE
        LOCFRAME ISTACK, 0, STACK
        LOCFRAME PSTACK, 0, STACK
        LOCFRAME XSTACK, 31, STACK
        LOCFRAME IOVERLAY, 0, STATIC
        LOCFRAME DOVERLAY, 0, STATIC
        ARGFRAME ISTACK, 0, STACK
        ARGFRAME PSTACK, 0, STACK
        ARGFRAME XSTACK, 31, STACK
        ARGFRAME IOVERLAY, 0, STATIC
        ARGFRAME DOVERLAY, 0, STATIC
        FUNCALL ZDSecMgrEstablishKeyInd, APSME_EstablishKeyRsp
        LOCFRAME ISTACK, 0, STACK
        LOCFRAME PSTACK, 0, STACK
        LOCFRAME XSTACK, 31, STACK
        LOCFRAME IOVERLAY, 0, STATIC
        LOCFRAME DOVERLAY, 0, STATIC
        ARGFRAME ISTACK, 0, STACK
        ARGFRAME PSTACK, 0, STACK
        ARGFRAME XSTACK, 31, STACK
        ARGFRAME IOVERLAY, 0, STATIC
        ARGFRAME DOVERLAY, 0, STATIC
        REQUIRE ?V0
        REQUIRE ?V1
        REQUIRE ?V2
        REQUIRE ?V3
        REQUIRE ?V4
        REQUIRE ?V5
        MOV       A,#-0xe
        LCALL     ?BANKED_ENTER_XDATA
          CFI DPH0 load(1, XDATA, add(CFA_XSP16, literal(-1)))
          CFI DPL0 load(1, XDATA, add(CFA_XSP16, literal(-2)))
          CFI ?BRET_EXT load(1, XDATA, add(CFA_XSP16, literal(-3)))
          CFI ?RET_HIGH load(1, XDATA, add(CFA_XSP16, literal(-4)))
          CFI ?RET_LOW load(1, XDATA, add(CFA_XSP16, literal(-5)))
          CFI R7 load(1, XDATA, add(CFA_XSP16, literal(-6)))
          CFI V5 load(1, XDATA, add(CFA_XSP16, literal(-7)))
          CFI V4 load(1, XDATA, add(CFA_XSP16, literal(-8)))
          CFI V3 load(1, XDATA, add(CFA_XSP16, literal(-9)))
          CFI V2 load(1, XDATA, add(CFA_XSP16, literal(-10)))
          CFI V1 load(1, XDATA, add(CFA_XSP16, literal(-11)))
          CFI V0 load(1, XDATA, add(CFA_XSP16, literal(-12)))
          CFI VB load(1, XDATA, add(CFA_XSP16, literal(-13)))
          CFI R6 load(1, XDATA, add(CFA_XSP16, literal(-14)))
          CFI CFA_SP SP+0
          CFI CFA_XSP16 add(XSP16, 14)
        ; Saved register size: 14
        ; Auto size: 17
        MOV       A,#-0x11
        LCALL     ?ALLOC_XSTACK8
          CFI CFA_XSP16 add(XSP16, 31)
        MOV       ?V0,R2
        MOV       ?V1,R3
// 2632   ZDSecMgrDevice_t        device;
// 2633   APSME_EstablishKeyRsp_t rsp;
// 2634 
// 2635 
// 2636   // load Trust Center data if needed
// 2637   ZDSecMgrTCDataLoad( ind->initExtAddr );
        MOV       A,R2
        ADD       A,#0x4
        MOV       R6,A
        CLR       A
        ADDC      A,?V1
        MOV       R7,A
        ; Setup parameters for call to function ZDSecMgrTCDataLoad
        MOV       A,R6
        MOV       R2,A
        MOV       A,R7
        MOV       R3,A
        LCALL     `??ZDSecMgrTCDataLoad::?relay`; Banked call to: ZDSecMgrTCDataLoad
// 2638 
// 2639   if ( ZDSecMgrTCExtAddrCheck( ind->initExtAddr ) )
        MOV       A,?V0
        ADD       A,#0x2
        MOV       ?V2,A
        CLR       A
        ADDC      A,?V1
        MOV       ?V3,A
        ; Setup parameters for call to function ZDSecMgrTCExtAddrCheck
        MOV       A,R6
        MOV       R2,A
        MOV       A,R7
        MOV       R3,A
        LCALL     `??ZDSecMgrTCExtAddrCheck::?relay`; Banked call to: ZDSecMgrTCExtAddrCheck
        MOV       A,R1
        JZ        ??ZDSecMgrEstablishKeyInd_0
// 2640   {
// 2641     //IF (ind->srcAddr == APSME_TRUSTCENTER_NWKADDR)
// 2642     //OR
// 2643     //!ZDSecMgrTCAuthenticated
// 2644     //devtag.0604.critical
// 2645         //how is the parentAddr used here
// 2646 
// 2647     // initial SKKE from Trust Center via parent
// 2648     device.nwkAddr    = APSME_TRUSTCENTER_NWKADDR;
        MOV       A,#0x7
        LCALL     ?XSTACK_DISP0_8
        CLR       A
        MOVX      @DPTR,A
        INC       DPTR
        LCALL     ?Subroutine22 & 0xFFFF
// 2649     device.parentAddr = ind->srcAddr;
// 2650   }
??CrossCallReturnLabel_8:
        MOV       A,#0xb
        LCALL     ?XSTACK_DISP0_8
        MOV       A,R0
        MOVX      @DPTR,A
        INC       DPTR
        MOV       A,R1
        SJMP      ??ZDSecMgrEstablishKeyInd_1
// 2651   else
// 2652   {
// 2653     // Trust Center direct or E2E SKKE
// 2654     device.nwkAddr    = ind->srcAddr;
??ZDSecMgrEstablishKeyInd_0:
        MOV       DPL,?V2
        MOV       DPH,?V3
        LCALL     ??Subroutine99_0 & 0xFFFF
??CrossCallReturnLabel_199:
        MOV       A,#0x7
        LCALL     ?XSTACK_DISP0_8
        LCALL     ??Subroutine91_0 & 0xFFFF
// 2655     device.parentAddr = INVALID_NODE_ADDR;
??CrossCallReturnLabel_157:
        MOV       A,#0xb
        LCALL     ?XSTACK_DISP0_8
        MOV       A,#-0x2
        MOVX      @DPTR,A
        INC       DPTR
        INC       A
??ZDSecMgrEstablishKeyInd_1:
        MOVX      @DPTR,A
// 2656   }
// 2657 
// 2658   device.extAddr = ind->initExtAddr;
        MOV       A,#0x9
        LCALL     ?XSTACK_DISP0_8
        MOV       A,R6
        MOVX      @DPTR,A
        INC       DPTR
        MOV       A,R7
        MOVX      @DPTR,A
// 2659   //devtag.pro.security.0724.todo - verify usage
// 2660   device.secure  = ind->nwkSecure;
        MOV       A,?V0
        ADD       A,#0xe
        MOV       ?V4,A
        CLR       A
        ADDC      A,?V1
        MOV       ?V5,A
        MOV       DPL,?V4
        MOV       DPH,A
        MOVX      A,@DPTR
        PUSH      A
          CFI CFA_SP SP+-1
        MOV       A,#0xd
        LCALL     ?XSTACK_DISP0_8
        POP       A
          CFI CFA_SP SP+0
        MOVX      @DPTR,A
// 2661 
// 2662   // validate device for SKKE
// 2663   if ( ZDSecMgrDeviceValidateSKKE( &device ) == ZSuccess )
        ; Setup parameters for call to function ZDSecMgrDeviceValidateSKKE
        MOV       A,#0x7
        LCALL     ?XSTACK_DISP101_8
        LCALL     `??ZDSecMgrDeviceValidateSKKE::?relay`; Banked call to: ZDSecMgrDeviceValidateSKKE
        MOV       A,R1
        JNZ       ??ZDSecMgrEstablishKeyInd_2
// 2664   {
// 2665     rsp.accept = TRUE;
        MOV       A,#0x4
        LCALL     ?XSTACK_DISP0_8
        MOV       A,#0x1
        SJMP      ??ZDSecMgrEstablishKeyInd_3
// 2666   }
// 2667   else
// 2668   {
// 2669     rsp.accept = FALSE;
??ZDSecMgrEstablishKeyInd_2:
        MOV       A,#0x4
        LCALL     ?XSTACK_DISP0_8
        CLR       A
// 2670   }
??ZDSecMgrEstablishKeyInd_3:
        LCALL     ?Subroutine22 & 0xFFFF
// 2671 
// 2672   rsp.dstAddr     = ind->srcAddr;
??CrossCallReturnLabel_9:
        LCALL     ?Subroutine30 & 0xFFFF
// 2673   rsp.initExtAddr = &ind->initExtAddr[0];
??CrossCallReturnLabel_183:
        LCALL     ?XSTACK_DISP0_8
        MOV       A,R6
        MOVX      @DPTR,A
        INC       DPTR
        MOV       A,R7
        MOVX      @DPTR,A
// 2674   //devtag.0604.todo - remove obsolete
// 2675   rsp.apsSecure   = ind->apsSecure;
        MOV       A,?V0
        ADD       A,#0xd
        MOV       DPL,A
        CLR       A
        ADDC      A,?V1
        MOV       DPH,A
        MOVX      A,@DPTR
        PUSH      A
          CFI CFA_SP SP+-1
        MOV       A,#0x5
        LCALL     ?XSTACK_DISP0_8
        POP       A
          CFI CFA_SP SP+0
        MOVX      @DPTR,A
// 2676   rsp.nwkSecure   = ind->nwkSecure;
        MOV       DPL,?V4
        MOV       DPH,?V5
        MOVX      A,@DPTR
        PUSH      A
          CFI CFA_SP SP+-1
        MOV       A,#0x6
        LCALL     ?XSTACK_DISP0_8
        POP       A
          CFI CFA_SP SP+0
        LCALL     ??Subroutine90_0 & 0xFFFF
// 2677 
// 2678   APSME_EstablishKeyRsp( &rsp );
??CrossCallReturnLabel_146:
        LCALL     `??APSME_EstablishKeyRsp::?relay`; Banked call to: APSME_EstablishKeyRsp
// 2679 }
        MOV       A,#0x11
        LCALL     ?DEALLOC_XSTACK8
          CFI CFA_XSP16 add(XSP16, 14)
        LJMP      ?Subroutine3 & 0xFFFF
          CFI EndBlock cfiBlock328

        RSEG BANKED_CODE:HUGECODE:NOROOT(0)
?Subroutine30:
          CFI Block cfiCond329 Using cfiCommon0
          CFI Function ZDSecMgrEstablishKeyInd
          CFI Conditional ??CrossCallReturnLabel_183
          CFI R6 load(1, XDATA, add(CFA_XSP16, literal(-14)))
          CFI VB load(1, XDATA, add(CFA_XSP16, literal(-13)))
          CFI V0 load(1, XDATA, add(CFA_XSP16, literal(-12)))
          CFI V1 load(1, XDATA, add(CFA_XSP16, literal(-11)))
          CFI V2 load(1, XDATA, add(CFA_XSP16, literal(-10)))
          CFI V3 load(1, XDATA, add(CFA_XSP16, literal(-9)))
          CFI V4 load(1, XDATA, add(CFA_XSP16, literal(-8)))
          CFI V5 load(1, XDATA, add(CFA_XSP16, literal(-7)))
          CFI R7 load(1, XDATA, add(CFA_XSP16, literal(-6)))
          CFI ?RET_LOW load(1, XDATA, add(CFA_XSP16, literal(-5)))
          CFI ?RET_HIGH load(1, XDATA, add(CFA_XSP16, literal(-4)))
          CFI ?BRET_EXT load(1, XDATA, add(CFA_XSP16, literal(-3)))
          CFI DPL0 load(1, XDATA, add(CFA_XSP16, literal(-2)))
          CFI DPH0 load(1, XDATA, add(CFA_XSP16, literal(-1)))
          CFI CFA_SP SP+-2
          CFI CFA_XSP16 add(XSP16, 31)
          CFI Block cfiCond330 Using cfiCommon0
          CFI (cfiCond330) Function ZDSecMgrAuthenticateInd
          CFI (cfiCond330) Conditional ??CrossCallReturnLabel_184
          CFI (cfiCond330) R6 load(1, XDATA, add(CFA_XSP16, literal(-12)))
          CFI (cfiCond330) VB load(1, XDATA, add(CFA_XSP16, literal(-11)))
          CFI (cfiCond330) V0 load(1, XDATA, add(CFA_XSP16, literal(-10)))
          CFI (cfiCond330) V1 load(1, XDATA, add(CFA_XSP16, literal(-9)))
          CFI (cfiCond330) V2 load(1, XDATA, add(CFA_XSP16, literal(-8)))
          CFI (cfiCond330) V3 load(1, XDATA, add(CFA_XSP16, literal(-7)))
          CFI (cfiCond330) R7 load(1, XDATA, add(CFA_XSP16, literal(-6)))
          CFI (cfiCond330) ?RET_LOW load(1, XDATA, add(CFA_XSP16, literal(-5)))
          CFI (cfiCond330) ?RET_HIGH load(1, XDATA, add(CFA_XSP16, literal(-4)))
          CFI (cfiCond330) ?BRET_EXT load(1, XDATA, add(CFA_XSP16, literal(-3)))
          CFI (cfiCond330) DPL0 load(1, XDATA, add(CFA_XSP16, literal(-2)))
          CFI (cfiCond330) DPH0 load(1, XDATA, add(CFA_XSP16, literal(-1)))
          CFI (cfiCond330) CFA_SP SP+-2
          CFI (cfiCond330) CFA_XSP16 add(XSP16, 32)
          CFI Block cfiPicker331 Using cfiCommon1
          CFI (cfiPicker331) NoFunction
          CFI (cfiPicker331) Picker
        MOV       DPL,?XSP + 0
        MOV       DPH,?XSP + 1
          CFI EndBlock cfiCond329
          CFI EndBlock cfiCond330
          CFI EndBlock cfiPicker331
        REQUIRE ??Subroutine96_0
        ; // Fall through to label ??Subroutine96_0

        RSEG BANKED_CODE:HUGECODE:NOROOT(0)
??Subroutine96_0:
          CFI Block cfiCond332 Using cfiCommon0
          CFI Function ZDSecMgrSendNwkKey
          CFI Conditional ??CrossCallReturnLabel_185
          CFI R6 load(1, XDATA, add(CFA_XSP16, literal(-12)))
          CFI VB load(1, XDATA, add(CFA_XSP16, literal(-11)))
          CFI V0 load(1, XDATA, add(CFA_XSP16, literal(-10)))
          CFI V1 load(1, XDATA, add(CFA_XSP16, literal(-9)))
          CFI V2 load(1, XDATA, add(CFA_XSP16, literal(-8)))
          CFI V3 load(1, XDATA, add(CFA_XSP16, literal(-7)))
          CFI R7 load(1, XDATA, add(CFA_XSP16, literal(-6)))
          CFI ?RET_LOW load(1, XDATA, add(CFA_XSP16, literal(-5)))
          CFI ?RET_HIGH load(1, XDATA, add(CFA_XSP16, literal(-4)))
          CFI ?BRET_EXT load(1, XDATA, add(CFA_XSP16, literal(-3)))
          CFI DPL0 load(1, XDATA, add(CFA_XSP16, literal(-2)))
          CFI DPH0 load(1, XDATA, add(CFA_XSP16, literal(-1)))
          CFI CFA_SP SP+-2
          CFI CFA_XSP16 add(XSP16, 25)
          CFI Block cfiCond333 Using cfiCommon0
          CFI (cfiCond333) Function ZDSecMgrEstablishKeyInd
          CFI (cfiCond333) Conditional ??CrossCallReturnLabel_183
          CFI (cfiCond333) R6 load(1, XDATA, add(CFA_XSP16, literal(-14)))
          CFI (cfiCond333) VB load(1, XDATA, add(CFA_XSP16, literal(-13)))
          CFI (cfiCond333) V0 load(1, XDATA, add(CFA_XSP16, literal(-12)))
          CFI (cfiCond333) V1 load(1, XDATA, add(CFA_XSP16, literal(-11)))
          CFI (cfiCond333) V2 load(1, XDATA, add(CFA_XSP16, literal(-10)))
          CFI (cfiCond333) V3 load(1, XDATA, add(CFA_XSP16, literal(-9)))
          CFI (cfiCond333) V4 load(1, XDATA, add(CFA_XSP16, literal(-8)))
          CFI (cfiCond333) V5 load(1, XDATA, add(CFA_XSP16, literal(-7)))
          CFI (cfiCond333) R7 load(1, XDATA, add(CFA_XSP16, literal(-6)))
          CFI (cfiCond333) ?RET_LOW load(1, XDATA, add(CFA_XSP16, literal(-5)))
          CFI (cfiCond333) ?RET_HIGH load(1, XDATA, add(CFA_XSP16, literal(-4)))
          CFI (cfiCond333) ?BRET_EXT load(1, XDATA, add(CFA_XSP16, literal(-3)))
          CFI (cfiCond333) DPL0 load(1, XDATA, add(CFA_XSP16, literal(-2)))
          CFI (cfiCond333) DPH0 load(1, XDATA, add(CFA_XSP16, literal(-1)))
          CFI (cfiCond333) CFA_SP SP+-2
          CFI (cfiCond333) CFA_XSP16 add(XSP16, 31)
          CFI Block cfiCond334 Using cfiCommon0
          CFI (cfiCond334) Function ZDSecMgrAuthenticateInd
          CFI (cfiCond334) Conditional ??CrossCallReturnLabel_184
          CFI (cfiCond334) R6 load(1, XDATA, add(CFA_XSP16, literal(-12)))
          CFI (cfiCond334) VB load(1, XDATA, add(CFA_XSP16, literal(-11)))
          CFI (cfiCond334) V0 load(1, XDATA, add(CFA_XSP16, literal(-10)))
          CFI (cfiCond334) V1 load(1, XDATA, add(CFA_XSP16, literal(-9)))
          CFI (cfiCond334) V2 load(1, XDATA, add(CFA_XSP16, literal(-8)))
          CFI (cfiCond334) V3 load(1, XDATA, add(CFA_XSP16, literal(-7)))
          CFI (cfiCond334) R7 load(1, XDATA, add(CFA_XSP16, literal(-6)))
          CFI (cfiCond334) ?RET_LOW load(1, XDATA, add(CFA_XSP16, literal(-5)))
          CFI (cfiCond334) ?RET_HIGH load(1, XDATA, add(CFA_XSP16, literal(-4)))
          CFI (cfiCond334) ?BRET_EXT load(1, XDATA, add(CFA_XSP16, literal(-3)))
          CFI (cfiCond334) DPL0 load(1, XDATA, add(CFA_XSP16, literal(-2)))
          CFI (cfiCond334) DPH0 load(1, XDATA, add(CFA_XSP16, literal(-1)))
          CFI (cfiCond334) CFA_SP SP+-2
          CFI (cfiCond334) CFA_XSP16 add(XSP16, 32)
          CFI Block cfiPicker335 Using cfiCommon1
          CFI (cfiPicker335) NoFunction
          CFI (cfiPicker335) Picker
        LCALL     ??Subroutine97_0 & 0xFFFF
??CrossCallReturnLabel_192:
        MOV       A,#0x2
        RET
          CFI EndBlock cfiCond332
          CFI EndBlock cfiCond333
          CFI EndBlock cfiCond334
          CFI EndBlock cfiPicker335

        RSEG BANKED_CODE:HUGECODE:NOROOT(0)
?Subroutine63:
          CFI Block cfiCond336 Using cfiCommon0
          CFI Function ZDSecMgrAddrStore
          CFI Conditional ??CrossCallReturnLabel_188, ??CrossCallReturnLabel_22
          CFI R6 load(1, XDATA, add(CFA_XSP16, literal(-9)))
          CFI VB load(1, XDATA, add(CFA_XSP16, literal(-8)))
          CFI V0 load(1, XDATA, add(CFA_XSP16, literal(-7)))
          CFI R7 load(1, XDATA, add(CFA_XSP16, literal(-6)))
          CFI ?RET_LOW load(1, XDATA, add(CFA_XSP16, literal(-5)))
          CFI ?RET_HIGH load(1, XDATA, add(CFA_XSP16, literal(-4)))
          CFI ?BRET_EXT load(1, XDATA, add(CFA_XSP16, literal(-3)))
          CFI DPL0 load(1, XDATA, add(CFA_XSP16, literal(-2)))
          CFI DPH0 load(1, XDATA, add(CFA_XSP16, literal(-1)))
          CFI CFA_SP SP+-4
          CFI CFA_XSP16 add(XSP16, 22)
          CFI Block cfiCond337 Using cfiCommon0
          CFI (cfiCond337) Function ZDSecMgrExtAddrStore
          CFI (cfiCond337) Conditional ??CrossCallReturnLabel_188, ??CrossCallReturnLabel_23
          CFI (cfiCond337) R6 load(1, XDATA, add(CFA_XSP16, literal(-9)))
          CFI (cfiCond337) VB load(1, XDATA, add(CFA_XSP16, literal(-8)))
          CFI (cfiCond337) V0 load(1, XDATA, add(CFA_XSP16, literal(-7)))
          CFI (cfiCond337) R7 load(1, XDATA, add(CFA_XSP16, literal(-6)))
          CFI (cfiCond337) ?RET_LOW load(1, XDATA, add(CFA_XSP16, literal(-5)))
          CFI (cfiCond337) ?RET_HIGH load(1, XDATA, add(CFA_XSP16, literal(-4)))
          CFI (cfiCond337) ?BRET_EXT load(1, XDATA, add(CFA_XSP16, literal(-3)))
          CFI (cfiCond337) DPL0 load(1, XDATA, add(CFA_XSP16, literal(-2)))
          CFI (cfiCond337) DPH0 load(1, XDATA, add(CFA_XSP16, literal(-1)))
          CFI (cfiCond337) CFA_SP SP+-4
          CFI (cfiCond337) CFA_XSP16 add(XSP16, 22)
          CFI Block cfiCond338 Using cfiCommon0
          CFI (cfiCond338) Function ZDSecMgrExtAddrLookup
          CFI (cfiCond338) Conditional ??CrossCallReturnLabel_188, ??CrossCallReturnLabel_24
          CFI (cfiCond338) R6 load(1, XDATA, add(CFA_XSP16, literal(-9)))
          CFI (cfiCond338) VB load(1, XDATA, add(CFA_XSP16, literal(-8)))
          CFI (cfiCond338) V0 load(1, XDATA, add(CFA_XSP16, literal(-7)))
          CFI (cfiCond338) R7 load(1, XDATA, add(CFA_XSP16, literal(-6)))
          CFI (cfiCond338) ?RET_LOW load(1, XDATA, add(CFA_XSP16, literal(-5)))
          CFI (cfiCond338) ?RET_HIGH load(1, XDATA, add(CFA_XSP16, literal(-4)))
          CFI (cfiCond338) ?BRET_EXT load(1, XDATA, add(CFA_XSP16, literal(-3)))
          CFI (cfiCond338) DPL0 load(1, XDATA, add(CFA_XSP16, literal(-2)))
          CFI (cfiCond338) DPH0 load(1, XDATA, add(CFA_XSP16, literal(-1)))
          CFI (cfiCond338) CFA_SP SP+-4
          CFI (cfiCond338) CFA_XSP16 add(XSP16, 22)
          CFI Block cfiCond339 Using cfiCommon0
          CFI (cfiCond339) Function ZDSecMgrAddrStore
          CFI (cfiCond339) Conditional ??CrossCallReturnLabel_187, ??CrossCallReturnLabel_19
          CFI (cfiCond339) R6 load(1, XDATA, add(CFA_XSP16, literal(-9)))
          CFI (cfiCond339) VB load(1, XDATA, add(CFA_XSP16, literal(-8)))
          CFI (cfiCond339) V0 load(1, XDATA, add(CFA_XSP16, literal(-7)))
          CFI (cfiCond339) R7 load(1, XDATA, add(CFA_XSP16, literal(-6)))
          CFI (cfiCond339) ?RET_LOW load(1, XDATA, add(CFA_XSP16, literal(-5)))
          CFI (cfiCond339) ?RET_HIGH load(1, XDATA, add(CFA_XSP16, literal(-4)))
          CFI (cfiCond339) ?BRET_EXT load(1, XDATA, add(CFA_XSP16, literal(-3)))
          CFI (cfiCond339) DPL0 load(1, XDATA, add(CFA_XSP16, literal(-2)))
          CFI (cfiCond339) DPH0 load(1, XDATA, add(CFA_XSP16, literal(-1)))
          CFI (cfiCond339) CFA_SP SP+-4
          CFI (cfiCond339) CFA_XSP16 add(XSP16, 22)
          CFI Block cfiCond340 Using cfiCommon0
          CFI (cfiCond340) Function ZDSecMgrExtAddrStore
          CFI (cfiCond340) Conditional ??CrossCallReturnLabel_187, ??CrossCallReturnLabel_20
          CFI (cfiCond340) R6 load(1, XDATA, add(CFA_XSP16, literal(-9)))
          CFI (cfiCond340) VB load(1, XDATA, add(CFA_XSP16, literal(-8)))
          CFI (cfiCond340) V0 load(1, XDATA, add(CFA_XSP16, literal(-7)))
          CFI (cfiCond340) R7 load(1, XDATA, add(CFA_XSP16, literal(-6)))
          CFI (cfiCond340) ?RET_LOW load(1, XDATA, add(CFA_XSP16, literal(-5)))
          CFI (cfiCond340) ?RET_HIGH load(1, XDATA, add(CFA_XSP16, literal(-4)))
          CFI (cfiCond340) ?BRET_EXT load(1, XDATA, add(CFA_XSP16, literal(-3)))
          CFI (cfiCond340) DPL0 load(1, XDATA, add(CFA_XSP16, literal(-2)))
          CFI (cfiCond340) DPH0 load(1, XDATA, add(CFA_XSP16, literal(-1)))
          CFI (cfiCond340) CFA_SP SP+-4
          CFI (cfiCond340) CFA_XSP16 add(XSP16, 22)
          CFI Block cfiCond341 Using cfiCommon0
          CFI (cfiCond341) Function ZDSecMgrExtAddrLookup
          CFI (cfiCond341) Conditional ??CrossCallReturnLabel_187, ??CrossCallReturnLabel_21
          CFI (cfiCond341) R6 load(1, XDATA, add(CFA_XSP16, literal(-9)))
          CFI (cfiCond341) VB load(1, XDATA, add(CFA_XSP16, literal(-8)))
          CFI (cfiCond341) V0 load(1, XDATA, add(CFA_XSP16, literal(-7)))
          CFI (cfiCond341) R7 load(1, XDATA, add(CFA_XSP16, literal(-6)))
          CFI (cfiCond341) ?RET_LOW load(1, XDATA, add(CFA_XSP16, literal(-5)))
          CFI (cfiCond341) ?RET_HIGH load(1, XDATA, add(CFA_XSP16, literal(-4)))
          CFI (cfiCond341) ?BRET_EXT load(1, XDATA, add(CFA_XSP16, literal(-3)))
          CFI (cfiCond341) DPL0 load(1, XDATA, add(CFA_XSP16, literal(-2)))
          CFI (cfiCond341) DPH0 load(1, XDATA, add(CFA_XSP16, literal(-1)))
          CFI (cfiCond341) CFA_SP SP+-4
          CFI (cfiCond341) CFA_XSP16 add(XSP16, 22)
          CFI Block cfiPicker342 Using cfiCommon1
          CFI (cfiPicker342) NoFunction
          CFI (cfiPicker342) Picker
        LCALL     ?Subroutine73 & 0xFFFF
??CrossCallReturnLabel_212:
        MOV       DPL,R6
        MOV       DPH,R7
          CFI EndBlock cfiCond336
          CFI EndBlock cfiCond337
          CFI EndBlock cfiCond338
          CFI EndBlock cfiCond339
          CFI EndBlock cfiCond340
          CFI EndBlock cfiCond341
          CFI EndBlock cfiPicker342
        REQUIRE ??Subroutine97_0
        ; // Fall through to label ??Subroutine97_0

        RSEG BANKED_CODE:HUGECODE:NOROOT(0)
??Subroutine97_0:
          CFI Block cfiCond343 Using cfiCommon0
          CFI Function ZDSecMgrEstablishKey
          CFI Conditional ??CrossCallReturnLabel_189, ??CrossCallReturnLabel_112
          CFI R6 load(1, XDATA, add(CFA_XSP16, literal(-10)))
          CFI VB load(1, XDATA, add(CFA_XSP16, literal(-9)))
          CFI V0 load(1, XDATA, add(CFA_XSP16, literal(-8)))
          CFI V1 load(1, XDATA, add(CFA_XSP16, literal(-7)))
          CFI R7 load(1, XDATA, add(CFA_XSP16, literal(-6)))
          CFI ?RET_LOW load(1, XDATA, add(CFA_XSP16, literal(-5)))
          CFI ?RET_HIGH load(1, XDATA, add(CFA_XSP16, literal(-4)))
          CFI ?BRET_EXT load(1, XDATA, add(CFA_XSP16, literal(-3)))
          CFI DPL0 load(1, XDATA, add(CFA_XSP16, literal(-2)))
          CFI DPH0 load(1, XDATA, add(CFA_XSP16, literal(-1)))
          CFI CFA_SP SP+-4
          CFI CFA_XSP16 add(XSP16, 17)
          CFI Block cfiCond344 Using cfiCommon0
          CFI (cfiCond344) Function ZDSecMgrEstablishKey
          CFI (cfiCond344) Conditional ??CrossCallReturnLabel_189, ??CrossCallReturnLabel_113
          CFI (cfiCond344) R6 load(1, XDATA, add(CFA_XSP16, literal(-10)))
          CFI (cfiCond344) VB load(1, XDATA, add(CFA_XSP16, literal(-9)))
          CFI (cfiCond344) V0 load(1, XDATA, add(CFA_XSP16, literal(-8)))
          CFI (cfiCond344) V1 load(1, XDATA, add(CFA_XSP16, literal(-7)))
          CFI (cfiCond344) R7 load(1, XDATA, add(CFA_XSP16, literal(-6)))
          CFI (cfiCond344) ?RET_LOW load(1, XDATA, add(CFA_XSP16, literal(-5)))
          CFI (cfiCond344) ?RET_HIGH load(1, XDATA, add(CFA_XSP16, literal(-4)))
          CFI (cfiCond344) ?BRET_EXT load(1, XDATA, add(CFA_XSP16, literal(-3)))
          CFI (cfiCond344) DPL0 load(1, XDATA, add(CFA_XSP16, literal(-2)))
          CFI (cfiCond344) DPH0 load(1, XDATA, add(CFA_XSP16, literal(-1)))
          CFI (cfiCond344) CFA_SP SP+-4
          CFI (cfiCond344) CFA_XSP16 add(XSP16, 17)
          CFI Block cfiCond345 Using cfiCommon0
          CFI (cfiCond345) Function ZDSecMgrDeviceRemove
          CFI (cfiCond345) Conditional ??CrossCallReturnLabel_189, ??CrossCallReturnLabel_114
          CFI (cfiCond345) R6 load(1, XDATA, add(CFA_XSP16, literal(-10)))
          CFI (cfiCond345) VB load(1, XDATA, add(CFA_XSP16, literal(-9)))
          CFI (cfiCond345) V0 load(1, XDATA, add(CFA_XSP16, literal(-8)))
          CFI (cfiCond345) V1 load(1, XDATA, add(CFA_XSP16, literal(-7)))
          CFI (cfiCond345) R7 load(1, XDATA, add(CFA_XSP16, literal(-6)))
          CFI (cfiCond345) ?RET_LOW load(1, XDATA, add(CFA_XSP16, literal(-5)))
          CFI (cfiCond345) ?RET_HIGH load(1, XDATA, add(CFA_XSP16, literal(-4)))
          CFI (cfiCond345) ?BRET_EXT load(1, XDATA, add(CFA_XSP16, literal(-3)))
          CFI (cfiCond345) DPL0 load(1, XDATA, add(CFA_XSP16, literal(-2)))
          CFI (cfiCond345) DPH0 load(1, XDATA, add(CFA_XSP16, literal(-1)))
          CFI (cfiCond345) CFA_SP SP+-4
          CFI (cfiCond345) CFA_XSP16 add(XSP16, 19)
          CFI Block cfiCond346 Using cfiCommon0
          CFI (cfiCond346) Function ZDSecMgrNewDeviceEvent
          CFI (cfiCond346) Conditional ??CrossCallReturnLabel_190, ??CrossCallReturnLabel_160
          CFI (cfiCond346) R6 load(1, XDATA, add(CFA_XSP16, literal(-12)))
          CFI (cfiCond346) VB load(1, XDATA, add(CFA_XSP16, literal(-11)))
          CFI (cfiCond346) V0 load(1, XDATA, add(CFA_XSP16, literal(-10)))
          CFI (cfiCond346) V1 load(1, XDATA, add(CFA_XSP16, literal(-9)))
          CFI (cfiCond346) V2 load(1, XDATA, add(CFA_XSP16, literal(-8)))
          CFI (cfiCond346) V3 load(1, XDATA, add(CFA_XSP16, literal(-7)))
          CFI (cfiCond346) R7 load(1, XDATA, add(CFA_XSP16, literal(-6)))
          CFI (cfiCond346) ?RET_LOW load(1, XDATA, add(CFA_XSP16, literal(-5)))
          CFI (cfiCond346) ?RET_HIGH load(1, XDATA, add(CFA_XSP16, literal(-4)))
          CFI (cfiCond346) ?BRET_EXT load(1, XDATA, add(CFA_XSP16, literal(-3)))
          CFI (cfiCond346) DPL0 load(1, XDATA, add(CFA_XSP16, literal(-2)))
          CFI (cfiCond346) DPH0 load(1, XDATA, add(CFA_XSP16, literal(-1)))
          CFI (cfiCond346) CFA_SP SP+-4
          CFI (cfiCond346) CFA_XSP16 add(XSP16, 35)
          CFI Block cfiCond347 Using cfiCommon0
          CFI (cfiCond347) Function ZDSecMgrEvent
          CFI (cfiCond347) Conditional ??CrossCallReturnLabel_190, ??CrossCallReturnLabel_161
          CFI (cfiCond347) R6 load(1, XDATA, add(CFA_XSP16, literal(-10)))
          CFI (cfiCond347) VB load(1, XDATA, add(CFA_XSP16, literal(-9)))
          CFI (cfiCond347) V0 load(1, XDATA, add(CFA_XSP16, literal(-8)))
          CFI (cfiCond347) V1 load(1, XDATA, add(CFA_XSP16, literal(-7)))
          CFI (cfiCond347) R7 load(1, XDATA, add(CFA_XSP16, literal(-6)))
          CFI (cfiCond347) ?RET_LOW load(1, XDATA, add(CFA_XSP16, literal(-5)))
          CFI (cfiCond347) ?RET_HIGH load(1, XDATA, add(CFA_XSP16, literal(-4)))
          CFI (cfiCond347) ?BRET_EXT load(1, XDATA, add(CFA_XSP16, literal(-3)))
          CFI (cfiCond347) DPL0 load(1, XDATA, add(CFA_XSP16, literal(-2)))
          CFI (cfiCond347) DPH0 load(1, XDATA, add(CFA_XSP16, literal(-1)))
          CFI (cfiCond347) CFA_SP SP+-4
          CFI (cfiCond347) CFA_XSP16 add(XSP16, 33)
          CFI Block cfiCond348 Using cfiCommon0
          CFI (cfiCond348) Function ZDSecMgrUpdateDeviceInd
          CFI (cfiCond348) Conditional ??CrossCallReturnLabel_190, ??CrossCallReturnLabel_162
          CFI (cfiCond348) DPL0 Frame(CFA_SP, 4)
          CFI (cfiCond348) DPH0 Frame(CFA_SP, 5)
          CFI (cfiCond348) CFA_SP SP+-9
          CFI (cfiCond348) CFA_XSP16 add(XSP16, 10)
          CFI Block cfiCond349 Using cfiCommon0
          CFI (cfiCond349) Function ZDSecMgrCtrlSet
          CFI (cfiCond349) Conditional ??CrossCallReturnLabel_190, ??CrossCallReturnLabel_149
          CFI (cfiCond349) R6 load(1, XDATA, add(CFA_XSP16, literal(-9)))
          CFI (cfiCond349) VB load(1, XDATA, add(CFA_XSP16, literal(-8)))
          CFI (cfiCond349) V0 load(1, XDATA, add(CFA_XSP16, literal(-7)))
          CFI (cfiCond349) R7 load(1, XDATA, add(CFA_XSP16, literal(-6)))
          CFI (cfiCond349) ?RET_LOW load(1, XDATA, add(CFA_XSP16, literal(-5)))
          CFI (cfiCond349) ?RET_HIGH load(1, XDATA, add(CFA_XSP16, literal(-4)))
          CFI (cfiCond349) ?BRET_EXT load(1, XDATA, add(CFA_XSP16, literal(-3)))
          CFI (cfiCond349) DPL0 load(1, XDATA, add(CFA_XSP16, literal(-2)))
          CFI (cfiCond349) DPH0 load(1, XDATA, add(CFA_XSP16, literal(-1)))
          CFI (cfiCond349) CFA_SP SP+-4
          CFI (cfiCond349) CFA_XSP16 add(XSP16, 9)
          CFI Block cfiCond350 Using cfiCommon0
          CFI (cfiCond350) Function ZDSecMgrAppKeyReq
          CFI (cfiCond350) Conditional ??CrossCallReturnLabel_190, ??CrossCallReturnLabel_150
          CFI (cfiCond350) R6 load(1, XDATA, add(CFA_XSP16, literal(-12)))
          CFI (cfiCond350) VB load(1, XDATA, add(CFA_XSP16, literal(-11)))
          CFI (cfiCond350) V0 load(1, XDATA, add(CFA_XSP16, literal(-10)))
          CFI (cfiCond350) V1 load(1, XDATA, add(CFA_XSP16, literal(-9)))
          CFI (cfiCond350) V2 load(1, XDATA, add(CFA_XSP16, literal(-8)))
          CFI (cfiCond350) V3 load(1, XDATA, add(CFA_XSP16, literal(-7)))
          CFI (cfiCond350) R7 load(1, XDATA, add(CFA_XSP16, literal(-6)))
          CFI (cfiCond350) ?RET_LOW load(1, XDATA, add(CFA_XSP16, literal(-5)))
          CFI (cfiCond350) ?RET_HIGH load(1, XDATA, add(CFA_XSP16, literal(-4)))
          CFI (cfiCond350) ?BRET_EXT load(1, XDATA, add(CFA_XSP16, literal(-3)))
          CFI (cfiCond350) DPL0 load(1, XDATA, add(CFA_XSP16, literal(-2)))
          CFI (cfiCond350) DPH0 load(1, XDATA, add(CFA_XSP16, literal(-1)))
          CFI (cfiCond350) CFA_SP SP+-4
          CFI (cfiCond350) CFA_XSP16 add(XSP16, 51)
          CFI Block cfiCond351 Using cfiCommon0
          CFI (cfiCond351) Function ZDSecMgrAppKeyReq
          CFI (cfiCond351) Conditional ??CrossCallReturnLabel_190, ??CrossCallReturnLabel_151
          CFI (cfiCond351) R6 load(1, XDATA, add(CFA_XSP16, literal(-12)))
          CFI (cfiCond351) VB load(1, XDATA, add(CFA_XSP16, literal(-11)))
          CFI (cfiCond351) V0 load(1, XDATA, add(CFA_XSP16, literal(-10)))
          CFI (cfiCond351) V1 load(1, XDATA, add(CFA_XSP16, literal(-9)))
          CFI (cfiCond351) V2 load(1, XDATA, add(CFA_XSP16, literal(-8)))
          CFI (cfiCond351) V3 load(1, XDATA, add(CFA_XSP16, literal(-7)))
          CFI (cfiCond351) R7 load(1, XDATA, add(CFA_XSP16, literal(-6)))
          CFI (cfiCond351) ?RET_LOW load(1, XDATA, add(CFA_XSP16, literal(-5)))
          CFI (cfiCond351) ?RET_HIGH load(1, XDATA, add(CFA_XSP16, literal(-4)))
          CFI (cfiCond351) ?BRET_EXT load(1, XDATA, add(CFA_XSP16, literal(-3)))
          CFI (cfiCond351) DPL0 load(1, XDATA, add(CFA_XSP16, literal(-2)))
          CFI (cfiCond351) DPH0 load(1, XDATA, add(CFA_XSP16, literal(-1)))
          CFI (cfiCond351) CFA_SP SP+-4
          CFI (cfiCond351) CFA_XSP16 add(XSP16, 51)
          CFI Block cfiCond352 Using cfiCommon0
          CFI (cfiCond352) Function ZDSecMgrAppKeyReq
          CFI (cfiCond352) Conditional ??CrossCallReturnLabel_190, ??CrossCallReturnLabel_152
          CFI (cfiCond352) R6 load(1, XDATA, add(CFA_XSP16, literal(-12)))
          CFI (cfiCond352) VB load(1, XDATA, add(CFA_XSP16, literal(-11)))
          CFI (cfiCond352) V0 load(1, XDATA, add(CFA_XSP16, literal(-10)))
          CFI (cfiCond352) V1 load(1, XDATA, add(CFA_XSP16, literal(-9)))
          CFI (cfiCond352) V2 load(1, XDATA, add(CFA_XSP16, literal(-8)))
          CFI (cfiCond352) V3 load(1, XDATA, add(CFA_XSP16, literal(-7)))
          CFI (cfiCond352) R7 load(1, XDATA, add(CFA_XSP16, literal(-6)))
          CFI (cfiCond352) ?RET_LOW load(1, XDATA, add(CFA_XSP16, literal(-5)))
          CFI (cfiCond352) ?RET_HIGH load(1, XDATA, add(CFA_XSP16, literal(-4)))
          CFI (cfiCond352) ?BRET_EXT load(1, XDATA, add(CFA_XSP16, literal(-3)))
          CFI (cfiCond352) DPL0 load(1, XDATA, add(CFA_XSP16, literal(-2)))
          CFI (cfiCond352) DPH0 load(1, XDATA, add(CFA_XSP16, literal(-1)))
          CFI (cfiCond352) CFA_SP SP+-4
          CFI (cfiCond352) CFA_XSP16 add(XSP16, 51)
          CFI Block cfiCond353 Using cfiCommon0
          CFI (cfiCond353) Function ZDSecMgrEstablishKey
          CFI (cfiCond353) Conditional ??CrossCallReturnLabel_190, ??CrossCallReturnLabel_153
          CFI (cfiCond353) R6 load(1, XDATA, add(CFA_XSP16, literal(-10)))
          CFI (cfiCond353) VB load(1, XDATA, add(CFA_XSP16, literal(-9)))
          CFI (cfiCond353) V0 load(1, XDATA, add(CFA_XSP16, literal(-8)))
          CFI (cfiCond353) V1 load(1, XDATA, add(CFA_XSP16, literal(-7)))
          CFI (cfiCond353) R7 load(1, XDATA, add(CFA_XSP16, literal(-6)))
          CFI (cfiCond353) ?RET_LOW load(1, XDATA, add(CFA_XSP16, literal(-5)))
          CFI (cfiCond353) ?RET_HIGH load(1, XDATA, add(CFA_XSP16, literal(-4)))
          CFI (cfiCond353) ?BRET_EXT load(1, XDATA, add(CFA_XSP16, literal(-3)))
          CFI (cfiCond353) DPL0 load(1, XDATA, add(CFA_XSP16, literal(-2)))
          CFI (cfiCond353) DPH0 load(1, XDATA, add(CFA_XSP16, literal(-1)))
          CFI (cfiCond353) CFA_SP SP+-4
          CFI (cfiCond353) CFA_XSP16 add(XSP16, 17)
          CFI Block cfiCond354 Using cfiCommon0
          CFI (cfiCond354) Function ZDSecMgrSendMasterKey
          CFI (cfiCond354) Conditional ??CrossCallReturnLabel_190, ??CrossCallReturnLabel_154
          CFI (cfiCond354) R6 load(1, XDATA, add(CFA_XSP16, literal(-10)))
          CFI (cfiCond354) VB load(1, XDATA, add(CFA_XSP16, literal(-9)))
          CFI (cfiCond354) V0 load(1, XDATA, add(CFA_XSP16, literal(-8)))
          CFI (cfiCond354) V1 load(1, XDATA, add(CFA_XSP16, literal(-7)))
          CFI (cfiCond354) R7 load(1, XDATA, add(CFA_XSP16, literal(-6)))
          CFI (cfiCond354) ?RET_LOW load(1, XDATA, add(CFA_XSP16, literal(-5)))
          CFI (cfiCond354) ?RET_HIGH load(1, XDATA, add(CFA_XSP16, literal(-4)))
          CFI (cfiCond354) ?BRET_EXT load(1, XDATA, add(CFA_XSP16, literal(-3)))
          CFI (cfiCond354) DPL0 load(1, XDATA, add(CFA_XSP16, literal(-2)))
          CFI (cfiCond354) DPH0 load(1, XDATA, add(CFA_XSP16, literal(-1)))
          CFI (cfiCond354) CFA_SP SP+-4
          CFI (cfiCond354) CFA_XSP16 add(XSP16, 23)
          CFI Block cfiCond355 Using cfiCommon0
          CFI (cfiCond355) Function ZDSecMgrDeviceJoinFwd
          CFI (cfiCond355) Conditional ??CrossCallReturnLabel_190, ??CrossCallReturnLabel_155
          CFI (cfiCond355) DPL0 Frame(CFA_SP, 4)
          CFI (cfiCond355) DPH0 Frame(CFA_SP, 5)
          CFI (cfiCond355) CFA_SP SP+-9
          CFI (cfiCond355) CFA_XSP16 add(XSP16, 8)
          CFI Block cfiCond356 Using cfiCommon0
          CFI (cfiCond356) Function ZDSecMgrNewDeviceEvent
          CFI (cfiCond356) Conditional ??CrossCallReturnLabel_190, ??CrossCallReturnLabel_156
          CFI (cfiCond356) R6 load(1, XDATA, add(CFA_XSP16, literal(-12)))
          CFI (cfiCond356) VB load(1, XDATA, add(CFA_XSP16, literal(-11)))
          CFI (cfiCond356) V0 load(1, XDATA, add(CFA_XSP16, literal(-10)))
          CFI (cfiCond356) V1 load(1, XDATA, add(CFA_XSP16, literal(-9)))
          CFI (cfiCond356) V2 load(1, XDATA, add(CFA_XSP16, literal(-8)))
          CFI (cfiCond356) V3 load(1, XDATA, add(CFA_XSP16, literal(-7)))
          CFI (cfiCond356) R7 load(1, XDATA, add(CFA_XSP16, literal(-6)))
          CFI (cfiCond356) ?RET_LOW load(1, XDATA, add(CFA_XSP16, literal(-5)))
          CFI (cfiCond356) ?RET_HIGH load(1, XDATA, add(CFA_XSP16, literal(-4)))
          CFI (cfiCond356) ?BRET_EXT load(1, XDATA, add(CFA_XSP16, literal(-3)))
          CFI (cfiCond356) DPL0 load(1, XDATA, add(CFA_XSP16, literal(-2)))
          CFI (cfiCond356) DPH0 load(1, XDATA, add(CFA_XSP16, literal(-1)))
          CFI (cfiCond356) CFA_SP SP+-4
          CFI (cfiCond356) CFA_XSP16 add(XSP16, 35)
          CFI Block cfiCond357 Using cfiCommon0
          CFI (cfiCond357) Function ZDSecMgrEstablishKeyInd
          CFI (cfiCond357) Conditional ??CrossCallReturnLabel_190, ??CrossCallReturnLabel_157
          CFI (cfiCond357) R6 load(1, XDATA, add(CFA_XSP16, literal(-14)))
          CFI (cfiCond357) VB load(1, XDATA, add(CFA_XSP16, literal(-13)))
          CFI (cfiCond357) V0 load(1, XDATA, add(CFA_XSP16, literal(-12)))
          CFI (cfiCond357) V1 load(1, XDATA, add(CFA_XSP16, literal(-11)))
          CFI (cfiCond357) V2 load(1, XDATA, add(CFA_XSP16, literal(-10)))
          CFI (cfiCond357) V3 load(1, XDATA, add(CFA_XSP16, literal(-9)))
          CFI (cfiCond357) V4 load(1, XDATA, add(CFA_XSP16, literal(-8)))
          CFI (cfiCond357) V5 load(1, XDATA, add(CFA_XSP16, literal(-7)))
          CFI (cfiCond357) R7 load(1, XDATA, add(CFA_XSP16, literal(-6)))
          CFI (cfiCond357) ?RET_LOW load(1, XDATA, add(CFA_XSP16, literal(-5)))
          CFI (cfiCond357) ?RET_HIGH load(1, XDATA, add(CFA_XSP16, literal(-4)))
          CFI (cfiCond357) ?BRET_EXT load(1, XDATA, add(CFA_XSP16, literal(-3)))
          CFI (cfiCond357) DPL0 load(1, XDATA, add(CFA_XSP16, literal(-2)))
          CFI (cfiCond357) DPH0 load(1, XDATA, add(CFA_XSP16, literal(-1)))
          CFI (cfiCond357) CFA_SP SP+-4
          CFI (cfiCond357) CFA_XSP16 add(XSP16, 31)
          CFI Block cfiCond358 Using cfiCommon0
          CFI (cfiCond358) Function ZDSecMgrAuthenticateInd
          CFI (cfiCond358) Conditional ??CrossCallReturnLabel_190, ??CrossCallReturnLabel_158
          CFI (cfiCond358) R6 load(1, XDATA, add(CFA_XSP16, literal(-12)))
          CFI (cfiCond358) VB load(1, XDATA, add(CFA_XSP16, literal(-11)))
          CFI (cfiCond358) V0 load(1, XDATA, add(CFA_XSP16, literal(-10)))
          CFI (cfiCond358) V1 load(1, XDATA, add(CFA_XSP16, literal(-9)))
          CFI (cfiCond358) V2 load(1, XDATA, add(CFA_XSP16, literal(-8)))
          CFI (cfiCond358) V3 load(1, XDATA, add(CFA_XSP16, literal(-7)))
          CFI (cfiCond358) R7 load(1, XDATA, add(CFA_XSP16, literal(-6)))
          CFI (cfiCond358) ?RET_LOW load(1, XDATA, add(CFA_XSP16, literal(-5)))
          CFI (cfiCond358) ?RET_HIGH load(1, XDATA, add(CFA_XSP16, literal(-4)))
          CFI (cfiCond358) ?BRET_EXT load(1, XDATA, add(CFA_XSP16, literal(-3)))
          CFI (cfiCond358) DPL0 load(1, XDATA, add(CFA_XSP16, literal(-2)))
          CFI (cfiCond358) DPH0 load(1, XDATA, add(CFA_XSP16, literal(-1)))
          CFI (cfiCond358) CFA_SP SP+-4
          CFI (cfiCond358) CFA_XSP16 add(XSP16, 32)
          CFI Block cfiCond359 Using cfiCommon0
          CFI (cfiCond359) Function ZDSecMgrAddLinkKey
          CFI (cfiCond359) Conditional ??CrossCallReturnLabel_190, ??CrossCallReturnLabel_159
          CFI (cfiCond359) R6 load(1, XDATA, add(CFA_XSP16, literal(-10)))
          CFI (cfiCond359) VB load(1, XDATA, add(CFA_XSP16, literal(-9)))
          CFI (cfiCond359) V0 load(1, XDATA, add(CFA_XSP16, literal(-8)))
          CFI (cfiCond359) V1 load(1, XDATA, add(CFA_XSP16, literal(-7)))
          CFI (cfiCond359) R7 load(1, XDATA, add(CFA_XSP16, literal(-6)))
          CFI (cfiCond359) ?RET_LOW load(1, XDATA, add(CFA_XSP16, literal(-5)))
          CFI (cfiCond359) ?RET_HIGH load(1, XDATA, add(CFA_XSP16, literal(-4)))
          CFI (cfiCond359) ?BRET_EXT load(1, XDATA, add(CFA_XSP16, literal(-3)))
          CFI (cfiCond359) DPL0 load(1, XDATA, add(CFA_XSP16, literal(-2)))
          CFI (cfiCond359) DPH0 load(1, XDATA, add(CFA_XSP16, literal(-1)))
          CFI (cfiCond359) CFA_SP SP+-4
          CFI (cfiCond359) CFA_XSP16 add(XSP16, 14)
          CFI Block cfiCond360 Using cfiCommon0
          CFI (cfiCond360) Function ZDSecMgrSendMasterKey
          CFI (cfiCond360) Conditional ??CrossCallReturnLabel_191, ??CrossCallReturnLabel_177
          CFI (cfiCond360) R6 load(1, XDATA, add(CFA_XSP16, literal(-10)))
          CFI (cfiCond360) VB load(1, XDATA, add(CFA_XSP16, literal(-9)))
          CFI (cfiCond360) V0 load(1, XDATA, add(CFA_XSP16, literal(-8)))
          CFI (cfiCond360) V1 load(1, XDATA, add(CFA_XSP16, literal(-7)))
          CFI (cfiCond360) R7 load(1, XDATA, add(CFA_XSP16, literal(-6)))
          CFI (cfiCond360) ?RET_LOW load(1, XDATA, add(CFA_XSP16, literal(-5)))
          CFI (cfiCond360) ?RET_HIGH load(1, XDATA, add(CFA_XSP16, literal(-4)))
          CFI (cfiCond360) ?BRET_EXT load(1, XDATA, add(CFA_XSP16, literal(-3)))
          CFI (cfiCond360) DPL0 load(1, XDATA, add(CFA_XSP16, literal(-2)))
          CFI (cfiCond360) DPH0 load(1, XDATA, add(CFA_XSP16, literal(-1)))
          CFI (cfiCond360) CFA_SP SP+-4
          CFI (cfiCond360) CFA_XSP16 add(XSP16, 23)
          CFI Block cfiCond361 Using cfiCommon0
          CFI (cfiCond361) Function ZDSecMgrSendMasterKey
          CFI (cfiCond361) Conditional ??CrossCallReturnLabel_191, ??CrossCallReturnLabel_178
          CFI (cfiCond361) R6 load(1, XDATA, add(CFA_XSP16, literal(-10)))
          CFI (cfiCond361) VB load(1, XDATA, add(CFA_XSP16, literal(-9)))
          CFI (cfiCond361) V0 load(1, XDATA, add(CFA_XSP16, literal(-8)))
          CFI (cfiCond361) V1 load(1, XDATA, add(CFA_XSP16, literal(-7)))
          CFI (cfiCond361) R7 load(1, XDATA, add(CFA_XSP16, literal(-6)))
          CFI (cfiCond361) ?RET_LOW load(1, XDATA, add(CFA_XSP16, literal(-5)))
          CFI (cfiCond361) ?RET_HIGH load(1, XDATA, add(CFA_XSP16, literal(-4)))
          CFI (cfiCond361) ?BRET_EXT load(1, XDATA, add(CFA_XSP16, literal(-3)))
          CFI (cfiCond361) DPL0 load(1, XDATA, add(CFA_XSP16, literal(-2)))
          CFI (cfiCond361) DPH0 load(1, XDATA, add(CFA_XSP16, literal(-1)))
          CFI (cfiCond361) CFA_SP SP+-4
          CFI (cfiCond361) CFA_XSP16 add(XSP16, 23)
          CFI Block cfiCond362 Using cfiCommon0
          CFI (cfiCond362) Function ZDSecMgrAppKeyReq
          CFI (cfiCond362) Conditional ??CrossCallReturnLabel_191, ??CrossCallReturnLabel_179
          CFI (cfiCond362) R6 load(1, XDATA, add(CFA_XSP16, literal(-12)))
          CFI (cfiCond362) VB load(1, XDATA, add(CFA_XSP16, literal(-11)))
          CFI (cfiCond362) V0 load(1, XDATA, add(CFA_XSP16, literal(-10)))
          CFI (cfiCond362) V1 load(1, XDATA, add(CFA_XSP16, literal(-9)))
          CFI (cfiCond362) V2 load(1, XDATA, add(CFA_XSP16, literal(-8)))
          CFI (cfiCond362) V3 load(1, XDATA, add(CFA_XSP16, literal(-7)))
          CFI (cfiCond362) R7 load(1, XDATA, add(CFA_XSP16, literal(-6)))
          CFI (cfiCond362) ?RET_LOW load(1, XDATA, add(CFA_XSP16, literal(-5)))
          CFI (cfiCond362) ?RET_HIGH load(1, XDATA, add(CFA_XSP16, literal(-4)))
          CFI (cfiCond362) ?BRET_EXT load(1, XDATA, add(CFA_XSP16, literal(-3)))
          CFI (cfiCond362) DPL0 load(1, XDATA, add(CFA_XSP16, literal(-2)))
          CFI (cfiCond362) DPH0 load(1, XDATA, add(CFA_XSP16, literal(-1)))
          CFI (cfiCond362) CFA_SP SP+-4
          CFI (cfiCond362) CFA_XSP16 add(XSP16, 51)
          CFI Block cfiCond363 Using cfiCommon0
          CFI (cfiCond363) Function ZDSecMgrNewDeviceEvent
          CFI (cfiCond363) Conditional ??CrossCallReturnLabel_191, ??CrossCallReturnLabel_180
          CFI (cfiCond363) R6 load(1, XDATA, add(CFA_XSP16, literal(-12)))
          CFI (cfiCond363) VB load(1, XDATA, add(CFA_XSP16, literal(-11)))
          CFI (cfiCond363) V0 load(1, XDATA, add(CFA_XSP16, literal(-10)))
          CFI (cfiCond363) V1 load(1, XDATA, add(CFA_XSP16, literal(-9)))
          CFI (cfiCond363) V2 load(1, XDATA, add(CFA_XSP16, literal(-8)))
          CFI (cfiCond363) V3 load(1, XDATA, add(CFA_XSP16, literal(-7)))
          CFI (cfiCond363) R7 load(1, XDATA, add(CFA_XSP16, literal(-6)))
          CFI (cfiCond363) ?RET_LOW load(1, XDATA, add(CFA_XSP16, literal(-5)))
          CFI (cfiCond363) ?RET_HIGH load(1, XDATA, add(CFA_XSP16, literal(-4)))
          CFI (cfiCond363) ?BRET_EXT load(1, XDATA, add(CFA_XSP16, literal(-3)))
          CFI (cfiCond363) DPL0 load(1, XDATA, add(CFA_XSP16, literal(-2)))
          CFI (cfiCond363) DPH0 load(1, XDATA, add(CFA_XSP16, literal(-1)))
          CFI (cfiCond363) CFA_SP SP+-4
          CFI (cfiCond363) CFA_XSP16 add(XSP16, 35)
          CFI Block cfiCond364 Using cfiCommon0
          CFI (cfiCond364) Function ZDSecMgrEvent
          CFI (cfiCond364) Conditional ??CrossCallReturnLabel_191, ??CrossCallReturnLabel_181
          CFI (cfiCond364) R6 load(1, XDATA, add(CFA_XSP16, literal(-10)))
          CFI (cfiCond364) VB load(1, XDATA, add(CFA_XSP16, literal(-9)))
          CFI (cfiCond364) V0 load(1, XDATA, add(CFA_XSP16, literal(-8)))
          CFI (cfiCond364) V1 load(1, XDATA, add(CFA_XSP16, literal(-7)))
          CFI (cfiCond364) R7 load(1, XDATA, add(CFA_XSP16, literal(-6)))
          CFI (cfiCond364) ?RET_LOW load(1, XDATA, add(CFA_XSP16, literal(-5)))
          CFI (cfiCond364) ?RET_HIGH load(1, XDATA, add(CFA_XSP16, literal(-4)))
          CFI (cfiCond364) ?BRET_EXT load(1, XDATA, add(CFA_XSP16, literal(-3)))
          CFI (cfiCond364) DPL0 load(1, XDATA, add(CFA_XSP16, literal(-2)))
          CFI (cfiCond364) DPH0 load(1, XDATA, add(CFA_XSP16, literal(-1)))
          CFI (cfiCond364) CFA_SP SP+-4
          CFI (cfiCond364) CFA_XSP16 add(XSP16, 33)
          CFI Block cfiCond365 Using cfiCommon0
          CFI (cfiCond365) Function ZDSecMgrEvent
          CFI (cfiCond365) Conditional ??CrossCallReturnLabel_191, ??CrossCallReturnLabel_182
          CFI (cfiCond365) R6 load(1, XDATA, add(CFA_XSP16, literal(-10)))
          CFI (cfiCond365) VB load(1, XDATA, add(CFA_XSP16, literal(-9)))
          CFI (cfiCond365) V0 load(1, XDATA, add(CFA_XSP16, literal(-8)))
          CFI (cfiCond365) V1 load(1, XDATA, add(CFA_XSP16, literal(-7)))
          CFI (cfiCond365) R7 load(1, XDATA, add(CFA_XSP16, literal(-6)))
          CFI (cfiCond365) ?RET_LOW load(1, XDATA, add(CFA_XSP16, literal(-5)))
          CFI (cfiCond365) ?RET_HIGH load(1, XDATA, add(CFA_XSP16, literal(-4)))
          CFI (cfiCond365) ?BRET_EXT load(1, XDATA, add(CFA_XSP16, literal(-3)))
          CFI (cfiCond365) DPL0 load(1, XDATA, add(CFA_XSP16, literal(-2)))
          CFI (cfiCond365) DPH0 load(1, XDATA, add(CFA_XSP16, literal(-1)))
          CFI (cfiCond365) CFA_SP SP+-4
          CFI (cfiCond365) CFA_XSP16 add(XSP16, 33)
          CFI Block cfiCond366 Using cfiCommon0
          CFI (cfiCond366) Function ZDSecMgrEstablishKeyInd
          CFI (cfiCond366) Conditional ??CrossCallReturnLabel_192, ??CrossCallReturnLabel_183
          CFI (cfiCond366) R6 load(1, XDATA, add(CFA_XSP16, literal(-14)))
          CFI (cfiCond366) VB load(1, XDATA, add(CFA_XSP16, literal(-13)))
          CFI (cfiCond366) V0 load(1, XDATA, add(CFA_XSP16, literal(-12)))
          CFI (cfiCond366) V1 load(1, XDATA, add(CFA_XSP16, literal(-11)))
          CFI (cfiCond366) V2 load(1, XDATA, add(CFA_XSP16, literal(-10)))
          CFI (cfiCond366) V3 load(1, XDATA, add(CFA_XSP16, literal(-9)))
          CFI (cfiCond366) V4 load(1, XDATA, add(CFA_XSP16, literal(-8)))
          CFI (cfiCond366) V5 load(1, XDATA, add(CFA_XSP16, literal(-7)))
          CFI (cfiCond366) R7 load(1, XDATA, add(CFA_XSP16, literal(-6)))
          CFI (cfiCond366) ?RET_LOW load(1, XDATA, add(CFA_XSP16, literal(-5)))
          CFI (cfiCond366) ?RET_HIGH load(1, XDATA, add(CFA_XSP16, literal(-4)))
          CFI (cfiCond366) ?BRET_EXT load(1, XDATA, add(CFA_XSP16, literal(-3)))
          CFI (cfiCond366) DPL0 load(1, XDATA, add(CFA_XSP16, literal(-2)))
          CFI (cfiCond366) DPH0 load(1, XDATA, add(CFA_XSP16, literal(-1)))
          CFI (cfiCond366) CFA_SP SP+-4
          CFI (cfiCond366) CFA_XSP16 add(XSP16, 31)
          CFI Block cfiCond367 Using cfiCommon0
          CFI (cfiCond367) Function ZDSecMgrAuthenticateInd
          CFI (cfiCond367) Conditional ??CrossCallReturnLabel_192, ??CrossCallReturnLabel_184
          CFI (cfiCond367) R6 load(1, XDATA, add(CFA_XSP16, literal(-12)))
          CFI (cfiCond367) VB load(1, XDATA, add(CFA_XSP16, literal(-11)))
          CFI (cfiCond367) V0 load(1, XDATA, add(CFA_XSP16, literal(-10)))
          CFI (cfiCond367) V1 load(1, XDATA, add(CFA_XSP16, literal(-9)))
          CFI (cfiCond367) V2 load(1, XDATA, add(CFA_XSP16, literal(-8)))
          CFI (cfiCond367) V3 load(1, XDATA, add(CFA_XSP16, literal(-7)))
          CFI (cfiCond367) R7 load(1, XDATA, add(CFA_XSP16, literal(-6)))
          CFI (cfiCond367) ?RET_LOW load(1, XDATA, add(CFA_XSP16, literal(-5)))
          CFI (cfiCond367) ?RET_HIGH load(1, XDATA, add(CFA_XSP16, literal(-4)))
          CFI (cfiCond367) ?BRET_EXT load(1, XDATA, add(CFA_XSP16, literal(-3)))
          CFI (cfiCond367) DPL0 load(1, XDATA, add(CFA_XSP16, literal(-2)))
          CFI (cfiCond367) DPH0 load(1, XDATA, add(CFA_XSP16, literal(-1)))
          CFI (cfiCond367) CFA_SP SP+-4
          CFI (cfiCond367) CFA_XSP16 add(XSP16, 32)
          CFI Block cfiCond368 Using cfiCommon0
          CFI (cfiCond368) Function ZDSecMgrSendNwkKey
          CFI (cfiCond368) Conditional ??CrossCallReturnLabel_192, ??CrossCallReturnLabel_185
          CFI (cfiCond368) R6 load(1, XDATA, add(CFA_XSP16, literal(-12)))
          CFI (cfiCond368) VB load(1, XDATA, add(CFA_XSP16, literal(-11)))
          CFI (cfiCond368) V0 load(1, XDATA, add(CFA_XSP16, literal(-10)))
          CFI (cfiCond368) V1 load(1, XDATA, add(CFA_XSP16, literal(-9)))
          CFI (cfiCond368) V2 load(1, XDATA, add(CFA_XSP16, literal(-8)))
          CFI (cfiCond368) V3 load(1, XDATA, add(CFA_XSP16, literal(-7)))
          CFI (cfiCond368) R7 load(1, XDATA, add(CFA_XSP16, literal(-6)))
          CFI (cfiCond368) ?RET_LOW load(1, XDATA, add(CFA_XSP16, literal(-5)))
          CFI (cfiCond368) ?RET_HIGH load(1, XDATA, add(CFA_XSP16, literal(-4)))
          CFI (cfiCond368) ?BRET_EXT load(1, XDATA, add(CFA_XSP16, literal(-3)))
          CFI (cfiCond368) DPL0 load(1, XDATA, add(CFA_XSP16, literal(-2)))
          CFI (cfiCond368) DPH0 load(1, XDATA, add(CFA_XSP16, literal(-1)))
          CFI (cfiCond368) CFA_SP SP+-4
          CFI (cfiCond368) CFA_XSP16 add(XSP16, 25)
          CFI Block cfiCond369 Using cfiCommon0
          CFI (cfiCond369) Function ZDSecMgrEvent
          CFI (cfiCond369) Conditional ??CrossCallReturnLabel_186, ??CrossCallReturnLabel_0
          CFI (cfiCond369) R6 load(1, XDATA, add(CFA_XSP16, literal(-10)))
          CFI (cfiCond369) VB load(1, XDATA, add(CFA_XSP16, literal(-9)))
          CFI (cfiCond369) V0 load(1, XDATA, add(CFA_XSP16, literal(-8)))
          CFI (cfiCond369) V1 load(1, XDATA, add(CFA_XSP16, literal(-7)))
          CFI (cfiCond369) R7 load(1, XDATA, add(CFA_XSP16, literal(-6)))
          CFI (cfiCond369) ?RET_LOW load(1, XDATA, add(CFA_XSP16, literal(-5)))
          CFI (cfiCond369) ?RET_HIGH load(1, XDATA, add(CFA_XSP16, literal(-4)))
          CFI (cfiCond369) ?BRET_EXT load(1, XDATA, add(CFA_XSP16, literal(-3)))
          CFI (cfiCond369) DPL0 load(1, XDATA, add(CFA_XSP16, literal(-2)))
          CFI (cfiCond369) DPH0 load(1, XDATA, add(CFA_XSP16, literal(-1)))
          CFI (cfiCond369) CFA_SP SP+-4
          CFI (cfiCond369) CFA_XSP16 add(XSP16, 33)
          CFI Block cfiCond370 Using cfiCommon0
          CFI (cfiCond370) Function ZDSecMgrUpdateDeviceInd
          CFI (cfiCond370) Conditional ??CrossCallReturnLabel_186, ??CrossCallReturnLabel_1
          CFI (cfiCond370) DPL0 Frame(CFA_SP, 4)
          CFI (cfiCond370) DPH0 Frame(CFA_SP, 5)
          CFI (cfiCond370) CFA_SP SP+-9
          CFI (cfiCond370) CFA_XSP16 add(XSP16, 10)
          CFI Block cfiCond371 Using cfiCommon0
          CFI (cfiCond371) Function ZDSecMgrAuthenticateInd
          CFI (cfiCond371) Conditional ??CrossCallReturnLabel_186, ??CrossCallReturnLabel_2
          CFI (cfiCond371) R6 load(1, XDATA, add(CFA_XSP16, literal(-12)))
          CFI (cfiCond371) VB load(1, XDATA, add(CFA_XSP16, literal(-11)))
          CFI (cfiCond371) V0 load(1, XDATA, add(CFA_XSP16, literal(-10)))
          CFI (cfiCond371) V1 load(1, XDATA, add(CFA_XSP16, literal(-9)))
          CFI (cfiCond371) V2 load(1, XDATA, add(CFA_XSP16, literal(-8)))
          CFI (cfiCond371) V3 load(1, XDATA, add(CFA_XSP16, literal(-7)))
          CFI (cfiCond371) R7 load(1, XDATA, add(CFA_XSP16, literal(-6)))
          CFI (cfiCond371) ?RET_LOW load(1, XDATA, add(CFA_XSP16, literal(-5)))
          CFI (cfiCond371) ?RET_HIGH load(1, XDATA, add(CFA_XSP16, literal(-4)))
          CFI (cfiCond371) ?BRET_EXT load(1, XDATA, add(CFA_XSP16, literal(-3)))
          CFI (cfiCond371) DPL0 load(1, XDATA, add(CFA_XSP16, literal(-2)))
          CFI (cfiCond371) DPH0 load(1, XDATA, add(CFA_XSP16, literal(-1)))
          CFI (cfiCond371) CFA_SP SP+-4
          CFI (cfiCond371) CFA_XSP16 add(XSP16, 32)
          CFI Block cfiCond372 Using cfiCommon0
          CFI (cfiCond372) Function ZDSecMgrAPSRemove
          CFI (cfiCond372) Conditional ??CrossCallReturnLabel_186, ??CrossCallReturnLabel_3
          CFI (cfiCond372) DPL0 Frame(CFA_SP, 4)
          CFI (cfiCond372) DPH0 Frame(CFA_SP, 5)
          CFI (cfiCond372) CFA_SP SP+-9
          CFI (cfiCond372) CFA_XSP16 add(XSP16, 10)
          CFI Block cfiCond373 Using cfiCommon0
          CFI (cfiCond373) Function ZDSecMgrAddrStore
          CFI (cfiCond373) Conditional ??CrossCallReturnLabel_188, ??CrossCallReturnLabel_22
          CFI (cfiCond373) R6 load(1, XDATA, add(CFA_XSP16, literal(-9)))
          CFI (cfiCond373) VB load(1, XDATA, add(CFA_XSP16, literal(-8)))
          CFI (cfiCond373) V0 load(1, XDATA, add(CFA_XSP16, literal(-7)))
          CFI (cfiCond373) R7 load(1, XDATA, add(CFA_XSP16, literal(-6)))
          CFI (cfiCond373) ?RET_LOW load(1, XDATA, add(CFA_XSP16, literal(-5)))
          CFI (cfiCond373) ?RET_HIGH load(1, XDATA, add(CFA_XSP16, literal(-4)))
          CFI (cfiCond373) ?BRET_EXT load(1, XDATA, add(CFA_XSP16, literal(-3)))
          CFI (cfiCond373) DPL0 load(1, XDATA, add(CFA_XSP16, literal(-2)))
          CFI (cfiCond373) DPH0 load(1, XDATA, add(CFA_XSP16, literal(-1)))
          CFI (cfiCond373) CFA_SP SP+-4
          CFI (cfiCond373) CFA_XSP16 add(XSP16, 22)
          CFI Block cfiCond374 Using cfiCommon0
          CFI (cfiCond374) Function ZDSecMgrExtAddrStore
          CFI (cfiCond374) Conditional ??CrossCallReturnLabel_188, ??CrossCallReturnLabel_23
          CFI (cfiCond374) R6 load(1, XDATA, add(CFA_XSP16, literal(-9)))
          CFI (cfiCond374) VB load(1, XDATA, add(CFA_XSP16, literal(-8)))
          CFI (cfiCond374) V0 load(1, XDATA, add(CFA_XSP16, literal(-7)))
          CFI (cfiCond374) R7 load(1, XDATA, add(CFA_XSP16, literal(-6)))
          CFI (cfiCond374) ?RET_LOW load(1, XDATA, add(CFA_XSP16, literal(-5)))
          CFI (cfiCond374) ?RET_HIGH load(1, XDATA, add(CFA_XSP16, literal(-4)))
          CFI (cfiCond374) ?BRET_EXT load(1, XDATA, add(CFA_XSP16, literal(-3)))
          CFI (cfiCond374) DPL0 load(1, XDATA, add(CFA_XSP16, literal(-2)))
          CFI (cfiCond374) DPH0 load(1, XDATA, add(CFA_XSP16, literal(-1)))
          CFI (cfiCond374) CFA_SP SP+-4
          CFI (cfiCond374) CFA_XSP16 add(XSP16, 22)
          CFI Block cfiCond375 Using cfiCommon0
          CFI (cfiCond375) Function ZDSecMgrExtAddrLookup
          CFI (cfiCond375) Conditional ??CrossCallReturnLabel_188, ??CrossCallReturnLabel_24
          CFI (cfiCond375) R6 load(1, XDATA, add(CFA_XSP16, literal(-9)))
          CFI (cfiCond375) VB load(1, XDATA, add(CFA_XSP16, literal(-8)))
          CFI (cfiCond375) V0 load(1, XDATA, add(CFA_XSP16, literal(-7)))
          CFI (cfiCond375) R7 load(1, XDATA, add(CFA_XSP16, literal(-6)))
          CFI (cfiCond375) ?RET_LOW load(1, XDATA, add(CFA_XSP16, literal(-5)))
          CFI (cfiCond375) ?RET_HIGH load(1, XDATA, add(CFA_XSP16, literal(-4)))
          CFI (cfiCond375) ?BRET_EXT load(1, XDATA, add(CFA_XSP16, literal(-3)))
          CFI (cfiCond375) DPL0 load(1, XDATA, add(CFA_XSP16, literal(-2)))
          CFI (cfiCond375) DPH0 load(1, XDATA, add(CFA_XSP16, literal(-1)))
          CFI (cfiCond375) CFA_SP SP+-4
          CFI (cfiCond375) CFA_XSP16 add(XSP16, 22)
          CFI Block cfiCond376 Using cfiCommon0
          CFI (cfiCond376) Function ZDSecMgrAddrStore
          CFI (cfiCond376) Conditional ??CrossCallReturnLabel_187, ??CrossCallReturnLabel_19
          CFI (cfiCond376) R6 load(1, XDATA, add(CFA_XSP16, literal(-9)))
          CFI (cfiCond376) VB load(1, XDATA, add(CFA_XSP16, literal(-8)))
          CFI (cfiCond376) V0 load(1, XDATA, add(CFA_XSP16, literal(-7)))
          CFI (cfiCond376) R7 load(1, XDATA, add(CFA_XSP16, literal(-6)))
          CFI (cfiCond376) ?RET_LOW load(1, XDATA, add(CFA_XSP16, literal(-5)))
          CFI (cfiCond376) ?RET_HIGH load(1, XDATA, add(CFA_XSP16, literal(-4)))
          CFI (cfiCond376) ?BRET_EXT load(1, XDATA, add(CFA_XSP16, literal(-3)))
          CFI (cfiCond376) DPL0 load(1, XDATA, add(CFA_XSP16, literal(-2)))
          CFI (cfiCond376) DPH0 load(1, XDATA, add(CFA_XSP16, literal(-1)))
          CFI (cfiCond376) CFA_SP SP+-4
          CFI (cfiCond376) CFA_XSP16 add(XSP16, 22)
          CFI Block cfiCond377 Using cfiCommon0
          CFI (cfiCond377) Function ZDSecMgrExtAddrStore
          CFI (cfiCond377) Conditional ??CrossCallReturnLabel_187, ??CrossCallReturnLabel_20
          CFI (cfiCond377) R6 load(1, XDATA, add(CFA_XSP16, literal(-9)))
          CFI (cfiCond377) VB load(1, XDATA, add(CFA_XSP16, literal(-8)))
          CFI (cfiCond377) V0 load(1, XDATA, add(CFA_XSP16, literal(-7)))
          CFI (cfiCond377) R7 load(1, XDATA, add(CFA_XSP16, literal(-6)))
          CFI (cfiCond377) ?RET_LOW load(1, XDATA, add(CFA_XSP16, literal(-5)))
          CFI (cfiCond377) ?RET_HIGH load(1, XDATA, add(CFA_XSP16, literal(-4)))
          CFI (cfiCond377) ?BRET_EXT load(1, XDATA, add(CFA_XSP16, literal(-3)))
          CFI (cfiCond377) DPL0 load(1, XDATA, add(CFA_XSP16, literal(-2)))
          CFI (cfiCond377) DPH0 load(1, XDATA, add(CFA_XSP16, literal(-1)))
          CFI (cfiCond377) CFA_SP SP+-4
          CFI (cfiCond377) CFA_XSP16 add(XSP16, 22)
          CFI Block cfiCond378 Using cfiCommon0
          CFI (cfiCond378) Function ZDSecMgrExtAddrLookup
          CFI (cfiCond378) Conditional ??CrossCallReturnLabel_187, ??CrossCallReturnLabel_21
          CFI (cfiCond378) R6 load(1, XDATA, add(CFA_XSP16, literal(-9)))
          CFI (cfiCond378) VB load(1, XDATA, add(CFA_XSP16, literal(-8)))
          CFI (cfiCond378) V0 load(1, XDATA, add(CFA_XSP16, literal(-7)))
          CFI (cfiCond378) R7 load(1, XDATA, add(CFA_XSP16, literal(-6)))
          CFI (cfiCond378) ?RET_LOW load(1, XDATA, add(CFA_XSP16, literal(-5)))
          CFI (cfiCond378) ?RET_HIGH load(1, XDATA, add(CFA_XSP16, literal(-4)))
          CFI (cfiCond378) ?BRET_EXT load(1, XDATA, add(CFA_XSP16, literal(-3)))
          CFI (cfiCond378) DPL0 load(1, XDATA, add(CFA_XSP16, literal(-2)))
          CFI (cfiCond378) DPH0 load(1, XDATA, add(CFA_XSP16, literal(-1)))
          CFI (cfiCond378) CFA_SP SP+-4
          CFI (cfiCond378) CFA_XSP16 add(XSP16, 22)
          CFI Block cfiPicker379 Using cfiCommon1
          CFI (cfiPicker379) NoFunction
          CFI (cfiPicker379) Picker
        MOV       A,R0
        MOVX      @DPTR,A
        INC       DPTR
        MOV       A,R1
        MOVX      @DPTR,A
        RET
          CFI EndBlock cfiCond343
          CFI EndBlock cfiCond344
          CFI EndBlock cfiCond345
          CFI EndBlock cfiCond346
          CFI EndBlock cfiCond347
          CFI EndBlock cfiCond348
          CFI EndBlock cfiCond349
          CFI EndBlock cfiCond350
          CFI EndBlock cfiCond351
          CFI EndBlock cfiCond352
          CFI EndBlock cfiCond353
          CFI EndBlock cfiCond354
          CFI EndBlock cfiCond355
          CFI EndBlock cfiCond356
          CFI EndBlock cfiCond357
          CFI EndBlock cfiCond358
          CFI EndBlock cfiCond359
          CFI EndBlock cfiCond360
          CFI EndBlock cfiCond361
          CFI EndBlock cfiCond362
          CFI EndBlock cfiCond363
          CFI EndBlock cfiCond364
          CFI EndBlock cfiCond365
          CFI EndBlock cfiCond366
          CFI EndBlock cfiCond367
          CFI EndBlock cfiCond368
          CFI EndBlock cfiCond369
          CFI EndBlock cfiCond370
          CFI EndBlock cfiCond371
          CFI EndBlock cfiCond372
          CFI EndBlock cfiCond373
          CFI EndBlock cfiCond374
          CFI EndBlock cfiCond375
          CFI EndBlock cfiCond376
          CFI EndBlock cfiCond377
          CFI EndBlock cfiCond378
          CFI EndBlock cfiPicker379

        RSEG BANKED_CODE:HUGECODE:NOROOT(0)
?Subroutine22:
          CFI Block cfiCond380 Using cfiCommon0
          CFI Function ZDSecMgrEstablishKeyInd
          CFI Conditional ??CrossCallReturnLabel_8
          CFI R6 load(1, XDATA, add(CFA_XSP16, literal(-14)))
          CFI VB load(1, XDATA, add(CFA_XSP16, literal(-13)))
          CFI V0 load(1, XDATA, add(CFA_XSP16, literal(-12)))
          CFI V1 load(1, XDATA, add(CFA_XSP16, literal(-11)))
          CFI V2 load(1, XDATA, add(CFA_XSP16, literal(-10)))
          CFI V3 load(1, XDATA, add(CFA_XSP16, literal(-9)))
          CFI V4 load(1, XDATA, add(CFA_XSP16, literal(-8)))
          CFI V5 load(1, XDATA, add(CFA_XSP16, literal(-7)))
          CFI R7 load(1, XDATA, add(CFA_XSP16, literal(-6)))
          CFI ?RET_LOW load(1, XDATA, add(CFA_XSP16, literal(-5)))
          CFI ?RET_HIGH load(1, XDATA, add(CFA_XSP16, literal(-4)))
          CFI ?BRET_EXT load(1, XDATA, add(CFA_XSP16, literal(-3)))
          CFI DPL0 load(1, XDATA, add(CFA_XSP16, literal(-2)))
          CFI DPH0 load(1, XDATA, add(CFA_XSP16, literal(-1)))
          CFI CFA_SP SP+-2
          CFI CFA_XSP16 add(XSP16, 31)
          CFI Block cfiCond381 Using cfiCommon0
          CFI (cfiCond381) Function ZDSecMgrEstablishKeyInd
          CFI (cfiCond381) Conditional ??CrossCallReturnLabel_9
          CFI (cfiCond381) R6 load(1, XDATA, add(CFA_XSP16, literal(-14)))
          CFI (cfiCond381) VB load(1, XDATA, add(CFA_XSP16, literal(-13)))
          CFI (cfiCond381) V0 load(1, XDATA, add(CFA_XSP16, literal(-12)))
          CFI (cfiCond381) V1 load(1, XDATA, add(CFA_XSP16, literal(-11)))
          CFI (cfiCond381) V2 load(1, XDATA, add(CFA_XSP16, literal(-10)))
          CFI (cfiCond381) V3 load(1, XDATA, add(CFA_XSP16, literal(-9)))
          CFI (cfiCond381) V4 load(1, XDATA, add(CFA_XSP16, literal(-8)))
          CFI (cfiCond381) V5 load(1, XDATA, add(CFA_XSP16, literal(-7)))
          CFI (cfiCond381) R7 load(1, XDATA, add(CFA_XSP16, literal(-6)))
          CFI (cfiCond381) ?RET_LOW load(1, XDATA, add(CFA_XSP16, literal(-5)))
          CFI (cfiCond381) ?RET_HIGH load(1, XDATA, add(CFA_XSP16, literal(-4)))
          CFI (cfiCond381) ?BRET_EXT load(1, XDATA, add(CFA_XSP16, literal(-3)))
          CFI (cfiCond381) DPL0 load(1, XDATA, add(CFA_XSP16, literal(-2)))
          CFI (cfiCond381) DPH0 load(1, XDATA, add(CFA_XSP16, literal(-1)))
          CFI (cfiCond381) CFA_SP SP+-2
          CFI (cfiCond381) CFA_XSP16 add(XSP16, 31)
          CFI Block cfiPicker382 Using cfiCommon1
          CFI (cfiPicker382) NoFunction
          CFI (cfiPicker382) Picker
        MOVX      @DPTR,A
        MOV       DPL,?V2
        MOV       DPH,?V3
        LCALL     ?Subroutine71 & 0xFFFF
??CrossCallReturnLabel_206:
        RET
          CFI EndBlock cfiCond380
          CFI EndBlock cfiCond381
          CFI EndBlock cfiPicker382
// 2680 //devtag.pro.security
// 2681 #if 0
// 2682 void ZDSecMgrEstablishKeyInd( ZDO_EstablishKeyInd_t* ind )
// 2683 {
// 2684   ZDSecMgrDevice_t        device;
// 2685   APSME_EstablishKeyRsp_t rsp;
// 2686 
// 2687 
// 2688   device.extAddr = ind->initExtAddr;
// 2689   device.secure  = ind->secure;
// 2690 
// 2691   if ( ind->secure == FALSE )
// 2692   {
// 2693     // SKKE from Trust Center is not secured between child and parent
// 2694     device.nwkAddr    = APSME_TRUSTCENTER_NWKADDR;
// 2695     device.parentAddr = ind->srcAddr;
// 2696   }
// 2697   else
// 2698   {
// 2699     // SKKE from initiator should be secured
// 2700     device.nwkAddr    = ind->srcAddr;
// 2701     device.parentAddr = INVALID_NODE_ADDR;
// 2702   }
// 2703 
// 2704   rsp.dstAddr     = ind->srcAddr;
// 2705   rsp.initExtAddr = &ind->initExtAddr[0];
// 2706   rsp.secure      = ind->secure;
// 2707 
// 2708   // validate device for SKKE
// 2709   if ( ZDSecMgrDeviceValidateSKKE( &device ) == ZSuccess )
// 2710   {
// 2711     rsp.accept = TRUE;
// 2712   }
// 2713   else
// 2714   {
// 2715     rsp.accept = FALSE;
// 2716   }
// 2717 
// 2718   APSME_EstablishKeyRsp( &rsp );
// 2719 }
// 2720 #endif
// 2721 
// 2722 /******************************************************************************
// 2723  * @fn          ZDSecMgrTransportKeyInd
// 2724  *
// 2725  * @brief       Process the ZDO_TransportKeyInd_t message.
// 2726  *
// 2727  * @param       ind - [in] ZDO_TransportKeyInd_t indication
// 2728  *
// 2729  * @return      none
// 2730  */

        RSEG BANKED_CODE:HUGECODE:NOROOT(0)
// 2731 void ZDSecMgrTransportKeyInd( ZDO_TransportKeyInd_t* ind )
ZDSecMgrTransportKeyInd:
          CFI Block cfiBlock383 Using cfiCommon0
          CFI Function ZDSecMgrTransportKeyInd
        CODE
// 2732 {
        FUNCALL ZDSecMgrTransportKeyInd, ZDSecMgrTCDataLoad
        LOCFRAME ISTACK, 0, STACK
        LOCFRAME PSTACK, 0, STACK
        LOCFRAME XSTACK, 10, STACK
        LOCFRAME IOVERLAY, 0, STATIC
        LOCFRAME DOVERLAY, 0, STATIC
        ARGFRAME ISTACK, 0, STACK
        ARGFRAME PSTACK, 0, STACK
        ARGFRAME XSTACK, 10, STACK
        ARGFRAME IOVERLAY, 0, STATIC
        ARGFRAME DOVERLAY, 0, STATIC
        FUNCALL ZDSecMgrTransportKeyInd, SSP_UpdateNwkKey
        LOCFRAME ISTACK, 0, STACK
        LOCFRAME PSTACK, 0, STACK
        LOCFRAME XSTACK, 10, STACK
        LOCFRAME IOVERLAY, 0, STATIC
        LOCFRAME DOVERLAY, 0, STATIC
        ARGFRAME ISTACK, 0, STACK
        ARGFRAME PSTACK, 0, STACK
        ARGFRAME XSTACK, 10, STACK
        ARGFRAME IOVERLAY, 0, STATIC
        ARGFRAME DOVERLAY, 0, STATIC
        FUNCALL ZDSecMgrTransportKeyInd, SSP_SwitchNwkKey
        LOCFRAME ISTACK, 0, STACK
        LOCFRAME PSTACK, 0, STACK
        LOCFRAME XSTACK, 10, STACK
        LOCFRAME IOVERLAY, 0, STATIC
        LOCFRAME DOVERLAY, 0, STATIC
        ARGFRAME ISTACK, 0, STACK
        ARGFRAME PSTACK, 0, STACK
        ARGFRAME XSTACK, 10, STACK
        ARGFRAME IOVERLAY, 0, STATIC
        ARGFRAME DOVERLAY, 0, STATIC
        FUNCALL ZDSecMgrTransportKeyInd, SSP_UpdateNwkKey
        LOCFRAME ISTACK, 0, STACK
        LOCFRAME PSTACK, 0, STACK
        LOCFRAME XSTACK, 10, STACK
        LOCFRAME IOVERLAY, 0, STATIC
        LOCFRAME DOVERLAY, 0, STATIC
        ARGFRAME ISTACK, 0, STACK
        ARGFRAME PSTACK, 0, STACK
        ARGFRAME XSTACK, 10, STACK
        ARGFRAME IOVERLAY, 0, STATIC
        ARGFRAME DOVERLAY, 0, STATIC
        FUNCALL ZDSecMgrTransportKeyInd, SSP_SwitchNwkKey
        LOCFRAME ISTACK, 0, STACK
        LOCFRAME PSTACK, 0, STACK
        LOCFRAME XSTACK, 10, STACK
        LOCFRAME IOVERLAY, 0, STATIC
        LOCFRAME DOVERLAY, 0, STATIC
        ARGFRAME ISTACK, 0, STACK
        ARGFRAME PSTACK, 0, STACK
        ARGFRAME XSTACK, 10, STACK
        ARGFRAME IOVERLAY, 0, STATIC
        ARGFRAME DOVERLAY, 0, STATIC
        FUNCALL ZDSecMgrTransportKeyInd, ZDSecMgrAuthNwkKey
        LOCFRAME ISTACK, 0, STACK
        LOCFRAME PSTACK, 0, STACK
        LOCFRAME XSTACK, 10, STACK
        LOCFRAME IOVERLAY, 0, STATIC
        LOCFRAME DOVERLAY, 0, STATIC
        ARGFRAME ISTACK, 0, STACK
        ARGFRAME PSTACK, 0, STACK
        ARGFRAME XSTACK, 10, STACK
        ARGFRAME IOVERLAY, 0, STATIC
        ARGFRAME DOVERLAY, 0, STATIC
        REQUIRE ?V0
        REQUIRE ?V1
        MOV       A,#-0xa
        LCALL     ?BANKED_ENTER_XDATA
          CFI DPH0 load(1, XDATA, add(CFA_XSP16, literal(-1)))
          CFI DPL0 load(1, XDATA, add(CFA_XSP16, literal(-2)))
          CFI ?BRET_EXT load(1, XDATA, add(CFA_XSP16, literal(-3)))
          CFI ?RET_HIGH load(1, XDATA, add(CFA_XSP16, literal(-4)))
          CFI ?RET_LOW load(1, XDATA, add(CFA_XSP16, literal(-5)))
          CFI R7 load(1, XDATA, add(CFA_XSP16, literal(-6)))
          CFI V1 load(1, XDATA, add(CFA_XSP16, literal(-7)))
          CFI V0 load(1, XDATA, add(CFA_XSP16, literal(-8)))
          CFI VB load(1, XDATA, add(CFA_XSP16, literal(-9)))
          CFI R6 load(1, XDATA, add(CFA_XSP16, literal(-10)))
          CFI CFA_SP SP+0
          CFI CFA_XSP16 add(XSP16, 10)
        ; Saved register size: 10
        ; Auto size: 0
        MOV       A,R2
        MOV       R6,A
        MOV       A,R3
        MOV       R7,A
// 2733   uint8 index;
// 2734 
// 2735   // load Trust Center data if needed
// 2736   ZDSecMgrTCDataLoad( ind->srcExtAddr );
        ; Setup parameters for call to function ZDSecMgrTCDataLoad
        MOV       A,R2
        ADD       A,#0x16
        MOV       R2,A
        CLR       A
        ADDC      A,R7
        MOV       R3,A
        LCALL     `??ZDSecMgrTCDataLoad::?relay`; Banked call to: ZDSecMgrTCDataLoad
// 2737 
// 2738   if ( ind->keyType == KEY_TYPE_TC_MASTER )
        MOV       DPL,R6
        MOV       DPH,R7
        INC       DPTR
        INC       DPTR
        INC       DPTR
        INC       DPTR
        MOVX      A,@DPTR
        MOV       R0,A
        JZ        ??ZDSecMgrTransportKeyInd_0
// 2739   {
// 2740     if ( ZG_CHECK_SECURITY_MODE == ZG_SECURITY_PRO_HIGH )
// 2741     //ZDSecMgrTCMasterKey( ind );
// 2742     {
// 2743       if ( zgPreConfigKeys != TRUE )
// 2744       {
// 2745         // devtag.pro.security.todo - check if Trust Center address is configured and correct
// 2746         ZDSecMgrMasterKeyLoad( ind->srcExtAddr, ind->key );
// 2747       }
// 2748       else
// 2749       {
// 2750         // error condition - reject key
// 2751       }
// 2752     }
// 2753   }
// 2754   else if ( ( ind->keyType == KEY_TYPE_NWK      ) ||
// 2755             ( ind->keyType == 6                 ) ||
// 2756             ( ind->keyType == KEY_TYPE_NWK_HIGH )    )
        MOV       A,#0x1
        XRL       A,R0
        JZ        ??ZDSecMgrTransportKeyInd_1
        MOV       A,#0x6
        XRL       A,R0
        JZ        ??ZDSecMgrTransportKeyInd_1
        MOV       A,#0x5
        XRL       A,R0
        JNZ       ??ZDSecMgrTransportKeyInd_0
// 2757   {
// 2758     // check for dummy NWK key (all zeros)
// 2759     for ( index = 0;
??ZDSecMgrTransportKeyInd_1:
        MOV       R0,#0x0
??ZDSecMgrTransportKeyInd_2:
        MOV       A,R0
        MOV       R2,A
        MOV       A,R6
        ADD       A,R2
        MOV       DPL,A
        CLR       A
        ADDC      A,R7
        MOV       DPH,A
        INC       DPTR
        INC       DPTR
        INC       DPTR
        INC       DPTR
        INC       DPTR
        INC       DPTR
        MOVX      A,@DPTR
        JNZ       ??ZDSecMgrTransportKeyInd_3
// 2760           ( (index < SEC_KEY_LEN) && (ind->key[index] == 0) );
// 2761           index++ );
        INC       R0
        MOV       A,R0
        CLR       C
        SUBB      A,#0x10
        JC        ??ZDSecMgrTransportKeyInd_2
// 2762 
// 2763     if ( index == SEC_KEY_LEN )
??ZDSecMgrTransportKeyInd_3:
        MOV       A,#0x10
        XRL       A,R0
        JNZ       ??ZDSecMgrTransportKeyInd_4
// 2764     {
// 2765       // load preconfigured key - once!!
// 2766       if ( !_NIB.nwkKeyLoaded )
        MOV       DPTR,#_NIB + 61
        MOVX      A,@DPTR
        JNZ       ??ZDSecMgrTransportKeyInd_5
// 2767       {
// 2768         SSP_UpdateNwkKey( (byte*)zgPreConfigKey, 0 );
        ; Setup parameters for call to function SSP_UpdateNwkKey
        MOV       R1,#0x0
        MOV       R2,#zgPreConfigKey & 0xff
        MOV       R3,#(zgPreConfigKey >> 8) & 0xff
        LCALL     `??SSP_UpdateNwkKey::?relay`; Banked call to: SSP_UpdateNwkKey
// 2769         SSP_SwitchNwkKey( 0 );
        ; Setup parameters for call to function SSP_SwitchNwkKey
        MOV       R1,#0x0
        SJMP      ??ZDSecMgrTransportKeyInd_6
// 2770       }
// 2771     }
// 2772     else
// 2773     {
// 2774       SSP_UpdateNwkKey( ind->key, ind->keySeqNum );
??ZDSecMgrTransportKeyInd_4:
        MOV       A,R6
        LCALL     ?Subroutine58 & 0xFFFF
??CrossCallReturnLabel_81:
        ; Setup parameters for call to function SSP_UpdateNwkKey
        MOV       DPL,?V0
        MOV       DPH,A
        MOVX      A,@DPTR
        MOV       R1,A
        MOV       A,R6
        ADD       A,#0x6
        MOV       R2,A
        CLR       A
        ADDC      A,R7
        MOV       R3,A
        LCALL     `??SSP_UpdateNwkKey::?relay`; Banked call to: SSP_UpdateNwkKey
// 2775       if ( !_NIB.nwkKeyLoaded )
        MOV       DPTR,#_NIB + 61
        MOVX      A,@DPTR
        JNZ       ??ZDSecMgrTransportKeyInd_5
// 2776       {
// 2777         SSP_SwitchNwkKey( ind->keySeqNum );
        ; Setup parameters for call to function SSP_SwitchNwkKey
        MOV       DPL,?V0
        MOV       DPH,?V1
        MOVX      A,@DPTR
        MOV       R1,A
??ZDSecMgrTransportKeyInd_6:
        LCALL     `??SSP_SwitchNwkKey::?relay`; Banked call to: SSP_SwitchNwkKey
// 2778       }
// 2779     }
// 2780 
// 2781     // handle next step in authentication process
// 2782     ZDSecMgrAuthNwkKey();
??ZDSecMgrTransportKeyInd_5:
        ; Setup parameters for call to function ZDSecMgrAuthNwkKey
        LCALL     `??ZDSecMgrAuthNwkKey::?relay`; Banked call to: ZDSecMgrAuthNwkKey
// 2783   }
// 2784   else if ( ind->keyType == KEY_TYPE_TC_LINK )
// 2785   {
// 2786     if ( ZG_CHECK_SECURITY_MODE == ZG_SECURITY_PRO_HIGH )
// 2787     {
// 2788       //ZDSecMgrTCLinkKey( ind );
// 2789     }
// 2790   }
// 2791   else if ( ind->keyType == KEY_TYPE_APP_MASTER )
// 2792   {
// 2793     if ( ZG_CHECK_SECURITY_MODE == ZG_SECURITY_PRO_HIGH )
// 2794     {
// 2795       uint16           ami;
// 2796       AddrMgrEntry_t   entry;
// 2797       ZDSecMgrEntry_t* entryZD;
// 2798 
// 2799       ZDSecMgrExtAddrLookup( ind->srcExtAddr, &ami );
// 2800 
// 2801       if ( ind->initiator == TRUE )
// 2802       {
// 2803         // get the ami data
// 2804         entry.user  = ADDRMGR_USER_SECURITY;
// 2805         entry.index = ami;
// 2806         AddrMgrEntryGet( &entry );
// 2807 
// 2808         if ( entry.nwkAddr != INVALID_NODE_ADDR )
// 2809         {
// 2810           APSME_EstablishKeyReq_t req;
// 2811           ZDSecMgrMasterKeyLoad( ind->srcExtAddr, ind->key );
// 2812 
// 2813           ZDSecMgrEntryLookupAMI( ami, &entryZD );
// 2814 
// 2815           if ( entryZD == NULL )
// 2816           {
// 2817             // get new entry
// 2818             if ( ZDSecMgrEntryNew( &entryZD ) == ZSuccess )
// 2819             {
// 2820               // finish setting up entry
// 2821               entryZD->ami = ami;
// 2822             }
// 2823           }
// 2824 
// 2825           req.respExtAddr = ind->srcExtAddr;
// 2826           req.method      = APSME_SKKE_METHOD;
// 2827           req.dstAddr     = entry.nwkAddr;
// 2828           //devtag.0604.todo - remove obsolete
// 2829           req.apsSecure   = FALSE;
// 2830           req.nwkSecure   = TRUE;
// 2831           APSME_EstablishKeyReq( &req );
// 2832         }
// 2833       }
// 2834       else
// 2835       {
// 2836         if ( ami == INVALID_NODE_ADDR )
// 2837         {
// 2838           // store new EXT address
// 2839           ZDSecMgrAddrStore( INVALID_NODE_ADDR, ind->srcExtAddr, &ami );
// 2840         }
// 2841 
// 2842         ZDSecMgrMasterKeyLoad( ind->srcExtAddr, ind->key );
// 2843       }
// 2844 
// 2845       //if ( entry.nwkAddr == INVALID_NODE_ADDR )
// 2846       //{
// 2847       //  ZDP_NwkAddrReq( ind->srcExtAddr, ZDP_ADDR_REQTYPE_SINGLE, 0, 0 );
// 2848       //}
// 2849     }
// 2850   }
// 2851   else if ( ind->keyType == KEY_TYPE_APP_LINK )
// 2852   {
// 2853     if ( ZG_CHECK_SECURITY_MODE == ZG_SECURITY_PRO_HIGH )
// 2854     {
// 2855       uint16           ami;
// 2856       ZDSecMgrEntry_t* entry;
// 2857 
// 2858       // get the address index
// 2859       if ( ZDSecMgrExtAddrLookup( ind->srcExtAddr, &ami ) != ZSuccess )
// 2860       {
// 2861         // store new EXT address
// 2862         ZDSecMgrAddrStore( INVALID_NODE_ADDR, ind->srcExtAddr, &ami );
// 2863         ZDP_NwkAddrReq( ind->srcExtAddr, ZDP_ADDR_REQTYPE_SINGLE, 0, 0 );
// 2864       }
// 2865 
// 2866       ZDSecMgrEntryLookupAMI( ami, &entry );
// 2867 
// 2868       if ( entry == NULL )
// 2869       {
// 2870         // get new entry
// 2871         if ( ZDSecMgrEntryNew( &entry ) == ZSuccess )
// 2872         {
// 2873           // finish setting up entry
// 2874           entry->ami = ami;
// 2875         }
// 2876       }
// 2877 
// 2878       ZDSecMgrLinkKeySet( ind->srcExtAddr, ind->key );
// 2879     }
// 2880   }
// 2881 }
??ZDSecMgrTransportKeyInd_0:
        LJMP      ??Subroutine102_0 & 0xFFFF
          CFI EndBlock cfiBlock383

        RSEG BANKED_CODE:HUGECODE:NOROOT(0)
?Subroutine58:
          CFI Block cfiCond384 Using cfiCommon0
          CFI Function ZDSecMgrAppKeyReq
          CFI Conditional ??CrossCallReturnLabel_80
          CFI R6 load(1, XDATA, add(CFA_XSP16, literal(-12)))
          CFI VB load(1, XDATA, add(CFA_XSP16, literal(-11)))
          CFI V0 load(1, XDATA, add(CFA_XSP16, literal(-10)))
          CFI V1 load(1, XDATA, add(CFA_XSP16, literal(-9)))
          CFI V2 load(1, XDATA, add(CFA_XSP16, literal(-8)))
          CFI V3 load(1, XDATA, add(CFA_XSP16, literal(-7)))
          CFI R7 load(1, XDATA, add(CFA_XSP16, literal(-6)))
          CFI ?RET_LOW load(1, XDATA, add(CFA_XSP16, literal(-5)))
          CFI ?RET_HIGH load(1, XDATA, add(CFA_XSP16, literal(-4)))
          CFI ?BRET_EXT load(1, XDATA, add(CFA_XSP16, literal(-3)))
          CFI DPL0 load(1, XDATA, add(CFA_XSP16, literal(-2)))
          CFI DPH0 load(1, XDATA, add(CFA_XSP16, literal(-1)))
          CFI CFA_SP SP+-2
          CFI CFA_XSP16 add(XSP16, 51)
          CFI Block cfiCond385 Using cfiCommon0
          CFI (cfiCond385) Function ZDSecMgrTransportKeyInd
          CFI (cfiCond385) Conditional ??CrossCallReturnLabel_81
          CFI (cfiCond385) R6 load(1, XDATA, add(CFA_XSP16, literal(-10)))
          CFI (cfiCond385) VB load(1, XDATA, add(CFA_XSP16, literal(-9)))
          CFI (cfiCond385) V0 load(1, XDATA, add(CFA_XSP16, literal(-8)))
          CFI (cfiCond385) V1 load(1, XDATA, add(CFA_XSP16, literal(-7)))
          CFI (cfiCond385) R7 load(1, XDATA, add(CFA_XSP16, literal(-6)))
          CFI (cfiCond385) ?RET_LOW load(1, XDATA, add(CFA_XSP16, literal(-5)))
          CFI (cfiCond385) ?RET_HIGH load(1, XDATA, add(CFA_XSP16, literal(-4)))
          CFI (cfiCond385) ?BRET_EXT load(1, XDATA, add(CFA_XSP16, literal(-3)))
          CFI (cfiCond385) DPL0 load(1, XDATA, add(CFA_XSP16, literal(-2)))
          CFI (cfiCond385) DPH0 load(1, XDATA, add(CFA_XSP16, literal(-1)))
          CFI (cfiCond385) CFA_SP SP+-2
          CFI (cfiCond385) CFA_XSP16 add(XSP16, 10)
          CFI Block cfiPicker386 Using cfiCommon1
          CFI (cfiPicker386) NoFunction
          CFI (cfiPicker386) Picker
        ADD       A,#0x5
        MOV       ?V0,A
        CLR       A
        ADDC      A,R7
        MOV       ?V1,A
        RET
          CFI EndBlock cfiCond384
          CFI EndBlock cfiCond385
          CFI EndBlock cfiPicker386
// 2882 
// 2883 /******************************************************************************
// 2884  * @fn          ZDSecMgrUpdateDeviceInd
// 2885  *
// 2886  * @brief       Process the ZDO_UpdateDeviceInd_t message.
// 2887  *
// 2888  * @param       ind - [in] ZDO_UpdateDeviceInd_t indication
// 2889  *
// 2890  * @return      none
// 2891  */

        RSEG BANKED_CODE:HUGECODE:NOROOT(0)
// 2892 void ZDSecMgrUpdateDeviceInd( ZDO_UpdateDeviceInd_t* ind )
ZDSecMgrUpdateDeviceInd:
          CFI Block cfiBlock387 Using cfiCommon0
          CFI Function ZDSecMgrUpdateDeviceInd
        CODE
// 2893 {
        FUNCALL ZDSecMgrUpdateDeviceInd, ZDSecMgrDeviceJoin
        LOCFRAME ISTACK, 2, STACK
        LOCFRAME PSTACK, 0, STACK
        LOCFRAME XSTACK, 10, STACK
        LOCFRAME IOVERLAY, 0, STATIC
        LOCFRAME DOVERLAY, 0, STATIC
        ARGFRAME ISTACK, 2, STACK
        ARGFRAME PSTACK, 0, STACK
        ARGFRAME XSTACK, 10, STACK
        ARGFRAME IOVERLAY, 0, STATIC
        ARGFRAME DOVERLAY, 0, STATIC
        PUSH      DPL
          CFI DPL0 Frame(CFA_SP, 4)
          CFI CFA_SP SP+-4
        PUSH      DPH
          CFI DPH0 Frame(CFA_SP, 5)
          CFI CFA_SP SP+-5
        ; Saved register size: 2
        ; Auto size: 10
        MOV       A,#-0xa
        LCALL     ?ALLOC_XSTACK8
          CFI CFA_XSP16 add(XSP16, 10)
// 2894   ZDSecMgrDevice_t device;
// 2895 
// 2896 
// 2897   device.nwkAddr    = ind->devAddr;
        MOV       A,R2
        ADD       A,#0xc
        MOV       DPL,A
        CLR       A
        ADDC      A,R3
        MOV       DPH,A
        LCALL     ?Subroutine31 & 0xFFFF
// 2898   device.extAddr    = ind->devExtAddr;
??CrossCallReturnLabel_162:
        MOV       A,R2
        ADD       A,#0x4
        MOV       R0,A
        CLR       A
        ADDC      A,R3
        MOV       R1,A
        MOV       A,#0x2
        LCALL     ?XSTACK_DISP0_8
        LCALL     ?Subroutine18 & 0xFFFF
// 2899   device.parentAddr = ind->srcAddr;
??CrossCallReturnLabel_5:
        LCALL     ?XSTACK_DISP0_8
        LCALL     ?Subroutine17 & 0xFFFF
// 2900 
// 2901   //if ( ( ind->status == APSME_UD_SECURED_JOIN   ) ||
// 2902   //     ( ind->status == APSME_UD_UNSECURED_JOIN )   )
// 2903   //{
// 2904   //  if ( ind->status == APSME_UD_SECURED_JOIN )
// 2905   //  {
// 2906   //    device.secure = TRUE;
// 2907   //  }
// 2908   //  else
// 2909   //  {
// 2910   //    device.secure = FALSE;
// 2911   //  }
// 2912 
// 2913     // try to join this device
// 2914     ZDSecMgrDeviceJoin( &device );
??CrossCallReturnLabel_1:
        LCALL     `??ZDSecMgrDeviceJoin::?relay`; Banked call to: ZDSecMgrDeviceJoin
// 2915   //}
// 2916 }
        LJMP      ?Subroutine6 & 0xFFFF
          CFI EndBlock cfiBlock387

        RSEG BANKED_CODE:HUGECODE:NOROOT(0)
?Subroutine18:
          CFI Block cfiCond388 Using cfiCommon0
          CFI Function ZDSecMgrDeviceJoinFwd
          CFI Conditional ??CrossCallReturnLabel_4
          CFI DPL0 Frame(CFA_SP, 4)
          CFI DPH0 Frame(CFA_SP, 5)
          CFI CFA_SP SP+-7
          CFI CFA_XSP16 add(XSP16, 8)
          CFI Block cfiCond389 Using cfiCommon0
          CFI (cfiCond389) Function ZDSecMgrUpdateDeviceInd
          CFI (cfiCond389) Conditional ??CrossCallReturnLabel_5
          CFI (cfiCond389) DPL0 Frame(CFA_SP, 4)
          CFI (cfiCond389) DPH0 Frame(CFA_SP, 5)
          CFI (cfiCond389) CFA_SP SP+-7
          CFI (cfiCond389) CFA_XSP16 add(XSP16, 10)
          CFI Block cfiPicker390 Using cfiCommon1
          CFI (cfiPicker390) NoFunction
          CFI (cfiPicker390) Picker
        MOV       A,R0
        MOVX      @DPTR,A
        INC       DPTR
        MOV       A,R1
        LCALL     ?Subroutine62 & 0xFFFF
??CrossCallReturnLabel_89:
        MOV       A,#0x4
        RET
          CFI EndBlock cfiCond388
          CFI EndBlock cfiCond389
          CFI EndBlock cfiPicker390

        RSEG BANKED_CODE:HUGECODE:NOROOT(0)
?Subroutine62:
          CFI Block cfiCond391 Using cfiCommon0
          CFI Function ZDSecMgrSendMasterKey
          CFI Conditional ??CrossCallReturnLabel_88, ??CrossCallReturnLabel_6
          CFI R6 load(1, XDATA, add(CFA_XSP16, literal(-10)))
          CFI VB load(1, XDATA, add(CFA_XSP16, literal(-9)))
          CFI V0 load(1, XDATA, add(CFA_XSP16, literal(-8)))
          CFI V1 load(1, XDATA, add(CFA_XSP16, literal(-7)))
          CFI R7 load(1, XDATA, add(CFA_XSP16, literal(-6)))
          CFI ?RET_LOW load(1, XDATA, add(CFA_XSP16, literal(-5)))
          CFI ?RET_HIGH load(1, XDATA, add(CFA_XSP16, literal(-4)))
          CFI ?BRET_EXT load(1, XDATA, add(CFA_XSP16, literal(-3)))
          CFI DPL0 load(1, XDATA, add(CFA_XSP16, literal(-2)))
          CFI DPH0 load(1, XDATA, add(CFA_XSP16, literal(-1)))
          CFI CFA_SP SP+-4
          CFI CFA_XSP16 add(XSP16, 23)
          CFI Block cfiCond392 Using cfiCommon0
          CFI (cfiCond392) Function ZDSecMgrSendNwkKey
          CFI (cfiCond392) Conditional ??CrossCallReturnLabel_88, ??CrossCallReturnLabel_7
          CFI (cfiCond392) R6 load(1, XDATA, add(CFA_XSP16, literal(-12)))
          CFI (cfiCond392) VB load(1, XDATA, add(CFA_XSP16, literal(-11)))
          CFI (cfiCond392) V0 load(1, XDATA, add(CFA_XSP16, literal(-10)))
          CFI (cfiCond392) V1 load(1, XDATA, add(CFA_XSP16, literal(-9)))
          CFI (cfiCond392) V2 load(1, XDATA, add(CFA_XSP16, literal(-8)))
          CFI (cfiCond392) V3 load(1, XDATA, add(CFA_XSP16, literal(-7)))
          CFI (cfiCond392) R7 load(1, XDATA, add(CFA_XSP16, literal(-6)))
          CFI (cfiCond392) ?RET_LOW load(1, XDATA, add(CFA_XSP16, literal(-5)))
          CFI (cfiCond392) ?RET_HIGH load(1, XDATA, add(CFA_XSP16, literal(-4)))
          CFI (cfiCond392) ?BRET_EXT load(1, XDATA, add(CFA_XSP16, literal(-3)))
          CFI (cfiCond392) DPL0 load(1, XDATA, add(CFA_XSP16, literal(-2)))
          CFI (cfiCond392) DPH0 load(1, XDATA, add(CFA_XSP16, literal(-1)))
          CFI (cfiCond392) CFA_SP SP+-4
          CFI (cfiCond392) CFA_XSP16 add(XSP16, 25)
          CFI Block cfiCond393 Using cfiCommon0
          CFI (cfiCond393) Function ZDSecMgrDeviceJoinFwd
          CFI (cfiCond393) Conditional ??CrossCallReturnLabel_89, ??CrossCallReturnLabel_4
          CFI (cfiCond393) DPL0 Frame(CFA_SP, 4)
          CFI (cfiCond393) DPH0 Frame(CFA_SP, 5)
          CFI (cfiCond393) CFA_SP SP+-9
          CFI (cfiCond393) CFA_XSP16 add(XSP16, 8)
          CFI Block cfiCond394 Using cfiCommon0
          CFI (cfiCond394) Function ZDSecMgrUpdateDeviceInd
          CFI (cfiCond394) Conditional ??CrossCallReturnLabel_89, ??CrossCallReturnLabel_5
          CFI (cfiCond394) DPL0 Frame(CFA_SP, 4)
          CFI (cfiCond394) DPH0 Frame(CFA_SP, 5)
          CFI (cfiCond394) CFA_SP SP+-9
          CFI (cfiCond394) CFA_XSP16 add(XSP16, 10)
          CFI Block cfiPicker395 Using cfiCommon1
          CFI (cfiPicker395) NoFunction
          CFI (cfiPicker395) Picker
        MOVX      @DPTR,A
        MOV       DPL,R2
        MOV       DPH,R3
        INC       DPTR
        INC       DPTR
        LCALL     ?Subroutine73 & 0xFFFF
??CrossCallReturnLabel_211:
        RET
          CFI EndBlock cfiCond391
          CFI EndBlock cfiCond392
          CFI EndBlock cfiCond393
          CFI EndBlock cfiCond394
          CFI EndBlock cfiPicker395
// 2917 
// 2918 /******************************************************************************
// 2919  * @fn          ZDSecMgrRemoveDeviceInd
// 2920  *
// 2921  * @brief       Process the ZDO_RemoveDeviceInd_t message.
// 2922  *
// 2923  * @param       ind - [in] ZDO_RemoveDeviceInd_t indication
// 2924  *
// 2925  * @return      none
// 2926  */

        RSEG BANKED_CODE:HUGECODE:NOROOT(0)
// 2927 void ZDSecMgrRemoveDeviceInd( ZDO_RemoveDeviceInd_t* ind )
ZDSecMgrRemoveDeviceInd:
          CFI Block cfiBlock396 Using cfiCommon0
          CFI Function ZDSecMgrRemoveDeviceInd
        CODE
// 2928 {
        FUNCALL ZDSecMgrRemoveDeviceInd, APSME_LookupNwkAddr
        LOCFRAME ISTACK, 0, STACK
        LOCFRAME PSTACK, 0, STACK
        LOCFRAME XSTACK, 19, STACK
        LOCFRAME IOVERLAY, 0, STATIC
        LOCFRAME DOVERLAY, 0, STATIC
        ARGFRAME ISTACK, 0, STACK
        ARGFRAME PSTACK, 0, STACK
        ARGFRAME XSTACK, 19, STACK
        ARGFRAME IOVERLAY, 0, STATIC
        ARGFRAME DOVERLAY, 0, STATIC
        FUNCALL ZDSecMgrRemoveDeviceInd, NLME_GetShortAddr
        LOCFRAME ISTACK, 0, STACK
        LOCFRAME PSTACK, 0, STACK
        LOCFRAME XSTACK, 19, STACK
        LOCFRAME IOVERLAY, 0, STATIC
        LOCFRAME DOVERLAY, 0, STATIC
        ARGFRAME ISTACK, 0, STACK
        ARGFRAME PSTACK, 0, STACK
        ARGFRAME XSTACK, 19, STACK
        ARGFRAME IOVERLAY, 0, STATIC
        ARGFRAME DOVERLAY, 0, STATIC
        FUNCALL ZDSecMgrRemoveDeviceInd, ZDSecMgrDeviceRemove
        LOCFRAME ISTACK, 0, STACK
        LOCFRAME PSTACK, 0, STACK
        LOCFRAME XSTACK, 19, STACK
        LOCFRAME IOVERLAY, 0, STATIC
        LOCFRAME DOVERLAY, 0, STATIC
        ARGFRAME ISTACK, 0, STACK
        ARGFRAME PSTACK, 0, STACK
        ARGFRAME XSTACK, 19, STACK
        ARGFRAME IOVERLAY, 0, STATIC
        ARGFRAME DOVERLAY, 0, STATIC
        MOV       A,#-0x9
        LCALL     ?BANKED_ENTER_XDATA
          CFI DPH0 load(1, XDATA, add(CFA_XSP16, literal(-1)))
          CFI DPL0 load(1, XDATA, add(CFA_XSP16, literal(-2)))
          CFI ?BRET_EXT load(1, XDATA, add(CFA_XSP16, literal(-3)))
          CFI ?RET_HIGH load(1, XDATA, add(CFA_XSP16, literal(-4)))
          CFI ?RET_LOW load(1, XDATA, add(CFA_XSP16, literal(-5)))
          CFI R7 load(1, XDATA, add(CFA_XSP16, literal(-6)))
          CFI V0 load(1, XDATA, add(CFA_XSP16, literal(-7)))
          CFI VB load(1, XDATA, add(CFA_XSP16, literal(-8)))
          CFI R6 load(1, XDATA, add(CFA_XSP16, literal(-9)))
          CFI CFA_SP SP+0
          CFI CFA_XSP16 add(XSP16, 9)
        ; Saved register size: 9
        ; Auto size: 10
        MOV       A,#-0xa
        LCALL     ?ALLOC_XSTACK8
          CFI CFA_XSP16 add(XSP16, 19)
// 2929   ZDSecMgrDevice_t device;
// 2930 
// 2931 
// 2932   // only accept from Trust Center
// 2933   if ( ind->srcAddr == APSME_TRUSTCENTER_NWKADDR )
        MOV       DPL,R2
        MOV       DPH,R3
        INC       DPTR
        INC       DPTR
        LCALL     ??Subroutine94_0 & 0xFFFF
??CrossCallReturnLabel_173:
        JNZ       ??ZDSecMgrRemoveDeviceInd_0
// 2934   {
// 2935     // look up NWK address
// 2936     if ( APSME_LookupNwkAddr( ind->childExtAddr, &device.nwkAddr ) == TRUE )
        MOV       A,R2
        ADD       A,#0x4
        MOV       R6,A
        CLR       A
        ADDC      A,R3
        MOV       R7,A
        ; Setup parameters for call to function APSME_LookupNwkAddr
        MOV       R4,?XSP + 0
        MOV       R5,?XSP + 1
        MOV       A,R6
        MOV       R2,A
        MOV       A,R7
        MOV       R3,A
        LCALL     `??APSME_LookupNwkAddr::?relay`; Banked call to: APSME_LookupNwkAddr
        MOV       A,R1
        XRL       A,#0x1
        JNZ       ??ZDSecMgrRemoveDeviceInd_0
// 2937     {
// 2938       device.parentAddr = NLME_GetShortAddr();
        ; Setup parameters for call to function NLME_GetShortAddr
        LCALL     `??NLME_GetShortAddr::?relay`; Banked call to: NLME_GetShortAddr
        MOV       A,#0x4
        LCALL     ?XSTACK_DISP0_8
        LCALL     ??Subroutine103_0 & 0xFFFF
// 2939       device.extAddr    = ind->childExtAddr;
// 2940 
// 2941       // remove device
// 2942       ZDSecMgrDeviceRemove( &device );
// 2943     }
// 2944   }
??CrossCallReturnLabel_218:
        LCALL     ?XSTACK_DISP0_8
        MOV       A,R6
        MOVX      @DPTR,A
        INC       DPTR
        MOV       A,R7
        LCALL     ??Subroutine90_0 & 0xFFFF
??CrossCallReturnLabel_147:
        LCALL     `??ZDSecMgrDeviceRemove::?relay`; Banked call to: ZDSecMgrDeviceRemove
// 2945 }
??ZDSecMgrRemoveDeviceInd_0:
        MOV       A,#0xa
        LJMP      ??Subroutine88_0 & 0xFFFF
          CFI EndBlock cfiBlock396
// 2946 
// 2947 /******************************************************************************
// 2948  * @fn          ZDSecMgrRequestKeyInd
// 2949  *
// 2950  * @brief       Process the ZDO_RequestKeyInd_t message.
// 2951  *
// 2952  * @param       ind - [in] ZDO_RequestKeyInd_t indication
// 2953  *
// 2954  * @return      none
// 2955  */

        RSEG BANKED_CODE:HUGECODE:NOROOT(0)
// 2956 void ZDSecMgrRequestKeyInd( ZDO_RequestKeyInd_t* ind )
ZDSecMgrRequestKeyInd:
          CFI Block cfiBlock397 Using cfiCommon0
          CFI Function ZDSecMgrRequestKeyInd
        CODE
// 2957 {
        FUNCALL ZDSecMgrRequestKeyInd, ZDSecMgrAppKeyReq
        LOCFRAME ISTACK, 2, STACK
        LOCFRAME PSTACK, 0, STACK
        LOCFRAME XSTACK, 0, STACK
        LOCFRAME IOVERLAY, 0, STATIC
        LOCFRAME DOVERLAY, 0, STATIC
        ARGFRAME ISTACK, 2, STACK
        ARGFRAME PSTACK, 0, STACK
        ARGFRAME XSTACK, 0, STACK
        ARGFRAME IOVERLAY, 0, STATIC
        ARGFRAME DOVERLAY, 0, STATIC
        PUSH      DPL
          CFI DPL0 Frame(CFA_SP, 4)
          CFI CFA_SP SP+-4
        PUSH      DPH
          CFI DPH0 Frame(CFA_SP, 5)
          CFI CFA_SP SP+-5
        ; Saved register size: 2
        ; Auto size: 0
// 2958   if ( ind->keyType == KEY_TYPE_NWK )
        MOV       DPL,R2
        MOV       DPH,R3
        INC       DPTR
        INC       DPTR
        INC       DPTR
        INC       DPTR
        MOVX      A,@DPTR
        MOV       R0,A
        MOV       A,#0x1
        XRL       A,R0
        JZ        ??ZDSecMgrRequestKeyInd_0
// 2959   {
// 2960   }
// 2961   else if ( ind->keyType == KEY_TYPE_APP_MASTER )
        MOV       A,#0x2
        XRL       A,R0
        JNZ       ??ZDSecMgrRequestKeyInd_0
// 2962   {
// 2963     ZDSecMgrAppKeyReq( ind );
        ; Setup parameters for call to function ZDSecMgrAppKeyReq
        LCALL     `??ZDSecMgrAppKeyReq::?relay`; Banked call to: ZDSecMgrAppKeyReq
// 2964   }
// 2965   else if ( ind->keyType == KEY_TYPE_TC_LINK )
// 2966   {
// 2967   }
// 2968   //else ignore
// 2969 }
??ZDSecMgrRequestKeyInd_0:
        LJMP      ??Subroutine86_0 & 0xFFFF
          CFI EndBlock cfiBlock397
// 2970 
// 2971 /******************************************************************************
// 2972  * @fn          ZDSecMgrSwitchKeyInd
// 2973  *
// 2974  * @brief       Process the ZDO_SwitchKeyInd_t message.
// 2975  *
// 2976  * @param       ind - [in] ZDO_SwitchKeyInd_t indication
// 2977  *
// 2978  * @return      none
// 2979  */

        RSEG BANKED_CODE:HUGECODE:NOROOT(0)
// 2980 void ZDSecMgrSwitchKeyInd( ZDO_SwitchKeyInd_t* ind )
ZDSecMgrSwitchKeyInd:
          CFI Block cfiBlock398 Using cfiCommon0
          CFI Function ZDSecMgrSwitchKeyInd
        CODE
// 2981 {
        FUNCALL ZDSecMgrSwitchKeyInd, SSP_SwitchNwkKey
        LOCFRAME ISTACK, 2, STACK
        LOCFRAME PSTACK, 0, STACK
        LOCFRAME XSTACK, 0, STACK
        LOCFRAME IOVERLAY, 0, STATIC
        LOCFRAME DOVERLAY, 0, STATIC
        ARGFRAME ISTACK, 2, STACK
        ARGFRAME PSTACK, 0, STACK
        ARGFRAME XSTACK, 0, STACK
        ARGFRAME IOVERLAY, 0, STATIC
        ARGFRAME DOVERLAY, 0, STATIC
        FUNCALL ZDSecMgrSwitchKeyInd, ZDApp_NVUpdate
        LOCFRAME ISTACK, 2, STACK
        LOCFRAME PSTACK, 0, STACK
        LOCFRAME XSTACK, 0, STACK
        LOCFRAME IOVERLAY, 0, STATIC
        LOCFRAME DOVERLAY, 0, STATIC
        ARGFRAME ISTACK, 2, STACK
        ARGFRAME PSTACK, 0, STACK
        ARGFRAME XSTACK, 0, STACK
        ARGFRAME IOVERLAY, 0, STATIC
        ARGFRAME DOVERLAY, 0, STATIC
        PUSH      DPL
          CFI DPL0 Frame(CFA_SP, 4)
          CFI CFA_SP SP+-4
        PUSH      DPH
          CFI DPH0 Frame(CFA_SP, 5)
          CFI CFA_SP SP+-5
        ; Saved register size: 2
        ; Auto size: 0
// 2982   SSP_SwitchNwkKey( ind->keySeqNum );
        ; Setup parameters for call to function SSP_SwitchNwkKey
        MOV       DPL,R2
        MOV       DPH,R3
        INC       DPTR
        INC       DPTR
        INC       DPTR
        INC       DPTR
        MOVX      A,@DPTR
        MOV       R1,A
        LCALL     `??SSP_SwitchNwkKey::?relay`; Banked call to: SSP_SwitchNwkKey
// 2983 
// 2984   // Save if nv
// 2985   ZDApp_NVUpdate();
        ; Setup parameters for call to function ZDApp_NVUpdate
        LCALL     `??ZDApp_NVUpdate::?relay`; Banked call to: ZDApp_NVUpdate
// 2986 }
        LJMP      ??Subroutine86_0 & 0xFFFF
          CFI EndBlock cfiBlock398
// 2987 
// 2988 /******************************************************************************
// 2989  * @fn          ZDSecMgrAuthenticateInd
// 2990  *
// 2991  * @brief       Process the ZDO_AuthenticateInd_t message.
// 2992  *
// 2993  * @param       ind - [in] ZDO_AuthenticateInd_t indication
// 2994  *
// 2995  * @return      none
// 2996  */

        RSEG BANKED_CODE:HUGECODE:NOROOT(0)
// 2997 void ZDSecMgrAuthenticateInd( ZDO_AuthenticateInd_t* ind )
ZDSecMgrAuthenticateInd:
          CFI Block cfiBlock399 Using cfiCommon0
          CFI Function ZDSecMgrAuthenticateInd
        CODE
// 2998 {
        FUNCALL ZDSecMgrAuthenticateInd, AddrMgrExtAddrSet
        LOCFRAME ISTACK, 0, STACK
        LOCFRAME PSTACK, 0, STACK
        LOCFRAME XSTACK, 32, STACK
        LOCFRAME IOVERLAY, 0, STATIC
        LOCFRAME DOVERLAY, 0, STATIC
        ARGFRAME ISTACK, 0, STACK
        ARGFRAME PSTACK, 0, STACK
        ARGFRAME XSTACK, 32, STACK
        ARGFRAME IOVERLAY, 0, STATIC
        ARGFRAME DOVERLAY, 0, STATIC
        FUNCALL ZDSecMgrAuthenticateInd, AddrMgrEntryUpdate
        LOCFRAME ISTACK, 0, STACK
        LOCFRAME PSTACK, 0, STACK
        LOCFRAME XSTACK, 32, STACK
        LOCFRAME IOVERLAY, 0, STATIC
        LOCFRAME DOVERLAY, 0, STATIC
        ARGFRAME ISTACK, 0, STACK
        ARGFRAME PSTACK, 0, STACK
        ARGFRAME XSTACK, 32, STACK
        ARGFRAME IOVERLAY, 0, STATIC
        ARGFRAME DOVERLAY, 0, STATIC
        FUNCALL ZDSecMgrAuthenticateInd, APSME_AuthenticateReq
        LOCFRAME ISTACK, 0, STACK
        LOCFRAME PSTACK, 0, STACK
        LOCFRAME XSTACK, 32, STACK
        LOCFRAME IOVERLAY, 0, STATIC
        LOCFRAME DOVERLAY, 0, STATIC
        ARGFRAME ISTACK, 0, STACK
        ARGFRAME PSTACK, 0, STACK
        ARGFRAME XSTACK, 32, STACK
        ARGFRAME IOVERLAY, 0, STATIC
        ARGFRAME DOVERLAY, 0, STATIC
        REQUIRE ?V0
        REQUIRE ?V1
        REQUIRE ?V2
        REQUIRE ?V3
        MOV       A,#-0xc
        LCALL     ?BANKED_ENTER_XDATA
          CFI DPH0 load(1, XDATA, add(CFA_XSP16, literal(-1)))
          CFI DPL0 load(1, XDATA, add(CFA_XSP16, literal(-2)))
          CFI ?BRET_EXT load(1, XDATA, add(CFA_XSP16, literal(-3)))
          CFI ?RET_HIGH load(1, XDATA, add(CFA_XSP16, literal(-4)))
          CFI ?RET_LOW load(1, XDATA, add(CFA_XSP16, literal(-5)))
          CFI R7 load(1, XDATA, add(CFA_XSP16, literal(-6)))
          CFI V3 load(1, XDATA, add(CFA_XSP16, literal(-7)))
          CFI V2 load(1, XDATA, add(CFA_XSP16, literal(-8)))
          CFI V1 load(1, XDATA, add(CFA_XSP16, literal(-9)))
          CFI V0 load(1, XDATA, add(CFA_XSP16, literal(-10)))
          CFI VB load(1, XDATA, add(CFA_XSP16, literal(-11)))
          CFI R6 load(1, XDATA, add(CFA_XSP16, literal(-12)))
          CFI CFA_SP SP+0
          CFI CFA_XSP16 add(XSP16, 12)
        ; Saved register size: 12
        ; Auto size: 20
        MOV       A,#-0x14
        LCALL     ?ALLOC_XSTACK8
          CFI CFA_XSP16 add(XSP16, 32)
        MOV       A,R2
        MOV       R6,A
        MOV       A,R3
        MOV       R7,A
// 2999   APSME_AuthenticateReq_t req;
// 3000   AddrMgrEntry_t          entry;
// 3001 
// 3002 
// 3003   // update the address manager
// 3004   //---------------------------------------------------------------------------
// 3005   // note:
// 3006   // required for EA processing, but ultimately EA logic could also use the
// 3007   // neighbor table to look up addresses -- also(IF using EA) the neighbor
// 3008   // table is supposed to have authentication states for neighbors
// 3009   //---------------------------------------------------------------------------
// 3010   entry.user    = ADDRMGR_USER_SECURITY;
        MOV       A,#0x7
        LCALL     ?XSTACK_DISP0_8
        MOV       A,#0x2
        MOVX      @DPTR,A
// 3011   entry.nwkAddr = ind->aps.initNwkAddr;
        MOV       A,R2
        ADD       A,#0x2
        MOV       ?V2,A
        CLR       A
        ADDC      A,R7
        MOV       ?V3,A
        MOV       DPL,?V2
        MOV       DPH,A
        LCALL     ??Subroutine99_0 & 0xFFFF
??CrossCallReturnLabel_200:
        MOV       A,#0x8
        LCALL     ?XSTACK_DISP0_8
        LCALL     ??Subroutine91_0 & 0xFFFF
// 3012   AddrMgrExtAddrSet( entry.extAddr, ind->aps.initExtAddr );
??CrossCallReturnLabel_158:
        MOV       A,R2
        LCALL     ?Subroutine61 & 0xFFFF
??CrossCallReturnLabel_87:
        ; Setup parameters for call to function AddrMgrExtAddrSet
        MOV       R4,?V0
        MOV       R5,A
        MOV       A,#0xa
        LCALL     ?XSTACK_DISP0_8
        MOV       R2,DPL
        MOV       R3,DPH
        LCALL     `??AddrMgrExtAddrSet::?relay`; Banked call to: AddrMgrExtAddrSet
// 3013 
// 3014   if ( AddrMgrEntryUpdate( &entry ) == TRUE )
        ; Setup parameters for call to function AddrMgrEntryUpdate
        MOV       A,#0x7
        LCALL     ?XSTACK_DISP101_8
        LCALL     `??AddrMgrEntryUpdate::?relay`; Banked call to: AddrMgrEntryUpdate
        MOV       A,R1
        XRL       A,#0x1
        JNZ       ??ZDSecMgrAuthenticateInd_0
// 3015   {
// 3016     // set request fields
// 3017     req.nwkAddr   = ind->aps.initNwkAddr;
        MOV       DPL,?V2
        MOV       DPH,?V3
        LCALL     ??Subroutine99_0 & 0xFFFF
??CrossCallReturnLabel_201:
        LCALL     ?Subroutine30 & 0xFFFF
// 3018     req.extAddr   = ind->aps.initExtAddr;
??CrossCallReturnLabel_184:
        LCALL     ?XSTACK_DISP0_8
        MOV       A,?V0
        MOVX      @DPTR,A
        INC       DPTR
        MOV       A,?V1
        MOVX      @DPTR,A
// 3019     req.action    = APSME_EA_ACCEPT;
        MOV       A,#0x6
        LCALL     ?XSTACK_DISP0_8
        MOV       A,#0x1
        MOVX      @DPTR,A
// 3020     req.challenge = ind->aps.challenge;
        MOV       A,R6
        ADD       A,#0xc
        MOV       R0,A
        CLR       A
        ADDC      A,R7
        MOV       R1,A
        MOV       A,#0x4
        LCALL     ?XSTACK_DISP0_8
        LCALL     ?Subroutine17 & 0xFFFF
// 3021 
// 3022     // start EA processing
// 3023     APSME_AuthenticateReq( &req );
// 3024   }
??CrossCallReturnLabel_2:
        LCALL     `??APSME_AuthenticateReq::?relay`; Banked call to: APSME_AuthenticateReq
// 3025 }
??ZDSecMgrAuthenticateInd_0:
        MOV       A,#0x14
        LJMP      ??Subroutine82_0 & 0xFFFF
          CFI EndBlock cfiBlock399

        RSEG BANKED_CODE:HUGECODE:NOROOT(0)
?Subroutine61:
          CFI Block cfiCond400 Using cfiCommon0
          CFI Function ZDSecMgrSendNwkKey
          CFI Conditional ??CrossCallReturnLabel_86
          CFI R6 load(1, XDATA, add(CFA_XSP16, literal(-12)))
          CFI VB load(1, XDATA, add(CFA_XSP16, literal(-11)))
          CFI V0 load(1, XDATA, add(CFA_XSP16, literal(-10)))
          CFI V1 load(1, XDATA, add(CFA_XSP16, literal(-9)))
          CFI V2 load(1, XDATA, add(CFA_XSP16, literal(-8)))
          CFI V3 load(1, XDATA, add(CFA_XSP16, literal(-7)))
          CFI R7 load(1, XDATA, add(CFA_XSP16, literal(-6)))
          CFI ?RET_LOW load(1, XDATA, add(CFA_XSP16, literal(-5)))
          CFI ?RET_HIGH load(1, XDATA, add(CFA_XSP16, literal(-4)))
          CFI ?BRET_EXT load(1, XDATA, add(CFA_XSP16, literal(-3)))
          CFI DPL0 load(1, XDATA, add(CFA_XSP16, literal(-2)))
          CFI DPH0 load(1, XDATA, add(CFA_XSP16, literal(-1)))
          CFI CFA_SP SP+-2
          CFI CFA_XSP16 add(XSP16, 25)
          CFI Block cfiCond401 Using cfiCommon0
          CFI (cfiCond401) Function ZDSecMgrAuthenticateInd
          CFI (cfiCond401) Conditional ??CrossCallReturnLabel_87
          CFI (cfiCond401) R6 load(1, XDATA, add(CFA_XSP16, literal(-12)))
          CFI (cfiCond401) VB load(1, XDATA, add(CFA_XSP16, literal(-11)))
          CFI (cfiCond401) V0 load(1, XDATA, add(CFA_XSP16, literal(-10)))
          CFI (cfiCond401) V1 load(1, XDATA, add(CFA_XSP16, literal(-9)))
          CFI (cfiCond401) V2 load(1, XDATA, add(CFA_XSP16, literal(-8)))
          CFI (cfiCond401) V3 load(1, XDATA, add(CFA_XSP16, literal(-7)))
          CFI (cfiCond401) R7 load(1, XDATA, add(CFA_XSP16, literal(-6)))
          CFI (cfiCond401) ?RET_LOW load(1, XDATA, add(CFA_XSP16, literal(-5)))
          CFI (cfiCond401) ?RET_HIGH load(1, XDATA, add(CFA_XSP16, literal(-4)))
          CFI (cfiCond401) ?BRET_EXT load(1, XDATA, add(CFA_XSP16, literal(-3)))
          CFI (cfiCond401) DPL0 load(1, XDATA, add(CFA_XSP16, literal(-2)))
          CFI (cfiCond401) DPH0 load(1, XDATA, add(CFA_XSP16, literal(-1)))
          CFI (cfiCond401) CFA_SP SP+-2
          CFI (cfiCond401) CFA_XSP16 add(XSP16, 32)
          CFI Block cfiPicker402 Using cfiCommon1
          CFI (cfiPicker402) NoFunction
          CFI (cfiPicker402) Picker
        ADD       A,#0x4
        MOV       ?V0,A
        CLR       A
        ADDC      A,R7
        MOV       ?V1,A
        RET
          CFI EndBlock cfiCond400
          CFI EndBlock cfiCond401
          CFI EndBlock cfiPicker402

        RSEG BANKED_CODE:HUGECODE:NOROOT(0)
?Subroutine50:
          CFI Block cfiCond403 Using cfiCommon0
          CFI Function ZDSecMgrEstablishKey
          CFI Conditional ??CrossCallReturnLabel_193
          CFI R6 load(1, XDATA, add(CFA_XSP16, literal(-10)))
          CFI VB load(1, XDATA, add(CFA_XSP16, literal(-9)))
          CFI V0 load(1, XDATA, add(CFA_XSP16, literal(-8)))
          CFI V1 load(1, XDATA, add(CFA_XSP16, literal(-7)))
          CFI R7 load(1, XDATA, add(CFA_XSP16, literal(-6)))
          CFI ?RET_LOW load(1, XDATA, add(CFA_XSP16, literal(-5)))
          CFI ?RET_HIGH load(1, XDATA, add(CFA_XSP16, literal(-4)))
          CFI ?BRET_EXT load(1, XDATA, add(CFA_XSP16, literal(-3)))
          CFI DPL0 load(1, XDATA, add(CFA_XSP16, literal(-2)))
          CFI DPH0 load(1, XDATA, add(CFA_XSP16, literal(-1)))
          CFI CFA_SP SP+-2
          CFI CFA_XSP16 add(XSP16, 17)
          CFI Block cfiCond404 Using cfiCommon0
          CFI (cfiCond404) Function ZDSecMgrSendMasterKey
          CFI (cfiCond404) Conditional ??CrossCallReturnLabel_194
          CFI (cfiCond404) R6 load(1, XDATA, add(CFA_XSP16, literal(-10)))
          CFI (cfiCond404) VB load(1, XDATA, add(CFA_XSP16, literal(-9)))
          CFI (cfiCond404) V0 load(1, XDATA, add(CFA_XSP16, literal(-8)))
          CFI (cfiCond404) V1 load(1, XDATA, add(CFA_XSP16, literal(-7)))
          CFI (cfiCond404) R7 load(1, XDATA, add(CFA_XSP16, literal(-6)))
          CFI (cfiCond404) ?RET_LOW load(1, XDATA, add(CFA_XSP16, literal(-5)))
          CFI (cfiCond404) ?RET_HIGH load(1, XDATA, add(CFA_XSP16, literal(-4)))
          CFI (cfiCond404) ?BRET_EXT load(1, XDATA, add(CFA_XSP16, literal(-3)))
          CFI (cfiCond404) DPL0 load(1, XDATA, add(CFA_XSP16, literal(-2)))
          CFI (cfiCond404) DPH0 load(1, XDATA, add(CFA_XSP16, literal(-1)))
          CFI (cfiCond404) CFA_SP SP+-2
          CFI (cfiCond404) CFA_XSP16 add(XSP16, 23)
          CFI Block cfiPicker405 Using cfiCommon1
          CFI (cfiPicker405) NoFunction
          CFI (cfiPicker405) Picker
        LCALL     `??NLME_GetShortAddr::?relay`; Banked call to: NLME_GetShortAddr
        MOV       DPL,R6
        MOV       DPH,R7
        INC       DPTR
        INC       DPTR
          CFI EndBlock cfiCond403
          CFI EndBlock cfiCond404
          CFI EndBlock cfiPicker405
        REQUIRE ??Subroutine98_0
        ; // Fall through to label ??Subroutine98_0

        RSEG BANKED_CODE:HUGECODE:NOROOT(0)
??Subroutine98_0:
          CFI Block cfiCond406 Using cfiCommon0
          CFI Function ZDSecMgrNewDeviceEvent
          CFI Conditional ??CrossCallReturnLabel_205
          CFI R6 load(1, XDATA, add(CFA_XSP16, literal(-12)))
          CFI VB load(1, XDATA, add(CFA_XSP16, literal(-11)))
          CFI V0 load(1, XDATA, add(CFA_XSP16, literal(-10)))
          CFI V1 load(1, XDATA, add(CFA_XSP16, literal(-9)))
          CFI V2 load(1, XDATA, add(CFA_XSP16, literal(-8)))
          CFI V3 load(1, XDATA, add(CFA_XSP16, literal(-7)))
          CFI R7 load(1, XDATA, add(CFA_XSP16, literal(-6)))
          CFI ?RET_LOW load(1, XDATA, add(CFA_XSP16, literal(-5)))
          CFI ?RET_HIGH load(1, XDATA, add(CFA_XSP16, literal(-4)))
          CFI ?BRET_EXT load(1, XDATA, add(CFA_XSP16, literal(-3)))
          CFI DPL0 load(1, XDATA, add(CFA_XSP16, literal(-2)))
          CFI DPH0 load(1, XDATA, add(CFA_XSP16, literal(-1)))
          CFI CFA_SP SP+-2
          CFI CFA_XSP16 add(XSP16, 35)
          CFI Block cfiCond407 Using cfiCommon0
          CFI (cfiCond407) Function ZDSecMgrEstablishKey
          CFI (cfiCond407) Conditional ??CrossCallReturnLabel_193
          CFI (cfiCond407) R6 load(1, XDATA, add(CFA_XSP16, literal(-10)))
          CFI (cfiCond407) VB load(1, XDATA, add(CFA_XSP16, literal(-9)))
          CFI (cfiCond407) V0 load(1, XDATA, add(CFA_XSP16, literal(-8)))
          CFI (cfiCond407) V1 load(1, XDATA, add(CFA_XSP16, literal(-7)))
          CFI (cfiCond407) R7 load(1, XDATA, add(CFA_XSP16, literal(-6)))
          CFI (cfiCond407) ?RET_LOW load(1, XDATA, add(CFA_XSP16, literal(-5)))
          CFI (cfiCond407) ?RET_HIGH load(1, XDATA, add(CFA_XSP16, literal(-4)))
          CFI (cfiCond407) ?BRET_EXT load(1, XDATA, add(CFA_XSP16, literal(-3)))
          CFI (cfiCond407) DPL0 load(1, XDATA, add(CFA_XSP16, literal(-2)))
          CFI (cfiCond407) DPH0 load(1, XDATA, add(CFA_XSP16, literal(-1)))
          CFI (cfiCond407) CFA_SP SP+-2
          CFI (cfiCond407) CFA_XSP16 add(XSP16, 17)
          CFI Block cfiCond408 Using cfiCommon0
          CFI (cfiCond408) Function ZDSecMgrSendMasterKey
          CFI (cfiCond408) Conditional ??CrossCallReturnLabel_194
          CFI (cfiCond408) R6 load(1, XDATA, add(CFA_XSP16, literal(-10)))
          CFI (cfiCond408) VB load(1, XDATA, add(CFA_XSP16, literal(-9)))
          CFI (cfiCond408) V0 load(1, XDATA, add(CFA_XSP16, literal(-8)))
          CFI (cfiCond408) V1 load(1, XDATA, add(CFA_XSP16, literal(-7)))
          CFI (cfiCond408) R7 load(1, XDATA, add(CFA_XSP16, literal(-6)))
          CFI (cfiCond408) ?RET_LOW load(1, XDATA, add(CFA_XSP16, literal(-5)))
          CFI (cfiCond408) ?RET_HIGH load(1, XDATA, add(CFA_XSP16, literal(-4)))
          CFI (cfiCond408) ?BRET_EXT load(1, XDATA, add(CFA_XSP16, literal(-3)))
          CFI (cfiCond408) DPL0 load(1, XDATA, add(CFA_XSP16, literal(-2)))
          CFI (cfiCond408) DPH0 load(1, XDATA, add(CFA_XSP16, literal(-1)))
          CFI (cfiCond408) CFA_SP SP+-2
          CFI (cfiCond408) CFA_XSP16 add(XSP16, 23)
          CFI Block cfiPicker409 Using cfiCommon1
          CFI (cfiPicker409) NoFunction
          CFI (cfiPicker409) Picker
        INC       DPTR
        INC       DPTR
          CFI EndBlock cfiCond406
          CFI EndBlock cfiCond407
          CFI EndBlock cfiCond408
          CFI EndBlock cfiPicker409
        REQUIRE ??Subroutine99_0
        ; // Fall through to label ??Subroutine99_0

        RSEG BANKED_CODE:HUGECODE:NOROOT(0)
??Subroutine99_0:
          CFI Block cfiCond410 Using cfiCommon0
          CFI Function ZDSecMgrCtrlSet
          CFI Conditional ??CrossCallReturnLabel_195
          CFI R6 load(1, XDATA, add(CFA_XSP16, literal(-9)))
          CFI VB load(1, XDATA, add(CFA_XSP16, literal(-8)))
          CFI V0 load(1, XDATA, add(CFA_XSP16, literal(-7)))
          CFI R7 load(1, XDATA, add(CFA_XSP16, literal(-6)))
          CFI ?RET_LOW load(1, XDATA, add(CFA_XSP16, literal(-5)))
          CFI ?RET_HIGH load(1, XDATA, add(CFA_XSP16, literal(-4)))
          CFI ?BRET_EXT load(1, XDATA, add(CFA_XSP16, literal(-3)))
          CFI DPL0 load(1, XDATA, add(CFA_XSP16, literal(-2)))
          CFI DPH0 load(1, XDATA, add(CFA_XSP16, literal(-1)))
          CFI CFA_SP SP+-2
          CFI CFA_XSP16 add(XSP16, 9)
          CFI Block cfiCond411 Using cfiCommon0
          CFI (cfiCond411) Function ZDSecMgrEstablishKey
          CFI (cfiCond411) Conditional ??CrossCallReturnLabel_196
          CFI (cfiCond411) R6 load(1, XDATA, add(CFA_XSP16, literal(-10)))
          CFI (cfiCond411) VB load(1, XDATA, add(CFA_XSP16, literal(-9)))
          CFI (cfiCond411) V0 load(1, XDATA, add(CFA_XSP16, literal(-8)))
          CFI (cfiCond411) V1 load(1, XDATA, add(CFA_XSP16, literal(-7)))
          CFI (cfiCond411) R7 load(1, XDATA, add(CFA_XSP16, literal(-6)))
          CFI (cfiCond411) ?RET_LOW load(1, XDATA, add(CFA_XSP16, literal(-5)))
          CFI (cfiCond411) ?RET_HIGH load(1, XDATA, add(CFA_XSP16, literal(-4)))
          CFI (cfiCond411) ?BRET_EXT load(1, XDATA, add(CFA_XSP16, literal(-3)))
          CFI (cfiCond411) DPL0 load(1, XDATA, add(CFA_XSP16, literal(-2)))
          CFI (cfiCond411) DPH0 load(1, XDATA, add(CFA_XSP16, literal(-1)))
          CFI (cfiCond411) CFA_SP SP+-2
          CFI (cfiCond411) CFA_XSP16 add(XSP16, 17)
          CFI Block cfiCond412 Using cfiCommon0
          CFI (cfiCond412) Function ZDSecMgrSendMasterKey
          CFI (cfiCond412) Conditional ??CrossCallReturnLabel_197
          CFI (cfiCond412) R6 load(1, XDATA, add(CFA_XSP16, literal(-10)))
          CFI (cfiCond412) VB load(1, XDATA, add(CFA_XSP16, literal(-9)))
          CFI (cfiCond412) V0 load(1, XDATA, add(CFA_XSP16, literal(-8)))
          CFI (cfiCond412) V1 load(1, XDATA, add(CFA_XSP16, literal(-7)))
          CFI (cfiCond412) R7 load(1, XDATA, add(CFA_XSP16, literal(-6)))
          CFI (cfiCond412) ?RET_LOW load(1, XDATA, add(CFA_XSP16, literal(-5)))
          CFI (cfiCond412) ?RET_HIGH load(1, XDATA, add(CFA_XSP16, literal(-4)))
          CFI (cfiCond412) ?BRET_EXT load(1, XDATA, add(CFA_XSP16, literal(-3)))
          CFI (cfiCond412) DPL0 load(1, XDATA, add(CFA_XSP16, literal(-2)))
          CFI (cfiCond412) DPH0 load(1, XDATA, add(CFA_XSP16, literal(-1)))
          CFI (cfiCond412) CFA_SP SP+-2
          CFI (cfiCond412) CFA_XSP16 add(XSP16, 23)
          CFI Block cfiCond413 Using cfiCommon0
          CFI (cfiCond413) Function ZDSecMgrEvent
          CFI (cfiCond413) Conditional ??CrossCallReturnLabel_198
          CFI (cfiCond413) R6 load(1, XDATA, add(CFA_XSP16, literal(-10)))
          CFI (cfiCond413) VB load(1, XDATA, add(CFA_XSP16, literal(-9)))
          CFI (cfiCond413) V0 load(1, XDATA, add(CFA_XSP16, literal(-8)))
          CFI (cfiCond413) V1 load(1, XDATA, add(CFA_XSP16, literal(-7)))
          CFI (cfiCond413) R7 load(1, XDATA, add(CFA_XSP16, literal(-6)))
          CFI (cfiCond413) ?RET_LOW load(1, XDATA, add(CFA_XSP16, literal(-5)))
          CFI (cfiCond413) ?RET_HIGH load(1, XDATA, add(CFA_XSP16, literal(-4)))
          CFI (cfiCond413) ?BRET_EXT load(1, XDATA, add(CFA_XSP16, literal(-3)))
          CFI (cfiCond413) DPL0 load(1, XDATA, add(CFA_XSP16, literal(-2)))
          CFI (cfiCond413) DPH0 load(1, XDATA, add(CFA_XSP16, literal(-1)))
          CFI (cfiCond413) CFA_SP SP+-2
          CFI (cfiCond413) CFA_XSP16 add(XSP16, 33)
          CFI Block cfiCond414 Using cfiCommon0
          CFI (cfiCond414) Function ZDSecMgrEstablishKeyInd
          CFI (cfiCond414) Conditional ??CrossCallReturnLabel_199
          CFI (cfiCond414) R6 load(1, XDATA, add(CFA_XSP16, literal(-14)))
          CFI (cfiCond414) VB load(1, XDATA, add(CFA_XSP16, literal(-13)))
          CFI (cfiCond414) V0 load(1, XDATA, add(CFA_XSP16, literal(-12)))
          CFI (cfiCond414) V1 load(1, XDATA, add(CFA_XSP16, literal(-11)))
          CFI (cfiCond414) V2 load(1, XDATA, add(CFA_XSP16, literal(-10)))
          CFI (cfiCond414) V3 load(1, XDATA, add(CFA_XSP16, literal(-9)))
          CFI (cfiCond414) V4 load(1, XDATA, add(CFA_XSP16, literal(-8)))
          CFI (cfiCond414) V5 load(1, XDATA, add(CFA_XSP16, literal(-7)))
          CFI (cfiCond414) R7 load(1, XDATA, add(CFA_XSP16, literal(-6)))
          CFI (cfiCond414) ?RET_LOW load(1, XDATA, add(CFA_XSP16, literal(-5)))
          CFI (cfiCond414) ?RET_HIGH load(1, XDATA, add(CFA_XSP16, literal(-4)))
          CFI (cfiCond414) ?BRET_EXT load(1, XDATA, add(CFA_XSP16, literal(-3)))
          CFI (cfiCond414) DPL0 load(1, XDATA, add(CFA_XSP16, literal(-2)))
          CFI (cfiCond414) DPH0 load(1, XDATA, add(CFA_XSP16, literal(-1)))
          CFI (cfiCond414) CFA_SP SP+-2
          CFI (cfiCond414) CFA_XSP16 add(XSP16, 31)
          CFI Block cfiCond415 Using cfiCommon0
          CFI (cfiCond415) Function ZDSecMgrAuthenticateInd
          CFI (cfiCond415) Conditional ??CrossCallReturnLabel_200
          CFI (cfiCond415) R6 load(1, XDATA, add(CFA_XSP16, literal(-12)))
          CFI (cfiCond415) VB load(1, XDATA, add(CFA_XSP16, literal(-11)))
          CFI (cfiCond415) V0 load(1, XDATA, add(CFA_XSP16, literal(-10)))
          CFI (cfiCond415) V1 load(1, XDATA, add(CFA_XSP16, literal(-9)))
          CFI (cfiCond415) V2 load(1, XDATA, add(CFA_XSP16, literal(-8)))
          CFI (cfiCond415) V3 load(1, XDATA, add(CFA_XSP16, literal(-7)))
          CFI (cfiCond415) R7 load(1, XDATA, add(CFA_XSP16, literal(-6)))
          CFI (cfiCond415) ?RET_LOW load(1, XDATA, add(CFA_XSP16, literal(-5)))
          CFI (cfiCond415) ?RET_HIGH load(1, XDATA, add(CFA_XSP16, literal(-4)))
          CFI (cfiCond415) ?BRET_EXT load(1, XDATA, add(CFA_XSP16, literal(-3)))
          CFI (cfiCond415) DPL0 load(1, XDATA, add(CFA_XSP16, literal(-2)))
          CFI (cfiCond415) DPH0 load(1, XDATA, add(CFA_XSP16, literal(-1)))
          CFI (cfiCond415) CFA_SP SP+-2
          CFI (cfiCond415) CFA_XSP16 add(XSP16, 32)
          CFI Block cfiCond416 Using cfiCommon0
          CFI (cfiCond416) Function ZDSecMgrAuthenticateInd
          CFI (cfiCond416) Conditional ??CrossCallReturnLabel_201
          CFI (cfiCond416) R6 load(1, XDATA, add(CFA_XSP16, literal(-12)))
          CFI (cfiCond416) VB load(1, XDATA, add(CFA_XSP16, literal(-11)))
          CFI (cfiCond416) V0 load(1, XDATA, add(CFA_XSP16, literal(-10)))
          CFI (cfiCond416) V1 load(1, XDATA, add(CFA_XSP16, literal(-9)))
          CFI (cfiCond416) V2 load(1, XDATA, add(CFA_XSP16, literal(-8)))
          CFI (cfiCond416) V3 load(1, XDATA, add(CFA_XSP16, literal(-7)))
          CFI (cfiCond416) R7 load(1, XDATA, add(CFA_XSP16, literal(-6)))
          CFI (cfiCond416) ?RET_LOW load(1, XDATA, add(CFA_XSP16, literal(-5)))
          CFI (cfiCond416) ?RET_HIGH load(1, XDATA, add(CFA_XSP16, literal(-4)))
          CFI (cfiCond416) ?BRET_EXT load(1, XDATA, add(CFA_XSP16, literal(-3)))
          CFI (cfiCond416) DPL0 load(1, XDATA, add(CFA_XSP16, literal(-2)))
          CFI (cfiCond416) DPH0 load(1, XDATA, add(CFA_XSP16, literal(-1)))
          CFI (cfiCond416) CFA_SP SP+-2
          CFI (cfiCond416) CFA_XSP16 add(XSP16, 32)
          CFI Block cfiCond417 Using cfiCommon0
          CFI (cfiCond417) Function ZDSecMgrWriteNV
          CFI (cfiCond417) Conditional ??CrossCallReturnLabel_202
          CFI (cfiCond417) R6 load(1, XDATA, add(CFA_XSP16, literal(-10)))
          CFI (cfiCond417) VB load(1, XDATA, add(CFA_XSP16, literal(-9)))
          CFI (cfiCond417) V0 load(1, XDATA, add(CFA_XSP16, literal(-8)))
          CFI (cfiCond417) V1 load(1, XDATA, add(CFA_XSP16, literal(-7)))
          CFI (cfiCond417) R7 load(1, XDATA, add(CFA_XSP16, literal(-6)))
          CFI (cfiCond417) ?RET_LOW load(1, XDATA, add(CFA_XSP16, literal(-5)))
          CFI (cfiCond417) ?RET_HIGH load(1, XDATA, add(CFA_XSP16, literal(-4)))
          CFI (cfiCond417) ?BRET_EXT load(1, XDATA, add(CFA_XSP16, literal(-3)))
          CFI (cfiCond417) DPL0 load(1, XDATA, add(CFA_XSP16, literal(-2)))
          CFI (cfiCond417) DPH0 load(1, XDATA, add(CFA_XSP16, literal(-1)))
          CFI (cfiCond417) CFA_SP SP+-2
          CFI (cfiCond417) CFA_XSP16 add(XSP16, 16)
          CFI Block cfiCond418 Using cfiCommon0
          CFI (cfiCond418) Function ZDSecMgrRestoreFromNV
          CFI (cfiCond418) Conditional ??CrossCallReturnLabel_203
          CFI (cfiCond418) R6 load(1, XDATA, add(CFA_XSP16, literal(-13)))
          CFI (cfiCond418) VB load(1, XDATA, add(CFA_XSP16, literal(-12)))
          CFI (cfiCond418) V0 load(1, XDATA, add(CFA_XSP16, literal(-11)))
          CFI (cfiCond418) V1 load(1, XDATA, add(CFA_XSP16, literal(-10)))
          CFI (cfiCond418) V2 load(1, XDATA, add(CFA_XSP16, literal(-9)))
          CFI (cfiCond418) V3 load(1, XDATA, add(CFA_XSP16, literal(-8)))
          CFI (cfiCond418) V4 load(1, XDATA, add(CFA_XSP16, literal(-7)))
          CFI (cfiCond418) R7 load(1, XDATA, add(CFA_XSP16, literal(-6)))
          CFI (cfiCond418) ?RET_LOW load(1, XDATA, add(CFA_XSP16, literal(-5)))
          CFI (cfiCond418) ?RET_HIGH load(1, XDATA, add(CFA_XSP16, literal(-4)))
          CFI (cfiCond418) ?BRET_EXT load(1, XDATA, add(CFA_XSP16, literal(-3)))
          CFI (cfiCond418) DPL0 load(1, XDATA, add(CFA_XSP16, literal(-2)))
          CFI (cfiCond418) DPH0 load(1, XDATA, add(CFA_XSP16, literal(-1)))
          CFI (cfiCond418) CFA_SP SP+-2
          CFI (cfiCond418) CFA_XSP16 add(XSP16, 15)
          CFI Block cfiCond419 Using cfiCommon0
          CFI (cfiCond419) Function ZDSecMgrAPSRemove
          CFI (cfiCond419) Conditional ??CrossCallReturnLabel_204
          CFI (cfiCond419) DPL0 Frame(CFA_SP, 4)
          CFI (cfiCond419) DPH0 Frame(CFA_SP, 5)
          CFI (cfiCond419) CFA_SP SP+-7
          CFI (cfiCond419) CFA_XSP16 add(XSP16, 10)
          CFI Block cfiCond420 Using cfiCommon0
          CFI (cfiCond420) Function ZDSecMgrNewDeviceEvent
          CFI (cfiCond420) Conditional ??CrossCallReturnLabel_205
          CFI (cfiCond420) R6 load(1, XDATA, add(CFA_XSP16, literal(-12)))
          CFI (cfiCond420) VB load(1, XDATA, add(CFA_XSP16, literal(-11)))
          CFI (cfiCond420) V0 load(1, XDATA, add(CFA_XSP16, literal(-10)))
          CFI (cfiCond420) V1 load(1, XDATA, add(CFA_XSP16, literal(-9)))
          CFI (cfiCond420) V2 load(1, XDATA, add(CFA_XSP16, literal(-8)))
          CFI (cfiCond420) V3 load(1, XDATA, add(CFA_XSP16, literal(-7)))
          CFI (cfiCond420) R7 load(1, XDATA, add(CFA_XSP16, literal(-6)))
          CFI (cfiCond420) ?RET_LOW load(1, XDATA, add(CFA_XSP16, literal(-5)))
          CFI (cfiCond420) ?RET_HIGH load(1, XDATA, add(CFA_XSP16, literal(-4)))
          CFI (cfiCond420) ?BRET_EXT load(1, XDATA, add(CFA_XSP16, literal(-3)))
          CFI (cfiCond420) DPL0 load(1, XDATA, add(CFA_XSP16, literal(-2)))
          CFI (cfiCond420) DPH0 load(1, XDATA, add(CFA_XSP16, literal(-1)))
          CFI (cfiCond420) CFA_SP SP+-2
          CFI (cfiCond420) CFA_XSP16 add(XSP16, 35)
          CFI Block cfiCond421 Using cfiCommon0
          CFI (cfiCond421) Function ZDSecMgrEstablishKey
          CFI (cfiCond421) Conditional ??CrossCallReturnLabel_193
          CFI (cfiCond421) R6 load(1, XDATA, add(CFA_XSP16, literal(-10)))
          CFI (cfiCond421) VB load(1, XDATA, add(CFA_XSP16, literal(-9)))
          CFI (cfiCond421) V0 load(1, XDATA, add(CFA_XSP16, literal(-8)))
          CFI (cfiCond421) V1 load(1, XDATA, add(CFA_XSP16, literal(-7)))
          CFI (cfiCond421) R7 load(1, XDATA, add(CFA_XSP16, literal(-6)))
          CFI (cfiCond421) ?RET_LOW load(1, XDATA, add(CFA_XSP16, literal(-5)))
          CFI (cfiCond421) ?RET_HIGH load(1, XDATA, add(CFA_XSP16, literal(-4)))
          CFI (cfiCond421) ?BRET_EXT load(1, XDATA, add(CFA_XSP16, literal(-3)))
          CFI (cfiCond421) DPL0 load(1, XDATA, add(CFA_XSP16, literal(-2)))
          CFI (cfiCond421) DPH0 load(1, XDATA, add(CFA_XSP16, literal(-1)))
          CFI (cfiCond421) CFA_SP SP+-2
          CFI (cfiCond421) CFA_XSP16 add(XSP16, 17)
          CFI Block cfiCond422 Using cfiCommon0
          CFI (cfiCond422) Function ZDSecMgrSendMasterKey
          CFI (cfiCond422) Conditional ??CrossCallReturnLabel_194
          CFI (cfiCond422) R6 load(1, XDATA, add(CFA_XSP16, literal(-10)))
          CFI (cfiCond422) VB load(1, XDATA, add(CFA_XSP16, literal(-9)))
          CFI (cfiCond422) V0 load(1, XDATA, add(CFA_XSP16, literal(-8)))
          CFI (cfiCond422) V1 load(1, XDATA, add(CFA_XSP16, literal(-7)))
          CFI (cfiCond422) R7 load(1, XDATA, add(CFA_XSP16, literal(-6)))
          CFI (cfiCond422) ?RET_LOW load(1, XDATA, add(CFA_XSP16, literal(-5)))
          CFI (cfiCond422) ?RET_HIGH load(1, XDATA, add(CFA_XSP16, literal(-4)))
          CFI (cfiCond422) ?BRET_EXT load(1, XDATA, add(CFA_XSP16, literal(-3)))
          CFI (cfiCond422) DPL0 load(1, XDATA, add(CFA_XSP16, literal(-2)))
          CFI (cfiCond422) DPH0 load(1, XDATA, add(CFA_XSP16, literal(-1)))
          CFI (cfiCond422) CFA_SP SP+-2
          CFI (cfiCond422) CFA_XSP16 add(XSP16, 23)
          CFI Block cfiPicker423 Using cfiCommon1
          CFI (cfiPicker423) NoFunction
          CFI (cfiPicker423) Picker
        LCALL     ?Subroutine71 & 0xFFFF
??CrossCallReturnLabel_210:
        RET
          CFI EndBlock cfiCond410
          CFI EndBlock cfiCond411
          CFI EndBlock cfiCond412
          CFI EndBlock cfiCond413
          CFI EndBlock cfiCond414
          CFI EndBlock cfiCond415
          CFI EndBlock cfiCond416
          CFI EndBlock cfiCond417
          CFI EndBlock cfiCond418
          CFI EndBlock cfiCond419
          CFI EndBlock cfiCond420
          CFI EndBlock cfiCond421
          CFI EndBlock cfiCond422
          CFI EndBlock cfiPicker423

        RSEG BANKED_CODE:HUGECODE:NOROOT(0)
?Subroutine71:
          CFI Block cfiCond424 Using cfiCommon0
          CFI Function ZDSecMgrEntryLookup
          CFI Conditional ??CrossCallReturnLabel_208, ??CrossCallReturnLabel_106
          CFI R6 load(1, XDATA, add(CFA_XSP16, literal(-10)))
          CFI VB load(1, XDATA, add(CFA_XSP16, literal(-9)))
          CFI V0 load(1, XDATA, add(CFA_XSP16, literal(-8)))
          CFI V1 load(1, XDATA, add(CFA_XSP16, literal(-7)))
          CFI R7 load(1, XDATA, add(CFA_XSP16, literal(-6)))
          CFI ?RET_LOW load(1, XDATA, add(CFA_XSP16, literal(-5)))
          CFI ?RET_HIGH load(1, XDATA, add(CFA_XSP16, literal(-4)))
          CFI ?BRET_EXT load(1, XDATA, add(CFA_XSP16, literal(-3)))
          CFI DPL0 load(1, XDATA, add(CFA_XSP16, literal(-2)))
          CFI DPH0 load(1, XDATA, add(CFA_XSP16, literal(-1)))
          CFI CFA_SP SP+-4
          CFI CFA_XSP16 add(XSP16, 23)
          CFI Block cfiCond425 Using cfiCommon0
          CFI (cfiCond425) Function ZDSecMgrEntryNew
          CFI (cfiCond425) Conditional ??CrossCallReturnLabel_208, ??CrossCallReturnLabel_107
          CFI (cfiCond425) R6 load(1, XDATA, add(CFA_XSP16, literal(-10)))
          CFI (cfiCond425) VB load(1, XDATA, add(CFA_XSP16, literal(-9)))
          CFI (cfiCond425) V0 load(1, XDATA, add(CFA_XSP16, literal(-8)))
          CFI (cfiCond425) V1 load(1, XDATA, add(CFA_XSP16, literal(-7)))
          CFI (cfiCond425) R7 load(1, XDATA, add(CFA_XSP16, literal(-6)))
          CFI (cfiCond425) ?RET_LOW load(1, XDATA, add(CFA_XSP16, literal(-5)))
          CFI (cfiCond425) ?RET_HIGH load(1, XDATA, add(CFA_XSP16, literal(-4)))
          CFI (cfiCond425) ?BRET_EXT load(1, XDATA, add(CFA_XSP16, literal(-3)))
          CFI (cfiCond425) DPL0 load(1, XDATA, add(CFA_XSP16, literal(-2)))
          CFI (cfiCond425) DPH0 load(1, XDATA, add(CFA_XSP16, literal(-1)))
          CFI (cfiCond425) CFA_SP SP+-4
          CFI (cfiCond425) CFA_XSP16 add(XSP16, 10)
          CFI Block cfiCond426 Using cfiCommon0
          CFI (cfiCond426) Function ZDSecMgrEntryLookupAMI
          CFI (cfiCond426) Conditional ??CrossCallReturnLabel_208, ??CrossCallReturnLabel_108
          CFI (cfiCond426) R6 load(1, XDATA, add(CFA_XSP16, literal(-10)))
          CFI (cfiCond426) VB load(1, XDATA, add(CFA_XSP16, literal(-9)))
          CFI (cfiCond426) V0 load(1, XDATA, add(CFA_XSP16, literal(-8)))
          CFI (cfiCond426) V1 load(1, XDATA, add(CFA_XSP16, literal(-7)))
          CFI (cfiCond426) R7 load(1, XDATA, add(CFA_XSP16, literal(-6)))
          CFI (cfiCond426) ?RET_LOW load(1, XDATA, add(CFA_XSP16, literal(-5)))
          CFI (cfiCond426) ?RET_HIGH load(1, XDATA, add(CFA_XSP16, literal(-4)))
          CFI (cfiCond426) ?BRET_EXT load(1, XDATA, add(CFA_XSP16, literal(-3)))
          CFI (cfiCond426) DPL0 load(1, XDATA, add(CFA_XSP16, literal(-2)))
          CFI (cfiCond426) DPH0 load(1, XDATA, add(CFA_XSP16, literal(-1)))
          CFI (cfiCond426) CFA_SP SP+-4
          CFI (cfiCond426) CFA_XSP16 add(XSP16, 10)
          CFI Block cfiCond427 Using cfiCommon0
          CFI (cfiCond427) Function ZDSecMgrAppKeyReq
          CFI (cfiCond427) Conditional ??CrossCallReturnLabel_207, ??CrossCallReturnLabel_56
          CFI (cfiCond427) R6 load(1, XDATA, add(CFA_XSP16, literal(-12)))
          CFI (cfiCond427) VB load(1, XDATA, add(CFA_XSP16, literal(-11)))
          CFI (cfiCond427) V0 load(1, XDATA, add(CFA_XSP16, literal(-10)))
          CFI (cfiCond427) V1 load(1, XDATA, add(CFA_XSP16, literal(-9)))
          CFI (cfiCond427) V2 load(1, XDATA, add(CFA_XSP16, literal(-8)))
          CFI (cfiCond427) V3 load(1, XDATA, add(CFA_XSP16, literal(-7)))
          CFI (cfiCond427) R7 load(1, XDATA, add(CFA_XSP16, literal(-6)))
          CFI (cfiCond427) ?RET_LOW load(1, XDATA, add(CFA_XSP16, literal(-5)))
          CFI (cfiCond427) ?RET_HIGH load(1, XDATA, add(CFA_XSP16, literal(-4)))
          CFI (cfiCond427) ?BRET_EXT load(1, XDATA, add(CFA_XSP16, literal(-3)))
          CFI (cfiCond427) DPL0 load(1, XDATA, add(CFA_XSP16, literal(-2)))
          CFI (cfiCond427) DPH0 load(1, XDATA, add(CFA_XSP16, literal(-1)))
          CFI (cfiCond427) CFA_SP SP+-4
          CFI (cfiCond427) CFA_XSP16 add(XSP16, 51)
          CFI Block cfiCond428 Using cfiCommon0
          CFI (cfiCond428) Function ZDSecMgrEstablishKey
          CFI (cfiCond428) Conditional ??CrossCallReturnLabel_207, ??CrossCallReturnLabel_57
          CFI (cfiCond428) R6 load(1, XDATA, add(CFA_XSP16, literal(-10)))
          CFI (cfiCond428) VB load(1, XDATA, add(CFA_XSP16, literal(-9)))
          CFI (cfiCond428) V0 load(1, XDATA, add(CFA_XSP16, literal(-8)))
          CFI (cfiCond428) V1 load(1, XDATA, add(CFA_XSP16, literal(-7)))
          CFI (cfiCond428) R7 load(1, XDATA, add(CFA_XSP16, literal(-6)))
          CFI (cfiCond428) ?RET_LOW load(1, XDATA, add(CFA_XSP16, literal(-5)))
          CFI (cfiCond428) ?RET_HIGH load(1, XDATA, add(CFA_XSP16, literal(-4)))
          CFI (cfiCond428) ?BRET_EXT load(1, XDATA, add(CFA_XSP16, literal(-3)))
          CFI (cfiCond428) DPL0 load(1, XDATA, add(CFA_XSP16, literal(-2)))
          CFI (cfiCond428) DPH0 load(1, XDATA, add(CFA_XSP16, literal(-1)))
          CFI (cfiCond428) CFA_SP SP+-4
          CFI (cfiCond428) CFA_XSP16 add(XSP16, 17)
          CFI Block cfiCond429 Using cfiCommon0
          CFI (cfiCond429) Function ZDSecMgrDeviceJoinFwd
          CFI (cfiCond429) Conditional ??CrossCallReturnLabel_207, ??CrossCallReturnLabel_58
          CFI (cfiCond429) DPL0 Frame(CFA_SP, 4)
          CFI (cfiCond429) DPH0 Frame(CFA_SP, 5)
          CFI (cfiCond429) CFA_SP SP+-9
          CFI (cfiCond429) CFA_XSP16 add(XSP16, 8)
          CFI Block cfiCond430 Using cfiCommon0
          CFI (cfiCond430) Function ZDSecMgrCtrlReset
          CFI (cfiCond430) Conditional ??CrossCallReturnLabel_209, ??CrossCallReturnLabel_163
          CFI (cfiCond430) R6 load(1, XDATA, add(CFA_XSP16, literal(-10)))
          CFI (cfiCond430) VB load(1, XDATA, add(CFA_XSP16, literal(-9)))
          CFI (cfiCond430) V0 load(1, XDATA, add(CFA_XSP16, literal(-8)))
          CFI (cfiCond430) V1 load(1, XDATA, add(CFA_XSP16, literal(-7)))
          CFI (cfiCond430) R7 load(1, XDATA, add(CFA_XSP16, literal(-6)))
          CFI (cfiCond430) ?RET_LOW load(1, XDATA, add(CFA_XSP16, literal(-5)))
          CFI (cfiCond430) ?RET_HIGH load(1, XDATA, add(CFA_XSP16, literal(-4)))
          CFI (cfiCond430) ?BRET_EXT load(1, XDATA, add(CFA_XSP16, literal(-3)))
          CFI (cfiCond430) DPL0 load(1, XDATA, add(CFA_XSP16, literal(-2)))
          CFI (cfiCond430) DPH0 load(1, XDATA, add(CFA_XSP16, literal(-1)))
          CFI (cfiCond430) CFA_SP SP+-4
          CFI (cfiCond430) CFA_XSP16 add(XSP16, 12)
          CFI Block cfiCond431 Using cfiCommon0
          CFI (cfiCond431) Function ZDSecMgrDeviceCtrlUpdate
          CFI (cfiCond431) Conditional ??CrossCallReturnLabel_209, ??CrossCallReturnLabel_164
          CFI (cfiCond431) R6 load(1, XDATA, add(CFA_XSP16, literal(-9)))
          CFI (cfiCond431) VB load(1, XDATA, add(CFA_XSP16, literal(-8)))
          CFI (cfiCond431) V0 load(1, XDATA, add(CFA_XSP16, literal(-7)))
          CFI (cfiCond431) R7 load(1, XDATA, add(CFA_XSP16, literal(-6)))
          CFI (cfiCond431) ?RET_LOW load(1, XDATA, add(CFA_XSP16, literal(-5)))
          CFI (cfiCond431) ?RET_HIGH load(1, XDATA, add(CFA_XSP16, literal(-4)))
          CFI (cfiCond431) ?BRET_EXT load(1, XDATA, add(CFA_XSP16, literal(-3)))
          CFI (cfiCond431) DPL0 load(1, XDATA, add(CFA_XSP16, literal(-2)))
          CFI (cfiCond431) DPH0 load(1, XDATA, add(CFA_XSP16, literal(-1)))
          CFI (cfiCond431) CFA_SP SP+-4
          CFI (cfiCond431) CFA_XSP16 add(XSP16, 13)
          CFI Block cfiCond432 Using cfiCommon0
          CFI (cfiCond432) Function ZDSecMgrCtrlTerm
          CFI (cfiCond432) Conditional ??CrossCallReturnLabel_209, ??CrossCallReturnLabel_165
          CFI (cfiCond432) DPL0 Frame(CFA_SP, 4)
          CFI (cfiCond432) DPH0 Frame(CFA_SP, 5)
          CFI (cfiCond432) CFA_SP SP+-9
          CFI (cfiCond432) CFA_XSP16 add(XSP16, 2)
          CFI Block cfiCond433 Using cfiCommon0
          CFI (cfiCond433) Function ZDSecMgrDeviceEntryAdd
          CFI (cfiCond433) Conditional ??CrossCallReturnLabel_209, ??CrossCallReturnLabel_175
          CFI (cfiCond433) R6 load(1, XDATA, add(CFA_XSP16, literal(-12)))
          CFI (cfiCond433) VB load(1, XDATA, add(CFA_XSP16, literal(-11)))
          CFI (cfiCond433) V0 load(1, XDATA, add(CFA_XSP16, literal(-10)))
          CFI (cfiCond433) V1 load(1, XDATA, add(CFA_XSP16, literal(-9)))
          CFI (cfiCond433) V2 load(1, XDATA, add(CFA_XSP16, literal(-8)))
          CFI (cfiCond433) V3 load(1, XDATA, add(CFA_XSP16, literal(-7)))
          CFI (cfiCond433) R7 load(1, XDATA, add(CFA_XSP16, literal(-6)))
          CFI (cfiCond433) ?RET_LOW load(1, XDATA, add(CFA_XSP16, literal(-5)))
          CFI (cfiCond433) ?RET_HIGH load(1, XDATA, add(CFA_XSP16, literal(-4)))
          CFI (cfiCond433) ?BRET_EXT load(1, XDATA, add(CFA_XSP16, literal(-3)))
          CFI (cfiCond433) DPL0 load(1, XDATA, add(CFA_XSP16, literal(-2)))
          CFI (cfiCond433) DPH0 load(1, XDATA, add(CFA_XSP16, literal(-1)))
          CFI (cfiCond433) CFA_SP SP+-4
          CFI (cfiCond433) CFA_XSP16 add(XSP16, 14)
          CFI Block cfiCond434 Using cfiCommon0
          CFI (cfiCond434) Function ZDSecMgrAddLinkKey
          CFI (cfiCond434) Conditional ??CrossCallReturnLabel_209, ??CrossCallReturnLabel_176
          CFI (cfiCond434) R6 load(1, XDATA, add(CFA_XSP16, literal(-10)))
          CFI (cfiCond434) VB load(1, XDATA, add(CFA_XSP16, literal(-9)))
          CFI (cfiCond434) V0 load(1, XDATA, add(CFA_XSP16, literal(-8)))
          CFI (cfiCond434) V1 load(1, XDATA, add(CFA_XSP16, literal(-7)))
          CFI (cfiCond434) R7 load(1, XDATA, add(CFA_XSP16, literal(-6)))
          CFI (cfiCond434) ?RET_LOW load(1, XDATA, add(CFA_XSP16, literal(-5)))
          CFI (cfiCond434) ?RET_HIGH load(1, XDATA, add(CFA_XSP16, literal(-4)))
          CFI (cfiCond434) ?BRET_EXT load(1, XDATA, add(CFA_XSP16, literal(-3)))
          CFI (cfiCond434) DPL0 load(1, XDATA, add(CFA_XSP16, literal(-2)))
          CFI (cfiCond434) DPH0 load(1, XDATA, add(CFA_XSP16, literal(-1)))
          CFI (cfiCond434) CFA_SP SP+-4
          CFI (cfiCond434) CFA_XSP16 add(XSP16, 14)
          CFI Block cfiCond435 Using cfiCommon0
          CFI (cfiCond435) Function ZDSecMgrMasterKeyLookup
          CFI (cfiCond435) Conditional ??CrossCallReturnLabel_209, ??CrossCallReturnLabel_166
          CFI (cfiCond435) R6 load(1, XDATA, add(CFA_XSP16, literal(-10)))
          CFI (cfiCond435) VB load(1, XDATA, add(CFA_XSP16, literal(-9)))
          CFI (cfiCond435) V0 load(1, XDATA, add(CFA_XSP16, literal(-8)))
          CFI (cfiCond435) V1 load(1, XDATA, add(CFA_XSP16, literal(-7)))
          CFI (cfiCond435) R7 load(1, XDATA, add(CFA_XSP16, literal(-6)))
          CFI (cfiCond435) ?RET_LOW load(1, XDATA, add(CFA_XSP16, literal(-5)))
          CFI (cfiCond435) ?RET_HIGH load(1, XDATA, add(CFA_XSP16, literal(-4)))
          CFI (cfiCond435) ?BRET_EXT load(1, XDATA, add(CFA_XSP16, literal(-3)))
          CFI (cfiCond435) DPL0 load(1, XDATA, add(CFA_XSP16, literal(-2)))
          CFI (cfiCond435) DPH0 load(1, XDATA, add(CFA_XSP16, literal(-1)))
          CFI (cfiCond435) CFA_SP SP+-4
          CFI (cfiCond435) CFA_XSP16 add(XSP16, 10)
          CFI Block cfiCond436 Using cfiCommon0
          CFI (cfiCond436) Function ZDSecMgrMasterKeyStore
          CFI (cfiCond436) Conditional ??CrossCallReturnLabel_209, ??CrossCallReturnLabel_167
          CFI (cfiCond436) R6 load(1, XDATA, add(CFA_XSP16, literal(-14)))
          CFI (cfiCond436) VB load(1, XDATA, add(CFA_XSP16, literal(-13)))
          CFI (cfiCond436) V0 load(1, XDATA, add(CFA_XSP16, literal(-12)))
          CFI (cfiCond436) V1 load(1, XDATA, add(CFA_XSP16, literal(-11)))
          CFI (cfiCond436) V2 load(1, XDATA, add(CFA_XSP16, literal(-10)))
          CFI (cfiCond436) V3 load(1, XDATA, add(CFA_XSP16, literal(-9)))
          CFI (cfiCond436) V4 load(1, XDATA, add(CFA_XSP16, literal(-8)))
          CFI (cfiCond436) V5 load(1, XDATA, add(CFA_XSP16, literal(-7)))
          CFI (cfiCond436) R7 load(1, XDATA, add(CFA_XSP16, literal(-6)))
          CFI (cfiCond436) ?RET_LOW load(1, XDATA, add(CFA_XSP16, literal(-5)))
          CFI (cfiCond436) ?RET_HIGH load(1, XDATA, add(CFA_XSP16, literal(-4)))
          CFI (cfiCond436) ?BRET_EXT load(1, XDATA, add(CFA_XSP16, literal(-3)))
          CFI (cfiCond436) DPL0 load(1, XDATA, add(CFA_XSP16, literal(-2)))
          CFI (cfiCond436) DPH0 load(1, XDATA, add(CFA_XSP16, literal(-1)))
          CFI (cfiCond436) CFA_SP SP+-4
          CFI (cfiCond436) CFA_XSP16 add(XSP16, 14)
          CFI Block cfiCond437 Using cfiCommon0
          CFI (cfiCond437) Function ZDSecMgrCtrlLookup
          CFI (cfiCond437) Conditional ??CrossCallReturnLabel_209, ??CrossCallReturnLabel_168
          CFI (cfiCond437) R6 load(1, XDATA, add(CFA_XSP16, literal(-10)))
          CFI (cfiCond437) VB load(1, XDATA, add(CFA_XSP16, literal(-9)))
          CFI (cfiCond437) V0 load(1, XDATA, add(CFA_XSP16, literal(-8)))
          CFI (cfiCond437) V1 load(1, XDATA, add(CFA_XSP16, literal(-7)))
          CFI (cfiCond437) R7 load(1, XDATA, add(CFA_XSP16, literal(-6)))
          CFI (cfiCond437) ?RET_LOW load(1, XDATA, add(CFA_XSP16, literal(-5)))
          CFI (cfiCond437) ?RET_HIGH load(1, XDATA, add(CFA_XSP16, literal(-4)))
          CFI (cfiCond437) ?BRET_EXT load(1, XDATA, add(CFA_XSP16, literal(-3)))
          CFI (cfiCond437) DPL0 load(1, XDATA, add(CFA_XSP16, literal(-2)))
          CFI (cfiCond437) DPH0 load(1, XDATA, add(CFA_XSP16, literal(-1)))
          CFI (cfiCond437) CFA_SP SP+-4
          CFI (cfiCond437) CFA_XSP16 add(XSP16, 10)
          CFI Block cfiCond438 Using cfiCommon0
          CFI (cfiCond438) Function ZDSecMgrCtrlAdd
          CFI (cfiCond438) Conditional ??CrossCallReturnLabel_209, ??CrossCallReturnLabel_169
          CFI (cfiCond438) R6 load(1, XDATA, add(CFA_XSP16, literal(-12)))
          CFI (cfiCond438) VB load(1, XDATA, add(CFA_XSP16, literal(-11)))
          CFI (cfiCond438) V0 load(1, XDATA, add(CFA_XSP16, literal(-10)))
          CFI (cfiCond438) V1 load(1, XDATA, add(CFA_XSP16, literal(-9)))
          CFI (cfiCond438) V2 load(1, XDATA, add(CFA_XSP16, literal(-8)))
          CFI (cfiCond438) V3 load(1, XDATA, add(CFA_XSP16, literal(-7)))
          CFI (cfiCond438) R7 load(1, XDATA, add(CFA_XSP16, literal(-6)))
          CFI (cfiCond438) ?RET_LOW load(1, XDATA, add(CFA_XSP16, literal(-5)))
          CFI (cfiCond438) ?RET_HIGH load(1, XDATA, add(CFA_XSP16, literal(-4)))
          CFI (cfiCond438) ?BRET_EXT load(1, XDATA, add(CFA_XSP16, literal(-3)))
          CFI (cfiCond438) DPL0 load(1, XDATA, add(CFA_XSP16, literal(-2)))
          CFI (cfiCond438) DPH0 load(1, XDATA, add(CFA_XSP16, literal(-1)))
          CFI (cfiCond438) CFA_SP SP+-4
          CFI (cfiCond438) CFA_XSP16 add(XSP16, 12)
          CFI Block cfiCond439 Using cfiCommon0
          CFI (cfiCond439) Function ZDSecMgrDeviceCtrlSetup
          CFI (cfiCond439) Conditional ??CrossCallReturnLabel_209, ??CrossCallReturnLabel_170
          CFI (cfiCond439) DPL0 Frame(CFA_SP, 4)
          CFI (cfiCond439) DPH0 Frame(CFA_SP, 5)
          CFI (cfiCond439) CFA_SP SP+-9
          CFI Block cfiCond440 Using cfiCommon0
          CFI (cfiCond440) Function ZDSecMgrDeviceCtrlUpdate
          CFI (cfiCond440) Conditional ??CrossCallReturnLabel_209, ??CrossCallReturnLabel_171
          CFI (cfiCond440) R6 load(1, XDATA, add(CFA_XSP16, literal(-9)))
          CFI (cfiCond440) VB load(1, XDATA, add(CFA_XSP16, literal(-8)))
          CFI (cfiCond440) V0 load(1, XDATA, add(CFA_XSP16, literal(-7)))
          CFI (cfiCond440) R7 load(1, XDATA, add(CFA_XSP16, literal(-6)))
          CFI (cfiCond440) ?RET_LOW load(1, XDATA, add(CFA_XSP16, literal(-5)))
          CFI (cfiCond440) ?RET_HIGH load(1, XDATA, add(CFA_XSP16, literal(-4)))
          CFI (cfiCond440) ?BRET_EXT load(1, XDATA, add(CFA_XSP16, literal(-3)))
          CFI (cfiCond440) DPL0 load(1, XDATA, add(CFA_XSP16, literal(-2)))
          CFI (cfiCond440) DPH0 load(1, XDATA, add(CFA_XSP16, literal(-1)))
          CFI (cfiCond440) CFA_SP SP+-4
          CFI (cfiCond440) CFA_XSP16 add(XSP16, 13)
          CFI Block cfiCond441 Using cfiCommon0
          CFI (cfiCond441) Function ZDSecMgrEvent
          CFI (cfiCond441) Conditional ??CrossCallReturnLabel_209, ??CrossCallReturnLabel_172
          CFI (cfiCond441) R6 load(1, XDATA, add(CFA_XSP16, literal(-10)))
          CFI (cfiCond441) VB load(1, XDATA, add(CFA_XSP16, literal(-9)))
          CFI (cfiCond441) V0 load(1, XDATA, add(CFA_XSP16, literal(-8)))
          CFI (cfiCond441) V1 load(1, XDATA, add(CFA_XSP16, literal(-7)))
          CFI (cfiCond441) R7 load(1, XDATA, add(CFA_XSP16, literal(-6)))
          CFI (cfiCond441) ?RET_LOW load(1, XDATA, add(CFA_XSP16, literal(-5)))
          CFI (cfiCond441) ?RET_HIGH load(1, XDATA, add(CFA_XSP16, literal(-4)))
          CFI (cfiCond441) ?BRET_EXT load(1, XDATA, add(CFA_XSP16, literal(-3)))
          CFI (cfiCond441) DPL0 load(1, XDATA, add(CFA_XSP16, literal(-2)))
          CFI (cfiCond441) DPH0 load(1, XDATA, add(CFA_XSP16, literal(-1)))
          CFI (cfiCond441) CFA_SP SP+-4
          CFI (cfiCond441) CFA_XSP16 add(XSP16, 33)
          CFI Block cfiCond442 Using cfiCommon0
          CFI (cfiCond442) Function ZDSecMgrRemoveDeviceInd
          CFI (cfiCond442) Conditional ??CrossCallReturnLabel_209, ??CrossCallReturnLabel_173
          CFI (cfiCond442) R6 load(1, XDATA, add(CFA_XSP16, literal(-9)))
          CFI (cfiCond442) VB load(1, XDATA, add(CFA_XSP16, literal(-8)))
          CFI (cfiCond442) V0 load(1, XDATA, add(CFA_XSP16, literal(-7)))
          CFI (cfiCond442) R7 load(1, XDATA, add(CFA_XSP16, literal(-6)))
          CFI (cfiCond442) ?RET_LOW load(1, XDATA, add(CFA_XSP16, literal(-5)))
          CFI (cfiCond442) ?RET_HIGH load(1, XDATA, add(CFA_XSP16, literal(-4)))
          CFI (cfiCond442) ?BRET_EXT load(1, XDATA, add(CFA_XSP16, literal(-3)))
          CFI (cfiCond442) DPL0 load(1, XDATA, add(CFA_XSP16, literal(-2)))
          CFI (cfiCond442) DPH0 load(1, XDATA, add(CFA_XSP16, literal(-1)))
          CFI (cfiCond442) CFA_SP SP+-4
          CFI (cfiCond442) CFA_XSP16 add(XSP16, 19)
          CFI Block cfiCond443 Using cfiCommon0
          CFI (cfiCond443) Function APSME_KeyFwdToChild
          CFI (cfiCond443) Conditional ??CrossCallReturnLabel_209, ??CrossCallReturnLabel_174
          CFI (cfiCond443) R6 load(1, XDATA, add(CFA_XSP16, literal(-10)))
          CFI (cfiCond443) VB load(1, XDATA, add(CFA_XSP16, literal(-9)))
          CFI (cfiCond443) V0 load(1, XDATA, add(CFA_XSP16, literal(-8)))
          CFI (cfiCond443) V1 load(1, XDATA, add(CFA_XSP16, literal(-7)))
          CFI (cfiCond443) R7 load(1, XDATA, add(CFA_XSP16, literal(-6)))
          CFI (cfiCond443) ?RET_LOW load(1, XDATA, add(CFA_XSP16, literal(-5)))
          CFI (cfiCond443) ?RET_HIGH load(1, XDATA, add(CFA_XSP16, literal(-4)))
          CFI (cfiCond443) ?BRET_EXT load(1, XDATA, add(CFA_XSP16, literal(-3)))
          CFI (cfiCond443) DPL0 load(1, XDATA, add(CFA_XSP16, literal(-2)))
          CFI (cfiCond443) DPH0 load(1, XDATA, add(CFA_XSP16, literal(-1)))
          CFI (cfiCond443) CFA_SP SP+-4
          CFI (cfiCond443) CFA_XSP16 add(XSP16, 10)
          CFI Block cfiCond444 Using cfiCommon0
          CFI (cfiCond444) Function ZDSecMgrEstablishKeyInd
          CFI (cfiCond444) Conditional ??CrossCallReturnLabel_206, ??CrossCallReturnLabel_8
          CFI (cfiCond444) R6 load(1, XDATA, add(CFA_XSP16, literal(-14)))
          CFI (cfiCond444) VB load(1, XDATA, add(CFA_XSP16, literal(-13)))
          CFI (cfiCond444) V0 load(1, XDATA, add(CFA_XSP16, literal(-12)))
          CFI (cfiCond444) V1 load(1, XDATA, add(CFA_XSP16, literal(-11)))
          CFI (cfiCond444) V2 load(1, XDATA, add(CFA_XSP16, literal(-10)))
          CFI (cfiCond444) V3 load(1, XDATA, add(CFA_XSP16, literal(-9)))
          CFI (cfiCond444) V4 load(1, XDATA, add(CFA_XSP16, literal(-8)))
          CFI (cfiCond444) V5 load(1, XDATA, add(CFA_XSP16, literal(-7)))
          CFI (cfiCond444) R7 load(1, XDATA, add(CFA_XSP16, literal(-6)))
          CFI (cfiCond444) ?RET_LOW load(1, XDATA, add(CFA_XSP16, literal(-5)))
          CFI (cfiCond444) ?RET_HIGH load(1, XDATA, add(CFA_XSP16, literal(-4)))
          CFI (cfiCond444) ?BRET_EXT load(1, XDATA, add(CFA_XSP16, literal(-3)))
          CFI (cfiCond444) DPL0 load(1, XDATA, add(CFA_XSP16, literal(-2)))
          CFI (cfiCond444) DPH0 load(1, XDATA, add(CFA_XSP16, literal(-1)))
          CFI (cfiCond444) CFA_SP SP+-4
          CFI (cfiCond444) CFA_XSP16 add(XSP16, 31)
          CFI Block cfiCond445 Using cfiCommon0
          CFI (cfiCond445) Function ZDSecMgrEstablishKeyInd
          CFI (cfiCond445) Conditional ??CrossCallReturnLabel_206, ??CrossCallReturnLabel_9
          CFI (cfiCond445) R6 load(1, XDATA, add(CFA_XSP16, literal(-14)))
          CFI (cfiCond445) VB load(1, XDATA, add(CFA_XSP16, literal(-13)))
          CFI (cfiCond445) V0 load(1, XDATA, add(CFA_XSP16, literal(-12)))
          CFI (cfiCond445) V1 load(1, XDATA, add(CFA_XSP16, literal(-11)))
          CFI (cfiCond445) V2 load(1, XDATA, add(CFA_XSP16, literal(-10)))
          CFI (cfiCond445) V3 load(1, XDATA, add(CFA_XSP16, literal(-9)))
          CFI (cfiCond445) V4 load(1, XDATA, add(CFA_XSP16, literal(-8)))
          CFI (cfiCond445) V5 load(1, XDATA, add(CFA_XSP16, literal(-7)))
          CFI (cfiCond445) R7 load(1, XDATA, add(CFA_XSP16, literal(-6)))
          CFI (cfiCond445) ?RET_LOW load(1, XDATA, add(CFA_XSP16, literal(-5)))
          CFI (cfiCond445) ?RET_HIGH load(1, XDATA, add(CFA_XSP16, literal(-4)))
          CFI (cfiCond445) ?BRET_EXT load(1, XDATA, add(CFA_XSP16, literal(-3)))
          CFI (cfiCond445) DPL0 load(1, XDATA, add(CFA_XSP16, literal(-2)))
          CFI (cfiCond445) DPH0 load(1, XDATA, add(CFA_XSP16, literal(-1)))
          CFI (cfiCond445) CFA_SP SP+-4
          CFI (cfiCond445) CFA_XSP16 add(XSP16, 31)
          CFI Block cfiCond446 Using cfiCommon0
          CFI (cfiCond446) Function ZDSecMgrEstablishKey
          CFI (cfiCond446) Conditional ??CrossCallReturnLabel_210, ??CrossCallReturnLabel_193
          CFI (cfiCond446) R6 load(1, XDATA, add(CFA_XSP16, literal(-10)))
          CFI (cfiCond446) VB load(1, XDATA, add(CFA_XSP16, literal(-9)))
          CFI (cfiCond446) V0 load(1, XDATA, add(CFA_XSP16, literal(-8)))
          CFI (cfiCond446) V1 load(1, XDATA, add(CFA_XSP16, literal(-7)))
          CFI (cfiCond446) R7 load(1, XDATA, add(CFA_XSP16, literal(-6)))
          CFI (cfiCond446) ?RET_LOW load(1, XDATA, add(CFA_XSP16, literal(-5)))
          CFI (cfiCond446) ?RET_HIGH load(1, XDATA, add(CFA_XSP16, literal(-4)))
          CFI (cfiCond446) ?BRET_EXT load(1, XDATA, add(CFA_XSP16, literal(-3)))
          CFI (cfiCond446) DPL0 load(1, XDATA, add(CFA_XSP16, literal(-2)))
          CFI (cfiCond446) DPH0 load(1, XDATA, add(CFA_XSP16, literal(-1)))
          CFI (cfiCond446) CFA_SP SP+-4
          CFI (cfiCond446) CFA_XSP16 add(XSP16, 17)
          CFI Block cfiCond447 Using cfiCommon0
          CFI (cfiCond447) Function ZDSecMgrSendMasterKey
          CFI (cfiCond447) Conditional ??CrossCallReturnLabel_210, ??CrossCallReturnLabel_194
          CFI (cfiCond447) R6 load(1, XDATA, add(CFA_XSP16, literal(-10)))
          CFI (cfiCond447) VB load(1, XDATA, add(CFA_XSP16, literal(-9)))
          CFI (cfiCond447) V0 load(1, XDATA, add(CFA_XSP16, literal(-8)))
          CFI (cfiCond447) V1 load(1, XDATA, add(CFA_XSP16, literal(-7)))
          CFI (cfiCond447) R7 load(1, XDATA, add(CFA_XSP16, literal(-6)))
          CFI (cfiCond447) ?RET_LOW load(1, XDATA, add(CFA_XSP16, literal(-5)))
          CFI (cfiCond447) ?RET_HIGH load(1, XDATA, add(CFA_XSP16, literal(-4)))
          CFI (cfiCond447) ?BRET_EXT load(1, XDATA, add(CFA_XSP16, literal(-3)))
          CFI (cfiCond447) DPL0 load(1, XDATA, add(CFA_XSP16, literal(-2)))
          CFI (cfiCond447) DPH0 load(1, XDATA, add(CFA_XSP16, literal(-1)))
          CFI (cfiCond447) CFA_SP SP+-4
          CFI (cfiCond447) CFA_XSP16 add(XSP16, 23)
          CFI Block cfiCond448 Using cfiCommon0
          CFI (cfiCond448) Function ZDSecMgrNewDeviceEvent
          CFI (cfiCond448) Conditional ??CrossCallReturnLabel_210, ??CrossCallReturnLabel_205
          CFI (cfiCond448) R6 load(1, XDATA, add(CFA_XSP16, literal(-12)))
          CFI (cfiCond448) VB load(1, XDATA, add(CFA_XSP16, literal(-11)))
          CFI (cfiCond448) V0 load(1, XDATA, add(CFA_XSP16, literal(-10)))
          CFI (cfiCond448) V1 load(1, XDATA, add(CFA_XSP16, literal(-9)))
          CFI (cfiCond448) V2 load(1, XDATA, add(CFA_XSP16, literal(-8)))
          CFI (cfiCond448) V3 load(1, XDATA, add(CFA_XSP16, literal(-7)))
          CFI (cfiCond448) R7 load(1, XDATA, add(CFA_XSP16, literal(-6)))
          CFI (cfiCond448) ?RET_LOW load(1, XDATA, add(CFA_XSP16, literal(-5)))
          CFI (cfiCond448) ?RET_HIGH load(1, XDATA, add(CFA_XSP16, literal(-4)))
          CFI (cfiCond448) ?BRET_EXT load(1, XDATA, add(CFA_XSP16, literal(-3)))
          CFI (cfiCond448) DPL0 load(1, XDATA, add(CFA_XSP16, literal(-2)))
          CFI (cfiCond448) DPH0 load(1, XDATA, add(CFA_XSP16, literal(-1)))
          CFI (cfiCond448) CFA_SP SP+-4
          CFI (cfiCond448) CFA_XSP16 add(XSP16, 35)
          CFI Block cfiCond449 Using cfiCommon0
          CFI (cfiCond449) Function ZDSecMgrCtrlSet
          CFI (cfiCond449) Conditional ??CrossCallReturnLabel_210, ??CrossCallReturnLabel_195
          CFI (cfiCond449) R6 load(1, XDATA, add(CFA_XSP16, literal(-9)))
          CFI (cfiCond449) VB load(1, XDATA, add(CFA_XSP16, literal(-8)))
          CFI (cfiCond449) V0 load(1, XDATA, add(CFA_XSP16, literal(-7)))
          CFI (cfiCond449) R7 load(1, XDATA, add(CFA_XSP16, literal(-6)))
          CFI (cfiCond449) ?RET_LOW load(1, XDATA, add(CFA_XSP16, literal(-5)))
          CFI (cfiCond449) ?RET_HIGH load(1, XDATA, add(CFA_XSP16, literal(-4)))
          CFI (cfiCond449) ?BRET_EXT load(1, XDATA, add(CFA_XSP16, literal(-3)))
          CFI (cfiCond449) DPL0 load(1, XDATA, add(CFA_XSP16, literal(-2)))
          CFI (cfiCond449) DPH0 load(1, XDATA, add(CFA_XSP16, literal(-1)))
          CFI (cfiCond449) CFA_SP SP+-4
          CFI (cfiCond449) CFA_XSP16 add(XSP16, 9)
          CFI Block cfiCond450 Using cfiCommon0
          CFI (cfiCond450) Function ZDSecMgrEstablishKey
          CFI (cfiCond450) Conditional ??CrossCallReturnLabel_210, ??CrossCallReturnLabel_196
          CFI (cfiCond450) R6 load(1, XDATA, add(CFA_XSP16, literal(-10)))
          CFI (cfiCond450) VB load(1, XDATA, add(CFA_XSP16, literal(-9)))
          CFI (cfiCond450) V0 load(1, XDATA, add(CFA_XSP16, literal(-8)))
          CFI (cfiCond450) V1 load(1, XDATA, add(CFA_XSP16, literal(-7)))
          CFI (cfiCond450) R7 load(1, XDATA, add(CFA_XSP16, literal(-6)))
          CFI (cfiCond450) ?RET_LOW load(1, XDATA, add(CFA_XSP16, literal(-5)))
          CFI (cfiCond450) ?RET_HIGH load(1, XDATA, add(CFA_XSP16, literal(-4)))
          CFI (cfiCond450) ?BRET_EXT load(1, XDATA, add(CFA_XSP16, literal(-3)))
          CFI (cfiCond450) DPL0 load(1, XDATA, add(CFA_XSP16, literal(-2)))
          CFI (cfiCond450) DPH0 load(1, XDATA, add(CFA_XSP16, literal(-1)))
          CFI (cfiCond450) CFA_SP SP+-4
          CFI (cfiCond450) CFA_XSP16 add(XSP16, 17)
          CFI Block cfiCond451 Using cfiCommon0
          CFI (cfiCond451) Function ZDSecMgrSendMasterKey
          CFI (cfiCond451) Conditional ??CrossCallReturnLabel_210, ??CrossCallReturnLabel_197
          CFI (cfiCond451) R6 load(1, XDATA, add(CFA_XSP16, literal(-10)))
          CFI (cfiCond451) VB load(1, XDATA, add(CFA_XSP16, literal(-9)))
          CFI (cfiCond451) V0 load(1, XDATA, add(CFA_XSP16, literal(-8)))
          CFI (cfiCond451) V1 load(1, XDATA, add(CFA_XSP16, literal(-7)))
          CFI (cfiCond451) R7 load(1, XDATA, add(CFA_XSP16, literal(-6)))
          CFI (cfiCond451) ?RET_LOW load(1, XDATA, add(CFA_XSP16, literal(-5)))
          CFI (cfiCond451) ?RET_HIGH load(1, XDATA, add(CFA_XSP16, literal(-4)))
          CFI (cfiCond451) ?BRET_EXT load(1, XDATA, add(CFA_XSP16, literal(-3)))
          CFI (cfiCond451) DPL0 load(1, XDATA, add(CFA_XSP16, literal(-2)))
          CFI (cfiCond451) DPH0 load(1, XDATA, add(CFA_XSP16, literal(-1)))
          CFI (cfiCond451) CFA_SP SP+-4
          CFI (cfiCond451) CFA_XSP16 add(XSP16, 23)
          CFI Block cfiCond452 Using cfiCommon0
          CFI (cfiCond452) Function ZDSecMgrEvent
          CFI (cfiCond452) Conditional ??CrossCallReturnLabel_210, ??CrossCallReturnLabel_198
          CFI (cfiCond452) R6 load(1, XDATA, add(CFA_XSP16, literal(-10)))
          CFI (cfiCond452) VB load(1, XDATA, add(CFA_XSP16, literal(-9)))
          CFI (cfiCond452) V0 load(1, XDATA, add(CFA_XSP16, literal(-8)))
          CFI (cfiCond452) V1 load(1, XDATA, add(CFA_XSP16, literal(-7)))
          CFI (cfiCond452) R7 load(1, XDATA, add(CFA_XSP16, literal(-6)))
          CFI (cfiCond452) ?RET_LOW load(1, XDATA, add(CFA_XSP16, literal(-5)))
          CFI (cfiCond452) ?RET_HIGH load(1, XDATA, add(CFA_XSP16, literal(-4)))
          CFI (cfiCond452) ?BRET_EXT load(1, XDATA, add(CFA_XSP16, literal(-3)))
          CFI (cfiCond452) DPL0 load(1, XDATA, add(CFA_XSP16, literal(-2)))
          CFI (cfiCond452) DPH0 load(1, XDATA, add(CFA_XSP16, literal(-1)))
          CFI (cfiCond452) CFA_SP SP+-4
          CFI (cfiCond452) CFA_XSP16 add(XSP16, 33)
          CFI Block cfiCond453 Using cfiCommon0
          CFI (cfiCond453) Function ZDSecMgrEstablishKeyInd
          CFI (cfiCond453) Conditional ??CrossCallReturnLabel_210, ??CrossCallReturnLabel_199
          CFI (cfiCond453) R6 load(1, XDATA, add(CFA_XSP16, literal(-14)))
          CFI (cfiCond453) VB load(1, XDATA, add(CFA_XSP16, literal(-13)))
          CFI (cfiCond453) V0 load(1, XDATA, add(CFA_XSP16, literal(-12)))
          CFI (cfiCond453) V1 load(1, XDATA, add(CFA_XSP16, literal(-11)))
          CFI (cfiCond453) V2 load(1, XDATA, add(CFA_XSP16, literal(-10)))
          CFI (cfiCond453) V3 load(1, XDATA, add(CFA_XSP16, literal(-9)))
          CFI (cfiCond453) V4 load(1, XDATA, add(CFA_XSP16, literal(-8)))
          CFI (cfiCond453) V5 load(1, XDATA, add(CFA_XSP16, literal(-7)))
          CFI (cfiCond453) R7 load(1, XDATA, add(CFA_XSP16, literal(-6)))
          CFI (cfiCond453) ?RET_LOW load(1, XDATA, add(CFA_XSP16, literal(-5)))
          CFI (cfiCond453) ?RET_HIGH load(1, XDATA, add(CFA_XSP16, literal(-4)))
          CFI (cfiCond453) ?BRET_EXT load(1, XDATA, add(CFA_XSP16, literal(-3)))
          CFI (cfiCond453) DPL0 load(1, XDATA, add(CFA_XSP16, literal(-2)))
          CFI (cfiCond453) DPH0 load(1, XDATA, add(CFA_XSP16, literal(-1)))
          CFI (cfiCond453) CFA_SP SP+-4
          CFI (cfiCond453) CFA_XSP16 add(XSP16, 31)
          CFI Block cfiCond454 Using cfiCommon0
          CFI (cfiCond454) Function ZDSecMgrAuthenticateInd
          CFI (cfiCond454) Conditional ??CrossCallReturnLabel_210, ??CrossCallReturnLabel_200
          CFI (cfiCond454) R6 load(1, XDATA, add(CFA_XSP16, literal(-12)))
          CFI (cfiCond454) VB load(1, XDATA, add(CFA_XSP16, literal(-11)))
          CFI (cfiCond454) V0 load(1, XDATA, add(CFA_XSP16, literal(-10)))
          CFI (cfiCond454) V1 load(1, XDATA, add(CFA_XSP16, literal(-9)))
          CFI (cfiCond454) V2 load(1, XDATA, add(CFA_XSP16, literal(-8)))
          CFI (cfiCond454) V3 load(1, XDATA, add(CFA_XSP16, literal(-7)))
          CFI (cfiCond454) R7 load(1, XDATA, add(CFA_XSP16, literal(-6)))
          CFI (cfiCond454) ?RET_LOW load(1, XDATA, add(CFA_XSP16, literal(-5)))
          CFI (cfiCond454) ?RET_HIGH load(1, XDATA, add(CFA_XSP16, literal(-4)))
          CFI (cfiCond454) ?BRET_EXT load(1, XDATA, add(CFA_XSP16, literal(-3)))
          CFI (cfiCond454) DPL0 load(1, XDATA, add(CFA_XSP16, literal(-2)))
          CFI (cfiCond454) DPH0 load(1, XDATA, add(CFA_XSP16, literal(-1)))
          CFI (cfiCond454) CFA_SP SP+-4
          CFI (cfiCond454) CFA_XSP16 add(XSP16, 32)
          CFI Block cfiCond455 Using cfiCommon0
          CFI (cfiCond455) Function ZDSecMgrAuthenticateInd
          CFI (cfiCond455) Conditional ??CrossCallReturnLabel_210, ??CrossCallReturnLabel_201
          CFI (cfiCond455) R6 load(1, XDATA, add(CFA_XSP16, literal(-12)))
          CFI (cfiCond455) VB load(1, XDATA, add(CFA_XSP16, literal(-11)))
          CFI (cfiCond455) V0 load(1, XDATA, add(CFA_XSP16, literal(-10)))
          CFI (cfiCond455) V1 load(1, XDATA, add(CFA_XSP16, literal(-9)))
          CFI (cfiCond455) V2 load(1, XDATA, add(CFA_XSP16, literal(-8)))
          CFI (cfiCond455) V3 load(1, XDATA, add(CFA_XSP16, literal(-7)))
          CFI (cfiCond455) R7 load(1, XDATA, add(CFA_XSP16, literal(-6)))
          CFI (cfiCond455) ?RET_LOW load(1, XDATA, add(CFA_XSP16, literal(-5)))
          CFI (cfiCond455) ?RET_HIGH load(1, XDATA, add(CFA_XSP16, literal(-4)))
          CFI (cfiCond455) ?BRET_EXT load(1, XDATA, add(CFA_XSP16, literal(-3)))
          CFI (cfiCond455) DPL0 load(1, XDATA, add(CFA_XSP16, literal(-2)))
          CFI (cfiCond455) DPH0 load(1, XDATA, add(CFA_XSP16, literal(-1)))
          CFI (cfiCond455) CFA_SP SP+-4
          CFI (cfiCond455) CFA_XSP16 add(XSP16, 32)
          CFI Block cfiCond456 Using cfiCommon0
          CFI (cfiCond456) Function ZDSecMgrWriteNV
          CFI (cfiCond456) Conditional ??CrossCallReturnLabel_210, ??CrossCallReturnLabel_202
          CFI (cfiCond456) R6 load(1, XDATA, add(CFA_XSP16, literal(-10)))
          CFI (cfiCond456) VB load(1, XDATA, add(CFA_XSP16, literal(-9)))
          CFI (cfiCond456) V0 load(1, XDATA, add(CFA_XSP16, literal(-8)))
          CFI (cfiCond456) V1 load(1, XDATA, add(CFA_XSP16, literal(-7)))
          CFI (cfiCond456) R7 load(1, XDATA, add(CFA_XSP16, literal(-6)))
          CFI (cfiCond456) ?RET_LOW load(1, XDATA, add(CFA_XSP16, literal(-5)))
          CFI (cfiCond456) ?RET_HIGH load(1, XDATA, add(CFA_XSP16, literal(-4)))
          CFI (cfiCond456) ?BRET_EXT load(1, XDATA, add(CFA_XSP16, literal(-3)))
          CFI (cfiCond456) DPL0 load(1, XDATA, add(CFA_XSP16, literal(-2)))
          CFI (cfiCond456) DPH0 load(1, XDATA, add(CFA_XSP16, literal(-1)))
          CFI (cfiCond456) CFA_SP SP+-4
          CFI (cfiCond456) CFA_XSP16 add(XSP16, 16)
          CFI Block cfiCond457 Using cfiCommon0
          CFI (cfiCond457) Function ZDSecMgrRestoreFromNV
          CFI (cfiCond457) Conditional ??CrossCallReturnLabel_210, ??CrossCallReturnLabel_203
          CFI (cfiCond457) R6 load(1, XDATA, add(CFA_XSP16, literal(-13)))
          CFI (cfiCond457) VB load(1, XDATA, add(CFA_XSP16, literal(-12)))
          CFI (cfiCond457) V0 load(1, XDATA, add(CFA_XSP16, literal(-11)))
          CFI (cfiCond457) V1 load(1, XDATA, add(CFA_XSP16, literal(-10)))
          CFI (cfiCond457) V2 load(1, XDATA, add(CFA_XSP16, literal(-9)))
          CFI (cfiCond457) V3 load(1, XDATA, add(CFA_XSP16, literal(-8)))
          CFI (cfiCond457) V4 load(1, XDATA, add(CFA_XSP16, literal(-7)))
          CFI (cfiCond457) R7 load(1, XDATA, add(CFA_XSP16, literal(-6)))
          CFI (cfiCond457) ?RET_LOW load(1, XDATA, add(CFA_XSP16, literal(-5)))
          CFI (cfiCond457) ?RET_HIGH load(1, XDATA, add(CFA_XSP16, literal(-4)))
          CFI (cfiCond457) ?BRET_EXT load(1, XDATA, add(CFA_XSP16, literal(-3)))
          CFI (cfiCond457) DPL0 load(1, XDATA, add(CFA_XSP16, literal(-2)))
          CFI (cfiCond457) DPH0 load(1, XDATA, add(CFA_XSP16, literal(-1)))
          CFI (cfiCond457) CFA_SP SP+-4
          CFI (cfiCond457) CFA_XSP16 add(XSP16, 15)
          CFI Block cfiCond458 Using cfiCommon0
          CFI (cfiCond458) Function ZDSecMgrAPSRemove
          CFI (cfiCond458) Conditional ??CrossCallReturnLabel_210, ??CrossCallReturnLabel_204
          CFI (cfiCond458) DPL0 Frame(CFA_SP, 4)
          CFI (cfiCond458) DPH0 Frame(CFA_SP, 5)
          CFI (cfiCond458) CFA_SP SP+-9
          CFI (cfiCond458) CFA_XSP16 add(XSP16, 10)
          CFI Block cfiPicker459 Using cfiCommon1
          CFI (cfiPicker459) NoFunction
          CFI (cfiPicker459) Picker
        LCALL     ?Subroutine73 & 0xFFFF
??CrossCallReturnLabel_214:
        RET
          CFI EndBlock cfiCond424
          CFI EndBlock cfiCond425
          CFI EndBlock cfiCond426
          CFI EndBlock cfiCond427
          CFI EndBlock cfiCond428
          CFI EndBlock cfiCond429
          CFI EndBlock cfiCond430
          CFI EndBlock cfiCond431
          CFI EndBlock cfiCond432
          CFI EndBlock cfiCond433
          CFI EndBlock cfiCond434
          CFI EndBlock cfiCond435
          CFI EndBlock cfiCond436
          CFI EndBlock cfiCond437
          CFI EndBlock cfiCond438
          CFI EndBlock cfiCond439
          CFI EndBlock cfiCond440
          CFI EndBlock cfiCond441
          CFI EndBlock cfiCond442
          CFI EndBlock cfiCond443
          CFI EndBlock cfiCond444
          CFI EndBlock cfiCond445
          CFI EndBlock cfiCond446
          CFI EndBlock cfiCond447
          CFI EndBlock cfiCond448
          CFI EndBlock cfiCond449
          CFI EndBlock cfiCond450
          CFI EndBlock cfiCond451
          CFI EndBlock cfiCond452
          CFI EndBlock cfiCond453
          CFI EndBlock cfiCond454
          CFI EndBlock cfiCond455
          CFI EndBlock cfiCond456
          CFI EndBlock cfiCond457
          CFI EndBlock cfiCond458
          CFI EndBlock cfiPicker459

        RSEG BANKED_CODE:HUGECODE:NOROOT(0)
?Subroutine73:
          CFI Block cfiCond460 Using cfiCommon0
          CFI Function ZDSecMgrAddrStore
          CFI Conditional ??CrossCallReturnLabel_212, ??CrossCallReturnLabel_188, ??CrossCallReturnLabel_22
          CFI R6 load(1, XDATA, add(CFA_XSP16, literal(-9)))
          CFI VB load(1, XDATA, add(CFA_XSP16, literal(-8)))
          CFI V0 load(1, XDATA, add(CFA_XSP16, literal(-7)))
          CFI R7 load(1, XDATA, add(CFA_XSP16, literal(-6)))
          CFI ?RET_LOW load(1, XDATA, add(CFA_XSP16, literal(-5)))
          CFI ?RET_HIGH load(1, XDATA, add(CFA_XSP16, literal(-4)))
          CFI ?BRET_EXT load(1, XDATA, add(CFA_XSP16, literal(-3)))
          CFI DPL0 load(1, XDATA, add(CFA_XSP16, literal(-2)))
          CFI DPH0 load(1, XDATA, add(CFA_XSP16, literal(-1)))
          CFI CFA_SP SP+-6
          CFI CFA_XSP16 add(XSP16, 22)
          CFI Block cfiCond461 Using cfiCommon0
          CFI (cfiCond461) Function ZDSecMgrExtAddrStore
          CFI (cfiCond461) Conditional ??CrossCallReturnLabel_212, ??CrossCallReturnLabel_188, ??CrossCallReturnLabel_23
          CFI (cfiCond461) R6 load(1, XDATA, add(CFA_XSP16, literal(-9)))
          CFI (cfiCond461) VB load(1, XDATA, add(CFA_XSP16, literal(-8)))
          CFI (cfiCond461) V0 load(1, XDATA, add(CFA_XSP16, literal(-7)))
          CFI (cfiCond461) R7 load(1, XDATA, add(CFA_XSP16, literal(-6)))
          CFI (cfiCond461) ?RET_LOW load(1, XDATA, add(CFA_XSP16, literal(-5)))
          CFI (cfiCond461) ?RET_HIGH load(1, XDATA, add(CFA_XSP16, literal(-4)))
          CFI (cfiCond461) ?BRET_EXT load(1, XDATA, add(CFA_XSP16, literal(-3)))
          CFI (cfiCond461) DPL0 load(1, XDATA, add(CFA_XSP16, literal(-2)))
          CFI (cfiCond461) DPH0 load(1, XDATA, add(CFA_XSP16, literal(-1)))
          CFI (cfiCond461) CFA_SP SP+-6
          CFI (cfiCond461) CFA_XSP16 add(XSP16, 22)
          CFI Block cfiCond462 Using cfiCommon0
          CFI (cfiCond462) Function ZDSecMgrExtAddrLookup
          CFI (cfiCond462) Conditional ??CrossCallReturnLabel_212, ??CrossCallReturnLabel_188, ??CrossCallReturnLabel_24
          CFI (cfiCond462) R6 load(1, XDATA, add(CFA_XSP16, literal(-9)))
          CFI (cfiCond462) VB load(1, XDATA, add(CFA_XSP16, literal(-8)))
          CFI (cfiCond462) V0 load(1, XDATA, add(CFA_XSP16, literal(-7)))
          CFI (cfiCond462) R7 load(1, XDATA, add(CFA_XSP16, literal(-6)))
          CFI (cfiCond462) ?RET_LOW load(1, XDATA, add(CFA_XSP16, literal(-5)))
          CFI (cfiCond462) ?RET_HIGH load(1, XDATA, add(CFA_XSP16, literal(-4)))
          CFI (cfiCond462) ?BRET_EXT load(1, XDATA, add(CFA_XSP16, literal(-3)))
          CFI (cfiCond462) DPL0 load(1, XDATA, add(CFA_XSP16, literal(-2)))
          CFI (cfiCond462) DPH0 load(1, XDATA, add(CFA_XSP16, literal(-1)))
          CFI (cfiCond462) CFA_SP SP+-6
          CFI (cfiCond462) CFA_XSP16 add(XSP16, 22)
          CFI Block cfiCond463 Using cfiCommon0
          CFI (cfiCond463) Function ZDSecMgrAddrStore
          CFI (cfiCond463) Conditional ??CrossCallReturnLabel_212, ??CrossCallReturnLabel_187, ??CrossCallReturnLabel_19
          CFI (cfiCond463) R6 load(1, XDATA, add(CFA_XSP16, literal(-9)))
          CFI (cfiCond463) VB load(1, XDATA, add(CFA_XSP16, literal(-8)))
          CFI (cfiCond463) V0 load(1, XDATA, add(CFA_XSP16, literal(-7)))
          CFI (cfiCond463) R7 load(1, XDATA, add(CFA_XSP16, literal(-6)))
          CFI (cfiCond463) ?RET_LOW load(1, XDATA, add(CFA_XSP16, literal(-5)))
          CFI (cfiCond463) ?RET_HIGH load(1, XDATA, add(CFA_XSP16, literal(-4)))
          CFI (cfiCond463) ?BRET_EXT load(1, XDATA, add(CFA_XSP16, literal(-3)))
          CFI (cfiCond463) DPL0 load(1, XDATA, add(CFA_XSP16, literal(-2)))
          CFI (cfiCond463) DPH0 load(1, XDATA, add(CFA_XSP16, literal(-1)))
          CFI (cfiCond463) CFA_SP SP+-6
          CFI (cfiCond463) CFA_XSP16 add(XSP16, 22)
          CFI Block cfiCond464 Using cfiCommon0
          CFI (cfiCond464) Function ZDSecMgrExtAddrStore
          CFI (cfiCond464) Conditional ??CrossCallReturnLabel_212, ??CrossCallReturnLabel_187, ??CrossCallReturnLabel_20
          CFI (cfiCond464) R6 load(1, XDATA, add(CFA_XSP16, literal(-9)))
          CFI (cfiCond464) VB load(1, XDATA, add(CFA_XSP16, literal(-8)))
          CFI (cfiCond464) V0 load(1, XDATA, add(CFA_XSP16, literal(-7)))
          CFI (cfiCond464) R7 load(1, XDATA, add(CFA_XSP16, literal(-6)))
          CFI (cfiCond464) ?RET_LOW load(1, XDATA, add(CFA_XSP16, literal(-5)))
          CFI (cfiCond464) ?RET_HIGH load(1, XDATA, add(CFA_XSP16, literal(-4)))
          CFI (cfiCond464) ?BRET_EXT load(1, XDATA, add(CFA_XSP16, literal(-3)))
          CFI (cfiCond464) DPL0 load(1, XDATA, add(CFA_XSP16, literal(-2)))
          CFI (cfiCond464) DPH0 load(1, XDATA, add(CFA_XSP16, literal(-1)))
          CFI (cfiCond464) CFA_SP SP+-6
          CFI (cfiCond464) CFA_XSP16 add(XSP16, 22)
          CFI Block cfiCond465 Using cfiCommon0
          CFI (cfiCond465) Function ZDSecMgrExtAddrLookup
          CFI (cfiCond465) Conditional ??CrossCallReturnLabel_212, ??CrossCallReturnLabel_187, ??CrossCallReturnLabel_21
          CFI (cfiCond465) R6 load(1, XDATA, add(CFA_XSP16, literal(-9)))
          CFI (cfiCond465) VB load(1, XDATA, add(CFA_XSP16, literal(-8)))
          CFI (cfiCond465) V0 load(1, XDATA, add(CFA_XSP16, literal(-7)))
          CFI (cfiCond465) R7 load(1, XDATA, add(CFA_XSP16, literal(-6)))
          CFI (cfiCond465) ?RET_LOW load(1, XDATA, add(CFA_XSP16, literal(-5)))
          CFI (cfiCond465) ?RET_HIGH load(1, XDATA, add(CFA_XSP16, literal(-4)))
          CFI (cfiCond465) ?BRET_EXT load(1, XDATA, add(CFA_XSP16, literal(-3)))
          CFI (cfiCond465) DPL0 load(1, XDATA, add(CFA_XSP16, literal(-2)))
          CFI (cfiCond465) DPH0 load(1, XDATA, add(CFA_XSP16, literal(-1)))
          CFI (cfiCond465) CFA_SP SP+-6
          CFI (cfiCond465) CFA_XSP16 add(XSP16, 22)
          CFI Block cfiCond466 Using cfiCommon0
          CFI (cfiCond466) Function ZDSecMgrSendMasterKey
          CFI (cfiCond466) Conditional ??CrossCallReturnLabel_211, ??CrossCallReturnLabel_88, ??CrossCallReturnLabel_6
          CFI (cfiCond466) R6 load(1, XDATA, add(CFA_XSP16, literal(-10)))
          CFI (cfiCond466) VB load(1, XDATA, add(CFA_XSP16, literal(-9)))
          CFI (cfiCond466) V0 load(1, XDATA, add(CFA_XSP16, literal(-8)))
          CFI (cfiCond466) V1 load(1, XDATA, add(CFA_XSP16, literal(-7)))
          CFI (cfiCond466) R7 load(1, XDATA, add(CFA_XSP16, literal(-6)))
          CFI (cfiCond466) ?RET_LOW load(1, XDATA, add(CFA_XSP16, literal(-5)))
          CFI (cfiCond466) ?RET_HIGH load(1, XDATA, add(CFA_XSP16, literal(-4)))
          CFI (cfiCond466) ?BRET_EXT load(1, XDATA, add(CFA_XSP16, literal(-3)))
          CFI (cfiCond466) DPL0 load(1, XDATA, add(CFA_XSP16, literal(-2)))
          CFI (cfiCond466) DPH0 load(1, XDATA, add(CFA_XSP16, literal(-1)))
          CFI (cfiCond466) CFA_SP SP+-6
          CFI (cfiCond466) CFA_XSP16 add(XSP16, 23)
          CFI Block cfiCond467 Using cfiCommon0
          CFI (cfiCond467) Function ZDSecMgrSendNwkKey
          CFI (cfiCond467) Conditional ??CrossCallReturnLabel_211, ??CrossCallReturnLabel_88, ??CrossCallReturnLabel_7
          CFI (cfiCond467) R6 load(1, XDATA, add(CFA_XSP16, literal(-12)))
          CFI (cfiCond467) VB load(1, XDATA, add(CFA_XSP16, literal(-11)))
          CFI (cfiCond467) V0 load(1, XDATA, add(CFA_XSP16, literal(-10)))
          CFI (cfiCond467) V1 load(1, XDATA, add(CFA_XSP16, literal(-9)))
          CFI (cfiCond467) V2 load(1, XDATA, add(CFA_XSP16, literal(-8)))
          CFI (cfiCond467) V3 load(1, XDATA, add(CFA_XSP16, literal(-7)))
          CFI (cfiCond467) R7 load(1, XDATA, add(CFA_XSP16, literal(-6)))
          CFI (cfiCond467) ?RET_LOW load(1, XDATA, add(CFA_XSP16, literal(-5)))
          CFI (cfiCond467) ?RET_HIGH load(1, XDATA, add(CFA_XSP16, literal(-4)))
          CFI (cfiCond467) ?BRET_EXT load(1, XDATA, add(CFA_XSP16, literal(-3)))
          CFI (cfiCond467) DPL0 load(1, XDATA, add(CFA_XSP16, literal(-2)))
          CFI (cfiCond467) DPH0 load(1, XDATA, add(CFA_XSP16, literal(-1)))
          CFI (cfiCond467) CFA_SP SP+-6
          CFI (cfiCond467) CFA_XSP16 add(XSP16, 25)
          CFI Block cfiCond468 Using cfiCommon0
          CFI (cfiCond468) Function ZDSecMgrDeviceJoinFwd
          CFI (cfiCond468) Conditional ??CrossCallReturnLabel_211, ??CrossCallReturnLabel_89, ??CrossCallReturnLabel_4
          CFI (cfiCond468) DPL0 Frame(CFA_SP, 4)
          CFI (cfiCond468) DPH0 Frame(CFA_SP, 5)
          CFI (cfiCond468) CFA_SP SP+-11
          CFI (cfiCond468) CFA_XSP16 add(XSP16, 8)
          CFI Block cfiCond469 Using cfiCommon0
          CFI (cfiCond469) Function ZDSecMgrUpdateDeviceInd
          CFI (cfiCond469) Conditional ??CrossCallReturnLabel_211, ??CrossCallReturnLabel_89, ??CrossCallReturnLabel_5
          CFI (cfiCond469) DPL0 Frame(CFA_SP, 4)
          CFI (cfiCond469) DPH0 Frame(CFA_SP, 5)
          CFI (cfiCond469) CFA_SP SP+-11
          CFI (cfiCond469) CFA_XSP16 add(XSP16, 10)
          CFI Block cfiCond470 Using cfiCommon0
          CFI (cfiCond470) Function ZDSecMgrEntryLookup
          CFI (cfiCond470) Conditional ??CrossCallReturnLabel_214, ??CrossCallReturnLabel_208, ??CrossCallReturnLabel_106
          CFI (cfiCond470) R6 load(1, XDATA, add(CFA_XSP16, literal(-10)))
          CFI (cfiCond470) VB load(1, XDATA, add(CFA_XSP16, literal(-9)))
          CFI (cfiCond470) V0 load(1, XDATA, add(CFA_XSP16, literal(-8)))
          CFI (cfiCond470) V1 load(1, XDATA, add(CFA_XSP16, literal(-7)))
          CFI (cfiCond470) R7 load(1, XDATA, add(CFA_XSP16, literal(-6)))
          CFI (cfiCond470) ?RET_LOW load(1, XDATA, add(CFA_XSP16, literal(-5)))
          CFI (cfiCond470) ?RET_HIGH load(1, XDATA, add(CFA_XSP16, literal(-4)))
          CFI (cfiCond470) ?BRET_EXT load(1, XDATA, add(CFA_XSP16, literal(-3)))
          CFI (cfiCond470) DPL0 load(1, XDATA, add(CFA_XSP16, literal(-2)))
          CFI (cfiCond470) DPH0 load(1, XDATA, add(CFA_XSP16, literal(-1)))
          CFI (cfiCond470) CFA_SP SP+-6
          CFI (cfiCond470) CFA_XSP16 add(XSP16, 23)
          CFI Block cfiCond471 Using cfiCommon0
          CFI (cfiCond471) Function ZDSecMgrEntryNew
          CFI (cfiCond471) Conditional ??CrossCallReturnLabel_214, ??CrossCallReturnLabel_208, ??CrossCallReturnLabel_107
          CFI (cfiCond471) R6 load(1, XDATA, add(CFA_XSP16, literal(-10)))
          CFI (cfiCond471) VB load(1, XDATA, add(CFA_XSP16, literal(-9)))
          CFI (cfiCond471) V0 load(1, XDATA, add(CFA_XSP16, literal(-8)))
          CFI (cfiCond471) V1 load(1, XDATA, add(CFA_XSP16, literal(-7)))
          CFI (cfiCond471) R7 load(1, XDATA, add(CFA_XSP16, literal(-6)))
          CFI (cfiCond471) ?RET_LOW load(1, XDATA, add(CFA_XSP16, literal(-5)))
          CFI (cfiCond471) ?RET_HIGH load(1, XDATA, add(CFA_XSP16, literal(-4)))
          CFI (cfiCond471) ?BRET_EXT load(1, XDATA, add(CFA_XSP16, literal(-3)))
          CFI (cfiCond471) DPL0 load(1, XDATA, add(CFA_XSP16, literal(-2)))
          CFI (cfiCond471) DPH0 load(1, XDATA, add(CFA_XSP16, literal(-1)))
          CFI (cfiCond471) CFA_SP SP+-6
          CFI (cfiCond471) CFA_XSP16 add(XSP16, 10)
          CFI Block cfiCond472 Using cfiCommon0
          CFI (cfiCond472) Function ZDSecMgrEntryLookupAMI
          CFI (cfiCond472) Conditional ??CrossCallReturnLabel_214, ??CrossCallReturnLabel_208, ??CrossCallReturnLabel_108
          CFI (cfiCond472) R6 load(1, XDATA, add(CFA_XSP16, literal(-10)))
          CFI (cfiCond472) VB load(1, XDATA, add(CFA_XSP16, literal(-9)))
          CFI (cfiCond472) V0 load(1, XDATA, add(CFA_XSP16, literal(-8)))
          CFI (cfiCond472) V1 load(1, XDATA, add(CFA_XSP16, literal(-7)))
          CFI (cfiCond472) R7 load(1, XDATA, add(CFA_XSP16, literal(-6)))
          CFI (cfiCond472) ?RET_LOW load(1, XDATA, add(CFA_XSP16, literal(-5)))
          CFI (cfiCond472) ?RET_HIGH load(1, XDATA, add(CFA_XSP16, literal(-4)))
          CFI (cfiCond472) ?BRET_EXT load(1, XDATA, add(CFA_XSP16, literal(-3)))
          CFI (cfiCond472) DPL0 load(1, XDATA, add(CFA_XSP16, literal(-2)))
          CFI (cfiCond472) DPH0 load(1, XDATA, add(CFA_XSP16, literal(-1)))
          CFI (cfiCond472) CFA_SP SP+-6
          CFI (cfiCond472) CFA_XSP16 add(XSP16, 10)
          CFI Block cfiCond473 Using cfiCommon0
          CFI (cfiCond473) Function ZDSecMgrAppKeyReq
          CFI (cfiCond473) Conditional ??CrossCallReturnLabel_214, ??CrossCallReturnLabel_207, ??CrossCallReturnLabel_56
          CFI (cfiCond473) R6 load(1, XDATA, add(CFA_XSP16, literal(-12)))
          CFI (cfiCond473) VB load(1, XDATA, add(CFA_XSP16, literal(-11)))
          CFI (cfiCond473) V0 load(1, XDATA, add(CFA_XSP16, literal(-10)))
          CFI (cfiCond473) V1 load(1, XDATA, add(CFA_XSP16, literal(-9)))
          CFI (cfiCond473) V2 load(1, XDATA, add(CFA_XSP16, literal(-8)))
          CFI (cfiCond473) V3 load(1, XDATA, add(CFA_XSP16, literal(-7)))
          CFI (cfiCond473) R7 load(1, XDATA, add(CFA_XSP16, literal(-6)))
          CFI (cfiCond473) ?RET_LOW load(1, XDATA, add(CFA_XSP16, literal(-5)))
          CFI (cfiCond473) ?RET_HIGH load(1, XDATA, add(CFA_XSP16, literal(-4)))
          CFI (cfiCond473) ?BRET_EXT load(1, XDATA, add(CFA_XSP16, literal(-3)))
          CFI (cfiCond473) DPL0 load(1, XDATA, add(CFA_XSP16, literal(-2)))
          CFI (cfiCond473) DPH0 load(1, XDATA, add(CFA_XSP16, literal(-1)))
          CFI (cfiCond473) CFA_SP SP+-6
          CFI (cfiCond473) CFA_XSP16 add(XSP16, 51)
          CFI Block cfiCond474 Using cfiCommon0
          CFI (cfiCond474) Function ZDSecMgrEstablishKey
          CFI (cfiCond474) Conditional ??CrossCallReturnLabel_214, ??CrossCallReturnLabel_207, ??CrossCallReturnLabel_57
          CFI (cfiCond474) R6 load(1, XDATA, add(CFA_XSP16, literal(-10)))
          CFI (cfiCond474) VB load(1, XDATA, add(CFA_XSP16, literal(-9)))
          CFI (cfiCond474) V0 load(1, XDATA, add(CFA_XSP16, literal(-8)))
          CFI (cfiCond474) V1 load(1, XDATA, add(CFA_XSP16, literal(-7)))
          CFI (cfiCond474) R7 load(1, XDATA, add(CFA_XSP16, literal(-6)))
          CFI (cfiCond474) ?RET_LOW load(1, XDATA, add(CFA_XSP16, literal(-5)))
          CFI (cfiCond474) ?RET_HIGH load(1, XDATA, add(CFA_XSP16, literal(-4)))
          CFI (cfiCond474) ?BRET_EXT load(1, XDATA, add(CFA_XSP16, literal(-3)))
          CFI (cfiCond474) DPL0 load(1, XDATA, add(CFA_XSP16, literal(-2)))
          CFI (cfiCond474) DPH0 load(1, XDATA, add(CFA_XSP16, literal(-1)))
          CFI (cfiCond474) CFA_SP SP+-6
          CFI (cfiCond474) CFA_XSP16 add(XSP16, 17)
          CFI Block cfiCond475 Using cfiCommon0
          CFI (cfiCond475) Function ZDSecMgrDeviceJoinFwd
          CFI (cfiCond475) Conditional ??CrossCallReturnLabel_214, ??CrossCallReturnLabel_207, ??CrossCallReturnLabel_58
          CFI (cfiCond475) DPL0 Frame(CFA_SP, 4)
          CFI (cfiCond475) DPH0 Frame(CFA_SP, 5)
          CFI (cfiCond475) CFA_SP SP+-11
          CFI (cfiCond475) CFA_XSP16 add(XSP16, 8)
          CFI Block cfiCond476 Using cfiCommon0
          CFI (cfiCond476) Function ZDSecMgrCtrlReset
          CFI (cfiCond476) Conditional ??CrossCallReturnLabel_214, ??CrossCallReturnLabel_209, ??CrossCallReturnLabel_163
          CFI (cfiCond476) R6 load(1, XDATA, add(CFA_XSP16, literal(-10)))
          CFI (cfiCond476) VB load(1, XDATA, add(CFA_XSP16, literal(-9)))
          CFI (cfiCond476) V0 load(1, XDATA, add(CFA_XSP16, literal(-8)))
          CFI (cfiCond476) V1 load(1, XDATA, add(CFA_XSP16, literal(-7)))
          CFI (cfiCond476) R7 load(1, XDATA, add(CFA_XSP16, literal(-6)))
          CFI (cfiCond476) ?RET_LOW load(1, XDATA, add(CFA_XSP16, literal(-5)))
          CFI (cfiCond476) ?RET_HIGH load(1, XDATA, add(CFA_XSP16, literal(-4)))
          CFI (cfiCond476) ?BRET_EXT load(1, XDATA, add(CFA_XSP16, literal(-3)))
          CFI (cfiCond476) DPL0 load(1, XDATA, add(CFA_XSP16, literal(-2)))
          CFI (cfiCond476) DPH0 load(1, XDATA, add(CFA_XSP16, literal(-1)))
          CFI (cfiCond476) CFA_SP SP+-6
          CFI (cfiCond476) CFA_XSP16 add(XSP16, 12)
          CFI Block cfiCond477 Using cfiCommon0
          CFI (cfiCond477) Function ZDSecMgrDeviceCtrlUpdate
          CFI (cfiCond477) Conditional ??CrossCallReturnLabel_214, ??CrossCallReturnLabel_209, ??CrossCallReturnLabel_164
          CFI (cfiCond477) R6 load(1, XDATA, add(CFA_XSP16, literal(-9)))
          CFI (cfiCond477) VB load(1, XDATA, add(CFA_XSP16, literal(-8)))
          CFI (cfiCond477) V0 load(1, XDATA, add(CFA_XSP16, literal(-7)))
          CFI (cfiCond477) R7 load(1, XDATA, add(CFA_XSP16, literal(-6)))
          CFI (cfiCond477) ?RET_LOW load(1, XDATA, add(CFA_XSP16, literal(-5)))
          CFI (cfiCond477) ?RET_HIGH load(1, XDATA, add(CFA_XSP16, literal(-4)))
          CFI (cfiCond477) ?BRET_EXT load(1, XDATA, add(CFA_XSP16, literal(-3)))
          CFI (cfiCond477) DPL0 load(1, XDATA, add(CFA_XSP16, literal(-2)))
          CFI (cfiCond477) DPH0 load(1, XDATA, add(CFA_XSP16, literal(-1)))
          CFI (cfiCond477) CFA_SP SP+-6
          CFI (cfiCond477) CFA_XSP16 add(XSP16, 13)
          CFI Block cfiCond478 Using cfiCommon0
          CFI (cfiCond478) Function ZDSecMgrCtrlTerm
          CFI (cfiCond478) Conditional ??CrossCallReturnLabel_214, ??CrossCallReturnLabel_209, ??CrossCallReturnLabel_165
          CFI (cfiCond478) DPL0 Frame(CFA_SP, 4)
          CFI (cfiCond478) DPH0 Frame(CFA_SP, 5)
          CFI (cfiCond478) CFA_SP SP+-11
          CFI (cfiCond478) CFA_XSP16 add(XSP16, 2)
          CFI Block cfiCond479 Using cfiCommon0
          CFI (cfiCond479) Function ZDSecMgrDeviceEntryAdd
          CFI (cfiCond479) Conditional ??CrossCallReturnLabel_214, ??CrossCallReturnLabel_209, ??CrossCallReturnLabel_175
          CFI (cfiCond479) R6 load(1, XDATA, add(CFA_XSP16, literal(-12)))
          CFI (cfiCond479) VB load(1, XDATA, add(CFA_XSP16, literal(-11)))
          CFI (cfiCond479) V0 load(1, XDATA, add(CFA_XSP16, literal(-10)))
          CFI (cfiCond479) V1 load(1, XDATA, add(CFA_XSP16, literal(-9)))
          CFI (cfiCond479) V2 load(1, XDATA, add(CFA_XSP16, literal(-8)))
          CFI (cfiCond479) V3 load(1, XDATA, add(CFA_XSP16, literal(-7)))
          CFI (cfiCond479) R7 load(1, XDATA, add(CFA_XSP16, literal(-6)))
          CFI (cfiCond479) ?RET_LOW load(1, XDATA, add(CFA_XSP16, literal(-5)))
          CFI (cfiCond479) ?RET_HIGH load(1, XDATA, add(CFA_XSP16, literal(-4)))
          CFI (cfiCond479) ?BRET_EXT load(1, XDATA, add(CFA_XSP16, literal(-3)))
          CFI (cfiCond479) DPL0 load(1, XDATA, add(CFA_XSP16, literal(-2)))
          CFI (cfiCond479) DPH0 load(1, XDATA, add(CFA_XSP16, literal(-1)))
          CFI (cfiCond479) CFA_SP SP+-6
          CFI (cfiCond479) CFA_XSP16 add(XSP16, 14)
          CFI Block cfiCond480 Using cfiCommon0
          CFI (cfiCond480) Function ZDSecMgrAddLinkKey
          CFI (cfiCond480) Conditional ??CrossCallReturnLabel_214, ??CrossCallReturnLabel_209, ??CrossCallReturnLabel_176
          CFI (cfiCond480) R6 load(1, XDATA, add(CFA_XSP16, literal(-10)))
          CFI (cfiCond480) VB load(1, XDATA, add(CFA_XSP16, literal(-9)))
          CFI (cfiCond480) V0 load(1, XDATA, add(CFA_XSP16, literal(-8)))
          CFI (cfiCond480) V1 load(1, XDATA, add(CFA_XSP16, literal(-7)))
          CFI (cfiCond480) R7 load(1, XDATA, add(CFA_XSP16, literal(-6)))
          CFI (cfiCond480) ?RET_LOW load(1, XDATA, add(CFA_XSP16, literal(-5)))
          CFI (cfiCond480) ?RET_HIGH load(1, XDATA, add(CFA_XSP16, literal(-4)))
          CFI (cfiCond480) ?BRET_EXT load(1, XDATA, add(CFA_XSP16, literal(-3)))
          CFI (cfiCond480) DPL0 load(1, XDATA, add(CFA_XSP16, literal(-2)))
          CFI (cfiCond480) DPH0 load(1, XDATA, add(CFA_XSP16, literal(-1)))
          CFI (cfiCond480) CFA_SP SP+-6
          CFI (cfiCond480) CFA_XSP16 add(XSP16, 14)
          CFI Block cfiCond481 Using cfiCommon0
          CFI (cfiCond481) Function ZDSecMgrMasterKeyLookup
          CFI (cfiCond481) Conditional ??CrossCallReturnLabel_214, ??CrossCallReturnLabel_209, ??CrossCallReturnLabel_166
          CFI (cfiCond481) R6 load(1, XDATA, add(CFA_XSP16, literal(-10)))
          CFI (cfiCond481) VB load(1, XDATA, add(CFA_XSP16, literal(-9)))
          CFI (cfiCond481) V0 load(1, XDATA, add(CFA_XSP16, literal(-8)))
          CFI (cfiCond481) V1 load(1, XDATA, add(CFA_XSP16, literal(-7)))
          CFI (cfiCond481) R7 load(1, XDATA, add(CFA_XSP16, literal(-6)))
          CFI (cfiCond481) ?RET_LOW load(1, XDATA, add(CFA_XSP16, literal(-5)))
          CFI (cfiCond481) ?RET_HIGH load(1, XDATA, add(CFA_XSP16, literal(-4)))
          CFI (cfiCond481) ?BRET_EXT load(1, XDATA, add(CFA_XSP16, literal(-3)))
          CFI (cfiCond481) DPL0 load(1, XDATA, add(CFA_XSP16, literal(-2)))
          CFI (cfiCond481) DPH0 load(1, XDATA, add(CFA_XSP16, literal(-1)))
          CFI (cfiCond481) CFA_SP SP+-6
          CFI (cfiCond481) CFA_XSP16 add(XSP16, 10)
          CFI Block cfiCond482 Using cfiCommon0
          CFI (cfiCond482) Function ZDSecMgrMasterKeyStore
          CFI (cfiCond482) Conditional ??CrossCallReturnLabel_214, ??CrossCallReturnLabel_209, ??CrossCallReturnLabel_167
          CFI (cfiCond482) R6 load(1, XDATA, add(CFA_XSP16, literal(-14)))
          CFI (cfiCond482) VB load(1, XDATA, add(CFA_XSP16, literal(-13)))
          CFI (cfiCond482) V0 load(1, XDATA, add(CFA_XSP16, literal(-12)))
          CFI (cfiCond482) V1 load(1, XDATA, add(CFA_XSP16, literal(-11)))
          CFI (cfiCond482) V2 load(1, XDATA, add(CFA_XSP16, literal(-10)))
          CFI (cfiCond482) V3 load(1, XDATA, add(CFA_XSP16, literal(-9)))
          CFI (cfiCond482) V4 load(1, XDATA, add(CFA_XSP16, literal(-8)))
          CFI (cfiCond482) V5 load(1, XDATA, add(CFA_XSP16, literal(-7)))
          CFI (cfiCond482) R7 load(1, XDATA, add(CFA_XSP16, literal(-6)))
          CFI (cfiCond482) ?RET_LOW load(1, XDATA, add(CFA_XSP16, literal(-5)))
          CFI (cfiCond482) ?RET_HIGH load(1, XDATA, add(CFA_XSP16, literal(-4)))
          CFI (cfiCond482) ?BRET_EXT load(1, XDATA, add(CFA_XSP16, literal(-3)))
          CFI (cfiCond482) DPL0 load(1, XDATA, add(CFA_XSP16, literal(-2)))
          CFI (cfiCond482) DPH0 load(1, XDATA, add(CFA_XSP16, literal(-1)))
          CFI (cfiCond482) CFA_SP SP+-6
          CFI (cfiCond482) CFA_XSP16 add(XSP16, 14)
          CFI Block cfiCond483 Using cfiCommon0
          CFI (cfiCond483) Function ZDSecMgrCtrlLookup
          CFI (cfiCond483) Conditional ??CrossCallReturnLabel_214, ??CrossCallReturnLabel_209, ??CrossCallReturnLabel_168
          CFI (cfiCond483) R6 load(1, XDATA, add(CFA_XSP16, literal(-10)))
          CFI (cfiCond483) VB load(1, XDATA, add(CFA_XSP16, literal(-9)))
          CFI (cfiCond483) V0 load(1, XDATA, add(CFA_XSP16, literal(-8)))
          CFI (cfiCond483) V1 load(1, XDATA, add(CFA_XSP16, literal(-7)))
          CFI (cfiCond483) R7 load(1, XDATA, add(CFA_XSP16, literal(-6)))
          CFI (cfiCond483) ?RET_LOW load(1, XDATA, add(CFA_XSP16, literal(-5)))
          CFI (cfiCond483) ?RET_HIGH load(1, XDATA, add(CFA_XSP16, literal(-4)))
          CFI (cfiCond483) ?BRET_EXT load(1, XDATA, add(CFA_XSP16, literal(-3)))
          CFI (cfiCond483) DPL0 load(1, XDATA, add(CFA_XSP16, literal(-2)))
          CFI (cfiCond483) DPH0 load(1, XDATA, add(CFA_XSP16, literal(-1)))
          CFI (cfiCond483) CFA_SP SP+-6
          CFI (cfiCond483) CFA_XSP16 add(XSP16, 10)
          CFI Block cfiCond484 Using cfiCommon0
          CFI (cfiCond484) Function ZDSecMgrCtrlAdd
          CFI (cfiCond484) Conditional ??CrossCallReturnLabel_214, ??CrossCallReturnLabel_209, ??CrossCallReturnLabel_169
          CFI (cfiCond484) R6 load(1, XDATA, add(CFA_XSP16, literal(-12)))
          CFI (cfiCond484) VB load(1, XDATA, add(CFA_XSP16, literal(-11)))
          CFI (cfiCond484) V0 load(1, XDATA, add(CFA_XSP16, literal(-10)))
          CFI (cfiCond484) V1 load(1, XDATA, add(CFA_XSP16, literal(-9)))
          CFI (cfiCond484) V2 load(1, XDATA, add(CFA_XSP16, literal(-8)))
          CFI (cfiCond484) V3 load(1, XDATA, add(CFA_XSP16, literal(-7)))
          CFI (cfiCond484) R7 load(1, XDATA, add(CFA_XSP16, literal(-6)))
          CFI (cfiCond484) ?RET_LOW load(1, XDATA, add(CFA_XSP16, literal(-5)))
          CFI (cfiCond484) ?RET_HIGH load(1, XDATA, add(CFA_XSP16, literal(-4)))
          CFI (cfiCond484) ?BRET_EXT load(1, XDATA, add(CFA_XSP16, literal(-3)))
          CFI (cfiCond484) DPL0 load(1, XDATA, add(CFA_XSP16, literal(-2)))
          CFI (cfiCond484) DPH0 load(1, XDATA, add(CFA_XSP16, literal(-1)))
          CFI (cfiCond484) CFA_SP SP+-6
          CFI (cfiCond484) CFA_XSP16 add(XSP16, 12)
          CFI Block cfiCond485 Using cfiCommon0
          CFI (cfiCond485) Function ZDSecMgrDeviceCtrlSetup
          CFI (cfiCond485) Conditional ??CrossCallReturnLabel_214, ??CrossCallReturnLabel_209, ??CrossCallReturnLabel_170
          CFI (cfiCond485) DPL0 Frame(CFA_SP, 4)
          CFI (cfiCond485) DPH0 Frame(CFA_SP, 5)
          CFI (cfiCond485) CFA_SP SP+-11
          CFI Block cfiCond486 Using cfiCommon0
          CFI (cfiCond486) Function ZDSecMgrDeviceCtrlUpdate
          CFI (cfiCond486) Conditional ??CrossCallReturnLabel_214, ??CrossCallReturnLabel_209, ??CrossCallReturnLabel_171
          CFI (cfiCond486) R6 load(1, XDATA, add(CFA_XSP16, literal(-9)))
          CFI (cfiCond486) VB load(1, XDATA, add(CFA_XSP16, literal(-8)))
          CFI (cfiCond486) V0 load(1, XDATA, add(CFA_XSP16, literal(-7)))
          CFI (cfiCond486) R7 load(1, XDATA, add(CFA_XSP16, literal(-6)))
          CFI (cfiCond486) ?RET_LOW load(1, XDATA, add(CFA_XSP16, literal(-5)))
          CFI (cfiCond486) ?RET_HIGH load(1, XDATA, add(CFA_XSP16, literal(-4)))
          CFI (cfiCond486) ?BRET_EXT load(1, XDATA, add(CFA_XSP16, literal(-3)))
          CFI (cfiCond486) DPL0 load(1, XDATA, add(CFA_XSP16, literal(-2)))
          CFI (cfiCond486) DPH0 load(1, XDATA, add(CFA_XSP16, literal(-1)))
          CFI (cfiCond486) CFA_SP SP+-6
          CFI (cfiCond486) CFA_XSP16 add(XSP16, 13)
          CFI Block cfiCond487 Using cfiCommon0
          CFI (cfiCond487) Function ZDSecMgrEvent
          CFI (cfiCond487) Conditional ??CrossCallReturnLabel_214, ??CrossCallReturnLabel_209, ??CrossCallReturnLabel_172
          CFI (cfiCond487) R6 load(1, XDATA, add(CFA_XSP16, literal(-10)))
          CFI (cfiCond487) VB load(1, XDATA, add(CFA_XSP16, literal(-9)))
          CFI (cfiCond487) V0 load(1, XDATA, add(CFA_XSP16, literal(-8)))
          CFI (cfiCond487) V1 load(1, XDATA, add(CFA_XSP16, literal(-7)))
          CFI (cfiCond487) R7 load(1, XDATA, add(CFA_XSP16, literal(-6)))
          CFI (cfiCond487) ?RET_LOW load(1, XDATA, add(CFA_XSP16, literal(-5)))
          CFI (cfiCond487) ?RET_HIGH load(1, XDATA, add(CFA_XSP16, literal(-4)))
          CFI (cfiCond487) ?BRET_EXT load(1, XDATA, add(CFA_XSP16, literal(-3)))
          CFI (cfiCond487) DPL0 load(1, XDATA, add(CFA_XSP16, literal(-2)))
          CFI (cfiCond487) DPH0 load(1, XDATA, add(CFA_XSP16, literal(-1)))
          CFI (cfiCond487) CFA_SP SP+-6
          CFI (cfiCond487) CFA_XSP16 add(XSP16, 33)
          CFI Block cfiCond488 Using cfiCommon0
          CFI (cfiCond488) Function ZDSecMgrRemoveDeviceInd
          CFI (cfiCond488) Conditional ??CrossCallReturnLabel_214, ??CrossCallReturnLabel_209, ??CrossCallReturnLabel_173
          CFI (cfiCond488) R6 load(1, XDATA, add(CFA_XSP16, literal(-9)))
          CFI (cfiCond488) VB load(1, XDATA, add(CFA_XSP16, literal(-8)))
          CFI (cfiCond488) V0 load(1, XDATA, add(CFA_XSP16, literal(-7)))
          CFI (cfiCond488) R7 load(1, XDATA, add(CFA_XSP16, literal(-6)))
          CFI (cfiCond488) ?RET_LOW load(1, XDATA, add(CFA_XSP16, literal(-5)))
          CFI (cfiCond488) ?RET_HIGH load(1, XDATA, add(CFA_XSP16, literal(-4)))
          CFI (cfiCond488) ?BRET_EXT load(1, XDATA, add(CFA_XSP16, literal(-3)))
          CFI (cfiCond488) DPL0 load(1, XDATA, add(CFA_XSP16, literal(-2)))
          CFI (cfiCond488) DPH0 load(1, XDATA, add(CFA_XSP16, literal(-1)))
          CFI (cfiCond488) CFA_SP SP+-6
          CFI (cfiCond488) CFA_XSP16 add(XSP16, 19)
          CFI Block cfiCond489 Using cfiCommon0
          CFI (cfiCond489) Function APSME_KeyFwdToChild
          CFI (cfiCond489) Conditional ??CrossCallReturnLabel_214, ??CrossCallReturnLabel_209, ??CrossCallReturnLabel_174
          CFI (cfiCond489) R6 load(1, XDATA, add(CFA_XSP16, literal(-10)))
          CFI (cfiCond489) VB load(1, XDATA, add(CFA_XSP16, literal(-9)))
          CFI (cfiCond489) V0 load(1, XDATA, add(CFA_XSP16, literal(-8)))
          CFI (cfiCond489) V1 load(1, XDATA, add(CFA_XSP16, literal(-7)))
          CFI (cfiCond489) R7 load(1, XDATA, add(CFA_XSP16, literal(-6)))
          CFI (cfiCond489) ?RET_LOW load(1, XDATA, add(CFA_XSP16, literal(-5)))
          CFI (cfiCond489) ?RET_HIGH load(1, XDATA, add(CFA_XSP16, literal(-4)))
          CFI (cfiCond489) ?BRET_EXT load(1, XDATA, add(CFA_XSP16, literal(-3)))
          CFI (cfiCond489) DPL0 load(1, XDATA, add(CFA_XSP16, literal(-2)))
          CFI (cfiCond489) DPH0 load(1, XDATA, add(CFA_XSP16, literal(-1)))
          CFI (cfiCond489) CFA_SP SP+-6
          CFI (cfiCond489) CFA_XSP16 add(XSP16, 10)
          CFI Block cfiCond490 Using cfiCommon0
          CFI (cfiCond490) Function ZDSecMgrEstablishKeyInd
          CFI (cfiCond490) Conditional ??CrossCallReturnLabel_214, ??CrossCallReturnLabel_206, ??CrossCallReturnLabel_8
          CFI (cfiCond490) R6 load(1, XDATA, add(CFA_XSP16, literal(-14)))
          CFI (cfiCond490) VB load(1, XDATA, add(CFA_XSP16, literal(-13)))
          CFI (cfiCond490) V0 load(1, XDATA, add(CFA_XSP16, literal(-12)))
          CFI (cfiCond490) V1 load(1, XDATA, add(CFA_XSP16, literal(-11)))
          CFI (cfiCond490) V2 load(1, XDATA, add(CFA_XSP16, literal(-10)))
          CFI (cfiCond490) V3 load(1, XDATA, add(CFA_XSP16, literal(-9)))
          CFI (cfiCond490) V4 load(1, XDATA, add(CFA_XSP16, literal(-8)))
          CFI (cfiCond490) V5 load(1, XDATA, add(CFA_XSP16, literal(-7)))
          CFI (cfiCond490) R7 load(1, XDATA, add(CFA_XSP16, literal(-6)))
          CFI (cfiCond490) ?RET_LOW load(1, XDATA, add(CFA_XSP16, literal(-5)))
          CFI (cfiCond490) ?RET_HIGH load(1, XDATA, add(CFA_XSP16, literal(-4)))
          CFI (cfiCond490) ?BRET_EXT load(1, XDATA, add(CFA_XSP16, literal(-3)))
          CFI (cfiCond490) DPL0 load(1, XDATA, add(CFA_XSP16, literal(-2)))
          CFI (cfiCond490) DPH0 load(1, XDATA, add(CFA_XSP16, literal(-1)))
          CFI (cfiCond490) CFA_SP SP+-6
          CFI (cfiCond490) CFA_XSP16 add(XSP16, 31)
          CFI Block cfiCond491 Using cfiCommon0
          CFI (cfiCond491) Function ZDSecMgrEstablishKeyInd
          CFI (cfiCond491) Conditional ??CrossCallReturnLabel_214, ??CrossCallReturnLabel_206, ??CrossCallReturnLabel_9
          CFI (cfiCond491) R6 load(1, XDATA, add(CFA_XSP16, literal(-14)))
          CFI (cfiCond491) VB load(1, XDATA, add(CFA_XSP16, literal(-13)))
          CFI (cfiCond491) V0 load(1, XDATA, add(CFA_XSP16, literal(-12)))
          CFI (cfiCond491) V1 load(1, XDATA, add(CFA_XSP16, literal(-11)))
          CFI (cfiCond491) V2 load(1, XDATA, add(CFA_XSP16, literal(-10)))
          CFI (cfiCond491) V3 load(1, XDATA, add(CFA_XSP16, literal(-9)))
          CFI (cfiCond491) V4 load(1, XDATA, add(CFA_XSP16, literal(-8)))
          CFI (cfiCond491) V5 load(1, XDATA, add(CFA_XSP16, literal(-7)))
          CFI (cfiCond491) R7 load(1, XDATA, add(CFA_XSP16, literal(-6)))
          CFI (cfiCond491) ?RET_LOW load(1, XDATA, add(CFA_XSP16, literal(-5)))
          CFI (cfiCond491) ?RET_HIGH load(1, XDATA, add(CFA_XSP16, literal(-4)))
          CFI (cfiCond491) ?BRET_EXT load(1, XDATA, add(CFA_XSP16, literal(-3)))
          CFI (cfiCond491) DPL0 load(1, XDATA, add(CFA_XSP16, literal(-2)))
          CFI (cfiCond491) DPH0 load(1, XDATA, add(CFA_XSP16, literal(-1)))
          CFI (cfiCond491) CFA_SP SP+-6
          CFI (cfiCond491) CFA_XSP16 add(XSP16, 31)
          CFI Block cfiCond492 Using cfiCommon0
          CFI (cfiCond492) Function ZDSecMgrEstablishKey
          CFI (cfiCond492) Conditional ??CrossCallReturnLabel_214, ??CrossCallReturnLabel_210, ??CrossCallReturnLabel_193
          CFI (cfiCond492) R6 load(1, XDATA, add(CFA_XSP16, literal(-10)))
          CFI (cfiCond492) VB load(1, XDATA, add(CFA_XSP16, literal(-9)))
          CFI (cfiCond492) V0 load(1, XDATA, add(CFA_XSP16, literal(-8)))
          CFI (cfiCond492) V1 load(1, XDATA, add(CFA_XSP16, literal(-7)))
          CFI (cfiCond492) R7 load(1, XDATA, add(CFA_XSP16, literal(-6)))
          CFI (cfiCond492) ?RET_LOW load(1, XDATA, add(CFA_XSP16, literal(-5)))
          CFI (cfiCond492) ?RET_HIGH load(1, XDATA, add(CFA_XSP16, literal(-4)))
          CFI (cfiCond492) ?BRET_EXT load(1, XDATA, add(CFA_XSP16, literal(-3)))
          CFI (cfiCond492) DPL0 load(1, XDATA, add(CFA_XSP16, literal(-2)))
          CFI (cfiCond492) DPH0 load(1, XDATA, add(CFA_XSP16, literal(-1)))
          CFI (cfiCond492) CFA_SP SP+-6
          CFI (cfiCond492) CFA_XSP16 add(XSP16, 17)
          CFI Block cfiCond493 Using cfiCommon0
          CFI (cfiCond493) Function ZDSecMgrSendMasterKey
          CFI (cfiCond493) Conditional ??CrossCallReturnLabel_214, ??CrossCallReturnLabel_210, ??CrossCallReturnLabel_194
          CFI (cfiCond493) R6 load(1, XDATA, add(CFA_XSP16, literal(-10)))
          CFI (cfiCond493) VB load(1, XDATA, add(CFA_XSP16, literal(-9)))
          CFI (cfiCond493) V0 load(1, XDATA, add(CFA_XSP16, literal(-8)))
          CFI (cfiCond493) V1 load(1, XDATA, add(CFA_XSP16, literal(-7)))
          CFI (cfiCond493) R7 load(1, XDATA, add(CFA_XSP16, literal(-6)))
          CFI (cfiCond493) ?RET_LOW load(1, XDATA, add(CFA_XSP16, literal(-5)))
          CFI (cfiCond493) ?RET_HIGH load(1, XDATA, add(CFA_XSP16, literal(-4)))
          CFI (cfiCond493) ?BRET_EXT load(1, XDATA, add(CFA_XSP16, literal(-3)))
          CFI (cfiCond493) DPL0 load(1, XDATA, add(CFA_XSP16, literal(-2)))
          CFI (cfiCond493) DPH0 load(1, XDATA, add(CFA_XSP16, literal(-1)))
          CFI (cfiCond493) CFA_SP SP+-6
          CFI (cfiCond493) CFA_XSP16 add(XSP16, 23)
          CFI Block cfiCond494 Using cfiCommon0
          CFI (cfiCond494) Function ZDSecMgrNewDeviceEvent
          CFI (cfiCond494) Conditional ??CrossCallReturnLabel_214, ??CrossCallReturnLabel_210, ??CrossCallReturnLabel_205
          CFI (cfiCond494) R6 load(1, XDATA, add(CFA_XSP16, literal(-12)))
          CFI (cfiCond494) VB load(1, XDATA, add(CFA_XSP16, literal(-11)))
          CFI (cfiCond494) V0 load(1, XDATA, add(CFA_XSP16, literal(-10)))
          CFI (cfiCond494) V1 load(1, XDATA, add(CFA_XSP16, literal(-9)))
          CFI (cfiCond494) V2 load(1, XDATA, add(CFA_XSP16, literal(-8)))
          CFI (cfiCond494) V3 load(1, XDATA, add(CFA_XSP16, literal(-7)))
          CFI (cfiCond494) R7 load(1, XDATA, add(CFA_XSP16, literal(-6)))
          CFI (cfiCond494) ?RET_LOW load(1, XDATA, add(CFA_XSP16, literal(-5)))
          CFI (cfiCond494) ?RET_HIGH load(1, XDATA, add(CFA_XSP16, literal(-4)))
          CFI (cfiCond494) ?BRET_EXT load(1, XDATA, add(CFA_XSP16, literal(-3)))
          CFI (cfiCond494) DPL0 load(1, XDATA, add(CFA_XSP16, literal(-2)))
          CFI (cfiCond494) DPH0 load(1, XDATA, add(CFA_XSP16, literal(-1)))
          CFI (cfiCond494) CFA_SP SP+-6
          CFI (cfiCond494) CFA_XSP16 add(XSP16, 35)
          CFI Block cfiCond495 Using cfiCommon0
          CFI (cfiCond495) Function ZDSecMgrCtrlSet
          CFI (cfiCond495) Conditional ??CrossCallReturnLabel_214, ??CrossCallReturnLabel_210, ??CrossCallReturnLabel_195
          CFI (cfiCond495) R6 load(1, XDATA, add(CFA_XSP16, literal(-9)))
          CFI (cfiCond495) VB load(1, XDATA, add(CFA_XSP16, literal(-8)))
          CFI (cfiCond495) V0 load(1, XDATA, add(CFA_XSP16, literal(-7)))
          CFI (cfiCond495) R7 load(1, XDATA, add(CFA_XSP16, literal(-6)))
          CFI (cfiCond495) ?RET_LOW load(1, XDATA, add(CFA_XSP16, literal(-5)))
          CFI (cfiCond495) ?RET_HIGH load(1, XDATA, add(CFA_XSP16, literal(-4)))
          CFI (cfiCond495) ?BRET_EXT load(1, XDATA, add(CFA_XSP16, literal(-3)))
          CFI (cfiCond495) DPL0 load(1, XDATA, add(CFA_XSP16, literal(-2)))
          CFI (cfiCond495) DPH0 load(1, XDATA, add(CFA_XSP16, literal(-1)))
          CFI (cfiCond495) CFA_SP SP+-6
          CFI (cfiCond495) CFA_XSP16 add(XSP16, 9)
          CFI Block cfiCond496 Using cfiCommon0
          CFI (cfiCond496) Function ZDSecMgrEstablishKey
          CFI (cfiCond496) Conditional ??CrossCallReturnLabel_214, ??CrossCallReturnLabel_210, ??CrossCallReturnLabel_196
          CFI (cfiCond496) R6 load(1, XDATA, add(CFA_XSP16, literal(-10)))
          CFI (cfiCond496) VB load(1, XDATA, add(CFA_XSP16, literal(-9)))
          CFI (cfiCond496) V0 load(1, XDATA, add(CFA_XSP16, literal(-8)))
          CFI (cfiCond496) V1 load(1, XDATA, add(CFA_XSP16, literal(-7)))
          CFI (cfiCond496) R7 load(1, XDATA, add(CFA_XSP16, literal(-6)))
          CFI (cfiCond496) ?RET_LOW load(1, XDATA, add(CFA_XSP16, literal(-5)))
          CFI (cfiCond496) ?RET_HIGH load(1, XDATA, add(CFA_XSP16, literal(-4)))
          CFI (cfiCond496) ?BRET_EXT load(1, XDATA, add(CFA_XSP16, literal(-3)))
          CFI (cfiCond496) DPL0 load(1, XDATA, add(CFA_XSP16, literal(-2)))
          CFI (cfiCond496) DPH0 load(1, XDATA, add(CFA_XSP16, literal(-1)))
          CFI (cfiCond496) CFA_SP SP+-6
          CFI (cfiCond496) CFA_XSP16 add(XSP16, 17)
          CFI Block cfiCond497 Using cfiCommon0
          CFI (cfiCond497) Function ZDSecMgrSendMasterKey
          CFI (cfiCond497) Conditional ??CrossCallReturnLabel_214, ??CrossCallReturnLabel_210, ??CrossCallReturnLabel_197
          CFI (cfiCond497) R6 load(1, XDATA, add(CFA_XSP16, literal(-10)))
          CFI (cfiCond497) VB load(1, XDATA, add(CFA_XSP16, literal(-9)))
          CFI (cfiCond497) V0 load(1, XDATA, add(CFA_XSP16, literal(-8)))
          CFI (cfiCond497) V1 load(1, XDATA, add(CFA_XSP16, literal(-7)))
          CFI (cfiCond497) R7 load(1, XDATA, add(CFA_XSP16, literal(-6)))
          CFI (cfiCond497) ?RET_LOW load(1, XDATA, add(CFA_XSP16, literal(-5)))
          CFI (cfiCond497) ?RET_HIGH load(1, XDATA, add(CFA_XSP16, literal(-4)))
          CFI (cfiCond497) ?BRET_EXT load(1, XDATA, add(CFA_XSP16, literal(-3)))
          CFI (cfiCond497) DPL0 load(1, XDATA, add(CFA_XSP16, literal(-2)))
          CFI (cfiCond497) DPH0 load(1, XDATA, add(CFA_XSP16, literal(-1)))
          CFI (cfiCond497) CFA_SP SP+-6
          CFI (cfiCond497) CFA_XSP16 add(XSP16, 23)
          CFI Block cfiCond498 Using cfiCommon0
          CFI (cfiCond498) Function ZDSecMgrEvent
          CFI (cfiCond498) Conditional ??CrossCallReturnLabel_214, ??CrossCallReturnLabel_210, ??CrossCallReturnLabel_198
          CFI (cfiCond498) R6 load(1, XDATA, add(CFA_XSP16, literal(-10)))
          CFI (cfiCond498) VB load(1, XDATA, add(CFA_XSP16, literal(-9)))
          CFI (cfiCond498) V0 load(1, XDATA, add(CFA_XSP16, literal(-8)))
          CFI (cfiCond498) V1 load(1, XDATA, add(CFA_XSP16, literal(-7)))
          CFI (cfiCond498) R7 load(1, XDATA, add(CFA_XSP16, literal(-6)))
          CFI (cfiCond498) ?RET_LOW load(1, XDATA, add(CFA_XSP16, literal(-5)))
          CFI (cfiCond498) ?RET_HIGH load(1, XDATA, add(CFA_XSP16, literal(-4)))
          CFI (cfiCond498) ?BRET_EXT load(1, XDATA, add(CFA_XSP16, literal(-3)))
          CFI (cfiCond498) DPL0 load(1, XDATA, add(CFA_XSP16, literal(-2)))
          CFI (cfiCond498) DPH0 load(1, XDATA, add(CFA_XSP16, literal(-1)))
          CFI (cfiCond498) CFA_SP SP+-6
          CFI (cfiCond498) CFA_XSP16 add(XSP16, 33)
          CFI Block cfiCond499 Using cfiCommon0
          CFI (cfiCond499) Function ZDSecMgrEstablishKeyInd
          CFI (cfiCond499) Conditional ??CrossCallReturnLabel_214, ??CrossCallReturnLabel_210, ??CrossCallReturnLabel_199
          CFI (cfiCond499) R6 load(1, XDATA, add(CFA_XSP16, literal(-14)))
          CFI (cfiCond499) VB load(1, XDATA, add(CFA_XSP16, literal(-13)))
          CFI (cfiCond499) V0 load(1, XDATA, add(CFA_XSP16, literal(-12)))
          CFI (cfiCond499) V1 load(1, XDATA, add(CFA_XSP16, literal(-11)))
          CFI (cfiCond499) V2 load(1, XDATA, add(CFA_XSP16, literal(-10)))
          CFI (cfiCond499) V3 load(1, XDATA, add(CFA_XSP16, literal(-9)))
          CFI (cfiCond499) V4 load(1, XDATA, add(CFA_XSP16, literal(-8)))
          CFI (cfiCond499) V5 load(1, XDATA, add(CFA_XSP16, literal(-7)))
          CFI (cfiCond499) R7 load(1, XDATA, add(CFA_XSP16, literal(-6)))
          CFI (cfiCond499) ?RET_LOW load(1, XDATA, add(CFA_XSP16, literal(-5)))
          CFI (cfiCond499) ?RET_HIGH load(1, XDATA, add(CFA_XSP16, literal(-4)))
          CFI (cfiCond499) ?BRET_EXT load(1, XDATA, add(CFA_XSP16, literal(-3)))
          CFI (cfiCond499) DPL0 load(1, XDATA, add(CFA_XSP16, literal(-2)))
          CFI (cfiCond499) DPH0 load(1, XDATA, add(CFA_XSP16, literal(-1)))
          CFI (cfiCond499) CFA_SP SP+-6
          CFI (cfiCond499) CFA_XSP16 add(XSP16, 31)
          CFI Block cfiCond500 Using cfiCommon0
          CFI (cfiCond500) Function ZDSecMgrAuthenticateInd
          CFI (cfiCond500) Conditional ??CrossCallReturnLabel_214, ??CrossCallReturnLabel_210, ??CrossCallReturnLabel_200
          CFI (cfiCond500) R6 load(1, XDATA, add(CFA_XSP16, literal(-12)))
          CFI (cfiCond500) VB load(1, XDATA, add(CFA_XSP16, literal(-11)))
          CFI (cfiCond500) V0 load(1, XDATA, add(CFA_XSP16, literal(-10)))
          CFI (cfiCond500) V1 load(1, XDATA, add(CFA_XSP16, literal(-9)))
          CFI (cfiCond500) V2 load(1, XDATA, add(CFA_XSP16, literal(-8)))
          CFI (cfiCond500) V3 load(1, XDATA, add(CFA_XSP16, literal(-7)))
          CFI (cfiCond500) R7 load(1, XDATA, add(CFA_XSP16, literal(-6)))
          CFI (cfiCond500) ?RET_LOW load(1, XDATA, add(CFA_XSP16, literal(-5)))
          CFI (cfiCond500) ?RET_HIGH load(1, XDATA, add(CFA_XSP16, literal(-4)))
          CFI (cfiCond500) ?BRET_EXT load(1, XDATA, add(CFA_XSP16, literal(-3)))
          CFI (cfiCond500) DPL0 load(1, XDATA, add(CFA_XSP16, literal(-2)))
          CFI (cfiCond500) DPH0 load(1, XDATA, add(CFA_XSP16, literal(-1)))
          CFI (cfiCond500) CFA_SP SP+-6
          CFI (cfiCond500) CFA_XSP16 add(XSP16, 32)
          CFI Block cfiCond501 Using cfiCommon0
          CFI (cfiCond501) Function ZDSecMgrAuthenticateInd
          CFI (cfiCond501) Conditional ??CrossCallReturnLabel_214, ??CrossCallReturnLabel_210, ??CrossCallReturnLabel_201
          CFI (cfiCond501) R6 load(1, XDATA, add(CFA_XSP16, literal(-12)))
          CFI (cfiCond501) VB load(1, XDATA, add(CFA_XSP16, literal(-11)))
          CFI (cfiCond501) V0 load(1, XDATA, add(CFA_XSP16, literal(-10)))
          CFI (cfiCond501) V1 load(1, XDATA, add(CFA_XSP16, literal(-9)))
          CFI (cfiCond501) V2 load(1, XDATA, add(CFA_XSP16, literal(-8)))
          CFI (cfiCond501) V3 load(1, XDATA, add(CFA_XSP16, literal(-7)))
          CFI (cfiCond501) R7 load(1, XDATA, add(CFA_XSP16, literal(-6)))
          CFI (cfiCond501) ?RET_LOW load(1, XDATA, add(CFA_XSP16, literal(-5)))
          CFI (cfiCond501) ?RET_HIGH load(1, XDATA, add(CFA_XSP16, literal(-4)))
          CFI (cfiCond501) ?BRET_EXT load(1, XDATA, add(CFA_XSP16, literal(-3)))
          CFI (cfiCond501) DPL0 load(1, XDATA, add(CFA_XSP16, literal(-2)))
          CFI (cfiCond501) DPH0 load(1, XDATA, add(CFA_XSP16, literal(-1)))
          CFI (cfiCond501) CFA_SP SP+-6
          CFI (cfiCond501) CFA_XSP16 add(XSP16, 32)
          CFI Block cfiCond502 Using cfiCommon0
          CFI (cfiCond502) Function ZDSecMgrWriteNV
          CFI (cfiCond502) Conditional ??CrossCallReturnLabel_214, ??CrossCallReturnLabel_210, ??CrossCallReturnLabel_202
          CFI (cfiCond502) R6 load(1, XDATA, add(CFA_XSP16, literal(-10)))
          CFI (cfiCond502) VB load(1, XDATA, add(CFA_XSP16, literal(-9)))
          CFI (cfiCond502) V0 load(1, XDATA, add(CFA_XSP16, literal(-8)))
          CFI (cfiCond502) V1 load(1, XDATA, add(CFA_XSP16, literal(-7)))
          CFI (cfiCond502) R7 load(1, XDATA, add(CFA_XSP16, literal(-6)))
          CFI (cfiCond502) ?RET_LOW load(1, XDATA, add(CFA_XSP16, literal(-5)))
          CFI (cfiCond502) ?RET_HIGH load(1, XDATA, add(CFA_XSP16, literal(-4)))
          CFI (cfiCond502) ?BRET_EXT load(1, XDATA, add(CFA_XSP16, literal(-3)))
          CFI (cfiCond502) DPL0 load(1, XDATA, add(CFA_XSP16, literal(-2)))
          CFI (cfiCond502) DPH0 load(1, XDATA, add(CFA_XSP16, literal(-1)))
          CFI (cfiCond502) CFA_SP SP+-6
          CFI (cfiCond502) CFA_XSP16 add(XSP16, 16)
          CFI Block cfiCond503 Using cfiCommon0
          CFI (cfiCond503) Function ZDSecMgrRestoreFromNV
          CFI (cfiCond503) Conditional ??CrossCallReturnLabel_214, ??CrossCallReturnLabel_210, ??CrossCallReturnLabel_203
          CFI (cfiCond503) R6 load(1, XDATA, add(CFA_XSP16, literal(-13)))
          CFI (cfiCond503) VB load(1, XDATA, add(CFA_XSP16, literal(-12)))
          CFI (cfiCond503) V0 load(1, XDATA, add(CFA_XSP16, literal(-11)))
          CFI (cfiCond503) V1 load(1, XDATA, add(CFA_XSP16, literal(-10)))
          CFI (cfiCond503) V2 load(1, XDATA, add(CFA_XSP16, literal(-9)))
          CFI (cfiCond503) V3 load(1, XDATA, add(CFA_XSP16, literal(-8)))
          CFI (cfiCond503) V4 load(1, XDATA, add(CFA_XSP16, literal(-7)))
          CFI (cfiCond503) R7 load(1, XDATA, add(CFA_XSP16, literal(-6)))
          CFI (cfiCond503) ?RET_LOW load(1, XDATA, add(CFA_XSP16, literal(-5)))
          CFI (cfiCond503) ?RET_HIGH load(1, XDATA, add(CFA_XSP16, literal(-4)))
          CFI (cfiCond503) ?BRET_EXT load(1, XDATA, add(CFA_XSP16, literal(-3)))
          CFI (cfiCond503) DPL0 load(1, XDATA, add(CFA_XSP16, literal(-2)))
          CFI (cfiCond503) DPH0 load(1, XDATA, add(CFA_XSP16, literal(-1)))
          CFI (cfiCond503) CFA_SP SP+-6
          CFI (cfiCond503) CFA_XSP16 add(XSP16, 15)
          CFI Block cfiCond504 Using cfiCommon0
          CFI (cfiCond504) Function ZDSecMgrAPSRemove
          CFI (cfiCond504) Conditional ??CrossCallReturnLabel_214, ??CrossCallReturnLabel_210, ??CrossCallReturnLabel_204
          CFI (cfiCond504) DPL0 Frame(CFA_SP, 4)
          CFI (cfiCond504) DPH0 Frame(CFA_SP, 5)
          CFI (cfiCond504) CFA_SP SP+-11
          CFI (cfiCond504) CFA_XSP16 add(XSP16, 10)
          CFI Block cfiCond505 Using cfiCommon0
          CFI (cfiCond505) Function ZDSecMgrNewDeviceEvent
          CFI (cfiCond505) Conditional ??CrossCallReturnLabel_213, ??CrossCallReturnLabel_99, ??CrossCallReturnLabel_160
          CFI (cfiCond505) R6 load(1, XDATA, add(CFA_XSP16, literal(-12)))
          CFI (cfiCond505) VB load(1, XDATA, add(CFA_XSP16, literal(-11)))
          CFI (cfiCond505) V0 load(1, XDATA, add(CFA_XSP16, literal(-10)))
          CFI (cfiCond505) V1 load(1, XDATA, add(CFA_XSP16, literal(-9)))
          CFI (cfiCond505) V2 load(1, XDATA, add(CFA_XSP16, literal(-8)))
          CFI (cfiCond505) V3 load(1, XDATA, add(CFA_XSP16, literal(-7)))
          CFI (cfiCond505) R7 load(1, XDATA, add(CFA_XSP16, literal(-6)))
          CFI (cfiCond505) ?RET_LOW load(1, XDATA, add(CFA_XSP16, literal(-5)))
          CFI (cfiCond505) ?RET_HIGH load(1, XDATA, add(CFA_XSP16, literal(-4)))
          CFI (cfiCond505) ?BRET_EXT load(1, XDATA, add(CFA_XSP16, literal(-3)))
          CFI (cfiCond505) DPL0 load(1, XDATA, add(CFA_XSP16, literal(-2)))
          CFI (cfiCond505) DPH0 load(1, XDATA, add(CFA_XSP16, literal(-1)))
          CFI (cfiCond505) CFA_SP SP+-6
          CFI (cfiCond505) CFA_XSP16 add(XSP16, 35)
          CFI Block cfiCond506 Using cfiCommon0
          CFI (cfiCond506) Function ZDSecMgrEvent
          CFI (cfiCond506) Conditional ??CrossCallReturnLabel_213, ??CrossCallReturnLabel_99, ??CrossCallReturnLabel_161
          CFI (cfiCond506) R6 load(1, XDATA, add(CFA_XSP16, literal(-10)))
          CFI (cfiCond506) VB load(1, XDATA, add(CFA_XSP16, literal(-9)))
          CFI (cfiCond506) V0 load(1, XDATA, add(CFA_XSP16, literal(-8)))
          CFI (cfiCond506) V1 load(1, XDATA, add(CFA_XSP16, literal(-7)))
          CFI (cfiCond506) R7 load(1, XDATA, add(CFA_XSP16, literal(-6)))
          CFI (cfiCond506) ?RET_LOW load(1, XDATA, add(CFA_XSP16, literal(-5)))
          CFI (cfiCond506) ?RET_HIGH load(1, XDATA, add(CFA_XSP16, literal(-4)))
          CFI (cfiCond506) ?BRET_EXT load(1, XDATA, add(CFA_XSP16, literal(-3)))
          CFI (cfiCond506) DPL0 load(1, XDATA, add(CFA_XSP16, literal(-2)))
          CFI (cfiCond506) DPH0 load(1, XDATA, add(CFA_XSP16, literal(-1)))
          CFI (cfiCond506) CFA_SP SP+-6
          CFI (cfiCond506) CFA_XSP16 add(XSP16, 33)
          CFI Block cfiCond507 Using cfiCommon0
          CFI (cfiCond507) Function ZDSecMgrUpdateDeviceInd
          CFI (cfiCond507) Conditional ??CrossCallReturnLabel_213, ??CrossCallReturnLabel_99, ??CrossCallReturnLabel_162
          CFI (cfiCond507) DPL0 Frame(CFA_SP, 4)
          CFI (cfiCond507) DPH0 Frame(CFA_SP, 5)
          CFI (cfiCond507) CFA_SP SP+-11
          CFI (cfiCond507) CFA_XSP16 add(XSP16, 10)
          CFI Block cfiCond508 Using cfiCommon0
          CFI (cfiCond508) Function ZDSecMgrSendNwkKey
          CFI (cfiCond508) Conditional ??CrossCallReturnLabel_213, ??CrossCallReturnLabel_100, ??CrossCallReturnLabel_59
          CFI (cfiCond508) R6 load(1, XDATA, add(CFA_XSP16, literal(-12)))
          CFI (cfiCond508) VB load(1, XDATA, add(CFA_XSP16, literal(-11)))
          CFI (cfiCond508) V0 load(1, XDATA, add(CFA_XSP16, literal(-10)))
          CFI (cfiCond508) V1 load(1, XDATA, add(CFA_XSP16, literal(-9)))
          CFI (cfiCond508) V2 load(1, XDATA, add(CFA_XSP16, literal(-8)))
          CFI (cfiCond508) V3 load(1, XDATA, add(CFA_XSP16, literal(-7)))
          CFI (cfiCond508) R7 load(1, XDATA, add(CFA_XSP16, literal(-6)))
          CFI (cfiCond508) ?RET_LOW load(1, XDATA, add(CFA_XSP16, literal(-5)))
          CFI (cfiCond508) ?RET_HIGH load(1, XDATA, add(CFA_XSP16, literal(-4)))
          CFI (cfiCond508) ?BRET_EXT load(1, XDATA, add(CFA_XSP16, literal(-3)))
          CFI (cfiCond508) DPL0 load(1, XDATA, add(CFA_XSP16, literal(-2)))
          CFI (cfiCond508) DPH0 load(1, XDATA, add(CFA_XSP16, literal(-1)))
          CFI (cfiCond508) CFA_SP SP+-6
          CFI (cfiCond508) CFA_XSP16 add(XSP16, 25)
          CFI Block cfiCond509 Using cfiCommon0
          CFI (cfiCond509) Function ZDSecMgrAddLinkKey
          CFI (cfiCond509) Conditional ??CrossCallReturnLabel_213, ??CrossCallReturnLabel_100, ??CrossCallReturnLabel_60
          CFI (cfiCond509) R6 load(1, XDATA, add(CFA_XSP16, literal(-10)))
          CFI (cfiCond509) VB load(1, XDATA, add(CFA_XSP16, literal(-9)))
          CFI (cfiCond509) V0 load(1, XDATA, add(CFA_XSP16, literal(-8)))
          CFI (cfiCond509) V1 load(1, XDATA, add(CFA_XSP16, literal(-7)))
          CFI (cfiCond509) R7 load(1, XDATA, add(CFA_XSP16, literal(-6)))
          CFI (cfiCond509) ?RET_LOW load(1, XDATA, add(CFA_XSP16, literal(-5)))
          CFI (cfiCond509) ?RET_HIGH load(1, XDATA, add(CFA_XSP16, literal(-4)))
          CFI (cfiCond509) ?BRET_EXT load(1, XDATA, add(CFA_XSP16, literal(-3)))
          CFI (cfiCond509) DPL0 load(1, XDATA, add(CFA_XSP16, literal(-2)))
          CFI (cfiCond509) DPH0 load(1, XDATA, add(CFA_XSP16, literal(-1)))
          CFI (cfiCond509) CFA_SP SP+-6
          CFI (cfiCond509) CFA_XSP16 add(XSP16, 14)
          CFI Block cfiPicker510 Using cfiCommon1
          CFI (cfiPicker510) NoFunction
          CFI (cfiPicker510) Picker
        MOVX      A,@DPTR
        MOV       R0,A
        INC       DPTR
        MOVX      A,@DPTR
        MOV       R1,A
        RET
          CFI EndBlock cfiCond460
          CFI EndBlock cfiCond461
          CFI EndBlock cfiCond462
          CFI EndBlock cfiCond463
          CFI EndBlock cfiCond464
          CFI EndBlock cfiCond465
          CFI EndBlock cfiCond466
          CFI EndBlock cfiCond467
          CFI EndBlock cfiCond468
          CFI EndBlock cfiCond469
          CFI EndBlock cfiCond470
          CFI EndBlock cfiCond471
          CFI EndBlock cfiCond472
          CFI EndBlock cfiCond473
          CFI EndBlock cfiCond474
          CFI EndBlock cfiCond475
          CFI EndBlock cfiCond476
          CFI EndBlock cfiCond477
          CFI EndBlock cfiCond478
          CFI EndBlock cfiCond479
          CFI EndBlock cfiCond480
          CFI EndBlock cfiCond481
          CFI EndBlock cfiCond482
          CFI EndBlock cfiCond483
          CFI EndBlock cfiCond484
          CFI EndBlock cfiCond485
          CFI EndBlock cfiCond486
          CFI EndBlock cfiCond487
          CFI EndBlock cfiCond488
          CFI EndBlock cfiCond489
          CFI EndBlock cfiCond490
          CFI EndBlock cfiCond491
          CFI EndBlock cfiCond492
          CFI EndBlock cfiCond493
          CFI EndBlock cfiCond494
          CFI EndBlock cfiCond495
          CFI EndBlock cfiCond496
          CFI EndBlock cfiCond497
          CFI EndBlock cfiCond498
          CFI EndBlock cfiCond499
          CFI EndBlock cfiCond500
          CFI EndBlock cfiCond501
          CFI EndBlock cfiCond502
          CFI EndBlock cfiCond503
          CFI EndBlock cfiCond504
          CFI EndBlock cfiCond505
          CFI EndBlock cfiCond506
          CFI EndBlock cfiCond507
          CFI EndBlock cfiCond508
          CFI EndBlock cfiCond509
          CFI EndBlock cfiPicker510

        RSEG BANKED_CODE:HUGECODE:NOROOT(0)
?Subroutine17:
          CFI Block cfiCond511 Using cfiCommon0
          CFI Function ZDSecMgrEvent
          CFI Conditional ??CrossCallReturnLabel_0
          CFI R6 load(1, XDATA, add(CFA_XSP16, literal(-10)))
          CFI VB load(1, XDATA, add(CFA_XSP16, literal(-9)))
          CFI V0 load(1, XDATA, add(CFA_XSP16, literal(-8)))
          CFI V1 load(1, XDATA, add(CFA_XSP16, literal(-7)))
          CFI R7 load(1, XDATA, add(CFA_XSP16, literal(-6)))
          CFI ?RET_LOW load(1, XDATA, add(CFA_XSP16, literal(-5)))
          CFI ?RET_HIGH load(1, XDATA, add(CFA_XSP16, literal(-4)))
          CFI ?BRET_EXT load(1, XDATA, add(CFA_XSP16, literal(-3)))
          CFI DPL0 load(1, XDATA, add(CFA_XSP16, literal(-2)))
          CFI DPH0 load(1, XDATA, add(CFA_XSP16, literal(-1)))
          CFI CFA_SP SP+-2
          CFI CFA_XSP16 add(XSP16, 33)
          CFI Block cfiCond512 Using cfiCommon0
          CFI (cfiCond512) Function ZDSecMgrUpdateDeviceInd
          CFI (cfiCond512) Conditional ??CrossCallReturnLabel_1
          CFI (cfiCond512) DPL0 Frame(CFA_SP, 4)
          CFI (cfiCond512) DPH0 Frame(CFA_SP, 5)
          CFI (cfiCond512) CFA_SP SP+-7
          CFI (cfiCond512) CFA_XSP16 add(XSP16, 10)
          CFI Block cfiCond513 Using cfiCommon0
          CFI (cfiCond513) Function ZDSecMgrAuthenticateInd
          CFI (cfiCond513) Conditional ??CrossCallReturnLabel_2
          CFI (cfiCond513) R6 load(1, XDATA, add(CFA_XSP16, literal(-12)))
          CFI (cfiCond513) VB load(1, XDATA, add(CFA_XSP16, literal(-11)))
          CFI (cfiCond513) V0 load(1, XDATA, add(CFA_XSP16, literal(-10)))
          CFI (cfiCond513) V1 load(1, XDATA, add(CFA_XSP16, literal(-9)))
          CFI (cfiCond513) V2 load(1, XDATA, add(CFA_XSP16, literal(-8)))
          CFI (cfiCond513) V3 load(1, XDATA, add(CFA_XSP16, literal(-7)))
          CFI (cfiCond513) R7 load(1, XDATA, add(CFA_XSP16, literal(-6)))
          CFI (cfiCond513) ?RET_LOW load(1, XDATA, add(CFA_XSP16, literal(-5)))
          CFI (cfiCond513) ?RET_HIGH load(1, XDATA, add(CFA_XSP16, literal(-4)))
          CFI (cfiCond513) ?BRET_EXT load(1, XDATA, add(CFA_XSP16, literal(-3)))
          CFI (cfiCond513) DPL0 load(1, XDATA, add(CFA_XSP16, literal(-2)))
          CFI (cfiCond513) DPH0 load(1, XDATA, add(CFA_XSP16, literal(-1)))
          CFI (cfiCond513) CFA_SP SP+-2
          CFI (cfiCond513) CFA_XSP16 add(XSP16, 32)
          CFI Block cfiCond514 Using cfiCommon0
          CFI (cfiCond514) Function ZDSecMgrAPSRemove
          CFI (cfiCond514) Conditional ??CrossCallReturnLabel_3
          CFI (cfiCond514) DPL0 Frame(CFA_SP, 4)
          CFI (cfiCond514) DPH0 Frame(CFA_SP, 5)
          CFI (cfiCond514) CFA_SP SP+-7
          CFI (cfiCond514) CFA_XSP16 add(XSP16, 10)
          CFI Block cfiPicker515 Using cfiCommon1
          CFI (cfiPicker515) NoFunction
          CFI (cfiPicker515) Picker
        LCALL     ??Subroutine97_0 & 0xFFFF
??CrossCallReturnLabel_186:
        ; Setup parameters for call to function ZDSecMgrDeviceCtrlHandler
        ; Setup parameters for call to function ZDSecMgrDeviceJoin
        ; Setup parameters for call to function APSME_AuthenticateReq
        ; Setup parameters for call to function ZDSecMgrDeviceRemove
        MOV       R2,?XSP + 0
        MOV       R3,?XSP + 1
        RET
          CFI EndBlock cfiCond511
          CFI EndBlock cfiCond512
          CFI EndBlock cfiCond513
          CFI EndBlock cfiCond514
          CFI EndBlock cfiPicker515
// 3026 
// 3027 /******************************************************************************
// 3028  * @fn          ZDSecMgrAuthenticateCfm
// 3029  *
// 3030  * @brief       Process the ZDO_AuthenticateCfm_t message.
// 3031  *
// 3032  * @param       cfm - [in] ZDO_AuthenticateCfm_t confirmation
// 3033  *
// 3034  * @return      none
// 3035  */

        RSEG BANKED_CODE:HUGECODE:NOROOT(0)
// 3036 void ZDSecMgrAuthenticateCfm( ZDO_AuthenticateCfm_t* cfm )
ZDSecMgrAuthenticateCfm:
          CFI Block cfiBlock516 Using cfiCommon0
          CFI Function ZDSecMgrAuthenticateCfm
        CODE
// 3037 {
        FUNCALL ZDSecMgrAuthenticateCfm, osal_set_event
        LOCFRAME ISTACK, 2, STACK
        LOCFRAME PSTACK, 0, STACK
        LOCFRAME XSTACK, 0, STACK
        LOCFRAME IOVERLAY, 0, STATIC
        LOCFRAME DOVERLAY, 0, STATIC
        ARGFRAME ISTACK, 2, STACK
        ARGFRAME PSTACK, 0, STACK
        ARGFRAME XSTACK, 0, STACK
        ARGFRAME IOVERLAY, 0, STATIC
        ARGFRAME DOVERLAY, 0, STATIC
        PUSH      DPL
          CFI DPL0 Frame(CFA_SP, 4)
          CFI CFA_SP SP+-4
        PUSH      DPH
          CFI DPH0 Frame(CFA_SP, 5)
          CFI CFA_SP SP+-5
        ; Saved register size: 2
        ; Auto size: 0
// 3038   if ( cfm->aps.status == ZSuccess )
        MOV       A,R2
        ADD       A,#0xb
        MOV       DPL,A
        CLR       A
        ADDC      A,R3
        MOV       DPH,A
        MOVX      A,@DPTR
        JNZ       ??ZDSecMgrAuthenticateCfm_0
// 3039   {
// 3040     if ( ( cfm->aps.initiator == TRUE ) && ( devState == DEV_END_DEVICE_UNAUTH ) )
        MOV       DPL,R2
        MOV       DPH,R3
        INC       DPTR
        INC       DPTR
        MOVX      A,@DPTR
        XRL       A,#0x1
        JNZ       ??ZDSecMgrAuthenticateCfm_0
        MOV       DPTR,#devState
        MOVX      A,@DPTR
        XRL       A,#0x5
        JNZ       ??ZDSecMgrAuthenticateCfm_0
// 3041     {
// 3042       // inform ZDO that device has been authenticated
// 3043       osal_set_event ( ZDAppTaskID, ZDO_DEVICE_AUTH );
        ; Setup parameters for call to function osal_set_event
        MOV       R2,#-0x80
        MOV       R3,#0x0
        MOV       DPTR,#ZDAppTaskID
        MOVX      A,@DPTR
        MOV       R1,A
        LCALL     `??osal_set_event::?relay`; Banked call to: osal_set_event
// 3044     }
// 3045   }
// 3046 }
??ZDSecMgrAuthenticateCfm_0:
        LJMP      ??Subroutine86_0 & 0xFFFF
          CFI EndBlock cfiBlock516
// 3047 
// 3048 #if ( ZG_BUILD_COORDINATOR_TYPE )
// 3049 /******************************************************************************
// 3050  * @fn          ZDSecMgrUpdateNwkKey
// 3051  *
// 3052  * @brief       Load a new NWK key and trigger a network wide update.
// 3053  *
// 3054  * @param       key       - [in] new NWK key
// 3055  * @param       keySeqNum - [in] new NWK key sequence number
// 3056  *
// 3057  * @return      ZStatus_t
// 3058  */

        RSEG BANKED_CODE:HUGECODE:NOROOT(0)
// 3059 ZStatus_t ZDSecMgrUpdateNwkKey( uint8* key, uint8 keySeqNum, uint16 dstAddr )
ZDSecMgrUpdateNwkKey:
          CFI Block cfiBlock517 Using cfiCommon0
          CFI Function ZDSecMgrUpdateNwkKey
        CODE
// 3060 {
        FUNCALL ZDSecMgrUpdateNwkKey, APSME_TransportKeyReq
        LOCFRAME ISTACK, 0, STACK
        LOCFRAME PSTACK, 0, STACK
        LOCFRAME XSTACK, 23, STACK
        LOCFRAME IOVERLAY, 0, STATIC
        LOCFRAME DOVERLAY, 0, STATIC
        ARGFRAME ISTACK, 0, STACK
        ARGFRAME PSTACK, 0, STACK
        ARGFRAME XSTACK, 23, STACK
        ARGFRAME IOVERLAY, 0, STATIC
        ARGFRAME DOVERLAY, 0, STATIC
        FUNCALL ZDSecMgrUpdateNwkKey, SSP_UpdateNwkKey
        LOCFRAME ISTACK, 0, STACK
        LOCFRAME PSTACK, 0, STACK
        LOCFRAME XSTACK, 23, STACK
        LOCFRAME IOVERLAY, 0, STATIC
        LOCFRAME DOVERLAY, 0, STATIC
        ARGFRAME ISTACK, 0, STACK
        ARGFRAME PSTACK, 0, STACK
        ARGFRAME XSTACK, 23, STACK
        ARGFRAME IOVERLAY, 0, STATIC
        ARGFRAME DOVERLAY, 0, STATIC
        FUNCALL ZDSecMgrUpdateNwkKey, ZDApp_NVUpdate
        LOCFRAME ISTACK, 0, STACK
        LOCFRAME PSTACK, 0, STACK
        LOCFRAME XSTACK, 23, STACK
        LOCFRAME IOVERLAY, 0, STATIC
        LOCFRAME DOVERLAY, 0, STATIC
        ARGFRAME ISTACK, 0, STACK
        ARGFRAME PSTACK, 0, STACK
        ARGFRAME XSTACK, 23, STACK
        ARGFRAME IOVERLAY, 0, STATIC
        ARGFRAME DOVERLAY, 0, STATIC
        REQUIRE ?V0
        REQUIRE ?V1
        MOV       A,#-0xa
        LCALL     ?BANKED_ENTER_XDATA
          CFI DPH0 load(1, XDATA, add(CFA_XSP16, literal(-1)))
          CFI DPL0 load(1, XDATA, add(CFA_XSP16, literal(-2)))
          CFI ?BRET_EXT load(1, XDATA, add(CFA_XSP16, literal(-3)))
          CFI ?RET_HIGH load(1, XDATA, add(CFA_XSP16, literal(-4)))
          CFI ?RET_LOW load(1, XDATA, add(CFA_XSP16, literal(-5)))
          CFI R7 load(1, XDATA, add(CFA_XSP16, literal(-6)))
          CFI V1 load(1, XDATA, add(CFA_XSP16, literal(-7)))
          CFI V0 load(1, XDATA, add(CFA_XSP16, literal(-8)))
          CFI VB load(1, XDATA, add(CFA_XSP16, literal(-9)))
          CFI R6 load(1, XDATA, add(CFA_XSP16, literal(-10)))
          CFI CFA_SP SP+0
          CFI CFA_XSP16 add(XSP16, 10)
        ; Saved register size: 10
        ; Auto size: 13
        MOV       A,#-0xd
        LCALL     ?ALLOC_XSTACK8
          CFI CFA_XSP16 add(XSP16, 23)
        MOV       A,R2
        MOV       R6,A
        MOV       A,R3
        MOV       R7,A
        MOV       ?V1,R1
// 3061   ZStatus_t               status;
// 3062   APSME_TransportKeyReq_t req;
// 3063 
// 3064   // initialize common elements of local variables
// 3065   if ( ZG_CHECK_SECURITY_MODE == ZG_SECURITY_PRO_HIGH )
// 3066     req.keyType   = KEY_TYPE_NWK_HIGH;
// 3067   else
// 3068     req.keyType   = KEY_TYPE_NWK;
        MOV       A,#0x2
        LCALL     ?XSTACK_DISP0_8
        MOV       A,#0x1
        MOVX      @DPTR,A
// 3069 
// 3070   req.dstAddr   = dstAddr;
        MOV       DPL,?XSP + 0
        MOV       DPH,?XSP + 1
        MOV       A,R4
        MOVX      @DPTR,A
        INC       DPTR
        MOV       A,R5
        MOVX      @DPTR,A
// 3071   req.keySeqNum = keySeqNum;
        MOV       A,#0x3
        LCALL     ?XSTACK_DISP0_8
        MOV       A,R1
        MOVX      @DPTR,A
// 3072   req.key       = key;
        MOV       A,#0x4
        LCALL     ?XSTACK_DISP0_8
        LCALL     ?Subroutine35 & 0xFFFF
// 3073   req.extAddr   = NULL;
??CrossCallReturnLabel_35:
        MOV       A,#0x6
        LCALL     ?XSTACK_DISP0_8
        CLR       A
        MOVX      @DPTR,A
        INC       DPTR
        MOVX      @DPTR,A
// 3074   req.nwkSecure = TRUE;
        MOV       A,#0xa
        LCALL     ?XSTACK_DISP0_8
        MOV       A,#0x1
        MOVX      @DPTR,A
// 3075   req.apsSecure = TRUE;
        MOV       A,#0x9
        LCALL     ?XSTACK_DISP0_8
        MOV       A,#0x1
        MOVX      @DPTR,A
// 3076   req.tunnel    = NULL;
        MOV       A,#0xb
        LCALL     ?XSTACK_DISP0_8
        CLR       A
        MOVX      @DPTR,A
        INC       DPTR
        LCALL     ?Subroutine32 & 0xFFFF
// 3077 
// 3078   if ( ZG_CHECK_SECURITY_MODE == ZG_SECURITY_PRO_HIGH )
// 3079   {
// 3080     ZDSecMgrEntry_t*        entry;
// 3081     uint16                  index;
// 3082     AddrMgrEntry_t          addrEntry;
// 3083 
// 3084     addrEntry.user = ADDRMGR_USER_SECURITY;
// 3085 
// 3086     status = ZFailure;
// 3087 
// 3088     // verify data is available
// 3089     if ( ZDSecMgrEntries != NULL )
// 3090     {
// 3091       // find available entry
// 3092       for ( index = 0; index < ZDSECMGR_ENTRY_MAX ; index++ )
// 3093       {
// 3094         if ( ZDSecMgrEntries[index].ami != INVALID_NODE_ADDR )
// 3095         {
// 3096           // return successful result
// 3097           entry = &ZDSecMgrEntries[index];
// 3098 
// 3099           // get NWK address
// 3100           addrEntry.index = entry->ami;
// 3101           if ( AddrMgrEntryGet( &addrEntry ) == TRUE )
// 3102           {
// 3103             req.dstAddr = addrEntry.nwkAddr;
// 3104             req.extAddr = addrEntry.extAddr;
// 3105             status = APSME_TransportKeyReq( &req );
// 3106           }
// 3107         }
// 3108       }
// 3109     }
// 3110   }
// 3111   else // ( ZG_CHECK_SECURITY_MODE == ZG_SECURITY_RESIDENTIAL )
// 3112   {
// 3113     status = APSME_TransportKeyReq( &req );
??CrossCallReturnLabel_26:
        MOV       A,R1
        MOV       ?V0,A
// 3114   }
// 3115 
// 3116   SSP_UpdateNwkKey( key, keySeqNum );
        ; Setup parameters for call to function SSP_UpdateNwkKey
        MOV       R1,?V1
        MOV       A,R6
        MOV       R2,A
        MOV       A,R7
        MOV       R3,A
        LCALL     `??SSP_UpdateNwkKey::?relay`; Banked call to: SSP_UpdateNwkKey
// 3117 
// 3118   // Save if nv
// 3119   ZDApp_NVUpdate();
        ; Setup parameters for call to function ZDApp_NVUpdate
        LCALL     `??ZDApp_NVUpdate::?relay`; Banked call to: ZDApp_NVUpdate
// 3120 
// 3121   return status;
        LJMP      ?Subroutine12 & 0xFFFF
// 3122 }
          CFI EndBlock cfiBlock517

        RSEG BANKED_CODE:HUGECODE:NOROOT(0)
?Subroutine32:
          CFI Block cfiCond518 Using cfiCommon0
          CFI Function ZDSecMgrSendMasterKey
          CFI Conditional ??CrossCallReturnLabel_25
          CFI R6 load(1, XDATA, add(CFA_XSP16, literal(-10)))
          CFI VB load(1, XDATA, add(CFA_XSP16, literal(-9)))
          CFI V0 load(1, XDATA, add(CFA_XSP16, literal(-8)))
          CFI V1 load(1, XDATA, add(CFA_XSP16, literal(-7)))
          CFI R7 load(1, XDATA, add(CFA_XSP16, literal(-6)))
          CFI ?RET_LOW load(1, XDATA, add(CFA_XSP16, literal(-5)))
          CFI ?RET_HIGH load(1, XDATA, add(CFA_XSP16, literal(-4)))
          CFI ?BRET_EXT load(1, XDATA, add(CFA_XSP16, literal(-3)))
          CFI DPL0 load(1, XDATA, add(CFA_XSP16, literal(-2)))
          CFI DPH0 load(1, XDATA, add(CFA_XSP16, literal(-1)))
          CFI CFA_SP SP+-2
          CFI CFA_XSP16 add(XSP16, 23)
          CFI Block cfiCond519 Using cfiCommon0
          CFI (cfiCond519) Function ZDSecMgrUpdateNwkKey
          CFI (cfiCond519) Conditional ??CrossCallReturnLabel_26
          CFI (cfiCond519) R6 load(1, XDATA, add(CFA_XSP16, literal(-10)))
          CFI (cfiCond519) VB load(1, XDATA, add(CFA_XSP16, literal(-9)))
          CFI (cfiCond519) V0 load(1, XDATA, add(CFA_XSP16, literal(-8)))
          CFI (cfiCond519) V1 load(1, XDATA, add(CFA_XSP16, literal(-7)))
          CFI (cfiCond519) R7 load(1, XDATA, add(CFA_XSP16, literal(-6)))
          CFI (cfiCond519) ?RET_LOW load(1, XDATA, add(CFA_XSP16, literal(-5)))
          CFI (cfiCond519) ?RET_HIGH load(1, XDATA, add(CFA_XSP16, literal(-4)))
          CFI (cfiCond519) ?BRET_EXT load(1, XDATA, add(CFA_XSP16, literal(-3)))
          CFI (cfiCond519) DPL0 load(1, XDATA, add(CFA_XSP16, literal(-2)))
          CFI (cfiCond519) DPH0 load(1, XDATA, add(CFA_XSP16, literal(-1)))
          CFI (cfiCond519) CFA_SP SP+-2
          CFI (cfiCond519) CFA_XSP16 add(XSP16, 23)
          CFI Block cfiPicker520 Using cfiCommon1
          CFI (cfiPicker520) NoFunction
          CFI (cfiPicker520) Picker
        MOVX      @DPTR,A
        ; Setup parameters for call to function APSME_TransportKeyReq
        ; Setup parameters for call to function APSME_TransportKeyReq
        MOV       R2,?XSP + 0
        MOV       R3,?XSP + 1
        LCALL     `??APSME_TransportKeyReq::?relay`; Banked call to: APSME_TransportKeyReq
        RET
          CFI EndBlock cfiCond518
          CFI EndBlock cfiCond519
          CFI EndBlock cfiPicker520

        RSEG BANKED_CODE:HUGECODE:NOROOT(0)
?Subroutine2:
          CFI Block cfiBlock521 Using cfiCommon0
          CFI NoFunction
          CFI CFA_SP SP+0
          CFI CFA_XSP16 add(XSP16, 12)
          CFI VB load(1, XDATA, add(CFA_XSP16, literal(-9)))
          CFI DPL0 load(1, XDATA, add(CFA_XSP16, literal(-2)))
          CFI DPH0 load(1, XDATA, add(CFA_XSP16, literal(-1)))
          CFI R6 load(1, XDATA, add(CFA_XSP16, literal(-10)))
          CFI R7 load(1, XDATA, add(CFA_XSP16, literal(-6)))
          CFI V0 load(1, XDATA, add(CFA_XSP16, literal(-8)))
          CFI V1 load(1, XDATA, add(CFA_XSP16, literal(-7)))
          CFI ?BRET_EXT load(1, XDATA, add(CFA_XSP16, literal(-3)))
          CFI ?RET_HIGH load(1, XDATA, add(CFA_XSP16, literal(-4)))
          CFI ?RET_LOW load(1, XDATA, add(CFA_XSP16, literal(-5)))
        MOV       R0,?XSP + 0
        MOV       R1,?XSP + 1
        MOV       ?V0,R0
        MOV       ?V1,R1
        MOV       R0,#?V0
        LCALL     ?PUSH_XSTACK_I_TWO
          CFI CFA_XSP16 add(XSP16, 14)
        MOV       ?V0,#0x2
        MOV       ?V1,#0x0
        MOV       R0,#?V0
        LCALL     ?PUSH_XSTACK_I_TWO
          CFI CFA_XSP16 add(XSP16, 16)
        MOV       R4,#0x0
        MOV       R5,#0x0
        MOV       R2,#0x4c
        MOV       R3,#0x0
        LCALL     `??osal_nv_write::?relay`; Banked call to: osal_nv_write
        MOV       A,#0x4
        LCALL     ?DEALLOC_XSTACK8
          CFI EndBlock cfiBlock521
        REQUIRE ??Subroutine100_0
        ; // Fall through to label ??Subroutine100_0

        RSEG BANKED_CODE:HUGECODE:NOROOT(0)
??Subroutine100_0:
          CFI Block cfiBlock522 Using cfiCommon0
          CFI NoFunction
          CFI CFA_SP SP+0
          CFI CFA_XSP16 add(XSP16, 12)
          CFI VB load(1, XDATA, add(CFA_XSP16, literal(-9)))
          CFI DPL0 load(1, XDATA, add(CFA_XSP16, literal(-2)))
          CFI DPH0 load(1, XDATA, add(CFA_XSP16, literal(-1)))
          CFI R6 load(1, XDATA, add(CFA_XSP16, literal(-10)))
          CFI R7 load(1, XDATA, add(CFA_XSP16, literal(-6)))
          CFI V0 load(1, XDATA, add(CFA_XSP16, literal(-8)))
          CFI V1 load(1, XDATA, add(CFA_XSP16, literal(-7)))
          CFI ?BRET_EXT load(1, XDATA, add(CFA_XSP16, literal(-3)))
          CFI ?RET_HIGH load(1, XDATA, add(CFA_XSP16, literal(-4)))
          CFI ?RET_LOW load(1, XDATA, add(CFA_XSP16, literal(-5)))
        MOV       A,#0x2
          CFI EndBlock cfiBlock522
        REQUIRE ??Subroutine101_0
        ; // Fall through to label ??Subroutine101_0

        RSEG BANKED_CODE:HUGECODE:NOROOT(0)
??Subroutine101_0:
          CFI Block cfiBlock523 Using cfiCommon0
          CFI NoFunction
          CFI CFA_SP SP+0
          CFI CFA_XSP16 add(XSP16, 23)
          CFI VB load(1, XDATA, add(CFA_XSP16, literal(-9)))
          CFI DPL0 load(1, XDATA, add(CFA_XSP16, literal(-2)))
          CFI DPH0 load(1, XDATA, add(CFA_XSP16, literal(-1)))
          CFI R6 load(1, XDATA, add(CFA_XSP16, literal(-10)))
          CFI R7 load(1, XDATA, add(CFA_XSP16, literal(-6)))
          CFI V0 load(1, XDATA, add(CFA_XSP16, literal(-8)))
          CFI V1 load(1, XDATA, add(CFA_XSP16, literal(-7)))
          CFI ?BRET_EXT load(1, XDATA, add(CFA_XSP16, literal(-3)))
          CFI ?RET_HIGH load(1, XDATA, add(CFA_XSP16, literal(-4)))
          CFI ?RET_LOW load(1, XDATA, add(CFA_XSP16, literal(-5)))
          CFI Invalid
        LCALL     ?DEALLOC_XSTACK8
          CFI EndBlock cfiBlock523
        REQUIRE ??Subroutine102_0
        ; // Fall through to label ??Subroutine102_0

        RSEG BANKED_CODE:HUGECODE:NOROOT(0)
??Subroutine102_0:
          CFI Block cfiBlock524 Using cfiCommon0
          CFI NoFunction
          CFI CFA_SP SP+0
          CFI CFA_XSP16 add(XSP16, 10)
          CFI VB load(1, XDATA, add(CFA_XSP16, literal(-9)))
          CFI DPL0 load(1, XDATA, add(CFA_XSP16, literal(-2)))
          CFI DPH0 load(1, XDATA, add(CFA_XSP16, literal(-1)))
          CFI R6 load(1, XDATA, add(CFA_XSP16, literal(-10)))
          CFI R7 load(1, XDATA, add(CFA_XSP16, literal(-6)))
          CFI V0 load(1, XDATA, add(CFA_XSP16, literal(-8)))
          CFI V1 load(1, XDATA, add(CFA_XSP16, literal(-7)))
          CFI ?BRET_EXT load(1, XDATA, add(CFA_XSP16, literal(-3)))
          CFI ?RET_HIGH load(1, XDATA, add(CFA_XSP16, literal(-4)))
          CFI ?RET_LOW load(1, XDATA, add(CFA_XSP16, literal(-5)))
        MOV       R7,#0x2
        LJMP      ?BANKED_LEAVE_XDATA
          CFI EndBlock cfiBlock524
// 3123 #endif // ( ZG_BUILD_COORDINATOR_TYPE )
// 3124 
// 3125 #if ( ZG_BUILD_COORDINATOR_TYPE )
// 3126 /******************************************************************************
// 3127  * @fn          ZDSecMgrSwitchNwkKey
// 3128  *
// 3129  * @brief       Causes the NWK key to switch via a network wide command.
// 3130  *
// 3131  * @param       keySeqNum - [in] new NWK key sequence number
// 3132  *
// 3133  * @return      ZStatus_t
// 3134  */

        RSEG BANKED_CODE:HUGECODE:NOROOT(0)
// 3135 ZStatus_t ZDSecMgrSwitchNwkKey( uint8 keySeqNum, uint16 dstAddr )
ZDSecMgrSwitchNwkKey:
          CFI Block cfiBlock525 Using cfiCommon0
          CFI Function ZDSecMgrSwitchNwkKey
        CODE
// 3136 {
        FUNCALL ZDSecMgrSwitchNwkKey, APSME_SwitchKeyReq
        LOCFRAME ISTACK, 0, STACK
        LOCFRAME PSTACK, 0, STACK
        LOCFRAME XSTACK, 12, STACK
        LOCFRAME IOVERLAY, 0, STATIC
        LOCFRAME DOVERLAY, 0, STATIC
        ARGFRAME ISTACK, 0, STACK
        ARGFRAME PSTACK, 0, STACK
        ARGFRAME XSTACK, 12, STACK
        ARGFRAME IOVERLAY, 0, STATIC
        ARGFRAME DOVERLAY, 0, STATIC
        FUNCALL ZDSecMgrSwitchNwkKey, SSP_SwitchNwkKey
        LOCFRAME ISTACK, 0, STACK
        LOCFRAME PSTACK, 0, STACK
        LOCFRAME XSTACK, 12, STACK
        LOCFRAME IOVERLAY, 0, STATIC
        LOCFRAME DOVERLAY, 0, STATIC
        ARGFRAME ISTACK, 0, STACK
        ARGFRAME PSTACK, 0, STACK
        ARGFRAME XSTACK, 12, STACK
        ARGFRAME IOVERLAY, 0, STATIC
        ARGFRAME DOVERLAY, 0, STATIC
        FUNCALL ZDSecMgrSwitchNwkKey, ZDApp_NVUpdate
        LOCFRAME ISTACK, 0, STACK
        LOCFRAME PSTACK, 0, STACK
        LOCFRAME XSTACK, 12, STACK
        LOCFRAME IOVERLAY, 0, STATIC
        LOCFRAME DOVERLAY, 0, STATIC
        ARGFRAME ISTACK, 0, STACK
        ARGFRAME PSTACK, 0, STACK
        ARGFRAME XSTACK, 12, STACK
        ARGFRAME IOVERLAY, 0, STATIC
        ARGFRAME DOVERLAY, 0, STATIC
        MOV       A,#-0x9
        LCALL     ?BANKED_ENTER_XDATA
          CFI DPH0 load(1, XDATA, add(CFA_XSP16, literal(-1)))
          CFI DPL0 load(1, XDATA, add(CFA_XSP16, literal(-2)))
          CFI ?BRET_EXT load(1, XDATA, add(CFA_XSP16, literal(-3)))
          CFI ?RET_HIGH load(1, XDATA, add(CFA_XSP16, literal(-4)))
          CFI ?RET_LOW load(1, XDATA, add(CFA_XSP16, literal(-5)))
          CFI R7 load(1, XDATA, add(CFA_XSP16, literal(-6)))
          CFI V0 load(1, XDATA, add(CFA_XSP16, literal(-7)))
          CFI VB load(1, XDATA, add(CFA_XSP16, literal(-8)))
          CFI R6 load(1, XDATA, add(CFA_XSP16, literal(-9)))
          CFI CFA_SP SP+0
          CFI CFA_XSP16 add(XSP16, 9)
        ; Saved register size: 9
        ; Auto size: 3
        MOV       A,#-0x3
        LCALL     ?ALLOC_XSTACK8
          CFI CFA_XSP16 add(XSP16, 12)
        MOV       A,R1
        MOV       R7,A
// 3137   ZStatus_t            status;
// 3138   APSME_SwitchKeyReq_t req;
// 3139 
// 3140   // initialize common elements of local variables
// 3141   req.dstAddr = dstAddr;
        LCALL     ?Subroutine21 & 0xFFFF
// 3142   req.keySeqNum = keySeqNum;
??CrossCallReturnLabel_216:
        LCALL     ?XSTACK_DISP0_8
        MOV       A,R1
        LCALL     ??Subroutine90_0 & 0xFFFF
// 3143 
// 3144   if ( ZG_CHECK_SECURITY_MODE == ZG_SECURITY_PRO_HIGH )
// 3145   {
// 3146     ZDSecMgrEntry_t*     entry;
// 3147     uint16               index;
// 3148     AddrMgrEntry_t       addrEntry;
// 3149 
// 3150     addrEntry.user = ADDRMGR_USER_SECURITY;
// 3151 
// 3152     status = ZFailure;
// 3153 
// 3154     // verify data is available
// 3155     if ( ZDSecMgrEntries != NULL )
// 3156     {
// 3157       // find available entry
// 3158       for ( index = 0; index < ZDSECMGR_ENTRY_MAX ; index++ )
// 3159       {
// 3160         if ( ZDSecMgrEntries[index].ami != INVALID_NODE_ADDR )
// 3161         {
// 3162           // return successful result
// 3163           entry = &ZDSecMgrEntries[index];
// 3164 
// 3165           // get NWK address
// 3166           addrEntry.index = entry->ami;
// 3167 
// 3168           if ( AddrMgrEntryGet( &addrEntry ) == TRUE )
// 3169           {
// 3170             req.dstAddr = addrEntry.nwkAddr;
// 3171             status = APSME_SwitchKeyReq( &req );
// 3172           }
// 3173         }
// 3174       }
// 3175     }
// 3176   }
// 3177   else // ( ZG_CHECK_SECURITY_MODE == ZG_SECURITY_RESIDENTIAL )
// 3178   {
// 3179     status = APSME_SwitchKeyReq( &req );
??CrossCallReturnLabel_148:
        LCALL     `??APSME_SwitchKeyReq::?relay`; Banked call to: APSME_SwitchKeyReq
        MOV       A,R1
        MOV       R6,A
// 3180   }
// 3181 
// 3182   SSP_SwitchNwkKey( keySeqNum );
        ; Setup parameters for call to function SSP_SwitchNwkKey
        MOV       A,R7
        MOV       R1,A
        LCALL     `??SSP_SwitchNwkKey::?relay`; Banked call to: SSP_SwitchNwkKey
// 3183 
// 3184   // Save if nv
// 3185   ZDApp_NVUpdate();
        ; Setup parameters for call to function ZDApp_NVUpdate
        LCALL     `??ZDApp_NVUpdate::?relay`; Banked call to: ZDApp_NVUpdate
// 3186 
// 3187   return status;
        MOV       A,R6
        MOV       R1,A
        MOV       A,#0x3
        LJMP      ??Subroutine88_0 & 0xFFFF
// 3188 }
          CFI EndBlock cfiBlock525

        RSEG BANKED_CODE:HUGECODE:NOROOT(0)
?Subroutine21:
          CFI Block cfiCond526 Using cfiCommon0
          CFI Function ZDSecMgrDeviceRemove
          CFI Conditional ??CrossCallReturnLabel_215
          CFI R6 load(1, XDATA, add(CFA_XSP16, literal(-10)))
          CFI VB load(1, XDATA, add(CFA_XSP16, literal(-9)))
          CFI V0 load(1, XDATA, add(CFA_XSP16, literal(-8)))
          CFI V1 load(1, XDATA, add(CFA_XSP16, literal(-7)))
          CFI R7 load(1, XDATA, add(CFA_XSP16, literal(-6)))
          CFI ?RET_LOW load(1, XDATA, add(CFA_XSP16, literal(-5)))
          CFI ?RET_HIGH load(1, XDATA, add(CFA_XSP16, literal(-4)))
          CFI ?BRET_EXT load(1, XDATA, add(CFA_XSP16, literal(-3)))
          CFI DPL0 load(1, XDATA, add(CFA_XSP16, literal(-2)))
          CFI DPH0 load(1, XDATA, add(CFA_XSP16, literal(-1)))
          CFI CFA_SP SP+-2
          CFI CFA_XSP16 add(XSP16, 19)
          CFI Block cfiCond527 Using cfiCommon0
          CFI (cfiCond527) Function ZDSecMgrSwitchNwkKey
          CFI (cfiCond527) Conditional ??CrossCallReturnLabel_216
          CFI (cfiCond527) R6 load(1, XDATA, add(CFA_XSP16, literal(-9)))
          CFI (cfiCond527) VB load(1, XDATA, add(CFA_XSP16, literal(-8)))
          CFI (cfiCond527) V0 load(1, XDATA, add(CFA_XSP16, literal(-7)))
          CFI (cfiCond527) R7 load(1, XDATA, add(CFA_XSP16, literal(-6)))
          CFI (cfiCond527) ?RET_LOW load(1, XDATA, add(CFA_XSP16, literal(-5)))
          CFI (cfiCond527) ?RET_HIGH load(1, XDATA, add(CFA_XSP16, literal(-4)))
          CFI (cfiCond527) ?BRET_EXT load(1, XDATA, add(CFA_XSP16, literal(-3)))
          CFI (cfiCond527) DPL0 load(1, XDATA, add(CFA_XSP16, literal(-2)))
          CFI (cfiCond527) DPH0 load(1, XDATA, add(CFA_XSP16, literal(-1)))
          CFI (cfiCond527) CFA_SP SP+-2
          CFI (cfiCond527) CFA_XSP16 add(XSP16, 12)
          CFI Block cfiCond528 Using cfiCommon0
          CFI (cfiCond528) Function ZDSecMgrAPSRemove
          CFI (cfiCond528) Conditional ??CrossCallReturnLabel_217
          CFI (cfiCond528) DPL0 Frame(CFA_SP, 4)
          CFI (cfiCond528) DPH0 Frame(CFA_SP, 5)
          CFI (cfiCond528) CFA_SP SP+-7
          CFI (cfiCond528) CFA_XSP16 add(XSP16, 10)
          CFI Block cfiPicker529 Using cfiCommon1
          CFI (cfiPicker529) NoFunction
          CFI (cfiPicker529) Picker
        MOV       DPL,?XSP + 0
        MOV       DPH,?XSP + 1
          CFI EndBlock cfiCond526
          CFI EndBlock cfiCond527
          CFI EndBlock cfiCond528
          CFI EndBlock cfiPicker529
        REQUIRE ??Subroutine103_0
        ; // Fall through to label ??Subroutine103_0

        RSEG BANKED_CODE:HUGECODE:NOROOT(0)
??Subroutine103_0:
          CFI Block cfiCond530 Using cfiCommon0
          CFI Function ZDSecMgrRemoveDeviceInd
          CFI Conditional ??CrossCallReturnLabel_218
          CFI R6 load(1, XDATA, add(CFA_XSP16, literal(-9)))
          CFI VB load(1, XDATA, add(CFA_XSP16, literal(-8)))
          CFI V0 load(1, XDATA, add(CFA_XSP16, literal(-7)))
          CFI R7 load(1, XDATA, add(CFA_XSP16, literal(-6)))
          CFI ?RET_LOW load(1, XDATA, add(CFA_XSP16, literal(-5)))
          CFI ?RET_HIGH load(1, XDATA, add(CFA_XSP16, literal(-4)))
          CFI ?BRET_EXT load(1, XDATA, add(CFA_XSP16, literal(-3)))
          CFI DPL0 load(1, XDATA, add(CFA_XSP16, literal(-2)))
          CFI DPH0 load(1, XDATA, add(CFA_XSP16, literal(-1)))
          CFI CFA_SP SP+-2
          CFI CFA_XSP16 add(XSP16, 19)
          CFI Block cfiCond531 Using cfiCommon0
          CFI (cfiCond531) Function ZDSecMgrDeviceRemove
          CFI (cfiCond531) Conditional ??CrossCallReturnLabel_215
          CFI (cfiCond531) R6 load(1, XDATA, add(CFA_XSP16, literal(-10)))
          CFI (cfiCond531) VB load(1, XDATA, add(CFA_XSP16, literal(-9)))
          CFI (cfiCond531) V0 load(1, XDATA, add(CFA_XSP16, literal(-8)))
          CFI (cfiCond531) V1 load(1, XDATA, add(CFA_XSP16, literal(-7)))
          CFI (cfiCond531) R7 load(1, XDATA, add(CFA_XSP16, literal(-6)))
          CFI (cfiCond531) ?RET_LOW load(1, XDATA, add(CFA_XSP16, literal(-5)))
          CFI (cfiCond531) ?RET_HIGH load(1, XDATA, add(CFA_XSP16, literal(-4)))
          CFI (cfiCond531) ?BRET_EXT load(1, XDATA, add(CFA_XSP16, literal(-3)))
          CFI (cfiCond531) DPL0 load(1, XDATA, add(CFA_XSP16, literal(-2)))
          CFI (cfiCond531) DPH0 load(1, XDATA, add(CFA_XSP16, literal(-1)))
          CFI (cfiCond531) CFA_SP SP+-2
          CFI (cfiCond531) CFA_XSP16 add(XSP16, 19)
          CFI Block cfiCond532 Using cfiCommon0
          CFI (cfiCond532) Function ZDSecMgrSwitchNwkKey
          CFI (cfiCond532) Conditional ??CrossCallReturnLabel_216
          CFI (cfiCond532) R6 load(1, XDATA, add(CFA_XSP16, literal(-9)))
          CFI (cfiCond532) VB load(1, XDATA, add(CFA_XSP16, literal(-8)))
          CFI (cfiCond532) V0 load(1, XDATA, add(CFA_XSP16, literal(-7)))
          CFI (cfiCond532) R7 load(1, XDATA, add(CFA_XSP16, literal(-6)))
          CFI (cfiCond532) ?RET_LOW load(1, XDATA, add(CFA_XSP16, literal(-5)))
          CFI (cfiCond532) ?RET_HIGH load(1, XDATA, add(CFA_XSP16, literal(-4)))
          CFI (cfiCond532) ?BRET_EXT load(1, XDATA, add(CFA_XSP16, literal(-3)))
          CFI (cfiCond532) DPL0 load(1, XDATA, add(CFA_XSP16, literal(-2)))
          CFI (cfiCond532) DPH0 load(1, XDATA, add(CFA_XSP16, literal(-1)))
          CFI (cfiCond532) CFA_SP SP+-2
          CFI (cfiCond532) CFA_XSP16 add(XSP16, 12)
          CFI Block cfiCond533 Using cfiCommon0
          CFI (cfiCond533) Function ZDSecMgrAPSRemove
          CFI (cfiCond533) Conditional ??CrossCallReturnLabel_217
          CFI (cfiCond533) DPL0 Frame(CFA_SP, 4)
          CFI (cfiCond533) DPH0 Frame(CFA_SP, 5)
          CFI (cfiCond533) CFA_SP SP+-7
          CFI (cfiCond533) CFA_XSP16 add(XSP16, 10)
          CFI Block cfiPicker534 Using cfiCommon1
          CFI (cfiPicker534) NoFunction
          CFI (cfiPicker534) Picker
        MOV       A,R2
        MOVX      @DPTR,A
        INC       DPTR
        MOV       A,R3
        MOVX      @DPTR,A
        MOV       A,#0x2
        RET
          CFI EndBlock cfiCond530
          CFI EndBlock cfiCond531
          CFI EndBlock cfiCond532
          CFI EndBlock cfiCond533
          CFI EndBlock cfiPicker534
// 3189 #endif // ( ZG_BUILD_COORDINATOR_TYPE )
// 3190 
// 3191 #if ( ZG_BUILD_JOINING_TYPE )
// 3192 /******************************************************************************
// 3193  * @fn          ZDSecMgrRequestAppKey
// 3194  *
// 3195  * @brief       Request an application key with partner.
// 3196  *
// 3197  * @param       partNwkAddr - [in] partner network address
// 3198  *
// 3199  * @return      ZStatus_t
// 3200  */
// 3201 ZStatus_t ZDSecMgrRequestAppKey( uint16 partNwkAddr )
// 3202 {
// 3203   ZStatus_t             status;
// 3204   APSME_RequestKeyReq_t req;
// 3205   uint8                 partExtAddr[Z_EXTADDR_LEN];
// 3206 
// 3207 
// 3208   if ( AddrMgrExtAddrLookup( partNwkAddr, partExtAddr ) )
// 3209   {
// 3210     req.dstAddr = 0;
// 3211     req.keyType = KEY_TYPE_APP_MASTER;
// 3212     req.partExtAddr = partExtAddr;
// 3213     status = APSME_RequestKeyReq( &req );
// 3214   }
// 3215   else
// 3216   {
// 3217     status = ZFailure;
// 3218   }
// 3219 
// 3220   return status;
// 3221 }
// 3222 #endif // ( ZG_BUILD_JOINING_TYPE )
// 3223 
// 3224 #if ( ZG_BUILD_JOINING_TYPE )
// 3225 /******************************************************************************
// 3226  * @fn          ZDSecMgrSetupPartner
// 3227  *
// 3228  * @brief       Setup for application key partner.
// 3229  *
// 3230  * @param       partNwkAddr - [in] partner network address
// 3231  *
// 3232  * @return      ZStatus_t
// 3233  */
// 3234 ZStatus_t ZDSecMgrSetupPartner( uint16 partNwkAddr, uint8* partExtAddr )
// 3235 {
// 3236   AddrMgrEntry_t entry;
// 3237   ZStatus_t      status;
// 3238 
// 3239   status = ZFailure;
// 3240 
// 3241   // update the address manager
// 3242   entry.user    = ADDRMGR_USER_SECURITY;
// 3243   entry.nwkAddr = partNwkAddr;
// 3244   AddrMgrExtAddrSet( entry.extAddr, partExtAddr );
// 3245 
// 3246   if ( AddrMgrEntryUpdate( &entry ) == TRUE )
// 3247   {
// 3248     status = ZSuccess;
// 3249 
// 3250     // check for address discovery
// 3251     if ( partNwkAddr == INVALID_NODE_ADDR )
// 3252     {
// 3253       status = ZDP_NwkAddrReq( partExtAddr, ZDP_ADDR_REQTYPE_SINGLE, 0, 0 );
// 3254     }
// 3255     else if ( !AddrMgrExtAddrValid( partExtAddr ) )
// 3256     {
// 3257       status = ZDP_IEEEAddrReq( partNwkAddr, ZDP_ADDR_REQTYPE_SINGLE, 0, 0 );
// 3258     }
// 3259   }
// 3260 
// 3261   return status;
// 3262 }
// 3263 #endif // ( ZG_BUILD_JOINING_TYPE )
// 3264 
// 3265 #if ( ZG_BUILD_COORDINATOR_TYPE )
// 3266 /******************************************************************************
// 3267  * @fn          ZDSecMgrAppKeyTypeSet
// 3268  *
// 3269  * @brief       Set application key type.
// 3270  *
// 3271  * @param       keyType - [in] application key type (KEY_TYPE_APP_MASTER@2 or
// 3272  *                                                   KEY_TYPE_APP_LINK@3
// 3273  *
// 3274  * @return      ZStatus_t
// 3275  */

        RSEG BANKED_CODE:HUGECODE:NOROOT(0)
// 3276 ZStatus_t ZDSecMgrAppKeyTypeSet( uint8 keyType )
ZDSecMgrAppKeyTypeSet:
          CFI Block cfiBlock535 Using cfiCommon0
          CFI Function ZDSecMgrAppKeyTypeSet
        CODE
// 3277 {
        PUSH      DPL
          CFI DPL0 Frame(CFA_SP, 4)
          CFI CFA_SP SP+-4
        PUSH      DPH
          CFI DPH0 Frame(CFA_SP, 5)
          CFI CFA_SP SP+-5
        ; Saved register size: 2
        ; Auto size: 0
        MOV       A,R1
        MOV       R0,A
// 3278   if ( keyType == KEY_TYPE_APP_LINK )
        MOV       A,#0x3
        XRL       A,R0
        MOV       DPTR,#ZDSecMgrAppKeyType
        JNZ       ??ZDSecMgrAppKeyTypeSet_0
// 3279   {
// 3280     ZDSecMgrAppKeyType = KEY_TYPE_APP_LINK;
        MOV       A,#0x3
        SJMP      ??ZDSecMgrAppKeyTypeSet_1
// 3281   }
// 3282   else
// 3283   {
// 3284     ZDSecMgrAppKeyType = KEY_TYPE_APP_MASTER;
??ZDSecMgrAppKeyTypeSet_0:
        MOV       A,#0x2
// 3285   }
??ZDSecMgrAppKeyTypeSet_1:
        LJMP      ?Subroutine7 & 0xFFFF
// 3286 
// 3287   return ZSuccess;
// 3288 }
          CFI EndBlock cfiBlock535
// 3289 #endif
// 3290 
// 3291 /******************************************************************************
// 3292  * ZigBee Device Security Manager - Stub Implementations
// 3293  */
// 3294 /******************************************************************************
// 3295  * @fn          ZDSecMgrMasterKeyGet (stubs APSME_MasterKeyGet)
// 3296  *
// 3297  * @brief       Get MASTER key for specified EXT address.
// 3298  *
// 3299  * @param       extAddr - [in] EXT address
// 3300  * @param       key     - [out] MASTER key
// 3301  *
// 3302  * @return      ZStatus_t
// 3303  */

        RSEG BANKED_CODE:HUGECODE:NOROOT(0)
// 3304 ZStatus_t ZDSecMgrMasterKeyGet( uint8* extAddr, uint8** key )
APSME_MasterKeyGet:
          CFI Block cfiBlock536 Using cfiCommon0
          CFI Function APSME_MasterKeyGet
        CODE
// 3305 {
        FUNCALL APSME_MasterKeyGet, ZDSecMgrExtAddrLookup
        LOCFRAME ISTACK, 0, STACK
        LOCFRAME PSTACK, 0, STACK
        LOCFRAME XSTACK, 11, STACK
        LOCFRAME IOVERLAY, 0, STATIC
        LOCFRAME DOVERLAY, 0, STATIC
        ARGFRAME ISTACK, 0, STACK
        ARGFRAME PSTACK, 0, STACK
        ARGFRAME XSTACK, 11, STACK
        ARGFRAME IOVERLAY, 0, STATIC
        ARGFRAME DOVERLAY, 0, STATIC
        FUNCALL APSME_MasterKeyGet, ZDSecMgrMasterKeyLookup
        LOCFRAME ISTACK, 0, STACK
        LOCFRAME PSTACK, 0, STACK
        LOCFRAME XSTACK, 11, STACK
        LOCFRAME IOVERLAY, 0, STATIC
        LOCFRAME DOVERLAY, 0, STATIC
        ARGFRAME ISTACK, 0, STACK
        ARGFRAME PSTACK, 0, STACK
        ARGFRAME XSTACK, 11, STACK
        ARGFRAME IOVERLAY, 0, STATIC
        ARGFRAME DOVERLAY, 0, STATIC
        REQUIRE ?V0
        MOV       A,#-0x9
        LCALL     ?BANKED_ENTER_XDATA
          CFI DPH0 load(1, XDATA, add(CFA_XSP16, literal(-1)))
          CFI DPL0 load(1, XDATA, add(CFA_XSP16, literal(-2)))
          CFI ?BRET_EXT load(1, XDATA, add(CFA_XSP16, literal(-3)))
          CFI ?RET_HIGH load(1, XDATA, add(CFA_XSP16, literal(-4)))
          CFI ?RET_LOW load(1, XDATA, add(CFA_XSP16, literal(-5)))
          CFI R7 load(1, XDATA, add(CFA_XSP16, literal(-6)))
          CFI V0 load(1, XDATA, add(CFA_XSP16, literal(-7)))
          CFI VB load(1, XDATA, add(CFA_XSP16, literal(-8)))
          CFI R6 load(1, XDATA, add(CFA_XSP16, literal(-9)))
          CFI CFA_SP SP+0
          CFI CFA_XSP16 add(XSP16, 9)
        ; Saved register size: 9
        ; Auto size: 2
        MOV       A,#-0x2
        LCALL     ?ALLOC_XSTACK8
          CFI CFA_XSP16 add(XSP16, 11)
        MOV       A,R4
        MOV       R6,A
        MOV       A,R5
        MOV       R7,A
// 3306   ZStatus_t status;
// 3307   uint16    ami;
// 3308 
// 3309 
// 3310   // lookup entry for specified EXT address
// 3311   status = ZDSecMgrExtAddrLookup( extAddr, &ami );
        ; Setup parameters for call to function ZDSecMgrExtAddrLookup
        MOV       R4,?XSP + 0
        MOV       R5,?XSP + 1
        LCALL     `??ZDSecMgrExtAddrLookup::?relay`; Banked call to: ZDSecMgrExtAddrLookup
        MOV       A,R1
        MOV       ?V0,A
// 3312   //status = ZDSecMgrEntryLookupExt( extAddr, &entry );
// 3313 
// 3314   if ( status == ZSuccess )
        JNZ       ??APSME_MasterKeyGet_0
// 3315   {
// 3316     ZDSecMgrMasterKeyLookup( ami, key );
        ; Setup parameters for call to function ZDSecMgrMasterKeyLookup
        MOV       A,R6
        MOV       R4,A
        MOV       A,R7
        MOV       R5,A
        MOV       DPL,?XSP + 0
        MOV       DPH,?XSP + 1
        LCALL     ??Subroutine85_0 & 0xFFFF
// 3317   }
??CrossCallReturnLabel_134:
        LCALL     `??ZDSecMgrMasterKeyLookup::?relay`; Banked call to: ZDSecMgrMasterKeyLookup
        SJMP      ??APSME_MasterKeyGet_1
// 3318   else
// 3319   {
// 3320     *key = NULL;
??APSME_MasterKeyGet_0:
        MOV       DPL,R6
        MOV       DPH,R7
        CLR       A
        MOVX      @DPTR,A
        INC       DPTR
        MOVX      @DPTR,A
// 3321   }
// 3322 
// 3323   return status;
??APSME_MasterKeyGet_1:
        LJMP      ?Subroutine1 & 0xFFFF
// 3324 }
          CFI EndBlock cfiBlock536
// 3325 
// 3326 /******************************************************************************
// 3327  * @fn          ZDSecMgrLinkKeySet (stubs APSME_LinkKeySet)
// 3328  *
// 3329  * @brief       Set <APSME_LinkKeyData_t> for specified NWK address.
// 3330  *
// 3331  * @param       extAddr - [in] EXT address
// 3332  * @param       data    - [in] APSME_LinkKeyData_t
// 3333  *
// 3334  * @return      ZStatus_t
// 3335  */

        RSEG BANKED_CODE:HUGECODE:NOROOT(0)
// 3336 ZStatus_t ZDSecMgrLinkKeySet( uint8* extAddr, uint8* key )
APSME_LinkKeySet:
          CFI Block cfiBlock537 Using cfiCommon0
          CFI Function APSME_LinkKeySet
        CODE
// 3337 {
        FUNCALL APSME_LinkKeySet, ZDSecMgrEntryLookupExt
        LOCFRAME ISTACK, 0, STACK
        LOCFRAME PSTACK, 0, STACK
        LOCFRAME XSTACK, 17, STACK
        LOCFRAME IOVERLAY, 0, STATIC
        LOCFRAME DOVERLAY, 0, STATIC
        ARGFRAME ISTACK, 0, STACK
        ARGFRAME PSTACK, 0, STACK
        ARGFRAME XSTACK, 17, STACK
        ARGFRAME IOVERLAY, 0, STATIC
        ARGFRAME DOVERLAY, 0, STATIC
        FUNCALL APSME_LinkKeySet, osal_memcpy
        LOCFRAME ISTACK, 0, STACK
        LOCFRAME PSTACK, 0, STACK
        LOCFRAME XSTACK, 20, STACK
        LOCFRAME IOVERLAY, 0, STATIC
        LOCFRAME DOVERLAY, 0, STATIC
        ARGFRAME ISTACK, 0, STACK
        ARGFRAME PSTACK, 0, STACK
        ARGFRAME XSTACK, 20, STACK
        ARGFRAME IOVERLAY, 0, STATIC
        ARGFRAME DOVERLAY, 0, STATIC
        REQUIRE ?V0
        REQUIRE ?V4
        REQUIRE ?V5
        REQUIRE ?V6
        MOV       A,#-0xf
        LCALL     ?BANKED_ENTER_XDATA
          CFI DPH0 load(1, XDATA, add(CFA_XSP16, literal(-1)))
          CFI DPL0 load(1, XDATA, add(CFA_XSP16, literal(-2)))
          CFI ?BRET_EXT load(1, XDATA, add(CFA_XSP16, literal(-3)))
          CFI ?RET_HIGH load(1, XDATA, add(CFA_XSP16, literal(-4)))
          CFI ?RET_LOW load(1, XDATA, add(CFA_XSP16, literal(-5)))
          CFI R7 load(1, XDATA, add(CFA_XSP16, literal(-6)))
          CFI V6 load(1, XDATA, add(CFA_XSP16, literal(-7)))
          CFI V5 load(1, XDATA, add(CFA_XSP16, literal(-8)))
          CFI V4 load(1, XDATA, add(CFA_XSP16, literal(-9)))
          CFI V3 load(1, XDATA, add(CFA_XSP16, literal(-10)))
          CFI V2 load(1, XDATA, add(CFA_XSP16, literal(-11)))
          CFI V1 load(1, XDATA, add(CFA_XSP16, literal(-12)))
          CFI V0 load(1, XDATA, add(CFA_XSP16, literal(-13)))
          CFI VB load(1, XDATA, add(CFA_XSP16, literal(-14)))
          CFI R6 load(1, XDATA, add(CFA_XSP16, literal(-15)))
          CFI CFA_SP SP+0
          CFI CFA_XSP16 add(XSP16, 15)
        ; Saved register size: 15
        ; Auto size: 2
        MOV       A,#-0x2
        LCALL     ?ALLOC_XSTACK8
          CFI CFA_XSP16 add(XSP16, 17)
        MOV       A,R4
        MOV       R6,A
        MOV       A,R5
        MOV       R7,A
// 3338   ZStatus_t        status;
// 3339   ZDSecMgrEntry_t* entry;
// 3340 
// 3341 
// 3342   // lookup entry index for specified EXT address
// 3343   status = ZDSecMgrEntryLookupExt( extAddr, &entry );
        ; Setup parameters for call to function ZDSecMgrEntryLookupExt
        MOV       R4,?XSP + 0
        MOV       R5,?XSP + 1
        LCALL     `??ZDSecMgrEntryLookupExt::?relay`; Banked call to: ZDSecMgrEntryLookupExt
        MOV       A,R1
        MOV       ?V0,A
// 3344 
// 3345   if ( status == ZSuccess )
        JNZ       ??APSME_LinkKeySet_0
// 3346   {
// 3347     // setup the link key data reference
// 3348     osal_memcpy( entry->lkd.key, key, SEC_KEY_LEN );
        ; Setup parameters for call to function osal_memcpy
        MOV       ?V4,R6
        MOV       ?V5,R7
        MOV       ?V6,#0x0
        MOV       R0,#?V4
        LCALL     ?PUSH_XSTACK_I_THREE
          CFI CFA_XSP16 add(XSP16, 20)
        MOV       R4,#0x10
        MOV       R5,#0x0
        MOV       A,#0x3
        LCALL     ?XSTACK_DISP0_8
        MOVX      A,@DPTR
        ADD       A,#0x2
        MOV       R2,A
        INC       DPTR
        MOVX      A,@DPTR
        ADDC      A,#0x0
        MOV       R3,A
        LCALL     `??osal_memcpy::?relay`; Banked call to: osal_memcpy
        MOV       A,#0x3
        LCALL     ?DEALLOC_XSTACK8
          CFI CFA_XSP16 add(XSP16, 17)
// 3349 
// 3350     entry->lkd.apsmelkd.rxFrmCntr = 0;
        LCALL     ?Subroutine74 & 0xFFFF
// 3351     entry->lkd.apsmelkd.txFrmCntr = 0;
// 3352   }
??CrossCallReturnLabel_221:
        XCH       A,R0
        ADD       A,#0x18
        LCALL     ?Subroutine60 & 0xFFFF
??CrossCallReturnLabel_84:
        LCALL     ?Subroutine23 & 0xFFFF
??CrossCallReturnLabel_11:
        ADD       A,#0x14
        LCALL     ?Subroutine60 & 0xFFFF
??CrossCallReturnLabel_85:
        MOVX      @DPTR,A
// 3353 
// 3354   return status;
??APSME_LinkKeySet_0:
        MOV       R1,?V0
        MOV       A,#0x2
        LJMP      ?Subroutine5 & 0xFFFF
// 3355 }
          CFI EndBlock cfiBlock537

        RSEG BANKED_CODE:HUGECODE:NOROOT(0)
?Subroutine74:
          CFI Block cfiCond538 Using cfiCommon0
          CFI Function APSME_LinkKeySet
          CFI Conditional ??CrossCallReturnLabel_221
          CFI R6 load(1, XDATA, add(CFA_XSP16, literal(-15)))
          CFI VB load(1, XDATA, add(CFA_XSP16, literal(-14)))
          CFI V0 load(1, XDATA, add(CFA_XSP16, literal(-13)))
          CFI V1 load(1, XDATA, add(CFA_XSP16, literal(-12)))
          CFI V2 load(1, XDATA, add(CFA_XSP16, literal(-11)))
          CFI V3 load(1, XDATA, add(CFA_XSP16, literal(-10)))
          CFI V4 load(1, XDATA, add(CFA_XSP16, literal(-9)))
          CFI V5 load(1, XDATA, add(CFA_XSP16, literal(-8)))
          CFI V6 load(1, XDATA, add(CFA_XSP16, literal(-7)))
          CFI R7 load(1, XDATA, add(CFA_XSP16, literal(-6)))
          CFI ?RET_LOW load(1, XDATA, add(CFA_XSP16, literal(-5)))
          CFI ?RET_HIGH load(1, XDATA, add(CFA_XSP16, literal(-4)))
          CFI ?BRET_EXT load(1, XDATA, add(CFA_XSP16, literal(-3)))
          CFI DPL0 load(1, XDATA, add(CFA_XSP16, literal(-2)))
          CFI DPH0 load(1, XDATA, add(CFA_XSP16, literal(-1)))
          CFI CFA_SP SP+-2
          CFI CFA_XSP16 add(XSP16, 17)
          CFI Block cfiCond539 Using cfiCommon0
          CFI (cfiCond539) Function ZDSecMgrDeviceCtrlUpdate
          CFI (cfiCond539) Conditional ??CrossCallReturnLabel_223, ??CrossCallReturnLabel_10
          CFI (cfiCond539) R6 load(1, XDATA, add(CFA_XSP16, literal(-9)))
          CFI (cfiCond539) VB load(1, XDATA, add(CFA_XSP16, literal(-8)))
          CFI (cfiCond539) V0 load(1, XDATA, add(CFA_XSP16, literal(-7)))
          CFI (cfiCond539) R7 load(1, XDATA, add(CFA_XSP16, literal(-6)))
          CFI (cfiCond539) ?RET_LOW load(1, XDATA, add(CFA_XSP16, literal(-5)))
          CFI (cfiCond539) ?RET_HIGH load(1, XDATA, add(CFA_XSP16, literal(-4)))
          CFI (cfiCond539) ?BRET_EXT load(1, XDATA, add(CFA_XSP16, literal(-3)))
          CFI (cfiCond539) DPL0 load(1, XDATA, add(CFA_XSP16, literal(-2)))
          CFI (cfiCond539) DPH0 load(1, XDATA, add(CFA_XSP16, literal(-1)))
          CFI (cfiCond539) CFA_SP SP+-4
          CFI (cfiCond539) CFA_XSP16 add(XSP16, 13)
          CFI Block cfiCond540 Using cfiCommon0
          CFI (cfiCond540) Function APSME_LinkKeySet
          CFI (cfiCond540) Conditional ??CrossCallReturnLabel_223, ??CrossCallReturnLabel_11
          CFI (cfiCond540) R6 load(1, XDATA, add(CFA_XSP16, literal(-15)))
          CFI (cfiCond540) VB load(1, XDATA, add(CFA_XSP16, literal(-14)))
          CFI (cfiCond540) V0 load(1, XDATA, add(CFA_XSP16, literal(-13)))
          CFI (cfiCond540) V1 load(1, XDATA, add(CFA_XSP16, literal(-12)))
          CFI (cfiCond540) V2 load(1, XDATA, add(CFA_XSP16, literal(-11)))
          CFI (cfiCond540) V3 load(1, XDATA, add(CFA_XSP16, literal(-10)))
          CFI (cfiCond540) V4 load(1, XDATA, add(CFA_XSP16, literal(-9)))
          CFI (cfiCond540) V5 load(1, XDATA, add(CFA_XSP16, literal(-8)))
          CFI (cfiCond540) V6 load(1, XDATA, add(CFA_XSP16, literal(-7)))
          CFI (cfiCond540) R7 load(1, XDATA, add(CFA_XSP16, literal(-6)))
          CFI (cfiCond540) ?RET_LOW load(1, XDATA, add(CFA_XSP16, literal(-5)))
          CFI (cfiCond540) ?RET_HIGH load(1, XDATA, add(CFA_XSP16, literal(-4)))
          CFI (cfiCond540) ?BRET_EXT load(1, XDATA, add(CFA_XSP16, literal(-3)))
          CFI (cfiCond540) DPL0 load(1, XDATA, add(CFA_XSP16, literal(-2)))
          CFI (cfiCond540) DPH0 load(1, XDATA, add(CFA_XSP16, literal(-1)))
          CFI (cfiCond540) CFA_SP SP+-4
          CFI (cfiCond540) CFA_XSP16 add(XSP16, 17)
          CFI Block cfiCond541 Using cfiCommon0
          CFI (cfiCond541) Function ZDSecMgrAuthenticationSet
          CFI (cfiCond541) Conditional ??CrossCallReturnLabel_222
          CFI (cfiCond541) R6 load(1, XDATA, add(CFA_XSP16, literal(-9)))
          CFI (cfiCond541) VB load(1, XDATA, add(CFA_XSP16, literal(-8)))
          CFI (cfiCond541) V0 load(1, XDATA, add(CFA_XSP16, literal(-7)))
          CFI (cfiCond541) R7 load(1, XDATA, add(CFA_XSP16, literal(-6)))
          CFI (cfiCond541) ?RET_LOW load(1, XDATA, add(CFA_XSP16, literal(-5)))
          CFI (cfiCond541) ?RET_HIGH load(1, XDATA, add(CFA_XSP16, literal(-4)))
          CFI (cfiCond541) ?BRET_EXT load(1, XDATA, add(CFA_XSP16, literal(-3)))
          CFI (cfiCond541) DPL0 load(1, XDATA, add(CFA_XSP16, literal(-2)))
          CFI (cfiCond541) DPH0 load(1, XDATA, add(CFA_XSP16, literal(-1)))
          CFI (cfiCond541) CFA_SP SP+-2
          CFI (cfiCond541) CFA_XSP16 add(XSP16, 11)
          CFI Block cfiPicker542 Using cfiCommon1
          CFI (cfiPicker542) NoFunction
          CFI (cfiPicker542) Picker
        MOV       DPL,?XSP + 0
        MOV       DPH,?XSP + 1
          CFI EndBlock cfiCond538
          CFI EndBlock cfiCond539
          CFI EndBlock cfiCond540
          CFI EndBlock cfiCond541
          CFI EndBlock cfiPicker542
        REQUIRE ??Subroutine104_0
        ; // Fall through to label ??Subroutine104_0

        RSEG BANKED_CODE:HUGECODE:NOROOT(0)
??Subroutine104_0:
          CFI Block cfiCond543 Using cfiCommon0
          CFI Function ZDSecMgrDeviceEntryAdd
          CFI Conditional ??CrossCallReturnLabel_224, ??CrossCallReturnLabel_123, ??CrossCallReturnLabel_117
          CFI R6 load(1, XDATA, add(CFA_XSP16, literal(-12)))
          CFI VB load(1, XDATA, add(CFA_XSP16, literal(-11)))
          CFI V0 load(1, XDATA, add(CFA_XSP16, literal(-10)))
          CFI V1 load(1, XDATA, add(CFA_XSP16, literal(-9)))
          CFI V2 load(1, XDATA, add(CFA_XSP16, literal(-8)))
          CFI V3 load(1, XDATA, add(CFA_XSP16, literal(-7)))
          CFI R7 load(1, XDATA, add(CFA_XSP16, literal(-6)))
          CFI ?RET_LOW load(1, XDATA, add(CFA_XSP16, literal(-5)))
          CFI ?RET_HIGH load(1, XDATA, add(CFA_XSP16, literal(-4)))
          CFI ?BRET_EXT load(1, XDATA, add(CFA_XSP16, literal(-3)))
          CFI DPL0 load(1, XDATA, add(CFA_XSP16, literal(-2)))
          CFI DPH0 load(1, XDATA, add(CFA_XSP16, literal(-1)))
          CFI CFA_SP SP+-6
          CFI CFA_XSP16 add(XSP16, 14)
          CFI Block cfiCond544 Using cfiCommon0
          CFI (cfiCond544) Function ZDSecMgrDeviceEntryAdd
          CFI (cfiCond544) Conditional ??CrossCallReturnLabel_224, ??CrossCallReturnLabel_123, ??CrossCallReturnLabel_118
          CFI (cfiCond544) R6 load(1, XDATA, add(CFA_XSP16, literal(-12)))
          CFI (cfiCond544) VB load(1, XDATA, add(CFA_XSP16, literal(-11)))
          CFI (cfiCond544) V0 load(1, XDATA, add(CFA_XSP16, literal(-10)))
          CFI (cfiCond544) V1 load(1, XDATA, add(CFA_XSP16, literal(-9)))
          CFI (cfiCond544) V2 load(1, XDATA, add(CFA_XSP16, literal(-8)))
          CFI (cfiCond544) V3 load(1, XDATA, add(CFA_XSP16, literal(-7)))
          CFI (cfiCond544) R7 load(1, XDATA, add(CFA_XSP16, literal(-6)))
          CFI (cfiCond544) ?RET_LOW load(1, XDATA, add(CFA_XSP16, literal(-5)))
          CFI (cfiCond544) ?RET_HIGH load(1, XDATA, add(CFA_XSP16, literal(-4)))
          CFI (cfiCond544) ?BRET_EXT load(1, XDATA, add(CFA_XSP16, literal(-3)))
          CFI (cfiCond544) DPL0 load(1, XDATA, add(CFA_XSP16, literal(-2)))
          CFI (cfiCond544) DPH0 load(1, XDATA, add(CFA_XSP16, literal(-1)))
          CFI (cfiCond544) CFA_SP SP+-6
          CFI (cfiCond544) CFA_XSP16 add(XSP16, 14)
          CFI Block cfiCond545 Using cfiCommon0
          CFI (cfiCond545) Function ZDSecMgrAppKeyGet
          CFI (cfiCond545) Conditional ??CrossCallReturnLabel_224, ??CrossCallReturnLabel_123, ??CrossCallReturnLabel_115
          CFI (cfiCond545) DPL0 Frame(CFA_SP, 4)
          CFI (cfiCond545) DPH0 Frame(CFA_SP, 5)
          CFI (cfiCond545) CFA_SP SP+-12
          CFI Block cfiCond546 Using cfiCommon0
          CFI (cfiCond546) Function ZDSecMgrSendMasterKey
          CFI (cfiCond546) Conditional ??CrossCallReturnLabel_224, ??CrossCallReturnLabel_123, ??CrossCallReturnLabel_116
          CFI (cfiCond546) R6 load(1, XDATA, add(CFA_XSP16, literal(-10)))
          CFI (cfiCond546) VB load(1, XDATA, add(CFA_XSP16, literal(-9)))
          CFI (cfiCond546) V0 load(1, XDATA, add(CFA_XSP16, literal(-8)))
          CFI (cfiCond546) V1 load(1, XDATA, add(CFA_XSP16, literal(-7)))
          CFI (cfiCond546) R7 load(1, XDATA, add(CFA_XSP16, literal(-6)))
          CFI (cfiCond546) ?RET_LOW load(1, XDATA, add(CFA_XSP16, literal(-5)))
          CFI (cfiCond546) ?RET_HIGH load(1, XDATA, add(CFA_XSP16, literal(-4)))
          CFI (cfiCond546) ?BRET_EXT load(1, XDATA, add(CFA_XSP16, literal(-3)))
          CFI (cfiCond546) DPL0 load(1, XDATA, add(CFA_XSP16, literal(-2)))
          CFI (cfiCond546) DPH0 load(1, XDATA, add(CFA_XSP16, literal(-1)))
          CFI (cfiCond546) CFA_SP SP+-6
          CFI (cfiCond546) CFA_XSP16 add(XSP16, 23)
          CFI Block cfiCond547 Using cfiCommon0
          CFI (cfiCond547) Function ZDSecMgrAppKeyGet
          CFI (cfiCond547) Conditional ??CrossCallReturnLabel_224, ??CrossCallReturnLabel_122, ??CrossCallReturnLabel_52
          CFI (cfiCond547) DPL0 Frame(CFA_SP, 4)
          CFI (cfiCond547) DPH0 Frame(CFA_SP, 5)
          CFI (cfiCond547) CFA_SP SP+-11
          CFI Block cfiCond548 Using cfiCommon0
          CFI (cfiCond548) Function ZDSecMgrSendMasterKey
          CFI (cfiCond548) Conditional ??CrossCallReturnLabel_224, ??CrossCallReturnLabel_122, ??CrossCallReturnLabel_53
          CFI (cfiCond548) R6 load(1, XDATA, add(CFA_XSP16, literal(-10)))
          CFI (cfiCond548) VB load(1, XDATA, add(CFA_XSP16, literal(-9)))
          CFI (cfiCond548) V0 load(1, XDATA, add(CFA_XSP16, literal(-8)))
          CFI (cfiCond548) V1 load(1, XDATA, add(CFA_XSP16, literal(-7)))
          CFI (cfiCond548) R7 load(1, XDATA, add(CFA_XSP16, literal(-6)))
          CFI (cfiCond548) ?RET_LOW load(1, XDATA, add(CFA_XSP16, literal(-5)))
          CFI (cfiCond548) ?RET_HIGH load(1, XDATA, add(CFA_XSP16, literal(-4)))
          CFI (cfiCond548) ?BRET_EXT load(1, XDATA, add(CFA_XSP16, literal(-3)))
          CFI (cfiCond548) DPL0 load(1, XDATA, add(CFA_XSP16, literal(-2)))
          CFI (cfiCond548) DPH0 load(1, XDATA, add(CFA_XSP16, literal(-1)))
          CFI (cfiCond548) CFA_SP SP+-6
          CFI (cfiCond548) CFA_XSP16 add(XSP16, 23)
          CFI Block cfiCond549 Using cfiCommon0
          CFI (cfiCond549) Function ZDSecMgrDeviceCtrlHandler
          CFI (cfiCond549) Conditional ??CrossCallReturnLabel_224, ??CrossCallReturnLabel_124, ??CrossCallReturnLabel_120
          CFI (cfiCond549) R6 load(1, XDATA, add(CFA_XSP16, literal(-9)))
          CFI (cfiCond549) VB load(1, XDATA, add(CFA_XSP16, literal(-8)))
          CFI (cfiCond549) V0 load(1, XDATA, add(CFA_XSP16, literal(-7)))
          CFI (cfiCond549) R7 load(1, XDATA, add(CFA_XSP16, literal(-6)))
          CFI (cfiCond549) ?RET_LOW load(1, XDATA, add(CFA_XSP16, literal(-5)))
          CFI (cfiCond549) ?RET_HIGH load(1, XDATA, add(CFA_XSP16, literal(-4)))
          CFI (cfiCond549) ?BRET_EXT load(1, XDATA, add(CFA_XSP16, literal(-3)))
          CFI (cfiCond549) DPL0 load(1, XDATA, add(CFA_XSP16, literal(-2)))
          CFI (cfiCond549) DPH0 load(1, XDATA, add(CFA_XSP16, literal(-1)))
          CFI (cfiCond549) CFA_SP SP+-6
          CFI (cfiCond549) CFA_XSP16 add(XSP16, 9)
          CFI Block cfiCond550 Using cfiCommon0
          CFI (cfiCond550) Function ZDSecMgrDeviceCtrlHandler
          CFI (cfiCond550) Conditional ??CrossCallReturnLabel_224, ??CrossCallReturnLabel_124, ??CrossCallReturnLabel_121
          CFI (cfiCond550) R6 load(1, XDATA, add(CFA_XSP16, literal(-9)))
          CFI (cfiCond550) VB load(1, XDATA, add(CFA_XSP16, literal(-8)))
          CFI (cfiCond550) V0 load(1, XDATA, add(CFA_XSP16, literal(-7)))
          CFI (cfiCond550) R7 load(1, XDATA, add(CFA_XSP16, literal(-6)))
          CFI (cfiCond550) ?RET_LOW load(1, XDATA, add(CFA_XSP16, literal(-5)))
          CFI (cfiCond550) ?RET_HIGH load(1, XDATA, add(CFA_XSP16, literal(-4)))
          CFI (cfiCond550) ?BRET_EXT load(1, XDATA, add(CFA_XSP16, literal(-3)))
          CFI (cfiCond550) DPL0 load(1, XDATA, add(CFA_XSP16, literal(-2)))
          CFI (cfiCond550) DPH0 load(1, XDATA, add(CFA_XSP16, literal(-1)))
          CFI (cfiCond550) CFA_SP SP+-6
          CFI (cfiCond550) CFA_XSP16 add(XSP16, 9)
          CFI Block cfiCond551 Using cfiCommon0
          CFI (cfiCond551) Function ZDSecMgrDeviceCtrlHandler
          CFI (cfiCond551) Conditional ??CrossCallReturnLabel_224, ??CrossCallReturnLabel_124, ??CrossCallReturnLabel_119
          CFI (cfiCond551) R6 load(1, XDATA, add(CFA_XSP16, literal(-9)))
          CFI (cfiCond551) VB load(1, XDATA, add(CFA_XSP16, literal(-8)))
          CFI (cfiCond551) V0 load(1, XDATA, add(CFA_XSP16, literal(-7)))
          CFI (cfiCond551) R7 load(1, XDATA, add(CFA_XSP16, literal(-6)))
          CFI (cfiCond551) ?RET_LOW load(1, XDATA, add(CFA_XSP16, literal(-5)))
          CFI (cfiCond551) ?RET_HIGH load(1, XDATA, add(CFA_XSP16, literal(-4)))
          CFI (cfiCond551) ?BRET_EXT load(1, XDATA, add(CFA_XSP16, literal(-3)))
          CFI (cfiCond551) DPL0 load(1, XDATA, add(CFA_XSP16, literal(-2)))
          CFI (cfiCond551) DPH0 load(1, XDATA, add(CFA_XSP16, literal(-1)))
          CFI (cfiCond551) CFA_SP SP+-6
          CFI (cfiCond551) CFA_XSP16 add(XSP16, 9)
          CFI Block cfiCond552 Using cfiCommon0
          CFI (cfiCond552) Function ZDSecMgrAppKeyReq
          CFI (cfiCond552) Conditional ??CrossCallReturnLabel_220, ??CrossCallReturnLabel_37
          CFI (cfiCond552) R6 load(1, XDATA, add(CFA_XSP16, literal(-12)))
          CFI (cfiCond552) VB load(1, XDATA, add(CFA_XSP16, literal(-11)))
          CFI (cfiCond552) V0 load(1, XDATA, add(CFA_XSP16, literal(-10)))
          CFI (cfiCond552) V1 load(1, XDATA, add(CFA_XSP16, literal(-9)))
          CFI (cfiCond552) V2 load(1, XDATA, add(CFA_XSP16, literal(-8)))
          CFI (cfiCond552) V3 load(1, XDATA, add(CFA_XSP16, literal(-7)))
          CFI (cfiCond552) R7 load(1, XDATA, add(CFA_XSP16, literal(-6)))
          CFI (cfiCond552) ?RET_LOW load(1, XDATA, add(CFA_XSP16, literal(-5)))
          CFI (cfiCond552) ?RET_HIGH load(1, XDATA, add(CFA_XSP16, literal(-4)))
          CFI (cfiCond552) ?BRET_EXT load(1, XDATA, add(CFA_XSP16, literal(-3)))
          CFI (cfiCond552) DPL0 load(1, XDATA, add(CFA_XSP16, literal(-2)))
          CFI (cfiCond552) DPH0 load(1, XDATA, add(CFA_XSP16, literal(-1)))
          CFI (cfiCond552) CFA_SP SP+-4
          CFI (cfiCond552) CFA_XSP16 add(XSP16, 51)
          CFI Block cfiCond553 Using cfiCommon0
          CFI (cfiCond553) Function ZDSecMgrDeviceCtrlHandler
          CFI (cfiCond553) Conditional ??CrossCallReturnLabel_220, ??CrossCallReturnLabel_38
          CFI (cfiCond553) R6 load(1, XDATA, add(CFA_XSP16, literal(-9)))
          CFI (cfiCond553) VB load(1, XDATA, add(CFA_XSP16, literal(-8)))
          CFI (cfiCond553) V0 load(1, XDATA, add(CFA_XSP16, literal(-7)))
          CFI (cfiCond553) R7 load(1, XDATA, add(CFA_XSP16, literal(-6)))
          CFI (cfiCond553) ?RET_LOW load(1, XDATA, add(CFA_XSP16, literal(-5)))
          CFI (cfiCond553) ?RET_HIGH load(1, XDATA, add(CFA_XSP16, literal(-4)))
          CFI (cfiCond553) ?BRET_EXT load(1, XDATA, add(CFA_XSP16, literal(-3)))
          CFI (cfiCond553) DPL0 load(1, XDATA, add(CFA_XSP16, literal(-2)))
          CFI (cfiCond553) DPH0 load(1, XDATA, add(CFA_XSP16, literal(-1)))
          CFI (cfiCond553) CFA_SP SP+-4
          CFI (cfiCond553) CFA_XSP16 add(XSP16, 9)
          CFI Block cfiCond554 Using cfiCommon0
          CFI (cfiCond554) Function ZDSecMgrDeviceRemove
          CFI (cfiCond554) Conditional ??CrossCallReturnLabel_219, ??CrossCallReturnLabel_27
          CFI (cfiCond554) R6 load(1, XDATA, add(CFA_XSP16, literal(-10)))
          CFI (cfiCond554) VB load(1, XDATA, add(CFA_XSP16, literal(-9)))
          CFI (cfiCond554) V0 load(1, XDATA, add(CFA_XSP16, literal(-8)))
          CFI (cfiCond554) V1 load(1, XDATA, add(CFA_XSP16, literal(-7)))
          CFI (cfiCond554) R7 load(1, XDATA, add(CFA_XSP16, literal(-6)))
          CFI (cfiCond554) ?RET_LOW load(1, XDATA, add(CFA_XSP16, literal(-5)))
          CFI (cfiCond554) ?RET_HIGH load(1, XDATA, add(CFA_XSP16, literal(-4)))
          CFI (cfiCond554) ?BRET_EXT load(1, XDATA, add(CFA_XSP16, literal(-3)))
          CFI (cfiCond554) DPL0 load(1, XDATA, add(CFA_XSP16, literal(-2)))
          CFI (cfiCond554) DPH0 load(1, XDATA, add(CFA_XSP16, literal(-1)))
          CFI (cfiCond554) CFA_SP SP+-4
          CFI (cfiCond554) CFA_XSP16 add(XSP16, 19)
          CFI Block cfiCond555 Using cfiCommon0
          CFI (cfiCond555) Function ZDSecMgrEvent
          CFI (cfiCond555) Conditional ??CrossCallReturnLabel_219, ??CrossCallReturnLabel_28
          CFI (cfiCond555) R6 load(1, XDATA, add(CFA_XSP16, literal(-10)))
          CFI (cfiCond555) VB load(1, XDATA, add(CFA_XSP16, literal(-9)))
          CFI (cfiCond555) V0 load(1, XDATA, add(CFA_XSP16, literal(-8)))
          CFI (cfiCond555) V1 load(1, XDATA, add(CFA_XSP16, literal(-7)))
          CFI (cfiCond555) R7 load(1, XDATA, add(CFA_XSP16, literal(-6)))
          CFI (cfiCond555) ?RET_LOW load(1, XDATA, add(CFA_XSP16, literal(-5)))
          CFI (cfiCond555) ?RET_HIGH load(1, XDATA, add(CFA_XSP16, literal(-4)))
          CFI (cfiCond555) ?BRET_EXT load(1, XDATA, add(CFA_XSP16, literal(-3)))
          CFI (cfiCond555) DPL0 load(1, XDATA, add(CFA_XSP16, literal(-2)))
          CFI (cfiCond555) DPH0 load(1, XDATA, add(CFA_XSP16, literal(-1)))
          CFI (cfiCond555) CFA_SP SP+-4
          CFI (cfiCond555) CFA_XSP16 add(XSP16, 33)
          CFI Block cfiCond556 Using cfiCommon0
          CFI (cfiCond556) Function APSME_LinkKeySet
          CFI (cfiCond556) Conditional ??CrossCallReturnLabel_221
          CFI (cfiCond556) R6 load(1, XDATA, add(CFA_XSP16, literal(-15)))
          CFI (cfiCond556) VB load(1, XDATA, add(CFA_XSP16, literal(-14)))
          CFI (cfiCond556) V0 load(1, XDATA, add(CFA_XSP16, literal(-13)))
          CFI (cfiCond556) V1 load(1, XDATA, add(CFA_XSP16, literal(-12)))
          CFI (cfiCond556) V2 load(1, XDATA, add(CFA_XSP16, literal(-11)))
          CFI (cfiCond556) V3 load(1, XDATA, add(CFA_XSP16, literal(-10)))
          CFI (cfiCond556) V4 load(1, XDATA, add(CFA_XSP16, literal(-9)))
          CFI (cfiCond556) V5 load(1, XDATA, add(CFA_XSP16, literal(-8)))
          CFI (cfiCond556) V6 load(1, XDATA, add(CFA_XSP16, literal(-7)))
          CFI (cfiCond556) R7 load(1, XDATA, add(CFA_XSP16, literal(-6)))
          CFI (cfiCond556) ?RET_LOW load(1, XDATA, add(CFA_XSP16, literal(-5)))
          CFI (cfiCond556) ?RET_HIGH load(1, XDATA, add(CFA_XSP16, literal(-4)))
          CFI (cfiCond556) ?BRET_EXT load(1, XDATA, add(CFA_XSP16, literal(-3)))
          CFI (cfiCond556) DPL0 load(1, XDATA, add(CFA_XSP16, literal(-2)))
          CFI (cfiCond556) DPH0 load(1, XDATA, add(CFA_XSP16, literal(-1)))
          CFI (cfiCond556) CFA_SP SP+-2
          CFI (cfiCond556) CFA_XSP16 add(XSP16, 17)
          CFI Block cfiCond557 Using cfiCommon0
          CFI (cfiCond557) Function ZDSecMgrDeviceCtrlUpdate
          CFI (cfiCond557) Conditional ??CrossCallReturnLabel_223, ??CrossCallReturnLabel_10
          CFI (cfiCond557) R6 load(1, XDATA, add(CFA_XSP16, literal(-9)))
          CFI (cfiCond557) VB load(1, XDATA, add(CFA_XSP16, literal(-8)))
          CFI (cfiCond557) V0 load(1, XDATA, add(CFA_XSP16, literal(-7)))
          CFI (cfiCond557) R7 load(1, XDATA, add(CFA_XSP16, literal(-6)))
          CFI (cfiCond557) ?RET_LOW load(1, XDATA, add(CFA_XSP16, literal(-5)))
          CFI (cfiCond557) ?RET_HIGH load(1, XDATA, add(CFA_XSP16, literal(-4)))
          CFI (cfiCond557) ?BRET_EXT load(1, XDATA, add(CFA_XSP16, literal(-3)))
          CFI (cfiCond557) DPL0 load(1, XDATA, add(CFA_XSP16, literal(-2)))
          CFI (cfiCond557) DPH0 load(1, XDATA, add(CFA_XSP16, literal(-1)))
          CFI (cfiCond557) CFA_SP SP+-4
          CFI (cfiCond557) CFA_XSP16 add(XSP16, 13)
          CFI Block cfiCond558 Using cfiCommon0
          CFI (cfiCond558) Function APSME_LinkKeySet
          CFI (cfiCond558) Conditional ??CrossCallReturnLabel_223, ??CrossCallReturnLabel_11
          CFI (cfiCond558) R6 load(1, XDATA, add(CFA_XSP16, literal(-15)))
          CFI (cfiCond558) VB load(1, XDATA, add(CFA_XSP16, literal(-14)))
          CFI (cfiCond558) V0 load(1, XDATA, add(CFA_XSP16, literal(-13)))
          CFI (cfiCond558) V1 load(1, XDATA, add(CFA_XSP16, literal(-12)))
          CFI (cfiCond558) V2 load(1, XDATA, add(CFA_XSP16, literal(-11)))
          CFI (cfiCond558) V3 load(1, XDATA, add(CFA_XSP16, literal(-10)))
          CFI (cfiCond558) V4 load(1, XDATA, add(CFA_XSP16, literal(-9)))
          CFI (cfiCond558) V5 load(1, XDATA, add(CFA_XSP16, literal(-8)))
          CFI (cfiCond558) V6 load(1, XDATA, add(CFA_XSP16, literal(-7)))
          CFI (cfiCond558) R7 load(1, XDATA, add(CFA_XSP16, literal(-6)))
          CFI (cfiCond558) ?RET_LOW load(1, XDATA, add(CFA_XSP16, literal(-5)))
          CFI (cfiCond558) ?RET_HIGH load(1, XDATA, add(CFA_XSP16, literal(-4)))
          CFI (cfiCond558) ?BRET_EXT load(1, XDATA, add(CFA_XSP16, literal(-3)))
          CFI (cfiCond558) DPL0 load(1, XDATA, add(CFA_XSP16, literal(-2)))
          CFI (cfiCond558) DPH0 load(1, XDATA, add(CFA_XSP16, literal(-1)))
          CFI (cfiCond558) CFA_SP SP+-4
          CFI (cfiCond558) CFA_XSP16 add(XSP16, 17)
          CFI Block cfiCond559 Using cfiCommon0
          CFI (cfiCond559) Function ZDSecMgrAuthenticationSet
          CFI (cfiCond559) Conditional ??CrossCallReturnLabel_222
          CFI (cfiCond559) R6 load(1, XDATA, add(CFA_XSP16, literal(-9)))
          CFI (cfiCond559) VB load(1, XDATA, add(CFA_XSP16, literal(-8)))
          CFI (cfiCond559) V0 load(1, XDATA, add(CFA_XSP16, literal(-7)))
          CFI (cfiCond559) R7 load(1, XDATA, add(CFA_XSP16, literal(-6)))
          CFI (cfiCond559) ?RET_LOW load(1, XDATA, add(CFA_XSP16, literal(-5)))
          CFI (cfiCond559) ?RET_HIGH load(1, XDATA, add(CFA_XSP16, literal(-4)))
          CFI (cfiCond559) ?BRET_EXT load(1, XDATA, add(CFA_XSP16, literal(-3)))
          CFI (cfiCond559) DPL0 load(1, XDATA, add(CFA_XSP16, literal(-2)))
          CFI (cfiCond559) DPH0 load(1, XDATA, add(CFA_XSP16, literal(-1)))
          CFI (cfiCond559) CFA_SP SP+-2
          CFI (cfiCond559) CFA_XSP16 add(XSP16, 11)
          CFI Block cfiPicker560 Using cfiCommon1
          CFI (cfiPicker560) NoFunction
          CFI (cfiPicker560) Picker
        MOVX      A,@DPTR
        MOV       R0,A
        INC       DPTR
        MOVX      A,@DPTR
        RET
          CFI EndBlock cfiCond543
          CFI EndBlock cfiCond544
          CFI EndBlock cfiCond545
          CFI EndBlock cfiCond546
          CFI EndBlock cfiCond547
          CFI EndBlock cfiCond548
          CFI EndBlock cfiCond549
          CFI EndBlock cfiCond550
          CFI EndBlock cfiCond551
          CFI EndBlock cfiCond552
          CFI EndBlock cfiCond553
          CFI EndBlock cfiCond554
          CFI EndBlock cfiCond555
          CFI EndBlock cfiCond556
          CFI EndBlock cfiCond557
          CFI EndBlock cfiCond558
          CFI EndBlock cfiCond559
          CFI EndBlock cfiPicker560

        RSEG BANKED_CODE:HUGECODE:NOROOT(0)
?Subroutine60:
          CFI Block cfiCond561 Using cfiCommon0
          CFI Function APSME_LinkKeySet
          CFI Conditional ??CrossCallReturnLabel_84
          CFI R6 load(1, XDATA, add(CFA_XSP16, literal(-15)))
          CFI VB load(1, XDATA, add(CFA_XSP16, literal(-14)))
          CFI V0 load(1, XDATA, add(CFA_XSP16, literal(-13)))
          CFI V1 load(1, XDATA, add(CFA_XSP16, literal(-12)))
          CFI V2 load(1, XDATA, add(CFA_XSP16, literal(-11)))
          CFI V3 load(1, XDATA, add(CFA_XSP16, literal(-10)))
          CFI V4 load(1, XDATA, add(CFA_XSP16, literal(-9)))
          CFI V5 load(1, XDATA, add(CFA_XSP16, literal(-8)))
          CFI V6 load(1, XDATA, add(CFA_XSP16, literal(-7)))
          CFI R7 load(1, XDATA, add(CFA_XSP16, literal(-6)))
          CFI ?RET_LOW load(1, XDATA, add(CFA_XSP16, literal(-5)))
          CFI ?RET_HIGH load(1, XDATA, add(CFA_XSP16, literal(-4)))
          CFI ?BRET_EXT load(1, XDATA, add(CFA_XSP16, literal(-3)))
          CFI DPL0 load(1, XDATA, add(CFA_XSP16, literal(-2)))
          CFI DPH0 load(1, XDATA, add(CFA_XSP16, literal(-1)))
          CFI CFA_SP SP+-2
          CFI CFA_XSP16 add(XSP16, 17)
          CFI Block cfiCond562 Using cfiCommon0
          CFI (cfiCond562) Function APSME_LinkKeySet
          CFI (cfiCond562) Conditional ??CrossCallReturnLabel_85
          CFI (cfiCond562) R6 load(1, XDATA, add(CFA_XSP16, literal(-15)))
          CFI (cfiCond562) VB load(1, XDATA, add(CFA_XSP16, literal(-14)))
          CFI (cfiCond562) V0 load(1, XDATA, add(CFA_XSP16, literal(-13)))
          CFI (cfiCond562) V1 load(1, XDATA, add(CFA_XSP16, literal(-12)))
          CFI (cfiCond562) V2 load(1, XDATA, add(CFA_XSP16, literal(-11)))
          CFI (cfiCond562) V3 load(1, XDATA, add(CFA_XSP16, literal(-10)))
          CFI (cfiCond562) V4 load(1, XDATA, add(CFA_XSP16, literal(-9)))
          CFI (cfiCond562) V5 load(1, XDATA, add(CFA_XSP16, literal(-8)))
          CFI (cfiCond562) V6 load(1, XDATA, add(CFA_XSP16, literal(-7)))
          CFI (cfiCond562) R7 load(1, XDATA, add(CFA_XSP16, literal(-6)))
          CFI (cfiCond562) ?RET_LOW load(1, XDATA, add(CFA_XSP16, literal(-5)))
          CFI (cfiCond562) ?RET_HIGH load(1, XDATA, add(CFA_XSP16, literal(-4)))
          CFI (cfiCond562) ?BRET_EXT load(1, XDATA, add(CFA_XSP16, literal(-3)))
          CFI (cfiCond562) DPL0 load(1, XDATA, add(CFA_XSP16, literal(-2)))
          CFI (cfiCond562) DPH0 load(1, XDATA, add(CFA_XSP16, literal(-1)))
          CFI (cfiCond562) CFA_SP SP+-2
          CFI (cfiCond562) CFA_XSP16 add(XSP16, 17)
          CFI Block cfiPicker563 Using cfiCommon1
          CFI (cfiPicker563) NoFunction
          CFI (cfiPicker563) Picker
        MOV       DPL,A
        CLR       A
        ADDC      A,R0
        MOV       DPH,A
        CLR       A
        MOVX      @DPTR,A
        INC       DPTR
        MOVX      @DPTR,A
        INC       DPTR
        MOVX      @DPTR,A
        INC       DPTR
        RET
          CFI EndBlock cfiCond561
          CFI EndBlock cfiCond562
          CFI EndBlock cfiPicker563

        RSEG BANKED_CODE:HUGECODE:NOROOT(0)
?Subroutine23:
          CFI Block cfiCond564 Using cfiCommon0
          CFI Function ZDSecMgrDeviceCtrlUpdate
          CFI Conditional ??CrossCallReturnLabel_10
          CFI R6 load(1, XDATA, add(CFA_XSP16, literal(-9)))
          CFI VB load(1, XDATA, add(CFA_XSP16, literal(-8)))
          CFI V0 load(1, XDATA, add(CFA_XSP16, literal(-7)))
          CFI R7 load(1, XDATA, add(CFA_XSP16, literal(-6)))
          CFI ?RET_LOW load(1, XDATA, add(CFA_XSP16, literal(-5)))
          CFI ?RET_HIGH load(1, XDATA, add(CFA_XSP16, literal(-4)))
          CFI ?BRET_EXT load(1, XDATA, add(CFA_XSP16, literal(-3)))
          CFI DPL0 load(1, XDATA, add(CFA_XSP16, literal(-2)))
          CFI DPH0 load(1, XDATA, add(CFA_XSP16, literal(-1)))
          CFI CFA_SP SP+-2
          CFI CFA_XSP16 add(XSP16, 13)
          CFI Block cfiCond565 Using cfiCommon0
          CFI (cfiCond565) Function APSME_LinkKeySet
          CFI (cfiCond565) Conditional ??CrossCallReturnLabel_11
          CFI (cfiCond565) R6 load(1, XDATA, add(CFA_XSP16, literal(-15)))
          CFI (cfiCond565) VB load(1, XDATA, add(CFA_XSP16, literal(-14)))
          CFI (cfiCond565) V0 load(1, XDATA, add(CFA_XSP16, literal(-13)))
          CFI (cfiCond565) V1 load(1, XDATA, add(CFA_XSP16, literal(-12)))
          CFI (cfiCond565) V2 load(1, XDATA, add(CFA_XSP16, literal(-11)))
          CFI (cfiCond565) V3 load(1, XDATA, add(CFA_XSP16, literal(-10)))
          CFI (cfiCond565) V4 load(1, XDATA, add(CFA_XSP16, literal(-9)))
          CFI (cfiCond565) V5 load(1, XDATA, add(CFA_XSP16, literal(-8)))
          CFI (cfiCond565) V6 load(1, XDATA, add(CFA_XSP16, literal(-7)))
          CFI (cfiCond565) R7 load(1, XDATA, add(CFA_XSP16, literal(-6)))
          CFI (cfiCond565) ?RET_LOW load(1, XDATA, add(CFA_XSP16, literal(-5)))
          CFI (cfiCond565) ?RET_HIGH load(1, XDATA, add(CFA_XSP16, literal(-4)))
          CFI (cfiCond565) ?BRET_EXT load(1, XDATA, add(CFA_XSP16, literal(-3)))
          CFI (cfiCond565) DPL0 load(1, XDATA, add(CFA_XSP16, literal(-2)))
          CFI (cfiCond565) DPH0 load(1, XDATA, add(CFA_XSP16, literal(-1)))
          CFI (cfiCond565) CFA_SP SP+-2
          CFI (cfiCond565) CFA_XSP16 add(XSP16, 17)
          CFI Block cfiPicker566 Using cfiCommon1
          CFI (cfiPicker566) NoFunction
          CFI (cfiPicker566) Picker
        MOVX      @DPTR,A
        LCALL     ?Subroutine74 & 0xFFFF
??CrossCallReturnLabel_223:
        XCH       A,R0
        RET
          CFI EndBlock cfiCond564
          CFI EndBlock cfiCond565
          CFI EndBlock cfiPicker566
// 3356 
// 3357 /******************************************************************************
// 3358  * @fn          ZDSecMgrAuthenticationSet
// 3359  *
// 3360  * @brief       Mark the specific device as authenticated or not
// 3361  *
// 3362  * @param       extAddr - [in] EXT address
// 3363  * @param       option  - [in] authenticated or not
// 3364  *
// 3365  * @return      ZStatus_t
// 3366  */

        RSEG BANKED_CODE:HUGECODE:NOROOT(0)
// 3367 ZStatus_t ZDSecMgrAuthenticationSet( uint8* extAddr, ZDSecMgr_Authentication_Option option )
ZDSecMgrAuthenticationSet:
          CFI Block cfiBlock567 Using cfiCommon0
          CFI Function ZDSecMgrAuthenticationSet
        CODE
// 3368 {
        FUNCALL ZDSecMgrAuthenticationSet, ZDSecMgrEntryLookupExt
        LOCFRAME ISTACK, 0, STACK
        LOCFRAME PSTACK, 0, STACK
        LOCFRAME XSTACK, 11, STACK
        LOCFRAME IOVERLAY, 0, STATIC
        LOCFRAME DOVERLAY, 0, STATIC
        ARGFRAME ISTACK, 0, STACK
        ARGFRAME PSTACK, 0, STACK
        ARGFRAME XSTACK, 11, STACK
        ARGFRAME IOVERLAY, 0, STATIC
        ARGFRAME DOVERLAY, 0, STATIC
        MOV       A,#-0x9
        LCALL     ?BANKED_ENTER_XDATA
          CFI DPH0 load(1, XDATA, add(CFA_XSP16, literal(-1)))
          CFI DPL0 load(1, XDATA, add(CFA_XSP16, literal(-2)))
          CFI ?BRET_EXT load(1, XDATA, add(CFA_XSP16, literal(-3)))
          CFI ?RET_HIGH load(1, XDATA, add(CFA_XSP16, literal(-4)))
          CFI ?RET_LOW load(1, XDATA, add(CFA_XSP16, literal(-5)))
          CFI R7 load(1, XDATA, add(CFA_XSP16, literal(-6)))
          CFI V0 load(1, XDATA, add(CFA_XSP16, literal(-7)))
          CFI VB load(1, XDATA, add(CFA_XSP16, literal(-8)))
          CFI R6 load(1, XDATA, add(CFA_XSP16, literal(-9)))
          CFI CFA_SP SP+0
          CFI CFA_XSP16 add(XSP16, 9)
        ; Saved register size: 9
        ; Auto size: 2
        MOV       A,#-0x2
        LCALL     ?ALLOC_XSTACK8
          CFI CFA_XSP16 add(XSP16, 11)
        MOV       A,R1
        MOV       R6,A
// 3369   ZStatus_t        status;
// 3370   ZDSecMgrEntry_t* entry;
// 3371 
// 3372 
// 3373   // lookup entry index for specified EXT address
// 3374   status = ZDSecMgrEntryLookupExt( extAddr, &entry );
        ; Setup parameters for call to function ZDSecMgrEntryLookupExt
        MOV       R4,?XSP + 0
        MOV       R5,?XSP + 1
        LCALL     `??ZDSecMgrEntryLookupExt::?relay`; Banked call to: ZDSecMgrEntryLookupExt
        MOV       A,R1
        MOV       R1,A
// 3375 
// 3376   if ( status == ZSuccess )
        JNZ       ??ZDSecMgrAuthenticationSet_0
// 3377   {
// 3378     entry->authenticateOption = option;
        LCALL     ?Subroutine74 & 0xFFFF
// 3379   }
??CrossCallReturnLabel_222:
        XCH       A,R0
        ADD       A,#0x1c
        MOV       DPL,A
        CLR       A
        ADDC      A,R0
        MOV       DPH,A
        MOV       A,R6
        MOVX      @DPTR,A
// 3380 
// 3381   return status;
??ZDSecMgrAuthenticationSet_0:
        LJMP      ??Subroutine87_0 & 0xFFFF
// 3382 }
          CFI EndBlock cfiBlock567
// 3383 
// 3384 /******************************************************************************
// 3385  * @fn          ZDSecMgrAuthenticationCheck
// 3386  *
// 3387  * @brief       Check if the specific device has been authenticated or not
// 3388  *              For non-trust center device, always return true
// 3389  *
// 3390  * @param       shortAddr - [in] short address
// 3391  *
// 3392  * @return      TRUE @ authenticated with CBKE
// 3393  *              FALSE @ not authenticated
// 3394  */
// 3395 

        RSEG BANKED_CODE:HUGECODE:NOROOT(0)
// 3396 uint8 ZDSecMgrAuthenticationCheck( uint16 shortAddr )
ZDSecMgrAuthenticationCheck:
          CFI Block cfiBlock568 Using cfiCommon0
          CFI Function ZDSecMgrAuthenticationCheck
        CODE
// 3397 {
        ; Saved register size: 0
        ; Auto size: 0
// 3398 #if defined (SE_PROFILE)
// 3399 
// 3400   ZDSecMgrEntry_t* entry;
// 3401   uint8 extAddr[Z_EXTADDR_LEN];
// 3402 
// 3403   // If the local device is not the trust center, always return TRUE
// 3404   if ( NLME_GetShortAddr() != TCshortAddr )
// 3405   {
// 3406     return TRUE;
// 3407   }
// 3408   // Otherwise, check the authentication option
// 3409   else if ( AddrMgrExtAddrLookup( shortAddr, extAddr ) )
// 3410   {
// 3411     // lookup entry index for specified EXT address
// 3412     if ( ZDSecMgrEntryLookupExt( extAddr, &entry ) == ZSuccess )
// 3413     {
// 3414       if ( entry->authenticateOption != ZDSecMgr_Not_Authenticated )
// 3415       {
// 3416         return TRUE;
// 3417       }
// 3418       else
// 3419       {
// 3420         return FALSE;
// 3421       }
// 3422     }
// 3423   }
// 3424   return FALSE;
// 3425 
// 3426 #else
// 3427   (void)shortAddr;  // Intentionally unreferenced parameter
// 3428   
// 3429   // For non AMI/SE Profile, perform no check and always return true.
// 3430   return TRUE;
        MOV       R1,#0x1
        LJMP      ?BRET
// 3431 
// 3432 #endif // SE_PROFILE
// 3433 }
          CFI EndBlock cfiBlock568
// 3434 
// 3435 
// 3436 /******************************************************************************
// 3437  * @fn          ZDSecMgrLinkKeyDataGet (stubs APSME_LinkKeyDataGet)
// 3438  *
// 3439  * @brief       Get <APSME_LinkKeyData_t> for specified NWK address.
// 3440  *
// 3441  * @param       extAddr - [in] EXT address
// 3442  * @param       data    - [out] APSME_LinkKeyData_t
// 3443  *
// 3444  * @return      ZStatus_t
// 3445  */

        RSEG BANKED_CODE:HUGECODE:NOROOT(0)
// 3446 ZStatus_t ZDSecMgrLinkKeyDataGet(uint8* extAddr, APSME_LinkKeyData_t** data)
APSME_LinkKeyDataGet:
          CFI Block cfiBlock569 Using cfiCommon0
          CFI Function APSME_LinkKeyDataGet
        CODE
// 3447 {
        FUNCALL APSME_LinkKeyDataGet, ZDSecMgrEntryLookupExt
        LOCFRAME ISTACK, 0, STACK
        LOCFRAME PSTACK, 0, STACK
        LOCFRAME XSTACK, 11, STACK
        LOCFRAME IOVERLAY, 0, STATIC
        LOCFRAME DOVERLAY, 0, STATIC
        ARGFRAME ISTACK, 0, STACK
        ARGFRAME PSTACK, 0, STACK
        ARGFRAME XSTACK, 11, STACK
        ARGFRAME IOVERLAY, 0, STATIC
        ARGFRAME DOVERLAY, 0, STATIC
        MOV       A,#-0x9
        LCALL     ?BANKED_ENTER_XDATA
          CFI DPH0 load(1, XDATA, add(CFA_XSP16, literal(-1)))
          CFI DPL0 load(1, XDATA, add(CFA_XSP16, literal(-2)))
          CFI ?BRET_EXT load(1, XDATA, add(CFA_XSP16, literal(-3)))
          CFI ?RET_HIGH load(1, XDATA, add(CFA_XSP16, literal(-4)))
          CFI ?RET_LOW load(1, XDATA, add(CFA_XSP16, literal(-5)))
          CFI R7 load(1, XDATA, add(CFA_XSP16, literal(-6)))
          CFI V0 load(1, XDATA, add(CFA_XSP16, literal(-7)))
          CFI VB load(1, XDATA, add(CFA_XSP16, literal(-8)))
          CFI R6 load(1, XDATA, add(CFA_XSP16, literal(-9)))
          CFI CFA_SP SP+0
          CFI CFA_XSP16 add(XSP16, 9)
        ; Saved register size: 9
        ; Auto size: 2
        MOV       A,#-0x2
        LCALL     ?ALLOC_XSTACK8
          CFI CFA_XSP16 add(XSP16, 11)
        MOV       A,R4
        MOV       R6,A
        MOV       A,R5
        MOV       R7,A
// 3448   ZStatus_t        status;
// 3449   ZDSecMgrEntry_t* entry;
// 3450 
// 3451 
// 3452   // lookup entry index for specified NWK address
// 3453   status = ZDSecMgrEntryLookupExt( extAddr, &entry );
        ; Setup parameters for call to function ZDSecMgrEntryLookupExt
        MOV       R4,?XSP + 0
        MOV       R5,?XSP + 1
        LCALL     `??ZDSecMgrEntryLookupExt::?relay`; Banked call to: ZDSecMgrEntryLookupExt
        MOV       A,R1
        MOV       R1,A
// 3454 
// 3455   if ( status == ZSuccess )
        JNZ       ??APSME_LinkKeyDataGet_0
// 3456   {
// 3457     // setup the link key data reference
// 3458     (*data) = &entry->lkd.apsmelkd;
        MOV       DPL,?XSP + 0
        MOV       DPH,?XSP + 1
        MOVX      A,@DPTR
        ADD       A,#0x12
        MOV       R2,A
        INC       DPTR
        MOVX      A,@DPTR
        ADDC      A,#0x0
        MOV       R3,A
        MOV       DPL,R6
        MOV       DPH,R7
        LCALL     ?Subroutine35 & 0xFFFF
// 3459     (*data)->key = entry->lkd.key;
??CrossCallReturnLabel_36:
        MOV       DPL,?XSP + 0
        MOV       DPH,?XSP + 1
        MOVX      A,@DPTR
        ADD       A,#0x2
        MOV       R4,A
        INC       DPTR
        MOVX      A,@DPTR
        ADDC      A,#0x0
        MOV       R5,A
        MOV       DPL,R2
        MOV       DPH,R3
        MOV       A,R4
        MOVX      @DPTR,A
        INC       DPTR
        MOV       A,R5
        SJMP      ??APSME_LinkKeyDataGet_1
// 3460   }
// 3461   else
// 3462   {
// 3463     *data = NULL;
??APSME_LinkKeyDataGet_0:
        MOV       DPL,R6
        MOV       DPH,R7
        CLR       A
        MOVX      @DPTR,A
        INC       DPTR
??APSME_LinkKeyDataGet_1:
        MOVX      @DPTR,A
// 3464   }
// 3465 
// 3466   return status;
        LJMP      ??Subroutine87_0 & 0xFFFF
// 3467 }
          CFI EndBlock cfiBlock569
// 3468 
// 3469 /******************************************************************************
// 3470  * @fn          ZDSecMgrKeyFwdToChild (stubs APSME_KeyFwdToChild)
// 3471  *
// 3472  * @brief       Verify and process key transportation to child.
// 3473  *
// 3474  * @param       ind - [in] APSME_TransportKeyInd_t
// 3475  *
// 3476  * @return      uint8 - success(TRUE:FALSE)
// 3477  */

        RSEG BANKED_CODE:HUGECODE:NOROOT(0)
// 3478 uint8 ZDSecMgrKeyFwdToChild( APSME_TransportKeyInd_t* ind )
APSME_KeyFwdToChild:
          CFI Block cfiBlock570 Using cfiCommon0
          CFI Function APSME_KeyFwdToChild
        CODE
// 3479 {
        FUNCALL APSME_KeyFwdToChild, AssocGetWithExt
        LOCFRAME ISTACK, 0, STACK
        LOCFRAME PSTACK, 0, STACK
        LOCFRAME XSTACK, 10, STACK
        LOCFRAME IOVERLAY, 0, STATIC
        LOCFRAME DOVERLAY, 0, STATIC
        ARGFRAME ISTACK, 0, STACK
        ARGFRAME PSTACK, 0, STACK
        ARGFRAME XSTACK, 10, STACK
        ARGFRAME IOVERLAY, 0, STATIC
        ARGFRAME DOVERLAY, 0, STATIC
        FUNCALL APSME_KeyFwdToChild, ZDSecMgrAssocDeviceAuth
        LOCFRAME ISTACK, 0, STACK
        LOCFRAME PSTACK, 0, STACK
        LOCFRAME XSTACK, 10, STACK
        LOCFRAME IOVERLAY, 0, STATIC
        LOCFRAME DOVERLAY, 0, STATIC
        ARGFRAME ISTACK, 0, STACK
        ARGFRAME PSTACK, 0, STACK
        ARGFRAME XSTACK, 10, STACK
        ARGFRAME IOVERLAY, 0, STATIC
        ARGFRAME DOVERLAY, 0, STATIC
        REQUIRE ?V0
        REQUIRE ?V1
        MOV       A,#-0xa
        LCALL     ?BANKED_ENTER_XDATA
          CFI DPH0 load(1, XDATA, add(CFA_XSP16, literal(-1)))
          CFI DPL0 load(1, XDATA, add(CFA_XSP16, literal(-2)))
          CFI ?BRET_EXT load(1, XDATA, add(CFA_XSP16, literal(-3)))
          CFI ?RET_HIGH load(1, XDATA, add(CFA_XSP16, literal(-4)))
          CFI ?RET_LOW load(1, XDATA, add(CFA_XSP16, literal(-5)))
          CFI R7 load(1, XDATA, add(CFA_XSP16, literal(-6)))
          CFI V1 load(1, XDATA, add(CFA_XSP16, literal(-7)))
          CFI V0 load(1, XDATA, add(CFA_XSP16, literal(-8)))
          CFI VB load(1, XDATA, add(CFA_XSP16, literal(-9)))
          CFI R6 load(1, XDATA, add(CFA_XSP16, literal(-10)))
          CFI CFA_SP SP+0
          CFI CFA_XSP16 add(XSP16, 10)
        ; Saved register size: 10
        ; Auto size: 0
// 3480   uint8 success;
// 3481 
// 3482   success = FALSE;
        MOV       R6,#0x0
// 3483 
// 3484   // verify from Trust Center
// 3485   if ( ind->srcAddr == APSME_TRUSTCENTER_NWKADDR )
        MOV       DPL,R2
        MOV       DPH,R3
        LCALL     ??Subroutine94_0 & 0xFFFF
??CrossCallReturnLabel_174:
        JNZ       ??APSME_KeyFwdToChild_0
// 3486   {
// 3487     success = TRUE;
        MOV       R6,#0x1
// 3488 
// 3489     // check for initial NWK key
// 3490     if ( ( ind->keyType == KEY_TYPE_NWK      ) ||
// 3491          ( ind->keyType == 6                 ) ||
// 3492          ( ind->keyType == KEY_TYPE_NWK_HIGH )    )
        MOV       DPL,R2
        MOV       DPH,R3
        INC       DPTR
        INC       DPTR
        MOVX      A,@DPTR
        MOV       R0,A
        MOV       A,R6
        XRL       A,R0
        JZ        ??APSME_KeyFwdToChild_1
        MOV       A,#0x6
        XRL       A,R0
        JZ        ??APSME_KeyFwdToChild_1
        MOV       A,#0x5
        XRL       A,R0
        JNZ       ??APSME_KeyFwdToChild_0
// 3493     {
// 3494       // set association status to authenticated
// 3495       ZDSecMgrAssocDeviceAuth( AssocGetWithExt( ind->dstExtAddr ) );
??APSME_KeyFwdToChild_1:
        ; Setup parameters for call to function AssocGetWithExt
        MOV       DPL,R2
        MOV       DPH,R3
        INC       DPTR
        INC       DPTR
        INC       DPTR
        INC       DPTR
        INC       DPTR
        INC       DPTR
        LCALL     ?Subroutine54 & 0xFFFF
// 3496     }
// 3497   }
??CrossCallReturnLabel_68:
        ; Setup parameters for call to function ZDSecMgrAssocDeviceAuth
        LCALL     `??ZDSecMgrAssocDeviceAuth::?relay`; Banked call to: ZDSecMgrAssocDeviceAuth
// 3498 
// 3499   return success;
??APSME_KeyFwdToChild_0:
          CFI EndBlock cfiBlock570
        REQUIRE ?Subroutine10
        ; // Fall through to label ?Subroutine10
// 3500 }

        RSEG BANKED_CODE:HUGECODE:NOROOT(0)
?Subroutine10:
          CFI Block cfiBlock571 Using cfiCommon0
          CFI NoFunction
          CFI CFA_SP SP+0
          CFI CFA_XSP16 add(XSP16, 10)
          CFI VB load(1, XDATA, add(CFA_XSP16, literal(-9)))
          CFI DPL0 load(1, XDATA, add(CFA_XSP16, literal(-2)))
          CFI DPH0 load(1, XDATA, add(CFA_XSP16, literal(-1)))
          CFI R6 load(1, XDATA, add(CFA_XSP16, literal(-10)))
          CFI R7 load(1, XDATA, add(CFA_XSP16, literal(-6)))
          CFI V0 load(1, XDATA, add(CFA_XSP16, literal(-8)))
          CFI V1 load(1, XDATA, add(CFA_XSP16, literal(-7)))
          CFI ?BRET_EXT load(1, XDATA, add(CFA_XSP16, literal(-3)))
          CFI ?RET_HIGH load(1, XDATA, add(CFA_XSP16, literal(-4)))
          CFI ?RET_LOW load(1, XDATA, add(CFA_XSP16, literal(-5)))
        MOV       A,R6
        MOV       R1,A
        LJMP      ??Subroutine102_0 & 0xFFFF
          CFI EndBlock cfiBlock571

        RSEG BANKED_CODE:HUGECODE:NOROOT(0)
?Subroutine54:
          CFI Block cfiCond572 Using cfiCommon0
          CFI Function ZDSecMgrDeviceRemove
          CFI Conditional ??CrossCallReturnLabel_67
          CFI R6 load(1, XDATA, add(CFA_XSP16, literal(-10)))
          CFI VB load(1, XDATA, add(CFA_XSP16, literal(-9)))
          CFI V0 load(1, XDATA, add(CFA_XSP16, literal(-8)))
          CFI V1 load(1, XDATA, add(CFA_XSP16, literal(-7)))
          CFI R7 load(1, XDATA, add(CFA_XSP16, literal(-6)))
          CFI ?RET_LOW load(1, XDATA, add(CFA_XSP16, literal(-5)))
          CFI ?RET_HIGH load(1, XDATA, add(CFA_XSP16, literal(-4)))
          CFI ?BRET_EXT load(1, XDATA, add(CFA_XSP16, literal(-3)))
          CFI DPL0 load(1, XDATA, add(CFA_XSP16, literal(-2)))
          CFI DPH0 load(1, XDATA, add(CFA_XSP16, literal(-1)))
          CFI CFA_SP SP+-2
          CFI CFA_XSP16 add(XSP16, 19)
          CFI Block cfiCond573 Using cfiCommon0
          CFI (cfiCond573) Function APSME_KeyFwdToChild
          CFI (cfiCond573) Conditional ??CrossCallReturnLabel_68
          CFI (cfiCond573) R6 load(1, XDATA, add(CFA_XSP16, literal(-10)))
          CFI (cfiCond573) VB load(1, XDATA, add(CFA_XSP16, literal(-9)))
          CFI (cfiCond573) V0 load(1, XDATA, add(CFA_XSP16, literal(-8)))
          CFI (cfiCond573) V1 load(1, XDATA, add(CFA_XSP16, literal(-7)))
          CFI (cfiCond573) R7 load(1, XDATA, add(CFA_XSP16, literal(-6)))
          CFI (cfiCond573) ?RET_LOW load(1, XDATA, add(CFA_XSP16, literal(-5)))
          CFI (cfiCond573) ?RET_HIGH load(1, XDATA, add(CFA_XSP16, literal(-4)))
          CFI (cfiCond573) ?BRET_EXT load(1, XDATA, add(CFA_XSP16, literal(-3)))
          CFI (cfiCond573) DPL0 load(1, XDATA, add(CFA_XSP16, literal(-2)))
          CFI (cfiCond573) DPH0 load(1, XDATA, add(CFA_XSP16, literal(-1)))
          CFI (cfiCond573) CFA_SP SP+-2
          CFI (cfiCond573) CFA_XSP16 add(XSP16, 10)
          CFI Block cfiPicker574 Using cfiCommon1
          CFI (cfiPicker574) NoFunction
          CFI (cfiPicker574) Picker
        LCALL     ??Subroutine105_0 & 0xFFFF
??CrossCallReturnLabel_227:
        LCALL     `??AssocGetWithExt::?relay`; Banked call to: AssocGetWithExt
        RET
          CFI EndBlock cfiCond572
          CFI EndBlock cfiCond573
          CFI EndBlock cfiPicker574
// 3501 
// 3502 /******************************************************************************
// 3503  * @fn          ZDSecMgrAddLinkKey
// 3504  *
// 3505  * @brief       Add the application link key to ZDSecMgr. Also mark the device
// 3506  *              as authenticated in the authenticateOption. Note that this function
// 3507  *              is hardwared to CBKE right now.
// 3508  *
// 3509  * @param       shortAddr - short address of the partner device
// 3510  * @param       extAddr - extended address of the partner device
// 3511  * @param       key - link key
// 3512  *
// 3513  * @return      none
// 3514  */

        RSEG BANKED_CODE:HUGECODE:NOROOT(0)
// 3515 void ZDSecMgrAddLinkKey( uint16 shortAddr, uint8 *extAddr, uint8 *key)
ZDSecMgrAddLinkKey:
          CFI Block cfiBlock575 Using cfiCommon0
          CFI Function ZDSecMgrAddLinkKey
        CODE
// 3516 {
        FUNCALL ZDSecMgrAddLinkKey, ZDSecMgrAddrStore
        LOCFRAME ISTACK, 0, STACK
        LOCFRAME PSTACK, 0, STACK
        LOCFRAME XSTACK, 16, STACK
        LOCFRAME IOVERLAY, 0, STATIC
        LOCFRAME DOVERLAY, 0, STATIC
        ARGFRAME ISTACK, 0, STACK
        ARGFRAME PSTACK, 0, STACK
        ARGFRAME XSTACK, 16, STACK
        ARGFRAME IOVERLAY, 0, STATIC
        ARGFRAME DOVERLAY, 0, STATIC
        FUNCALL ZDSecMgrAddLinkKey, ZDSecMgrEntryLookupAMI
        LOCFRAME ISTACK, 0, STACK
        LOCFRAME PSTACK, 0, STACK
        LOCFRAME XSTACK, 14, STACK
        LOCFRAME IOVERLAY, 0, STATIC
        LOCFRAME DOVERLAY, 0, STATIC
        ARGFRAME ISTACK, 0, STACK
        ARGFRAME PSTACK, 0, STACK
        ARGFRAME XSTACK, 14, STACK
        ARGFRAME IOVERLAY, 0, STATIC
        ARGFRAME DOVERLAY, 0, STATIC
        FUNCALL ZDSecMgrAddLinkKey, ZDSecMgrEntryNew
        LOCFRAME ISTACK, 0, STACK
        LOCFRAME PSTACK, 0, STACK
        LOCFRAME XSTACK, 14, STACK
        LOCFRAME IOVERLAY, 0, STATIC
        LOCFRAME DOVERLAY, 0, STATIC
        ARGFRAME ISTACK, 0, STACK
        ARGFRAME PSTACK, 0, STACK
        ARGFRAME XSTACK, 14, STACK
        ARGFRAME IOVERLAY, 0, STATIC
        ARGFRAME DOVERLAY, 0, STATIC
        FUNCALL ZDSecMgrAddLinkKey, APSME_LinkKeySet
        LOCFRAME ISTACK, 0, STACK
        LOCFRAME PSTACK, 0, STACK
        LOCFRAME XSTACK, 14, STACK
        LOCFRAME IOVERLAY, 0, STATIC
        LOCFRAME DOVERLAY, 0, STATIC
        ARGFRAME ISTACK, 0, STACK
        ARGFRAME PSTACK, 0, STACK
        ARGFRAME XSTACK, 14, STACK
        ARGFRAME IOVERLAY, 0, STATIC
        ARGFRAME DOVERLAY, 0, STATIC
        FUNCALL ZDSecMgrAddLinkKey, ZDSecMgrWriteNV
        LOCFRAME ISTACK, 0, STACK
        LOCFRAME PSTACK, 0, STACK
        LOCFRAME XSTACK, 14, STACK
        LOCFRAME IOVERLAY, 0, STATIC
        LOCFRAME DOVERLAY, 0, STATIC
        ARGFRAME ISTACK, 0, STACK
        ARGFRAME PSTACK, 0, STACK
        ARGFRAME XSTACK, 14, STACK
        ARGFRAME IOVERLAY, 0, STATIC
        ARGFRAME DOVERLAY, 0, STATIC
        REQUIRE ?V0
        REQUIRE ?V1
        MOV       A,#-0xa
        LCALL     ?BANKED_ENTER_XDATA
          CFI DPH0 load(1, XDATA, add(CFA_XSP16, literal(-1)))
          CFI DPL0 load(1, XDATA, add(CFA_XSP16, literal(-2)))
          CFI ?BRET_EXT load(1, XDATA, add(CFA_XSP16, literal(-3)))
          CFI ?RET_HIGH load(1, XDATA, add(CFA_XSP16, literal(-4)))
          CFI ?RET_LOW load(1, XDATA, add(CFA_XSP16, literal(-5)))
          CFI R7 load(1, XDATA, add(CFA_XSP16, literal(-6)))
          CFI V1 load(1, XDATA, add(CFA_XSP16, literal(-7)))
          CFI V0 load(1, XDATA, add(CFA_XSP16, literal(-8)))
          CFI VB load(1, XDATA, add(CFA_XSP16, literal(-9)))
          CFI R6 load(1, XDATA, add(CFA_XSP16, literal(-10)))
          CFI CFA_SP SP+0
          CFI CFA_XSP16 add(XSP16, 10)
        ; Saved register size: 10
        ; Auto size: 4
        MOV       A,#-0x4
        LCALL     ?ALLOC_XSTACK8
          CFI CFA_XSP16 add(XSP16, 14)
        MOV       A,R4
        MOV       R6,A
        MOV       A,R5
        MOV       R7,A
// 3517   uint16           ami;
// 3518   ZDSecMgrEntry_t* entry;
// 3519 
// 3520   ZDSecMgrAddrStore( shortAddr, extAddr, &ami );
        ; Setup parameters for call to function ZDSecMgrAddrStore
        MOV       A,#0x2
        LCALL     ?XSTACK_DISP100_8
        MOV       ?V0,R0
        MOV       ?V1,R1
        MOV       R0,#?V0
        LCALL     ?PUSH_XSTACK_I_TWO
          CFI CFA_XSP16 add(XSP16, 16)
        LCALL     `??ZDSecMgrAddrStore::?relay`; Banked call to: ZDSecMgrAddrStore
        MOV       A,#0x2
        LCALL     ?DEALLOC_XSTACK8
          CFI CFA_XSP16 add(XSP16, 14)
// 3521 
// 3522   ZDSecMgrEntryLookupAMI( ami, &entry );
        ; Setup parameters for call to function ZDSecMgrEntryLookupAMI
        MOV       R4,?XSP + 0
        MOV       R5,?XSP + 1
        MOV       A,#0x2
        LCALL     ?XSTACK_DISP0_8
        LCALL     ?Subroutine52 & 0xFFFF
// 3523 
// 3524   // If no existing entry, create one
// 3525   if ( entry == NULL )
??CrossCallReturnLabel_64:
        LCALL     ??Subroutine93_0 & 0xFFFF
??CrossCallReturnLabel_176:
        JNZ       ??CrossCallReturnLabel_159
// 3526   {
// 3527     if ( ZDSecMgrEntryNew( &entry ) == ZSuccess )
        ; Setup parameters for call to function ZDSecMgrEntryNew
        MOV       R2,?XSP + 0
        MOV       R3,?XSP + 1
        LCALL     `??ZDSecMgrEntryNew::?relay`; Banked call to: ZDSecMgrEntryNew
        MOV       A,R1
        JNZ       ??CrossCallReturnLabel_159
// 3528     {
// 3529       entry->ami = ami;
        MOV       A,#0x2
        LCALL     ?XSTACK_DISP0_8
        LCALL     ?Subroutine49 & 0xFFFF
// 3530     }
// 3531   }
??CrossCallReturnLabel_60:
        MOVX      A,@DPTR
        MOV       R2,A
        INC       DPTR
        MOVX      A,@DPTR
        MOV       DPH,A
        MOV       DPL,R2
        LCALL     ??Subroutine91_0 & 0xFFFF
// 3532   // Write the link key
// 3533   APSME_LinkKeySet( extAddr, key );
??CrossCallReturnLabel_159:
        ; Setup parameters for call to function APSME_LinkKeySet
        MOV       A,#0xe
        LCALL     ?XSTACK_DISP0_8
        LCALL     ?Subroutine66 & 0xFFFF
??CrossCallReturnLabel_94:
        LCALL     `??APSME_LinkKeySet::?relay`; Banked call to: APSME_LinkKeySet
// 3534 
// 3535 #if defined (SE_PROFILE)
// 3536   // Mark the device as authenticated.
// 3537   ZDSecMgrAuthenticationSet( extAddr, ZDSecMgr_Authenticated_CBCK );
// 3538 #endif
// 3539 
// 3540   // Write the new established link key to NV.
// 3541   ZDSecMgrWriteNV();
        ; Setup parameters for call to function ZDSecMgrWriteNV
        LCALL     `??ZDSecMgrWriteNV::?relay`; Banked call to: ZDSecMgrWriteNV
// 3542 }
        LJMP      ?Subroutine13 & 0xFFFF
          CFI EndBlock cfiBlock575

        RSEG BANKED_CODE:HUGECODE:NOROOT(0)
?Subroutine52:
          CFI Block cfiCond576 Using cfiCommon0
          CFI Function ZDSecMgrEntryLookupExt
          CFI Conditional ??CrossCallReturnLabel_63
          CFI R6 load(1, XDATA, add(CFA_XSP16, literal(-9)))
          CFI VB load(1, XDATA, add(CFA_XSP16, literal(-8)))
          CFI V0 load(1, XDATA, add(CFA_XSP16, literal(-7)))
          CFI R7 load(1, XDATA, add(CFA_XSP16, literal(-6)))
          CFI ?RET_LOW load(1, XDATA, add(CFA_XSP16, literal(-5)))
          CFI ?RET_HIGH load(1, XDATA, add(CFA_XSP16, literal(-4)))
          CFI ?BRET_EXT load(1, XDATA, add(CFA_XSP16, literal(-3)))
          CFI DPL0 load(1, XDATA, add(CFA_XSP16, literal(-2)))
          CFI DPH0 load(1, XDATA, add(CFA_XSP16, literal(-1)))
          CFI CFA_SP SP+-2
          CFI CFA_XSP16 add(XSP16, 11)
          CFI Block cfiCond577 Using cfiCommon0
          CFI (cfiCond577) Function ZDSecMgrAddLinkKey
          CFI (cfiCond577) Conditional ??CrossCallReturnLabel_64
          CFI (cfiCond577) R6 load(1, XDATA, add(CFA_XSP16, literal(-10)))
          CFI (cfiCond577) VB load(1, XDATA, add(CFA_XSP16, literal(-9)))
          CFI (cfiCond577) V0 load(1, XDATA, add(CFA_XSP16, literal(-8)))
          CFI (cfiCond577) V1 load(1, XDATA, add(CFA_XSP16, literal(-7)))
          CFI (cfiCond577) R7 load(1, XDATA, add(CFA_XSP16, literal(-6)))
          CFI (cfiCond577) ?RET_LOW load(1, XDATA, add(CFA_XSP16, literal(-5)))
          CFI (cfiCond577) ?RET_HIGH load(1, XDATA, add(CFA_XSP16, literal(-4)))
          CFI (cfiCond577) ?BRET_EXT load(1, XDATA, add(CFA_XSP16, literal(-3)))
          CFI (cfiCond577) DPL0 load(1, XDATA, add(CFA_XSP16, literal(-2)))
          CFI (cfiCond577) DPH0 load(1, XDATA, add(CFA_XSP16, literal(-1)))
          CFI (cfiCond577) CFA_SP SP+-2
          CFI (cfiCond577) CFA_XSP16 add(XSP16, 14)
          CFI Block cfiPicker578 Using cfiCommon1
          CFI (cfiPicker578) NoFunction
          CFI (cfiPicker578) Picker
        LCALL     ??Subroutine105_0 & 0xFFFF
??CrossCallReturnLabel_226:
        LCALL     `??ZDSecMgrEntryLookupAMI::?relay`; Banked call to: ZDSecMgrEntryLookupAMI
        RET
          CFI EndBlock cfiCond576
          CFI EndBlock cfiCond577
          CFI EndBlock cfiPicker578

        RSEG BANKED_CODE:HUGECODE:NOROOT(0)
?Subroutine68:
          CFI Block cfiCond579 Using cfiCommon0
          CFI Function ZDSecMgrMasterKeyLoad
          CFI Conditional ??CrossCallReturnLabel_228, ??CrossCallReturnLabel_45
          CFI R6 load(1, XDATA, add(CFA_XSP16, literal(-15)))
          CFI VB load(1, XDATA, add(CFA_XSP16, literal(-14)))
          CFI V0 load(1, XDATA, add(CFA_XSP16, literal(-13)))
          CFI V1 load(1, XDATA, add(CFA_XSP16, literal(-12)))
          CFI V2 load(1, XDATA, add(CFA_XSP16, literal(-11)))
          CFI V3 load(1, XDATA, add(CFA_XSP16, literal(-10)))
          CFI V4 load(1, XDATA, add(CFA_XSP16, literal(-9)))
          CFI V5 load(1, XDATA, add(CFA_XSP16, literal(-8)))
          CFI V6 load(1, XDATA, add(CFA_XSP16, literal(-7)))
          CFI R7 load(1, XDATA, add(CFA_XSP16, literal(-6)))
          CFI ?RET_LOW load(1, XDATA, add(CFA_XSP16, literal(-5)))
          CFI ?RET_HIGH load(1, XDATA, add(CFA_XSP16, literal(-4)))
          CFI ?BRET_EXT load(1, XDATA, add(CFA_XSP16, literal(-3)))
          CFI DPL0 load(1, XDATA, add(CFA_XSP16, literal(-2)))
          CFI DPH0 load(1, XDATA, add(CFA_XSP16, literal(-1)))
          CFI CFA_SP SP+-4
          CFI CFA_XSP16 add(XSP16, 19)
          CFI Block cfiCond580 Using cfiCommon0
          CFI (cfiCond580) Function ZDSecMgrDeviceValidateSKKE
          CFI (cfiCond580) Conditional ??CrossCallReturnLabel_228, ??CrossCallReturnLabel_46
          CFI (cfiCond580) R6 load(1, XDATA, add(CFA_XSP16, literal(-9)))
          CFI (cfiCond580) VB load(1, XDATA, add(CFA_XSP16, literal(-8)))
          CFI (cfiCond580) V0 load(1, XDATA, add(CFA_XSP16, literal(-7)))
          CFI (cfiCond580) R7 load(1, XDATA, add(CFA_XSP16, literal(-6)))
          CFI (cfiCond580) ?RET_LOW load(1, XDATA, add(CFA_XSP16, literal(-5)))
          CFI (cfiCond580) ?RET_HIGH load(1, XDATA, add(CFA_XSP16, literal(-4)))
          CFI (cfiCond580) ?BRET_EXT load(1, XDATA, add(CFA_XSP16, literal(-3)))
          CFI (cfiCond580) DPL0 load(1, XDATA, add(CFA_XSP16, literal(-2)))
          CFI (cfiCond580) DPH0 load(1, XDATA, add(CFA_XSP16, literal(-1)))
          CFI (cfiCond580) CFA_SP SP+-4
          CFI (cfiCond580) CFA_XSP16 add(XSP16, 13)
          CFI Block cfiCond581 Using cfiCommon0
          CFI (cfiCond581) Function ZDSecMgrTCDataLoad
          CFI (cfiCond581) Conditional ??CrossCallReturnLabel_228, ??CrossCallReturnLabel_47
          CFI (cfiCond581) R6 load(1, XDATA, add(CFA_XSP16, literal(-10)))
          CFI (cfiCond581) VB load(1, XDATA, add(CFA_XSP16, literal(-9)))
          CFI (cfiCond581) V0 load(1, XDATA, add(CFA_XSP16, literal(-8)))
          CFI (cfiCond581) V1 load(1, XDATA, add(CFA_XSP16, literal(-7)))
          CFI (cfiCond581) R7 load(1, XDATA, add(CFA_XSP16, literal(-6)))
          CFI (cfiCond581) ?RET_LOW load(1, XDATA, add(CFA_XSP16, literal(-5)))
          CFI (cfiCond581) ?RET_HIGH load(1, XDATA, add(CFA_XSP16, literal(-4)))
          CFI (cfiCond581) ?BRET_EXT load(1, XDATA, add(CFA_XSP16, literal(-3)))
          CFI (cfiCond581) DPL0 load(1, XDATA, add(CFA_XSP16, literal(-2)))
          CFI (cfiCond581) DPH0 load(1, XDATA, add(CFA_XSP16, literal(-1)))
          CFI (cfiCond581) CFA_SP SP+-4
          CFI (cfiCond581) CFA_XSP16 add(XSP16, 14)
          CFI Block cfiCond582 Using cfiCommon0
          CFI (cfiCond582) Function ZDSecMgrMasterKeyLoad
          CFI (cfiCond582) Conditional ??CrossCallReturnLabel_229, ??CrossCallReturnLabel_65
          CFI (cfiCond582) R6 load(1, XDATA, add(CFA_XSP16, literal(-15)))
          CFI (cfiCond582) VB load(1, XDATA, add(CFA_XSP16, literal(-14)))
          CFI (cfiCond582) V0 load(1, XDATA, add(CFA_XSP16, literal(-13)))
          CFI (cfiCond582) V1 load(1, XDATA, add(CFA_XSP16, literal(-12)))
          CFI (cfiCond582) V2 load(1, XDATA, add(CFA_XSP16, literal(-11)))
          CFI (cfiCond582) V3 load(1, XDATA, add(CFA_XSP16, literal(-10)))
          CFI (cfiCond582) V4 load(1, XDATA, add(CFA_XSP16, literal(-9)))
          CFI (cfiCond582) V5 load(1, XDATA, add(CFA_XSP16, literal(-8)))
          CFI (cfiCond582) V6 load(1, XDATA, add(CFA_XSP16, literal(-7)))
          CFI (cfiCond582) R7 load(1, XDATA, add(CFA_XSP16, literal(-6)))
          CFI (cfiCond582) ?RET_LOW load(1, XDATA, add(CFA_XSP16, literal(-5)))
          CFI (cfiCond582) ?RET_HIGH load(1, XDATA, add(CFA_XSP16, literal(-4)))
          CFI (cfiCond582) ?BRET_EXT load(1, XDATA, add(CFA_XSP16, literal(-3)))
          CFI (cfiCond582) DPL0 load(1, XDATA, add(CFA_XSP16, literal(-2)))
          CFI (cfiCond582) DPH0 load(1, XDATA, add(CFA_XSP16, literal(-1)))
          CFI (cfiCond582) CFA_SP SP+-4
          CFI (cfiCond582) CFA_XSP16 add(XSP16, 19)
          CFI Block cfiCond583 Using cfiCommon0
          CFI (cfiCond583) Function ZDSecMgrTCDataLoad
          CFI (cfiCond583) Conditional ??CrossCallReturnLabel_229, ??CrossCallReturnLabel_66
          CFI (cfiCond583) R6 load(1, XDATA, add(CFA_XSP16, literal(-10)))
          CFI (cfiCond583) VB load(1, XDATA, add(CFA_XSP16, literal(-9)))
          CFI (cfiCond583) V0 load(1, XDATA, add(CFA_XSP16, literal(-8)))
          CFI (cfiCond583) V1 load(1, XDATA, add(CFA_XSP16, literal(-7)))
          CFI (cfiCond583) R7 load(1, XDATA, add(CFA_XSP16, literal(-6)))
          CFI (cfiCond583) ?RET_LOW load(1, XDATA, add(CFA_XSP16, literal(-5)))
          CFI (cfiCond583) ?RET_HIGH load(1, XDATA, add(CFA_XSP16, literal(-4)))
          CFI (cfiCond583) ?BRET_EXT load(1, XDATA, add(CFA_XSP16, literal(-3)))
          CFI (cfiCond583) DPL0 load(1, XDATA, add(CFA_XSP16, literal(-2)))
          CFI (cfiCond583) DPH0 load(1, XDATA, add(CFA_XSP16, literal(-1)))
          CFI (cfiCond583) CFA_SP SP+-4
          CFI (cfiCond583) CFA_XSP16 add(XSP16, 14)
          CFI Block cfiPicker584 Using cfiCommon1
          CFI (cfiPicker584) NoFunction
          CFI (cfiPicker584) Picker
        MOV       DPL,?XSP + 0
        MOV       DPH,?XSP + 1
          CFI EndBlock cfiCond579
          CFI EndBlock cfiCond580
          CFI EndBlock cfiCond581
          CFI EndBlock cfiCond582
          CFI EndBlock cfiCond583
          CFI EndBlock cfiPicker584
        REQUIRE ??Subroutine105_0
        ; // Fall through to label ??Subroutine105_0

        RSEG BANKED_CODE:HUGECODE:NOROOT(0)
??Subroutine105_0:
          CFI Block cfiCond585 Using cfiCommon0
          CFI Function ZDSecMgrAppKeyGet
          CFI Conditional ??CrossCallReturnLabel_225, ??CrossCallReturnLabel_52
          CFI DPL0 Frame(CFA_SP, 4)
          CFI DPH0 Frame(CFA_SP, 5)
          CFI CFA_SP SP+-9
          CFI Block cfiCond586 Using cfiCommon0
          CFI (cfiCond586) Function ZDSecMgrSendMasterKey
          CFI (cfiCond586) Conditional ??CrossCallReturnLabel_225, ??CrossCallReturnLabel_53
          CFI (cfiCond586) R6 load(1, XDATA, add(CFA_XSP16, literal(-10)))
          CFI (cfiCond586) VB load(1, XDATA, add(CFA_XSP16, literal(-9)))
          CFI (cfiCond586) V0 load(1, XDATA, add(CFA_XSP16, literal(-8)))
          CFI (cfiCond586) V1 load(1, XDATA, add(CFA_XSP16, literal(-7)))
          CFI (cfiCond586) R7 load(1, XDATA, add(CFA_XSP16, literal(-6)))
          CFI (cfiCond586) ?RET_LOW load(1, XDATA, add(CFA_XSP16, literal(-5)))
          CFI (cfiCond586) ?RET_HIGH load(1, XDATA, add(CFA_XSP16, literal(-4)))
          CFI (cfiCond586) ?BRET_EXT load(1, XDATA, add(CFA_XSP16, literal(-3)))
          CFI (cfiCond586) DPL0 load(1, XDATA, add(CFA_XSP16, literal(-2)))
          CFI (cfiCond586) DPH0 load(1, XDATA, add(CFA_XSP16, literal(-1)))
          CFI (cfiCond586) CFA_SP SP+-4
          CFI (cfiCond586) CFA_XSP16 add(XSP16, 23)
          CFI Block cfiCond587 Using cfiCommon0
          CFI (cfiCond587) Function ZDSecMgrAppKeyReq
          CFI (cfiCond587) Conditional ??CrossCallReturnLabel_230, ??CrossCallReturnLabel_135
          CFI (cfiCond587) R6 load(1, XDATA, add(CFA_XSP16, literal(-12)))
          CFI (cfiCond587) VB load(1, XDATA, add(CFA_XSP16, literal(-11)))
          CFI (cfiCond587) V0 load(1, XDATA, add(CFA_XSP16, literal(-10)))
          CFI (cfiCond587) V1 load(1, XDATA, add(CFA_XSP16, literal(-9)))
          CFI (cfiCond587) V2 load(1, XDATA, add(CFA_XSP16, literal(-8)))
          CFI (cfiCond587) V3 load(1, XDATA, add(CFA_XSP16, literal(-7)))
          CFI (cfiCond587) R7 load(1, XDATA, add(CFA_XSP16, literal(-6)))
          CFI (cfiCond587) ?RET_LOW load(1, XDATA, add(CFA_XSP16, literal(-5)))
          CFI (cfiCond587) ?RET_HIGH load(1, XDATA, add(CFA_XSP16, literal(-4)))
          CFI (cfiCond587) ?BRET_EXT load(1, XDATA, add(CFA_XSP16, literal(-3)))
          CFI (cfiCond587) DPL0 load(1, XDATA, add(CFA_XSP16, literal(-2)))
          CFI (cfiCond587) DPH0 load(1, XDATA, add(CFA_XSP16, literal(-1)))
          CFI (cfiCond587) CFA_SP SP+-4
          CFI (cfiCond587) CFA_XSP16 add(XSP16, 51)
          CFI Block cfiCond588 Using cfiCommon0
          CFI (cfiCond588) Function ZDSecMgrAppKeyReq
          CFI (cfiCond588) Conditional ??CrossCallReturnLabel_230, ??CrossCallReturnLabel_136
          CFI (cfiCond588) R6 load(1, XDATA, add(CFA_XSP16, literal(-12)))
          CFI (cfiCond588) VB load(1, XDATA, add(CFA_XSP16, literal(-11)))
          CFI (cfiCond588) V0 load(1, XDATA, add(CFA_XSP16, literal(-10)))
          CFI (cfiCond588) V1 load(1, XDATA, add(CFA_XSP16, literal(-9)))
          CFI (cfiCond588) V2 load(1, XDATA, add(CFA_XSP16, literal(-8)))
          CFI (cfiCond588) V3 load(1, XDATA, add(CFA_XSP16, literal(-7)))
          CFI (cfiCond588) R7 load(1, XDATA, add(CFA_XSP16, literal(-6)))
          CFI (cfiCond588) ?RET_LOW load(1, XDATA, add(CFA_XSP16, literal(-5)))
          CFI (cfiCond588) ?RET_HIGH load(1, XDATA, add(CFA_XSP16, literal(-4)))
          CFI (cfiCond588) ?BRET_EXT load(1, XDATA, add(CFA_XSP16, literal(-3)))
          CFI (cfiCond588) DPL0 load(1, XDATA, add(CFA_XSP16, literal(-2)))
          CFI (cfiCond588) DPH0 load(1, XDATA, add(CFA_XSP16, literal(-1)))
          CFI (cfiCond588) CFA_SP SP+-4
          CFI (cfiCond588) CFA_XSP16 add(XSP16, 59)
          CFI Block cfiCond589 Using cfiCommon0
          CFI (cfiCond589) Function ZDSecMgrDeviceJoinDirect
          CFI (cfiCond589) Conditional ??CrossCallReturnLabel_230, ??CrossCallReturnLabel_137
          CFI (cfiCond589) R6 load(1, XDATA, add(CFA_XSP16, literal(-9)))
          CFI (cfiCond589) VB load(1, XDATA, add(CFA_XSP16, literal(-8)))
          CFI (cfiCond589) V0 load(1, XDATA, add(CFA_XSP16, literal(-7)))
          CFI (cfiCond589) R7 load(1, XDATA, add(CFA_XSP16, literal(-6)))
          CFI (cfiCond589) ?RET_LOW load(1, XDATA, add(CFA_XSP16, literal(-5)))
          CFI (cfiCond589) ?RET_HIGH load(1, XDATA, add(CFA_XSP16, literal(-4)))
          CFI (cfiCond589) ?BRET_EXT load(1, XDATA, add(CFA_XSP16, literal(-3)))
          CFI (cfiCond589) DPL0 load(1, XDATA, add(CFA_XSP16, literal(-2)))
          CFI (cfiCond589) DPH0 load(1, XDATA, add(CFA_XSP16, literal(-1)))
          CFI (cfiCond589) CFA_SP SP+-4
          CFI (cfiCond589) CFA_XSP16 add(XSP16, 9)
          CFI Block cfiCond590 Using cfiCommon0
          CFI (cfiCond590) Function ZDSecMgrMasterKeyLoad
          CFI (cfiCond590) Conditional ??CrossCallReturnLabel_230, ??CrossCallReturnLabel_125
          CFI (cfiCond590) R6 load(1, XDATA, add(CFA_XSP16, literal(-15)))
          CFI (cfiCond590) VB load(1, XDATA, add(CFA_XSP16, literal(-14)))
          CFI (cfiCond590) V0 load(1, XDATA, add(CFA_XSP16, literal(-13)))
          CFI (cfiCond590) V1 load(1, XDATA, add(CFA_XSP16, literal(-12)))
          CFI (cfiCond590) V2 load(1, XDATA, add(CFA_XSP16, literal(-11)))
          CFI (cfiCond590) V3 load(1, XDATA, add(CFA_XSP16, literal(-10)))
          CFI (cfiCond590) V4 load(1, XDATA, add(CFA_XSP16, literal(-9)))
          CFI (cfiCond590) V5 load(1, XDATA, add(CFA_XSP16, literal(-8)))
          CFI (cfiCond590) V6 load(1, XDATA, add(CFA_XSP16, literal(-7)))
          CFI (cfiCond590) R7 load(1, XDATA, add(CFA_XSP16, literal(-6)))
          CFI (cfiCond590) ?RET_LOW load(1, XDATA, add(CFA_XSP16, literal(-5)))
          CFI (cfiCond590) ?RET_HIGH load(1, XDATA, add(CFA_XSP16, literal(-4)))
          CFI (cfiCond590) ?BRET_EXT load(1, XDATA, add(CFA_XSP16, literal(-3)))
          CFI (cfiCond590) DPL0 load(1, XDATA, add(CFA_XSP16, literal(-2)))
          CFI (cfiCond590) DPH0 load(1, XDATA, add(CFA_XSP16, literal(-1)))
          CFI (cfiCond590) CFA_SP SP+-4
          CFI (cfiCond590) CFA_XSP16 add(XSP16, 22)
          CFI Block cfiCond591 Using cfiCommon0
          CFI (cfiCond591) Function ZDSecMgrSendNwkKey
          CFI (cfiCond591) Conditional ??CrossCallReturnLabel_230, ??CrossCallReturnLabel_126
          CFI (cfiCond591) R6 load(1, XDATA, add(CFA_XSP16, literal(-12)))
          CFI (cfiCond591) VB load(1, XDATA, add(CFA_XSP16, literal(-11)))
          CFI (cfiCond591) V0 load(1, XDATA, add(CFA_XSP16, literal(-10)))
          CFI (cfiCond591) V1 load(1, XDATA, add(CFA_XSP16, literal(-9)))
          CFI (cfiCond591) V2 load(1, XDATA, add(CFA_XSP16, literal(-8)))
          CFI (cfiCond591) V3 load(1, XDATA, add(CFA_XSP16, literal(-7)))
          CFI (cfiCond591) R7 load(1, XDATA, add(CFA_XSP16, literal(-6)))
          CFI (cfiCond591) ?RET_LOW load(1, XDATA, add(CFA_XSP16, literal(-5)))
          CFI (cfiCond591) ?RET_HIGH load(1, XDATA, add(CFA_XSP16, literal(-4)))
          CFI (cfiCond591) ?BRET_EXT load(1, XDATA, add(CFA_XSP16, literal(-3)))
          CFI (cfiCond591) DPL0 load(1, XDATA, add(CFA_XSP16, literal(-2)))
          CFI (cfiCond591) DPH0 load(1, XDATA, add(CFA_XSP16, literal(-1)))
          CFI (cfiCond591) CFA_SP SP+-4
          CFI (cfiCond591) CFA_XSP16 add(XSP16, 25)
          CFI Block cfiCond592 Using cfiCommon0
          CFI (cfiCond592) Function ZDSecMgrDeviceEntryAdd
          CFI (cfiCond592) Conditional ??CrossCallReturnLabel_230, ??CrossCallReturnLabel_127
          CFI (cfiCond592) R6 load(1, XDATA, add(CFA_XSP16, literal(-12)))
          CFI (cfiCond592) VB load(1, XDATA, add(CFA_XSP16, literal(-11)))
          CFI (cfiCond592) V0 load(1, XDATA, add(CFA_XSP16, literal(-10)))
          CFI (cfiCond592) V1 load(1, XDATA, add(CFA_XSP16, literal(-9)))
          CFI (cfiCond592) V2 load(1, XDATA, add(CFA_XSP16, literal(-8)))
          CFI (cfiCond592) V3 load(1, XDATA, add(CFA_XSP16, literal(-7)))
          CFI (cfiCond592) R7 load(1, XDATA, add(CFA_XSP16, literal(-6)))
          CFI (cfiCond592) ?RET_LOW load(1, XDATA, add(CFA_XSP16, literal(-5)))
          CFI (cfiCond592) ?RET_HIGH load(1, XDATA, add(CFA_XSP16, literal(-4)))
          CFI (cfiCond592) ?BRET_EXT load(1, XDATA, add(CFA_XSP16, literal(-3)))
          CFI (cfiCond592) DPL0 load(1, XDATA, add(CFA_XSP16, literal(-2)))
          CFI (cfiCond592) DPH0 load(1, XDATA, add(CFA_XSP16, literal(-1)))
          CFI (cfiCond592) CFA_SP SP+-4
          CFI (cfiCond592) CFA_XSP16 add(XSP16, 14)
          CFI Block cfiCond593 Using cfiCommon0
          CFI (cfiCond593) Function ZDSecMgrDeviceEntryAdd
          CFI (cfiCond593) Conditional ??CrossCallReturnLabel_230, ??CrossCallReturnLabel_128
          CFI (cfiCond593) R6 load(1, XDATA, add(CFA_XSP16, literal(-12)))
          CFI (cfiCond593) VB load(1, XDATA, add(CFA_XSP16, literal(-11)))
          CFI (cfiCond593) V0 load(1, XDATA, add(CFA_XSP16, literal(-10)))
          CFI (cfiCond593) V1 load(1, XDATA, add(CFA_XSP16, literal(-9)))
          CFI (cfiCond593) V2 load(1, XDATA, add(CFA_XSP16, literal(-8)))
          CFI (cfiCond593) V3 load(1, XDATA, add(CFA_XSP16, literal(-7)))
          CFI (cfiCond593) R7 load(1, XDATA, add(CFA_XSP16, literal(-6)))
          CFI (cfiCond593) ?RET_LOW load(1, XDATA, add(CFA_XSP16, literal(-5)))
          CFI (cfiCond593) ?RET_HIGH load(1, XDATA, add(CFA_XSP16, literal(-4)))
          CFI (cfiCond593) ?BRET_EXT load(1, XDATA, add(CFA_XSP16, literal(-3)))
          CFI (cfiCond593) DPL0 load(1, XDATA, add(CFA_XSP16, literal(-2)))
          CFI (cfiCond593) DPH0 load(1, XDATA, add(CFA_XSP16, literal(-1)))
          CFI (cfiCond593) CFA_SP SP+-4
          CFI (cfiCond593) CFA_XSP16 add(XSP16, 14)
          CFI Block cfiCond594 Using cfiCommon0
          CFI (cfiCond594) Function ZDSecMgrDeviceRemove
          CFI (cfiCond594) Conditional ??CrossCallReturnLabel_230, ??CrossCallReturnLabel_129
          CFI (cfiCond594) R6 load(1, XDATA, add(CFA_XSP16, literal(-10)))
          CFI (cfiCond594) VB load(1, XDATA, add(CFA_XSP16, literal(-9)))
          CFI (cfiCond594) V0 load(1, XDATA, add(CFA_XSP16, literal(-8)))
          CFI (cfiCond594) V1 load(1, XDATA, add(CFA_XSP16, literal(-7)))
          CFI (cfiCond594) R7 load(1, XDATA, add(CFA_XSP16, literal(-6)))
          CFI (cfiCond594) ?RET_LOW load(1, XDATA, add(CFA_XSP16, literal(-5)))
          CFI (cfiCond594) ?RET_HIGH load(1, XDATA, add(CFA_XSP16, literal(-4)))
          CFI (cfiCond594) ?BRET_EXT load(1, XDATA, add(CFA_XSP16, literal(-3)))
          CFI (cfiCond594) DPL0 load(1, XDATA, add(CFA_XSP16, literal(-2)))
          CFI (cfiCond594) DPH0 load(1, XDATA, add(CFA_XSP16, literal(-1)))
          CFI (cfiCond594) CFA_SP SP+-4
          CFI (cfiCond594) CFA_XSP16 add(XSP16, 19)
          CFI Block cfiCond595 Using cfiCommon0
          CFI (cfiCond595) Function ZDSecMgrDeviceRemove
          CFI (cfiCond595) Conditional ??CrossCallReturnLabel_230, ??CrossCallReturnLabel_130
          CFI (cfiCond595) R6 load(1, XDATA, add(CFA_XSP16, literal(-10)))
          CFI (cfiCond595) VB load(1, XDATA, add(CFA_XSP16, literal(-9)))
          CFI (cfiCond595) V0 load(1, XDATA, add(CFA_XSP16, literal(-8)))
          CFI (cfiCond595) V1 load(1, XDATA, add(CFA_XSP16, literal(-7)))
          CFI (cfiCond595) R7 load(1, XDATA, add(CFA_XSP16, literal(-6)))
          CFI (cfiCond595) ?RET_LOW load(1, XDATA, add(CFA_XSP16, literal(-5)))
          CFI (cfiCond595) ?RET_HIGH load(1, XDATA, add(CFA_XSP16, literal(-4)))
          CFI (cfiCond595) ?BRET_EXT load(1, XDATA, add(CFA_XSP16, literal(-3)))
          CFI (cfiCond595) DPL0 load(1, XDATA, add(CFA_XSP16, literal(-2)))
          CFI (cfiCond595) DPH0 load(1, XDATA, add(CFA_XSP16, literal(-1)))
          CFI (cfiCond595) CFA_SP SP+-4
          CFI (cfiCond595) CFA_XSP16 add(XSP16, 19)
          CFI Block cfiCond596 Using cfiCommon0
          CFI (cfiCond596) Function ZDSecMgrDeviceValidateSKKE
          CFI (cfiCond596) Conditional ??CrossCallReturnLabel_230, ??CrossCallReturnLabel_131
          CFI (cfiCond596) R6 load(1, XDATA, add(CFA_XSP16, literal(-9)))
          CFI (cfiCond596) VB load(1, XDATA, add(CFA_XSP16, literal(-8)))
          CFI (cfiCond596) V0 load(1, XDATA, add(CFA_XSP16, literal(-7)))
          CFI (cfiCond596) R7 load(1, XDATA, add(CFA_XSP16, literal(-6)))
          CFI (cfiCond596) ?RET_LOW load(1, XDATA, add(CFA_XSP16, literal(-5)))
          CFI (cfiCond596) ?RET_HIGH load(1, XDATA, add(CFA_XSP16, literal(-4)))
          CFI (cfiCond596) ?BRET_EXT load(1, XDATA, add(CFA_XSP16, literal(-3)))
          CFI (cfiCond596) DPL0 load(1, XDATA, add(CFA_XSP16, literal(-2)))
          CFI (cfiCond596) DPH0 load(1, XDATA, add(CFA_XSP16, literal(-1)))
          CFI (cfiCond596) CFA_SP SP+-4
          CFI (cfiCond596) CFA_XSP16 add(XSP16, 13)
          CFI Block cfiCond597 Using cfiCommon0
          CFI (cfiCond597) Function ZDSecMgrDeviceValidateCM
          CFI (cfiCond597) Conditional ??CrossCallReturnLabel_230, ??CrossCallReturnLabel_132
          CFI (cfiCond597) R6 load(1, XDATA, add(CFA_XSP16, literal(-12)))
          CFI (cfiCond597) VB load(1, XDATA, add(CFA_XSP16, literal(-11)))
          CFI (cfiCond597) V0 load(1, XDATA, add(CFA_XSP16, literal(-10)))
          CFI (cfiCond597) V1 load(1, XDATA, add(CFA_XSP16, literal(-9)))
          CFI (cfiCond597) V2 load(1, XDATA, add(CFA_XSP16, literal(-8)))
          CFI (cfiCond597) V3 load(1, XDATA, add(CFA_XSP16, literal(-7)))
          CFI (cfiCond597) R7 load(1, XDATA, add(CFA_XSP16, literal(-6)))
          CFI (cfiCond597) ?RET_LOW load(1, XDATA, add(CFA_XSP16, literal(-5)))
          CFI (cfiCond597) ?RET_HIGH load(1, XDATA, add(CFA_XSP16, literal(-4)))
          CFI (cfiCond597) ?BRET_EXT load(1, XDATA, add(CFA_XSP16, literal(-3)))
          CFI (cfiCond597) DPL0 load(1, XDATA, add(CFA_XSP16, literal(-2)))
          CFI (cfiCond597) DPH0 load(1, XDATA, add(CFA_XSP16, literal(-1)))
          CFI (cfiCond597) CFA_SP SP+-4
          CFI (cfiCond597) CFA_XSP16 add(XSP16, 14)
          CFI Block cfiCond598 Using cfiCommon0
          CFI (cfiCond598) Function ZDSecMgrEvent
          CFI (cfiCond598) Conditional ??CrossCallReturnLabel_230, ??CrossCallReturnLabel_133
          CFI (cfiCond598) R6 load(1, XDATA, add(CFA_XSP16, literal(-10)))
          CFI (cfiCond598) VB load(1, XDATA, add(CFA_XSP16, literal(-9)))
          CFI (cfiCond598) V0 load(1, XDATA, add(CFA_XSP16, literal(-8)))
          CFI (cfiCond598) V1 load(1, XDATA, add(CFA_XSP16, literal(-7)))
          CFI (cfiCond598) R7 load(1, XDATA, add(CFA_XSP16, literal(-6)))
          CFI (cfiCond598) ?RET_LOW load(1, XDATA, add(CFA_XSP16, literal(-5)))
          CFI (cfiCond598) ?RET_HIGH load(1, XDATA, add(CFA_XSP16, literal(-4)))
          CFI (cfiCond598) ?BRET_EXT load(1, XDATA, add(CFA_XSP16, literal(-3)))
          CFI (cfiCond598) DPL0 load(1, XDATA, add(CFA_XSP16, literal(-2)))
          CFI (cfiCond598) DPH0 load(1, XDATA, add(CFA_XSP16, literal(-1)))
          CFI (cfiCond598) CFA_SP SP+-4
          CFI (cfiCond598) CFA_XSP16 add(XSP16, 33)
          CFI Block cfiCond599 Using cfiCommon0
          CFI (cfiCond599) Function APSME_MasterKeyGet
          CFI (cfiCond599) Conditional ??CrossCallReturnLabel_230, ??CrossCallReturnLabel_134
          CFI (cfiCond599) R6 load(1, XDATA, add(CFA_XSP16, literal(-9)))
          CFI (cfiCond599) VB load(1, XDATA, add(CFA_XSP16, literal(-8)))
          CFI (cfiCond599) V0 load(1, XDATA, add(CFA_XSP16, literal(-7)))
          CFI (cfiCond599) R7 load(1, XDATA, add(CFA_XSP16, literal(-6)))
          CFI (cfiCond599) ?RET_LOW load(1, XDATA, add(CFA_XSP16, literal(-5)))
          CFI (cfiCond599) ?RET_HIGH load(1, XDATA, add(CFA_XSP16, literal(-4)))
          CFI (cfiCond599) ?BRET_EXT load(1, XDATA, add(CFA_XSP16, literal(-3)))
          CFI (cfiCond599) DPL0 load(1, XDATA, add(CFA_XSP16, literal(-2)))
          CFI (cfiCond599) DPH0 load(1, XDATA, add(CFA_XSP16, literal(-1)))
          CFI (cfiCond599) CFA_SP SP+-4
          CFI (cfiCond599) CFA_XSP16 add(XSP16, 11)
          CFI Block cfiCond600 Using cfiCommon0
          CFI (cfiCond600) Function ZDSecMgrDeviceRemove
          CFI (cfiCond600) Conditional ??CrossCallReturnLabel_227, ??CrossCallReturnLabel_67
          CFI (cfiCond600) R6 load(1, XDATA, add(CFA_XSP16, literal(-10)))
          CFI (cfiCond600) VB load(1, XDATA, add(CFA_XSP16, literal(-9)))
          CFI (cfiCond600) V0 load(1, XDATA, add(CFA_XSP16, literal(-8)))
          CFI (cfiCond600) V1 load(1, XDATA, add(CFA_XSP16, literal(-7)))
          CFI (cfiCond600) R7 load(1, XDATA, add(CFA_XSP16, literal(-6)))
          CFI (cfiCond600) ?RET_LOW load(1, XDATA, add(CFA_XSP16, literal(-5)))
          CFI (cfiCond600) ?RET_HIGH load(1, XDATA, add(CFA_XSP16, literal(-4)))
          CFI (cfiCond600) ?BRET_EXT load(1, XDATA, add(CFA_XSP16, literal(-3)))
          CFI (cfiCond600) DPL0 load(1, XDATA, add(CFA_XSP16, literal(-2)))
          CFI (cfiCond600) DPH0 load(1, XDATA, add(CFA_XSP16, literal(-1)))
          CFI (cfiCond600) CFA_SP SP+-4
          CFI (cfiCond600) CFA_XSP16 add(XSP16, 19)
          CFI Block cfiCond601 Using cfiCommon0
          CFI (cfiCond601) Function APSME_KeyFwdToChild
          CFI (cfiCond601) Conditional ??CrossCallReturnLabel_227, ??CrossCallReturnLabel_68
          CFI (cfiCond601) R6 load(1, XDATA, add(CFA_XSP16, literal(-10)))
          CFI (cfiCond601) VB load(1, XDATA, add(CFA_XSP16, literal(-9)))
          CFI (cfiCond601) V0 load(1, XDATA, add(CFA_XSP16, literal(-8)))
          CFI (cfiCond601) V1 load(1, XDATA, add(CFA_XSP16, literal(-7)))
          CFI (cfiCond601) R7 load(1, XDATA, add(CFA_XSP16, literal(-6)))
          CFI (cfiCond601) ?RET_LOW load(1, XDATA, add(CFA_XSP16, literal(-5)))
          CFI (cfiCond601) ?RET_HIGH load(1, XDATA, add(CFA_XSP16, literal(-4)))
          CFI (cfiCond601) ?BRET_EXT load(1, XDATA, add(CFA_XSP16, literal(-3)))
          CFI (cfiCond601) DPL0 load(1, XDATA, add(CFA_XSP16, literal(-2)))
          CFI (cfiCond601) DPH0 load(1, XDATA, add(CFA_XSP16, literal(-1)))
          CFI (cfiCond601) CFA_SP SP+-4
          CFI (cfiCond601) CFA_XSP16 add(XSP16, 10)
          CFI Block cfiCond602 Using cfiCommon0
          CFI (cfiCond602) Function ZDSecMgrEntryLookupExt
          CFI (cfiCond602) Conditional ??CrossCallReturnLabel_226, ??CrossCallReturnLabel_63
          CFI (cfiCond602) R6 load(1, XDATA, add(CFA_XSP16, literal(-9)))
          CFI (cfiCond602) VB load(1, XDATA, add(CFA_XSP16, literal(-8)))
          CFI (cfiCond602) V0 load(1, XDATA, add(CFA_XSP16, literal(-7)))
          CFI (cfiCond602) R7 load(1, XDATA, add(CFA_XSP16, literal(-6)))
          CFI (cfiCond602) ?RET_LOW load(1, XDATA, add(CFA_XSP16, literal(-5)))
          CFI (cfiCond602) ?RET_HIGH load(1, XDATA, add(CFA_XSP16, literal(-4)))
          CFI (cfiCond602) ?BRET_EXT load(1, XDATA, add(CFA_XSP16, literal(-3)))
          CFI (cfiCond602) DPL0 load(1, XDATA, add(CFA_XSP16, literal(-2)))
          CFI (cfiCond602) DPH0 load(1, XDATA, add(CFA_XSP16, literal(-1)))
          CFI (cfiCond602) CFA_SP SP+-4
          CFI (cfiCond602) CFA_XSP16 add(XSP16, 11)
          CFI Block cfiCond603 Using cfiCommon0
          CFI (cfiCond603) Function ZDSecMgrAddLinkKey
          CFI (cfiCond603) Conditional ??CrossCallReturnLabel_226, ??CrossCallReturnLabel_64
          CFI (cfiCond603) R6 load(1, XDATA, add(CFA_XSP16, literal(-10)))
          CFI (cfiCond603) VB load(1, XDATA, add(CFA_XSP16, literal(-9)))
          CFI (cfiCond603) V0 load(1, XDATA, add(CFA_XSP16, literal(-8)))
          CFI (cfiCond603) V1 load(1, XDATA, add(CFA_XSP16, literal(-7)))
          CFI (cfiCond603) R7 load(1, XDATA, add(CFA_XSP16, literal(-6)))
          CFI (cfiCond603) ?RET_LOW load(1, XDATA, add(CFA_XSP16, literal(-5)))
          CFI (cfiCond603) ?RET_HIGH load(1, XDATA, add(CFA_XSP16, literal(-4)))
          CFI (cfiCond603) ?BRET_EXT load(1, XDATA, add(CFA_XSP16, literal(-3)))
          CFI (cfiCond603) DPL0 load(1, XDATA, add(CFA_XSP16, literal(-2)))
          CFI (cfiCond603) DPH0 load(1, XDATA, add(CFA_XSP16, literal(-1)))
          CFI (cfiCond603) CFA_SP SP+-4
          CFI (cfiCond603) CFA_XSP16 add(XSP16, 14)
          CFI Block cfiCond604 Using cfiCommon0
          CFI (cfiCond604) Function ZDSecMgrMasterKeyLoad
          CFI (cfiCond604) Conditional ??CrossCallReturnLabel_228, ??CrossCallReturnLabel_45
          CFI (cfiCond604) R6 load(1, XDATA, add(CFA_XSP16, literal(-15)))
          CFI (cfiCond604) VB load(1, XDATA, add(CFA_XSP16, literal(-14)))
          CFI (cfiCond604) V0 load(1, XDATA, add(CFA_XSP16, literal(-13)))
          CFI (cfiCond604) V1 load(1, XDATA, add(CFA_XSP16, literal(-12)))
          CFI (cfiCond604) V2 load(1, XDATA, add(CFA_XSP16, literal(-11)))
          CFI (cfiCond604) V3 load(1, XDATA, add(CFA_XSP16, literal(-10)))
          CFI (cfiCond604) V4 load(1, XDATA, add(CFA_XSP16, literal(-9)))
          CFI (cfiCond604) V5 load(1, XDATA, add(CFA_XSP16, literal(-8)))
          CFI (cfiCond604) V6 load(1, XDATA, add(CFA_XSP16, literal(-7)))
          CFI (cfiCond604) R7 load(1, XDATA, add(CFA_XSP16, literal(-6)))
          CFI (cfiCond604) ?RET_LOW load(1, XDATA, add(CFA_XSP16, literal(-5)))
          CFI (cfiCond604) ?RET_HIGH load(1, XDATA, add(CFA_XSP16, literal(-4)))
          CFI (cfiCond604) ?BRET_EXT load(1, XDATA, add(CFA_XSP16, literal(-3)))
          CFI (cfiCond604) DPL0 load(1, XDATA, add(CFA_XSP16, literal(-2)))
          CFI (cfiCond604) DPH0 load(1, XDATA, add(CFA_XSP16, literal(-1)))
          CFI (cfiCond604) CFA_SP SP+-4
          CFI (cfiCond604) CFA_XSP16 add(XSP16, 19)
          CFI Block cfiCond605 Using cfiCommon0
          CFI (cfiCond605) Function ZDSecMgrDeviceValidateSKKE
          CFI (cfiCond605) Conditional ??CrossCallReturnLabel_228, ??CrossCallReturnLabel_46
          CFI (cfiCond605) R6 load(1, XDATA, add(CFA_XSP16, literal(-9)))
          CFI (cfiCond605) VB load(1, XDATA, add(CFA_XSP16, literal(-8)))
          CFI (cfiCond605) V0 load(1, XDATA, add(CFA_XSP16, literal(-7)))
          CFI (cfiCond605) R7 load(1, XDATA, add(CFA_XSP16, literal(-6)))
          CFI (cfiCond605) ?RET_LOW load(1, XDATA, add(CFA_XSP16, literal(-5)))
          CFI (cfiCond605) ?RET_HIGH load(1, XDATA, add(CFA_XSP16, literal(-4)))
          CFI (cfiCond605) ?BRET_EXT load(1, XDATA, add(CFA_XSP16, literal(-3)))
          CFI (cfiCond605) DPL0 load(1, XDATA, add(CFA_XSP16, literal(-2)))
          CFI (cfiCond605) DPH0 load(1, XDATA, add(CFA_XSP16, literal(-1)))
          CFI (cfiCond605) CFA_SP SP+-4
          CFI (cfiCond605) CFA_XSP16 add(XSP16, 13)
          CFI Block cfiCond606 Using cfiCommon0
          CFI (cfiCond606) Function ZDSecMgrTCDataLoad
          CFI (cfiCond606) Conditional ??CrossCallReturnLabel_228, ??CrossCallReturnLabel_47
          CFI (cfiCond606) R6 load(1, XDATA, add(CFA_XSP16, literal(-10)))
          CFI (cfiCond606) VB load(1, XDATA, add(CFA_XSP16, literal(-9)))
          CFI (cfiCond606) V0 load(1, XDATA, add(CFA_XSP16, literal(-8)))
          CFI (cfiCond606) V1 load(1, XDATA, add(CFA_XSP16, literal(-7)))
          CFI (cfiCond606) R7 load(1, XDATA, add(CFA_XSP16, literal(-6)))
          CFI (cfiCond606) ?RET_LOW load(1, XDATA, add(CFA_XSP16, literal(-5)))
          CFI (cfiCond606) ?RET_HIGH load(1, XDATA, add(CFA_XSP16, literal(-4)))
          CFI (cfiCond606) ?BRET_EXT load(1, XDATA, add(CFA_XSP16, literal(-3)))
          CFI (cfiCond606) DPL0 load(1, XDATA, add(CFA_XSP16, literal(-2)))
          CFI (cfiCond606) DPH0 load(1, XDATA, add(CFA_XSP16, literal(-1)))
          CFI (cfiCond606) CFA_SP SP+-4
          CFI (cfiCond606) CFA_XSP16 add(XSP16, 14)
          CFI Block cfiCond607 Using cfiCommon0
          CFI (cfiCond607) Function ZDSecMgrMasterKeyLoad
          CFI (cfiCond607) Conditional ??CrossCallReturnLabel_229, ??CrossCallReturnLabel_65
          CFI (cfiCond607) R6 load(1, XDATA, add(CFA_XSP16, literal(-15)))
          CFI (cfiCond607) VB load(1, XDATA, add(CFA_XSP16, literal(-14)))
          CFI (cfiCond607) V0 load(1, XDATA, add(CFA_XSP16, literal(-13)))
          CFI (cfiCond607) V1 load(1, XDATA, add(CFA_XSP16, literal(-12)))
          CFI (cfiCond607) V2 load(1, XDATA, add(CFA_XSP16, literal(-11)))
          CFI (cfiCond607) V3 load(1, XDATA, add(CFA_XSP16, literal(-10)))
          CFI (cfiCond607) V4 load(1, XDATA, add(CFA_XSP16, literal(-9)))
          CFI (cfiCond607) V5 load(1, XDATA, add(CFA_XSP16, literal(-8)))
          CFI (cfiCond607) V6 load(1, XDATA, add(CFA_XSP16, literal(-7)))
          CFI (cfiCond607) R7 load(1, XDATA, add(CFA_XSP16, literal(-6)))
          CFI (cfiCond607) ?RET_LOW load(1, XDATA, add(CFA_XSP16, literal(-5)))
          CFI (cfiCond607) ?RET_HIGH load(1, XDATA, add(CFA_XSP16, literal(-4)))
          CFI (cfiCond607) ?BRET_EXT load(1, XDATA, add(CFA_XSP16, literal(-3)))
          CFI (cfiCond607) DPL0 load(1, XDATA, add(CFA_XSP16, literal(-2)))
          CFI (cfiCond607) DPH0 load(1, XDATA, add(CFA_XSP16, literal(-1)))
          CFI (cfiCond607) CFA_SP SP+-4
          CFI (cfiCond607) CFA_XSP16 add(XSP16, 19)
          CFI Block cfiCond608 Using cfiCommon0
          CFI (cfiCond608) Function ZDSecMgrTCDataLoad
          CFI (cfiCond608) Conditional ??CrossCallReturnLabel_229, ??CrossCallReturnLabel_66
          CFI (cfiCond608) R6 load(1, XDATA, add(CFA_XSP16, literal(-10)))
          CFI (cfiCond608) VB load(1, XDATA, add(CFA_XSP16, literal(-9)))
          CFI (cfiCond608) V0 load(1, XDATA, add(CFA_XSP16, literal(-8)))
          CFI (cfiCond608) V1 load(1, XDATA, add(CFA_XSP16, literal(-7)))
          CFI (cfiCond608) R7 load(1, XDATA, add(CFA_XSP16, literal(-6)))
          CFI (cfiCond608) ?RET_LOW load(1, XDATA, add(CFA_XSP16, literal(-5)))
          CFI (cfiCond608) ?RET_HIGH load(1, XDATA, add(CFA_XSP16, literal(-4)))
          CFI (cfiCond608) ?BRET_EXT load(1, XDATA, add(CFA_XSP16, literal(-3)))
          CFI (cfiCond608) DPL0 load(1, XDATA, add(CFA_XSP16, literal(-2)))
          CFI (cfiCond608) DPH0 load(1, XDATA, add(CFA_XSP16, literal(-1)))
          CFI (cfiCond608) CFA_SP SP+-4
          CFI (cfiCond608) CFA_XSP16 add(XSP16, 14)
          CFI Block cfiPicker609 Using cfiCommon1
          CFI (cfiPicker609) NoFunction
          CFI (cfiPicker609) Picker
        MOVX      A,@DPTR
        MOV       R2,A
        INC       DPTR
        MOVX      A,@DPTR
        MOV       R3,A
        RET
          CFI EndBlock cfiCond585
          CFI EndBlock cfiCond586
          CFI EndBlock cfiCond587
          CFI EndBlock cfiCond588
          CFI EndBlock cfiCond589
          CFI EndBlock cfiCond590
          CFI EndBlock cfiCond591
          CFI EndBlock cfiCond592
          CFI EndBlock cfiCond593
          CFI EndBlock cfiCond594
          CFI EndBlock cfiCond595
          CFI EndBlock cfiCond596
          CFI EndBlock cfiCond597
          CFI EndBlock cfiCond598
          CFI EndBlock cfiCond599
          CFI EndBlock cfiCond600
          CFI EndBlock cfiCond601
          CFI EndBlock cfiCond602
          CFI EndBlock cfiCond603
          CFI EndBlock cfiCond604
          CFI EndBlock cfiCond605
          CFI EndBlock cfiCond606
          CFI EndBlock cfiCond607
          CFI EndBlock cfiCond608
          CFI EndBlock cfiPicker609

        RSEG BANKED_CODE:HUGECODE:NOROOT(0)
?Subroutine49:
          CFI Block cfiCond610 Using cfiCommon0
          CFI Function ZDSecMgrSendNwkKey
          CFI Conditional ??CrossCallReturnLabel_59
          CFI R6 load(1, XDATA, add(CFA_XSP16, literal(-12)))
          CFI VB load(1, XDATA, add(CFA_XSP16, literal(-11)))
          CFI V0 load(1, XDATA, add(CFA_XSP16, literal(-10)))
          CFI V1 load(1, XDATA, add(CFA_XSP16, literal(-9)))
          CFI V2 load(1, XDATA, add(CFA_XSP16, literal(-8)))
          CFI V3 load(1, XDATA, add(CFA_XSP16, literal(-7)))
          CFI R7 load(1, XDATA, add(CFA_XSP16, literal(-6)))
          CFI ?RET_LOW load(1, XDATA, add(CFA_XSP16, literal(-5)))
          CFI ?RET_HIGH load(1, XDATA, add(CFA_XSP16, literal(-4)))
          CFI ?BRET_EXT load(1, XDATA, add(CFA_XSP16, literal(-3)))
          CFI DPL0 load(1, XDATA, add(CFA_XSP16, literal(-2)))
          CFI DPH0 load(1, XDATA, add(CFA_XSP16, literal(-1)))
          CFI CFA_SP SP+-2
          CFI CFA_XSP16 add(XSP16, 25)
          CFI Block cfiCond611 Using cfiCommon0
          CFI (cfiCond611) Function ZDSecMgrAddLinkKey
          CFI (cfiCond611) Conditional ??CrossCallReturnLabel_60
          CFI (cfiCond611) R6 load(1, XDATA, add(CFA_XSP16, literal(-10)))
          CFI (cfiCond611) VB load(1, XDATA, add(CFA_XSP16, literal(-9)))
          CFI (cfiCond611) V0 load(1, XDATA, add(CFA_XSP16, literal(-8)))
          CFI (cfiCond611) V1 load(1, XDATA, add(CFA_XSP16, literal(-7)))
          CFI (cfiCond611) R7 load(1, XDATA, add(CFA_XSP16, literal(-6)))
          CFI (cfiCond611) ?RET_LOW load(1, XDATA, add(CFA_XSP16, literal(-5)))
          CFI (cfiCond611) ?RET_HIGH load(1, XDATA, add(CFA_XSP16, literal(-4)))
          CFI (cfiCond611) ?BRET_EXT load(1, XDATA, add(CFA_XSP16, literal(-3)))
          CFI (cfiCond611) DPL0 load(1, XDATA, add(CFA_XSP16, literal(-2)))
          CFI (cfiCond611) DPH0 load(1, XDATA, add(CFA_XSP16, literal(-1)))
          CFI (cfiCond611) CFA_SP SP+-2
          CFI (cfiCond611) CFA_XSP16 add(XSP16, 14)
          CFI Block cfiPicker612 Using cfiCommon1
          CFI (cfiPicker612) NoFunction
          CFI (cfiPicker612) Picker
        LCALL     ?Subroutine70 & 0xFFFF
??CrossCallReturnLabel_100:
        RET
          CFI EndBlock cfiCond610
          CFI EndBlock cfiCond611
          CFI EndBlock cfiPicker612

        RSEG BANKED_CODE:HUGECODE:NOROOT(0)
?Subroutine70:
          CFI Block cfiCond613 Using cfiCommon0
          CFI Function ZDSecMgrNewDeviceEvent
          CFI Conditional ??CrossCallReturnLabel_99, ??CrossCallReturnLabel_160
          CFI R6 load(1, XDATA, add(CFA_XSP16, literal(-12)))
          CFI VB load(1, XDATA, add(CFA_XSP16, literal(-11)))
          CFI V0 load(1, XDATA, add(CFA_XSP16, literal(-10)))
          CFI V1 load(1, XDATA, add(CFA_XSP16, literal(-9)))
          CFI V2 load(1, XDATA, add(CFA_XSP16, literal(-8)))
          CFI V3 load(1, XDATA, add(CFA_XSP16, literal(-7)))
          CFI R7 load(1, XDATA, add(CFA_XSP16, literal(-6)))
          CFI ?RET_LOW load(1, XDATA, add(CFA_XSP16, literal(-5)))
          CFI ?RET_HIGH load(1, XDATA, add(CFA_XSP16, literal(-4)))
          CFI ?BRET_EXT load(1, XDATA, add(CFA_XSP16, literal(-3)))
          CFI DPL0 load(1, XDATA, add(CFA_XSP16, literal(-2)))
          CFI DPH0 load(1, XDATA, add(CFA_XSP16, literal(-1)))
          CFI CFA_SP SP+-4
          CFI CFA_XSP16 add(XSP16, 35)
          CFI Block cfiCond614 Using cfiCommon0
          CFI (cfiCond614) Function ZDSecMgrEvent
          CFI (cfiCond614) Conditional ??CrossCallReturnLabel_99, ??CrossCallReturnLabel_161
          CFI (cfiCond614) R6 load(1, XDATA, add(CFA_XSP16, literal(-10)))
          CFI (cfiCond614) VB load(1, XDATA, add(CFA_XSP16, literal(-9)))
          CFI (cfiCond614) V0 load(1, XDATA, add(CFA_XSP16, literal(-8)))
          CFI (cfiCond614) V1 load(1, XDATA, add(CFA_XSP16, literal(-7)))
          CFI (cfiCond614) R7 load(1, XDATA, add(CFA_XSP16, literal(-6)))
          CFI (cfiCond614) ?RET_LOW load(1, XDATA, add(CFA_XSP16, literal(-5)))
          CFI (cfiCond614) ?RET_HIGH load(1, XDATA, add(CFA_XSP16, literal(-4)))
          CFI (cfiCond614) ?BRET_EXT load(1, XDATA, add(CFA_XSP16, literal(-3)))
          CFI (cfiCond614) DPL0 load(1, XDATA, add(CFA_XSP16, literal(-2)))
          CFI (cfiCond614) DPH0 load(1, XDATA, add(CFA_XSP16, literal(-1)))
          CFI (cfiCond614) CFA_SP SP+-4
          CFI (cfiCond614) CFA_XSP16 add(XSP16, 33)
          CFI Block cfiCond615 Using cfiCommon0
          CFI (cfiCond615) Function ZDSecMgrUpdateDeviceInd
          CFI (cfiCond615) Conditional ??CrossCallReturnLabel_99, ??CrossCallReturnLabel_162
          CFI (cfiCond615) DPL0 Frame(CFA_SP, 4)
          CFI (cfiCond615) DPH0 Frame(CFA_SP, 5)
          CFI (cfiCond615) CFA_SP SP+-9
          CFI (cfiCond615) CFA_XSP16 add(XSP16, 10)
          CFI Block cfiCond616 Using cfiCommon0
          CFI (cfiCond616) Function ZDSecMgrSendNwkKey
          CFI (cfiCond616) Conditional ??CrossCallReturnLabel_100, ??CrossCallReturnLabel_59
          CFI (cfiCond616) R6 load(1, XDATA, add(CFA_XSP16, literal(-12)))
          CFI (cfiCond616) VB load(1, XDATA, add(CFA_XSP16, literal(-11)))
          CFI (cfiCond616) V0 load(1, XDATA, add(CFA_XSP16, literal(-10)))
          CFI (cfiCond616) V1 load(1, XDATA, add(CFA_XSP16, literal(-9)))
          CFI (cfiCond616) V2 load(1, XDATA, add(CFA_XSP16, literal(-8)))
          CFI (cfiCond616) V3 load(1, XDATA, add(CFA_XSP16, literal(-7)))
          CFI (cfiCond616) R7 load(1, XDATA, add(CFA_XSP16, literal(-6)))
          CFI (cfiCond616) ?RET_LOW load(1, XDATA, add(CFA_XSP16, literal(-5)))
          CFI (cfiCond616) ?RET_HIGH load(1, XDATA, add(CFA_XSP16, literal(-4)))
          CFI (cfiCond616) ?BRET_EXT load(1, XDATA, add(CFA_XSP16, literal(-3)))
          CFI (cfiCond616) DPL0 load(1, XDATA, add(CFA_XSP16, literal(-2)))
          CFI (cfiCond616) DPH0 load(1, XDATA, add(CFA_XSP16, literal(-1)))
          CFI (cfiCond616) CFA_SP SP+-4
          CFI (cfiCond616) CFA_XSP16 add(XSP16, 25)
          CFI Block cfiCond617 Using cfiCommon0
          CFI (cfiCond617) Function ZDSecMgrAddLinkKey
          CFI (cfiCond617) Conditional ??CrossCallReturnLabel_100, ??CrossCallReturnLabel_60
          CFI (cfiCond617) R6 load(1, XDATA, add(CFA_XSP16, literal(-10)))
          CFI (cfiCond617) VB load(1, XDATA, add(CFA_XSP16, literal(-9)))
          CFI (cfiCond617) V0 load(1, XDATA, add(CFA_XSP16, literal(-8)))
          CFI (cfiCond617) V1 load(1, XDATA, add(CFA_XSP16, literal(-7)))
          CFI (cfiCond617) R7 load(1, XDATA, add(CFA_XSP16, literal(-6)))
          CFI (cfiCond617) ?RET_LOW load(1, XDATA, add(CFA_XSP16, literal(-5)))
          CFI (cfiCond617) ?RET_HIGH load(1, XDATA, add(CFA_XSP16, literal(-4)))
          CFI (cfiCond617) ?BRET_EXT load(1, XDATA, add(CFA_XSP16, literal(-3)))
          CFI (cfiCond617) DPL0 load(1, XDATA, add(CFA_XSP16, literal(-2)))
          CFI (cfiCond617) DPH0 load(1, XDATA, add(CFA_XSP16, literal(-1)))
          CFI (cfiCond617) CFA_SP SP+-4
          CFI (cfiCond617) CFA_XSP16 add(XSP16, 14)
          CFI Block cfiPicker618 Using cfiCommon1
          CFI (cfiPicker618) NoFunction
          CFI (cfiPicker618) Picker
        LCALL     ?Subroutine73 & 0xFFFF
??CrossCallReturnLabel_213:
        MOV       DPL,?XSP + 0
        MOV       DPH,?XSP + 1
        RET
          CFI EndBlock cfiCond613
          CFI EndBlock cfiCond614
          CFI EndBlock cfiCond615
          CFI EndBlock cfiCond616
          CFI EndBlock cfiCond617
          CFI EndBlock cfiPicker618
// 3543 
// 3544 /******************************************************************************
// 3545  * @fn          ZDSecMgrInitNV
// 3546  *
// 3547  * @brief       Initialize the SecMgr entry data in NV.
// 3548  *
// 3549  * @param       none
// 3550  *
// 3551  * @return      uint8 - <osal_nv_item_init> return codes
// 3552  */

        RSEG BANKED_CODE:HUGECODE:NOROOT(0)
// 3553 uint8 ZDSecMgrInitNV( void )
ZDSecMgrInitNV:
          CFI Block cfiBlock619 Using cfiCommon0
          CFI Function ZDSecMgrInitNV
        CODE
// 3554 {
        FUNCALL ZDSecMgrInitNV, osal_nv_item_init
        LOCFRAME ISTACK, 0, STACK
        LOCFRAME PSTACK, 0, STACK
        LOCFRAME XSTACK, 12, STACK
        LOCFRAME IOVERLAY, 0, STATIC
        LOCFRAME DOVERLAY, 0, STATIC
        ARGFRAME ISTACK, 0, STACK
        ARGFRAME PSTACK, 0, STACK
        ARGFRAME XSTACK, 12, STACK
        ARGFRAME IOVERLAY, 0, STATIC
        ARGFRAME DOVERLAY, 0, STATIC
        FUNCALL ZDSecMgrInitNV, ZDSecMgrSetDefaultNV
        LOCFRAME ISTACK, 0, STACK
        LOCFRAME PSTACK, 0, STACK
        LOCFRAME XSTACK, 10, STACK
        LOCFRAME IOVERLAY, 0, STATIC
        LOCFRAME DOVERLAY, 0, STATIC
        ARGFRAME ISTACK, 0, STACK
        ARGFRAME PSTACK, 0, STACK
        ARGFRAME XSTACK, 10, STACK
        ARGFRAME IOVERLAY, 0, STATIC
        ARGFRAME DOVERLAY, 0, STATIC
        REQUIRE ?V0
        REQUIRE ?V1
        MOV       A,#-0xa
        LCALL     ?BANKED_ENTER_XDATA
          CFI DPH0 load(1, XDATA, add(CFA_XSP16, literal(-1)))
          CFI DPL0 load(1, XDATA, add(CFA_XSP16, literal(-2)))
          CFI ?BRET_EXT load(1, XDATA, add(CFA_XSP16, literal(-3)))
          CFI ?RET_HIGH load(1, XDATA, add(CFA_XSP16, literal(-4)))
          CFI ?RET_LOW load(1, XDATA, add(CFA_XSP16, literal(-5)))
          CFI R7 load(1, XDATA, add(CFA_XSP16, literal(-6)))
          CFI V1 load(1, XDATA, add(CFA_XSP16, literal(-7)))
          CFI V0 load(1, XDATA, add(CFA_XSP16, literal(-8)))
          CFI VB load(1, XDATA, add(CFA_XSP16, literal(-9)))
          CFI R6 load(1, XDATA, add(CFA_XSP16, literal(-10)))
          CFI CFA_SP SP+0
          CFI CFA_XSP16 add(XSP16, 10)
        ; Saved register size: 10
        ; Auto size: 0
// 3555   uint8  status;
// 3556   uint16 size;
// 3557 
// 3558   size = (uint16)( sizeof(ZDSecMgrEntry_t) * ZDSECMGR_ENTRY_MAX );
// 3559 
// 3560   status = osal_nv_item_init( ZCD_NV_APS_LINK_KEY_TABLE, size, NULL );
        ; Setup parameters for call to function osal_nv_item_init
        CLR       A
        MOV       ?V0,A
        MOV       ?V1,A
        MOV       R0,#?V0
        LCALL     ?PUSH_XSTACK_I_TWO
          CFI CFA_XSP16 add(XSP16, 12)
        MOV       R4,#0x57
        MOV       R5,#0x0
        MOV       R2,#0x4c
        MOV       R3,#0x0
        LCALL     `??osal_nv_item_init::?relay`; Banked call to: osal_nv_item_init
        MOV       A,#0x2
        LCALL     ?DEALLOC_XSTACK8
          CFI CFA_XSP16 add(XSP16, 10)
        MOV       A,R1
        MOV       R6,A
// 3561 
// 3562   // The item does not already exist
// 3563   if ( status != ZSUCCESS )
        JZ        ??ZDSecMgrInitNV_0
// 3564   {
// 3565     ZDSecMgrSetDefaultNV();
        ; Setup parameters for call to function ZDSecMgrSetDefaultNV
        LCALL     `??ZDSecMgrSetDefaultNV::?relay`; Banked call to: ZDSecMgrSetDefaultNV
// 3566   }
// 3567 
// 3568   return status;
??ZDSecMgrInitNV_0:
        LJMP      ?Subroutine10 & 0xFFFF
// 3569 }
          CFI EndBlock cfiBlock619
// 3570 
// 3571 
// 3572 /******************************************************************************
// 3573  * @fn          ZDSecMgrSetDefaultNV
// 3574  *
// 3575  * @brief       Set default SecMgr entry data in NV.
// 3576  *
// 3577  * @param       none
// 3578  *
// 3579  * @return      none
// 3580  */

        RSEG BANKED_CODE:HUGECODE:NOROOT(0)
// 3581 void ZDSecMgrSetDefaultNV( void )
ZDSecMgrSetDefaultNV:
          CFI Block cfiBlock620 Using cfiCommon0
          CFI Function ZDSecMgrSetDefaultNV
        CODE
// 3582 {
        FUNCALL ZDSecMgrSetDefaultNV, osal_nv_write
        LOCFRAME ISTACK, 0, STACK
        LOCFRAME PSTACK, 0, STACK
        LOCFRAME XSTACK, 16, STACK
        LOCFRAME IOVERLAY, 0, STATIC
        LOCFRAME DOVERLAY, 0, STATIC
        ARGFRAME ISTACK, 0, STACK
        ARGFRAME PSTACK, 0, STACK
        ARGFRAME XSTACK, 16, STACK
        ARGFRAME IOVERLAY, 0, STATIC
        ARGFRAME DOVERLAY, 0, STATIC
        REQUIRE ?V0
        REQUIRE ?V1
        MOV       A,#-0xa
        LCALL     ?BANKED_ENTER_XDATA
          CFI DPH0 load(1, XDATA, add(CFA_XSP16, literal(-1)))
          CFI DPL0 load(1, XDATA, add(CFA_XSP16, literal(-2)))
          CFI ?BRET_EXT load(1, XDATA, add(CFA_XSP16, literal(-3)))
          CFI ?RET_HIGH load(1, XDATA, add(CFA_XSP16, literal(-4)))
          CFI ?RET_LOW load(1, XDATA, add(CFA_XSP16, literal(-5)))
          CFI R7 load(1, XDATA, add(CFA_XSP16, literal(-6)))
          CFI V1 load(1, XDATA, add(CFA_XSP16, literal(-7)))
          CFI V0 load(1, XDATA, add(CFA_XSP16, literal(-8)))
          CFI VB load(1, XDATA, add(CFA_XSP16, literal(-9)))
          CFI R6 load(1, XDATA, add(CFA_XSP16, literal(-10)))
          CFI CFA_SP SP+0
          CFI CFA_XSP16 add(XSP16, 10)
        ; Saved register size: 10
        ; Auto size: 2
        MOV       A,#-0x2
        LCALL     ?ALLOC_XSTACK8
          CFI CFA_XSP16 add(XSP16, 12)
// 3583   nvDeviceListHdr_t hdr;
// 3584 
// 3585   // Initialize the header
// 3586   hdr.numRecs = 0;
        MOV       DPL,?XSP + 0
        MOV       DPH,?XSP + 1
        CLR       A
        MOVX      @DPTR,A
        INC       DPTR
        MOVX      @DPTR,A
// 3587 
// 3588   // Save off the header
// 3589   osal_nv_write( ZCD_NV_APS_LINK_KEY_TABLE, 0, sizeof( nvDeviceListHdr_t ), &hdr );
        ; Setup parameters for call to function osal_nv_write
        LJMP      ?Subroutine2 & 0xFFFF
// 3590 }
          CFI EndBlock cfiBlock620
// 3591 
// 3592 
// 3593 
// 3594 /*********************************************************************
// 3595  * @fn      ZDSecMgrWriteNV()
// 3596  *
// 3597  * @brief   Save off the link key list to NV
// 3598  *
// 3599  * @param   none
// 3600  *
// 3601  * @return  none
// 3602  */

        RSEG BANKED_CODE:HUGECODE:NOROOT(0)
// 3603 void ZDSecMgrWriteNV( void )
ZDSecMgrWriteNV:
          CFI Block cfiBlock621 Using cfiCommon0
          CFI Function ZDSecMgrWriteNV
        CODE
// 3604 {
        FUNCALL ZDSecMgrWriteNV, osal_nv_write
        LOCFRAME ISTACK, 0, STACK
        LOCFRAME PSTACK, 0, STACK
        LOCFRAME XSTACK, 16, STACK
        LOCFRAME IOVERLAY, 0, STATIC
        LOCFRAME DOVERLAY, 0, STATIC
        ARGFRAME ISTACK, 0, STACK
        ARGFRAME PSTACK, 0, STACK
        ARGFRAME XSTACK, 16, STACK
        ARGFRAME IOVERLAY, 0, STATIC
        ARGFRAME DOVERLAY, 0, STATIC
        FUNCALL ZDSecMgrWriteNV, osal_nv_write
        LOCFRAME ISTACK, 0, STACK
        LOCFRAME PSTACK, 0, STACK
        LOCFRAME XSTACK, 16, STACK
        LOCFRAME IOVERLAY, 0, STATIC
        LOCFRAME DOVERLAY, 0, STATIC
        ARGFRAME ISTACK, 0, STACK
        ARGFRAME PSTACK, 0, STACK
        ARGFRAME XSTACK, 16, STACK
        ARGFRAME IOVERLAY, 0, STATIC
        ARGFRAME DOVERLAY, 0, STATIC
        REQUIRE ?V0
        REQUIRE ?V1
        MOV       A,#-0xa
        LCALL     ?BANKED_ENTER_XDATA
          CFI DPH0 load(1, XDATA, add(CFA_XSP16, literal(-1)))
          CFI DPL0 load(1, XDATA, add(CFA_XSP16, literal(-2)))
          CFI ?BRET_EXT load(1, XDATA, add(CFA_XSP16, literal(-3)))
          CFI ?RET_HIGH load(1, XDATA, add(CFA_XSP16, literal(-4)))
          CFI ?RET_LOW load(1, XDATA, add(CFA_XSP16, literal(-5)))
          CFI R7 load(1, XDATA, add(CFA_XSP16, literal(-6)))
          CFI V1 load(1, XDATA, add(CFA_XSP16, literal(-7)))
          CFI V0 load(1, XDATA, add(CFA_XSP16, literal(-8)))
          CFI VB load(1, XDATA, add(CFA_XSP16, literal(-9)))
          CFI R6 load(1, XDATA, add(CFA_XSP16, literal(-10)))
          CFI CFA_SP SP+0
          CFI CFA_XSP16 add(XSP16, 10)
        ; Saved register size: 10
        ; Auto size: 2
        MOV       A,#-0x2
        LCALL     ?ALLOC_XSTACK8
          CFI CFA_XSP16 add(XSP16, 12)
// 3605   uint16 i;
// 3606   nvDeviceListHdr_t hdr;
// 3607 
// 3608   hdr.numRecs = 0;
        MOV       DPL,?XSP + 0
        MOV       DPH,?XSP + 1
        CLR       A
        MOVX      @DPTR,A
        INC       DPTR
        MOVX      @DPTR,A
// 3609 
// 3610   for ( i = 0; i < ZDSECMGR_ENTRY_MAX; i++ )
        MOV       R6,A
        MOV       R7,A
// 3611   {
// 3612     if ( ZDSecMgrEntries[i].ami != INVALID_NODE_ADDR )
??ZDSecMgrWriteNV_0:
        MOV       A,R6
        MOV       R0,A
        MOV       A,R7
        MOV       R1,A
        MOV       A,R0
        MOV       B,#0x1d
        MUL       AB
        MOV       R0,A
        MOV       R2,B
        MOV       B,#0x1d
        MOV       A,R1
        MUL       AB
        ADD       A,R2
        MOV       R1,A
        MOV       DPTR,#ZDSecMgrEntries
        MOVX      A,@DPTR
        ADD       A,R0
        MOV       ?V0,A
        INC       DPTR
        MOVX      A,@DPTR
        ADDC      A,R1
        MOV       ?V1,A
        MOV       DPL,?V0
        MOV       DPH,A
        MOVX      A,@DPTR
        XRL       A,#0xfe
        JNZ       ??ZDSecMgrWriteNV_1
        INC       DPTR
        MOVX      A,@DPTR
        CPL       A
??ZDSecMgrWriteNV_1:
        JZ        ??ZDSecMgrWriteNV_2
// 3613     {
// 3614       // Save off the record
// 3615       osal_nv_write( ZCD_NV_APS_LINK_KEY_TABLE,
// 3616               (uint16)((sizeof(nvDeviceListHdr_t)) + (hdr.numRecs * sizeof(ZDSecMgrEntry_t))),
// 3617                       sizeof(ZDSecMgrEntry_t), &ZDSecMgrEntries[i] );
        ; Setup parameters for call to function osal_nv_write
        MOV       R0,#?V0
        LCALL     ?PUSH_XSTACK_I_TWO
          CFI CFA_XSP16 add(XSP16, 14)
        MOV       ?V0,#0x1d
        MOV       ?V1,#0x0
        MOV       R0,#?V0
        LCALL     ?PUSH_XSTACK_I_TWO
          CFI CFA_XSP16 add(XSP16, 16)
        MOV       A,#0x4
        LCALL     ?XSTACK_DISP0_8
        LCALL     ??Subroutine99_0 & 0xFFFF
??CrossCallReturnLabel_202:
        MOV       A,R0
        MOV       B,#0x1d
        MUL       AB
        MOV       R0,A
        MOV       R2,B
        MOV       B,#0x1d
        MOV       A,R1
        MUL       AB
        ADD       A,R2
        MOV       R1,A
        MOV       A,R0
        ADD       A,#0x2
        MOV       R4,A
        CLR       A
        ADDC      A,R1
        MOV       R5,A
        MOV       R2,#0x4c
        MOV       R3,#0x0
        LCALL     `??osal_nv_write::?relay`; Banked call to: osal_nv_write
        MOV       A,#0x4
        LCALL     ?DEALLOC_XSTACK8
          CFI CFA_XSP16 add(XSP16, 12)
// 3618       hdr.numRecs++;
        MOV       DPL,?XSP + 0
        MOV       DPH,?XSP + 1
        MOVX      A,@DPTR
        ADD       A,#0x1
        MOVX      @DPTR,A
        INC       DPTR
        MOVX      A,@DPTR
        ADDC      A,#0x0
        MOVX      @DPTR,A
// 3619     }
// 3620   }
??ZDSecMgrWriteNV_2:
        INC       R6
        MOV       A,R6
        JNZ       ??ZDSecMgrWriteNV_3
        INC       R7
??ZDSecMgrWriteNV_3:
        CLR       C
        SUBB      A,#0x3
        MOV       A,R7
        SUBB      A,#0x0
        JNC       $+5
        LJMP      ??ZDSecMgrWriteNV_0 & 0xFFFF
// 3621 
// 3622   // Save off the header
// 3623   osal_nv_write( ZCD_NV_APS_LINK_KEY_TABLE, 0, sizeof( nvDeviceListHdr_t ), &hdr );
        ; Setup parameters for call to function osal_nv_write
        LJMP      ?Subroutine2 & 0xFFFF
// 3624 }
          CFI EndBlock cfiBlock621
// 3625 
// 3626 /******************************************************************************
// 3627  * @fn          ZDSecMgrRestoreFromNV
// 3628  *
// 3629  * @brief       Restore the SecMgr entry data from NV.
// 3630  *
// 3631  * @param       none
// 3632  *
// 3633  * @return      ZStatus_t ZSuccess or ZFailure
// 3634  */

        RSEG BANKED_CODE:HUGECODE:NOROOT(0)
// 3635 ZStatus_t ZDSecMgrRestoreFromNV( void )
ZDSecMgrRestoreFromNV:
          CFI Block cfiBlock622 Using cfiCommon0
          CFI Function ZDSecMgrRestoreFromNV
        CODE
// 3636 {
        FUNCALL ZDSecMgrRestoreFromNV, osal_nv_read
        LOCFRAME ISTACK, 0, STACK
        LOCFRAME PSTACK, 0, STACK
        LOCFRAME XSTACK, 19, STACK
        LOCFRAME IOVERLAY, 0, STATIC
        LOCFRAME DOVERLAY, 0, STATIC
        ARGFRAME ISTACK, 0, STACK
        ARGFRAME PSTACK, 0, STACK
        ARGFRAME XSTACK, 19, STACK
        ARGFRAME IOVERLAY, 0, STATIC
        ARGFRAME DOVERLAY, 0, STATIC
        FUNCALL ZDSecMgrRestoreFromNV, osal_nv_read
        LOCFRAME ISTACK, 0, STACK
        LOCFRAME PSTACK, 0, STACK
        LOCFRAME XSTACK, 19, STACK
        LOCFRAME IOVERLAY, 0, STATIC
        LOCFRAME DOVERLAY, 0, STATIC
        ARGFRAME ISTACK, 0, STACK
        ARGFRAME PSTACK, 0, STACK
        ARGFRAME XSTACK, 19, STACK
        ARGFRAME IOVERLAY, 0, STATIC
        ARGFRAME DOVERLAY, 0, STATIC
        FUNCALL ZDSecMgrRestoreFromNV, ZDSecMgrWriteNV
        LOCFRAME ISTACK, 0, STACK
        LOCFRAME PSTACK, 0, STACK
        LOCFRAME XSTACK, 15, STACK
        LOCFRAME IOVERLAY, 0, STATIC
        LOCFRAME DOVERLAY, 0, STATIC
        ARGFRAME ISTACK, 0, STACK
        ARGFRAME PSTACK, 0, STACK
        ARGFRAME XSTACK, 15, STACK
        ARGFRAME IOVERLAY, 0, STATIC
        ARGFRAME DOVERLAY, 0, STATIC
        REQUIRE ?V0
        REQUIRE ?V1
        REQUIRE ?V2
        REQUIRE ?V3
        REQUIRE ?V4
        MOV       A,#-0xd
        LCALL     ?BANKED_ENTER_XDATA
          CFI DPH0 load(1, XDATA, add(CFA_XSP16, literal(-1)))
          CFI DPL0 load(1, XDATA, add(CFA_XSP16, literal(-2)))
          CFI ?BRET_EXT load(1, XDATA, add(CFA_XSP16, literal(-3)))
          CFI ?RET_HIGH load(1, XDATA, add(CFA_XSP16, literal(-4)))
          CFI ?RET_LOW load(1, XDATA, add(CFA_XSP16, literal(-5)))
          CFI R7 load(1, XDATA, add(CFA_XSP16, literal(-6)))
          CFI V4 load(1, XDATA, add(CFA_XSP16, literal(-7)))
          CFI V3 load(1, XDATA, add(CFA_XSP16, literal(-8)))
          CFI V2 load(1, XDATA, add(CFA_XSP16, literal(-9)))
          CFI V1 load(1, XDATA, add(CFA_XSP16, literal(-10)))
          CFI V0 load(1, XDATA, add(CFA_XSP16, literal(-11)))
          CFI VB load(1, XDATA, add(CFA_XSP16, literal(-12)))
          CFI R6 load(1, XDATA, add(CFA_XSP16, literal(-13)))
          CFI CFA_SP SP+0
          CFI CFA_XSP16 add(XSP16, 13)
        ; Saved register size: 13
        ; Auto size: 2
        MOV       A,#-0x2
        LCALL     ?ALLOC_XSTACK8
          CFI CFA_XSP16 add(XSP16, 15)
// 3637   uint8 x = 0;
        MOV       ?V4,#0x0
// 3638   nvDeviceListHdr_t hdr;
// 3639 
// 3640   // Initialize the device list
// 3641   if ( osal_nv_read( ZCD_NV_APS_LINK_KEY_TABLE, 0, sizeof(nvDeviceListHdr_t), &hdr ) == ZSUCCESS )
        ; Setup parameters for call to function osal_nv_read
        MOV       R0,?XSP + 0
        MOV       R1,?XSP + 1
        MOV       ?V0,R0
        MOV       ?V1,R1
        MOV       R0,#?V0
        LCALL     ?PUSH_XSTACK_I_TWO
          CFI CFA_XSP16 add(XSP16, 17)
        MOV       ?V0,#0x2
        MOV       ?V1,#0x0
        MOV       R0,#?V0
        LCALL     ?PUSH_XSTACK_I_TWO
          CFI CFA_XSP16 add(XSP16, 19)
        MOV       R4,#0x0
        MOV       R5,#0x0
        MOV       R2,#0x4c
        MOV       R3,#0x0
        LCALL     `??osal_nv_read::?relay`; Banked call to: osal_nv_read
        MOV       A,#0x4
        LCALL     ?DEALLOC_XSTACK8
          CFI CFA_XSP16 add(XSP16, 15)
        MOV       A,R1
        JZ        ??ZDSecMgrRestoreFromNV_0
// 3642   {
// 3643     // Read in the device list
// 3644     for ( ; x < hdr.numRecs; x++ )
// 3645     {
// 3646       if ( osal_nv_read( ZCD_NV_APS_LINK_KEY_TABLE,
// 3647                 (uint16)(sizeof(nvDeviceListHdr_t) + (x * sizeof(ZDSecMgrEntry_t))),
// 3648                       sizeof(ZDSecMgrEntry_t), &ZDSecMgrEntries[x] ) == ZSUCCESS )
// 3649       {
// 3650         ZDSecMgrEntries[x].lkd.apsmelkd.txFrmCntr += ( MAX_APS_FRAMECOUNTER_CHANGES + 1 );
// 3651       }
// 3652     }
// 3653 
// 3654     // Write the updated entry back to NV.
// 3655     ZDSecMgrWriteNV();
// 3656 
// 3657     return ZSuccess;
// 3658   }
// 3659   return ZFailure;
        MOV       R1,#0x1
??ZDSecMgrRestoreFromNV_1:
        MOV       A,#0x2
        LCALL     ?DEALLOC_XSTACK8
          CFI CFA_XSP16 add(XSP16, 13)
        MOV       R7,#0x5
        LJMP      ?BANKED_LEAVE_XDATA
          CFI CFA_XSP16 add(XSP16, 15)
??ZDSecMgrRestoreFromNV_2:
        MOV       A,?V4
        MOV       B,#0x1d
        MUL       AB
        MOV       R6,A
        MOV       R7,B
        ; Setup parameters for call to function osal_nv_read
        MOV       DPTR,#ZDSecMgrEntries
        MOVX      A,@DPTR
        ADD       A,R6
        MOV       ?V0,A
        INC       DPTR
        MOVX      A,@DPTR
        ADDC      A,R7
        MOV       ?V1,A
        MOV       R0,#?V0
        LCALL     ?PUSH_XSTACK_I_TWO
          CFI CFA_XSP16 add(XSP16, 17)
        MOV       ?V0,#0x1d
        MOV       ?V1,#0x0
        MOV       R0,#?V0
        LCALL     ?PUSH_XSTACK_I_TWO
          CFI CFA_XSP16 add(XSP16, 19)
        MOV       A,R7
        MOV       R3,A
        MOV       A,R6
        ADD       A,#0x2
        MOV       R4,A
        CLR       A
        ADDC      A,R3
        MOV       R5,A
        MOV       R2,#0x4c
        MOV       R3,#0x0
        LCALL     `??osal_nv_read::?relay`; Banked call to: osal_nv_read
        MOV       A,#0x4
        LCALL     ?DEALLOC_XSTACK8
          CFI CFA_XSP16 add(XSP16, 15)
        MOV       A,R1
        JNZ       ??ZDSecMgrRestoreFromNV_3
        MOV       DPTR,#__Constant_b
        MOV       R0,#?V0
        LCALL     ?L_MOV_X
        MOV       DPTR,#ZDSecMgrEntries
        MOVX      A,@DPTR
        ADD       A,R6
        MOV       R0,A
        INC       DPTR
        MOVX      A,@DPTR
        ADDC      A,R7
        MOV       R1,A
        MOV       A,R0
        ADD       A,#0x14
        MOV       DPL,A
        CLR       A
        ADDC      A,R1
        MOV       DPH,A
        MOV       R0,#?V0
        LCALL     ?L_ADD_TO_X
??ZDSecMgrRestoreFromNV_3:
        INC       ?V4
??ZDSecMgrRestoreFromNV_0:
        MOV       DPL,?XSP + 0
        MOV       DPH,?XSP + 1
        LCALL     ??Subroutine99_0 & 0xFFFF
??CrossCallReturnLabel_203:
        CLR       C
        MOV       A,?V4
        SUBB      A,R0
        CLR       A
        SUBB      A,R1
        JC        ??ZDSecMgrRestoreFromNV_2
        ; Setup parameters for call to function ZDSecMgrWriteNV
        LCALL     `??ZDSecMgrWriteNV::?relay`; Banked call to: ZDSecMgrWriteNV
        MOV       R1,#0x0
        LJMP      ??ZDSecMgrRestoreFromNV_1 & 0xFFFF
// 3660 }
          CFI EndBlock cfiBlock622
// 3661 
// 3662 /******************************************************************************
// 3663  * @fn          ZDSecMgrAPSRemove
// 3664  *
// 3665  * @brief       Remove device from network.
// 3666  *
// 3667  * @param       nwkAddr - device's NWK address
// 3668  * @param       extAddr - device's Extended address
// 3669  * @param       parentAddr - parent's NWK address
// 3670  *
// 3671  * @return      ZStatus_t
// 3672  */

        RSEG BANKED_CODE:HUGECODE:NOROOT(0)
// 3673 ZStatus_t ZDSecMgrAPSRemove( uint16 nwkAddr, uint8 *extAddr, uint16 parentAddr )
ZDSecMgrAPSRemove:
          CFI Block cfiBlock623 Using cfiCommon0
          CFI Function ZDSecMgrAPSRemove
        CODE
// 3674 {
        FUNCALL ZDSecMgrAPSRemove, ZDSecMgrDeviceRemove
        LOCFRAME ISTACK, 2, STACK
        LOCFRAME PSTACK, 0, STACK
        LOCFRAME XSTACK, 10, STACK
        LOCFRAME IOVERLAY, 0, STATIC
        LOCFRAME DOVERLAY, 0, STATIC
        ARGFRAME ISTACK, 2, STACK
        ARGFRAME PSTACK, 0, STACK
        ARGFRAME XSTACK, 10, STACK
        ARGFRAME IOVERLAY, 0, STATIC
        ARGFRAME DOVERLAY, 0, STATIC
        PUSH      DPL
          CFI DPL0 Frame(CFA_SP, 4)
          CFI CFA_SP SP+-4
        PUSH      DPH
          CFI DPH0 Frame(CFA_SP, 5)
          CFI CFA_SP SP+-5
        ; Saved register size: 2
        ; Auto size: 10
        MOV       A,#-0xa
        LCALL     ?ALLOC_XSTACK8
          CFI CFA_XSP16 add(XSP16, 10)
// 3675   ZDSecMgrDevice_t device;
// 3676 
// 3677   if ( ( nwkAddr == INVALID_NODE_ADDR ) ||
// 3678        ( extAddr == NULL )              ||
// 3679        ( parentAddr == INVALID_NODE_ADDR ) )
        MOV       A,#-0x2
        XRL       A,R2
        JNZ       ??ZDSecMgrAPSRemove_0
        MOV       A,#-0x1
        XRL       A,R3
??ZDSecMgrAPSRemove_0:
        JZ        ??ZDSecMgrAPSRemove_1
        MOV       A,R4
        ORL       A,R5
        JZ        ??ZDSecMgrAPSRemove_1
        MOV       A,#0xa
        LCALL     ?XSTACK_DISP0_8
        LCALL     ??Subroutine99_0 & 0xFFFF
??CrossCallReturnLabel_204:
        MOV       A,#-0x2
        XRL       A,R0
        JNZ       ??ZDSecMgrAPSRemove_2
        MOV       A,#-0x1
        XRL       A,R1
??ZDSecMgrAPSRemove_2:
        JNZ       ??ZDSecMgrAPSRemove_3
// 3680   {
// 3681     return ( ZFailure );
??ZDSecMgrAPSRemove_1:
        MOV       R1,#0x1
        SJMP      ??ZDSecMgrAPSRemove_4
// 3682   }
// 3683 
// 3684   device.nwkAddr = nwkAddr;
??ZDSecMgrAPSRemove_3:
        LCALL     ?Subroutine21 & 0xFFFF
// 3685   device.extAddr = extAddr;
??CrossCallReturnLabel_217:
        LCALL     ?XSTACK_DISP0_8
        MOV       A,R4
        MOVX      @DPTR,A
        INC       DPTR
        MOV       A,R5
        MOVX      @DPTR,A
// 3686   device.parentAddr = parentAddr;
        MOV       A,#0x4
        LCALL     ?XSTACK_DISP0_8
        LCALL     ?Subroutine17 & 0xFFFF
// 3687 
// 3688   // remove device
// 3689   ZDSecMgrDeviceRemove( &device );
??CrossCallReturnLabel_3:
        LCALL     `??ZDSecMgrDeviceRemove::?relay`; Banked call to: ZDSecMgrDeviceRemove
// 3690 
// 3691   return ( ZSuccess );
        MOV       R1,#0x0
??ZDSecMgrAPSRemove_4:
        LJMP      ?Subroutine6 & 0xFFFF
// 3692 }
          CFI EndBlock cfiBlock623

        RSEG XDATA_ID:CODE:NOROOT(0)
`?<Initializer for ZDSecMgrTCMasterKey>`:
        DATA8
        DB 0
        DB 0
        DB 0
        DB 0
        DB 0
        DB 0
        DB 0
        DB 0
        DB 137
        DB 103
        DB 69
        DB 35
        DB 1
        DB 239
        DB 205
        DB 171

        RSEG XDATA_ID:CODE:NOROOT(0)
`?<Initializer for ZDSecMgrAppKeyType>`:
        DATA8
        DB 3

        RSEG XDATA_ROM_C:CONST:REORDER:NOROOT(0)
        DATA32
__Constant_b:
        DD 11

        RSEG BANK_RELAYS:CODE:REORDER:NOROOT(0)
`??ZDSecMgrMasterKeyInit::?relay`:
        CODE
        LCALL   ?BDISPATCH
        DATA24
        DC24    ZDSecMgrMasterKeyInit

        RSEG BANK_RELAYS:CODE:REORDER:NOROOT(0)
`??ZDSecMgrAddrStore::?relay`:
        CODE
        LCALL   ?BDISPATCH
        DATA24
        DC24    ZDSecMgrAddrStore

        RSEG BANK_RELAYS:CODE:REORDER:NOROOT(0)
`??ZDSecMgrExtAddrStore::?relay`:
        CODE
        LCALL   ?BDISPATCH
        DATA24
        DC24    ZDSecMgrExtAddrStore

        RSEG BANK_RELAYS:CODE:REORDER:NOROOT(0)
`??ZDSecMgrExtAddrLookup::?relay`:
        CODE
        LCALL   ?BDISPATCH
        DATA24
        DC24    ZDSecMgrExtAddrLookup

        RSEG BANK_RELAYS:CODE:REORDER:NOROOT(0)
`??ZDSecMgrMasterKeyLookup::?relay`:
        CODE
        LCALL   ?BDISPATCH
        DATA24
        DC24    ZDSecMgrMasterKeyLookup

        RSEG BANK_RELAYS:CODE:REORDER:NOROOT(0)
`??ZDSecMgrMasterKeyStore::?relay`:
        CODE
        LCALL   ?BDISPATCH
        DATA24
        DC24    ZDSecMgrMasterKeyStore

        RSEG BANK_RELAYS:CODE:REORDER:NOROOT(0)
`??ZDSecMgrEntryInit::?relay`:
        CODE
        LCALL   ?BDISPATCH
        DATA24
        DC24    ZDSecMgrEntryInit

        RSEG BANK_RELAYS:CODE:REORDER:NOROOT(0)
`??ZDSecMgrEntryLookup::?relay`:
        CODE
        LCALL   ?BDISPATCH
        DATA24
        DC24    ZDSecMgrEntryLookup

        RSEG BANK_RELAYS:CODE:REORDER:NOROOT(0)
`??ZDSecMgrEntryLookupAMI::?relay`:
        CODE
        LCALL   ?BDISPATCH
        DATA24
        DC24    ZDSecMgrEntryLookupAMI

        RSEG BANK_RELAYS:CODE:REORDER:NOROOT(0)
`??ZDSecMgrEntryLookupExt::?relay`:
        CODE
        LCALL   ?BDISPATCH
        DATA24
        DC24    ZDSecMgrEntryLookupExt

        RSEG BANK_RELAYS:CODE:REORDER:NOROOT(0)
`??ZDSecMgrEntryFree::?relay`:
        CODE
        LCALL   ?BDISPATCH
        DATA24
        DC24    ZDSecMgrEntryFree

        RSEG BANK_RELAYS:CODE:REORDER:NOROOT(0)
`??ZDSecMgrEntryNew::?relay`:
        CODE
        LCALL   ?BDISPATCH
        DATA24
        DC24    ZDSecMgrEntryNew

        RSEG BANK_RELAYS:CODE:REORDER:NOROOT(0)
`??ZDSecMgrCtrlInit::?relay`:
        CODE
        LCALL   ?BDISPATCH
        DATA24
        DC24    ZDSecMgrCtrlInit

        RSEG BANK_RELAYS:CODE:REORDER:NOROOT(0)
`??ZDSecMgrCtrlRelease::?relay`:
        CODE
        LCALL   ?BDISPATCH
        DATA24
        DC24    ZDSecMgrCtrlRelease

        RSEG BANK_RELAYS:CODE:REORDER:NOROOT(0)
`??ZDSecMgrCtrlLookup::?relay`:
        CODE
        LCALL   ?BDISPATCH
        DATA24
        DC24    ZDSecMgrCtrlLookup

        RSEG BANK_RELAYS:CODE:REORDER:NOROOT(0)
`??ZDSecMgrCtrlSet::?relay`:
        CODE
        LCALL   ?BDISPATCH
        DATA24
        DC24    ZDSecMgrCtrlSet

        RSEG BANK_RELAYS:CODE:REORDER:NOROOT(0)
`??ZDSecMgrCtrlAdd::?relay`:
        CODE
        LCALL   ?BDISPATCH
        DATA24
        DC24    ZDSecMgrCtrlAdd

        RSEG BANK_RELAYS:CODE:REORDER:NOROOT(0)
`??ZDSecMgrCtrlTerm::?relay`:
        CODE
        LCALL   ?BDISPATCH
        DATA24
        DC24    ZDSecMgrCtrlTerm

        RSEG BANK_RELAYS:CODE:REORDER:NOROOT(0)
`??ZDSecMgrCtrlReset::?relay`:
        CODE
        LCALL   ?BDISPATCH
        DATA24
        DC24    ZDSecMgrCtrlReset

        RSEG BANK_RELAYS:CODE:REORDER:NOROOT(0)
`??ZDSecMgrMasterKeyLoad::?relay`:
        CODE
        LCALL   ?BDISPATCH
        DATA24
        DC24    ZDSecMgrMasterKeyLoad

        RSEG BANK_RELAYS:CODE:REORDER:NOROOT(0)
`??ZDSecMgrAppKeyGet::?relay`:
        CODE
        LCALL   ?BDISPATCH
        DATA24
        DC24    ZDSecMgrAppKeyGet

        RSEG BANK_RELAYS:CODE:REORDER:NOROOT(0)
`??ZDSecMgrAppKeyReq::?relay`:
        CODE
        LCALL   ?BDISPATCH
        DATA24
        DC24    ZDSecMgrAppKeyReq

        RSEG BANK_RELAYS:CODE:REORDER:NOROOT(0)
`??ZDSecMgrEstablishKey::?relay`:
        CODE
        LCALL   ?BDISPATCH
        DATA24
        DC24    ZDSecMgrEstablishKey

        RSEG BANK_RELAYS:CODE:REORDER:NOROOT(0)
`??ZDSecMgrSendMasterKey::?relay`:
        CODE
        LCALL   ?BDISPATCH
        DATA24
        DC24    ZDSecMgrSendMasterKey

        RSEG BANK_RELAYS:CODE:REORDER:NOROOT(0)
`??ZDSecMgrSendNwkKey::?relay`:
        CODE
        LCALL   ?BDISPATCH
        DATA24
        DC24    ZDSecMgrSendNwkKey

        RSEG BANK_RELAYS:CODE:REORDER:NOROOT(0)
`??ZDSecMgrDeviceEntryRemove::?relay`:
        CODE
        LCALL   ?BDISPATCH
        DATA24
        DC24    ZDSecMgrDeviceEntryRemove

        RSEG BANK_RELAYS:CODE:REORDER:NOROOT(0)
`??ZDSecMgrAddrMgrUpdate::?relay`:
        CODE
        LCALL   ?BDISPATCH
        DATA24
        DC24    ZDSecMgrAddrMgrUpdate

        RSEG BANK_RELAYS:CODE:REORDER:NOROOT(0)
`??ZDSecMgrDeviceEntryAdd::?relay`:
        CODE
        LCALL   ?BDISPATCH
        DATA24
        DC24    ZDSecMgrDeviceEntryAdd

        RSEG BANK_RELAYS:CODE:REORDER:NOROOT(0)
`??ZDSecMgrDeviceCtrlHandler::?relay`:
        CODE
        LCALL   ?BDISPATCH
        DATA24
        DC24    ZDSecMgrDeviceCtrlHandler

        RSEG BANK_RELAYS:CODE:REORDER:NOROOT(0)
`??ZDSecMgrDeviceCtrlSetup::?relay`:
        CODE
        LCALL   ?BDISPATCH
        DATA24
        DC24    ZDSecMgrDeviceCtrlSetup

        RSEG BANK_RELAYS:CODE:REORDER:NOROOT(0)
`??ZDSecMgrDeviceCtrlUpdate::?relay`:
        CODE
        LCALL   ?BDISPATCH
        DATA24
        DC24    ZDSecMgrDeviceCtrlUpdate

        RSEG BANK_RELAYS:CODE:REORDER:NOROOT(0)
`??APSME_SKA_TimerExpired::?relay`:
        CODE
        LCALL   ?BDISPATCH
        DATA24
        DC24    APSME_SKA_TimerExpired

        RSEG BANK_RELAYS:CODE:REORDER:NOROOT(0)
`??ZDSecMgrDeviceRemove::?relay`:
        CODE
        LCALL   ?BDISPATCH
        DATA24
        DC24    ZDSecMgrDeviceRemove

        RSEG BANK_RELAYS:CODE:REORDER:NOROOT(0)
`??ZDSecMgrDeviceValidateSKKE::?relay`:
        CODE
        LCALL   ?BDISPATCH
        DATA24
        DC24    ZDSecMgrDeviceValidateSKKE

        RSEG BANK_RELAYS:CODE:REORDER:NOROOT(0)
`??ZDSecMgrDeviceValidateRM::?relay`:
        CODE
        LCALL   ?BDISPATCH
        DATA24
        DC24    ZDSecMgrDeviceValidateRM

        RSEG BANK_RELAYS:CODE:REORDER:NOROOT(0)
`??ZDSecMgrDeviceValidateCM::?relay`:
        CODE
        LCALL   ?BDISPATCH
        DATA24
        DC24    ZDSecMgrDeviceValidateCM

        RSEG BANK_RELAYS:CODE:REORDER:NOROOT(0)
`??ZDSecMgrDeviceValidate::?relay`:
        CODE
        LCALL   ?BDISPATCH
        DATA24
        DC24    ZDSecMgrDeviceValidate

        RSEG BANK_RELAYS:CODE:REORDER:NOROOT(0)
`??ZDSecMgrDeviceJoin::?relay`:
        CODE
        LCALL   ?BDISPATCH
        DATA24
        DC24    ZDSecMgrDeviceJoin

        RSEG BANK_RELAYS:CODE:REORDER:NOROOT(0)
`??ZDSecMgrDeviceJoinDirect::?relay`:
        CODE
        LCALL   ?BDISPATCH
        DATA24
        DC24    ZDSecMgrDeviceJoinDirect

        RSEG BANK_RELAYS:CODE:REORDER:NOROOT(0)
`??ZDSecMgrDeviceJoinFwd::?relay`:
        CODE
        LCALL   ?BDISPATCH
        DATA24
        DC24    ZDSecMgrDeviceJoinFwd

        RSEG BANK_RELAYS:CODE:REORDER:NOROOT(0)
`??ZDSecMgrDeviceNew::?relay`:
        CODE
        LCALL   ?BDISPATCH
        DATA24
        DC24    ZDSecMgrDeviceNew

        RSEG BANK_RELAYS:CODE:REORDER:NOROOT(0)
`??ZDSecMgrAssocDeviceAuth::?relay`:
        CODE
        LCALL   ?BDISPATCH
        DATA24
        DC24    ZDSecMgrAssocDeviceAuth

        RSEG BANK_RELAYS:CODE:REORDER:NOROOT(0)
`??ZDSecMgrAuthInitiate::?relay`:
        CODE
        LCALL   ?BDISPATCH
        DATA24
        DC24    ZDSecMgrAuthInitiate

        RSEG BANK_RELAYS:CODE:REORDER:NOROOT(0)
`??ZDSecMgrAuthNwkKey::?relay`:
        CODE
        LCALL   ?BDISPATCH
        DATA24
        DC24    ZDSecMgrAuthNwkKey

        RSEG BANK_RELAYS:CODE:REORDER:NOROOT(0)
`??ZDSecMgrInit::?relay`:
        CODE
        LCALL   ?BDISPATCH
        DATA24
        DC24    ZDSecMgrInit

        RSEG BANK_RELAYS:CODE:REORDER:NOROOT(0)
`??ZDSecMgrConfig::?relay`:
        CODE
        LCALL   ?BDISPATCH
        DATA24
        DC24    ZDSecMgrConfig

        RSEG BANK_RELAYS:CODE:REORDER:NOROOT(0)
`??ZDSecMgrPermitJoining::?relay`:
        CODE
        LCALL   ?BDISPATCH
        DATA24
        DC24    ZDSecMgrPermitJoining

        RSEG BANK_RELAYS:CODE:REORDER:NOROOT(0)
`??ZDSecMgrPermitJoiningTimeout::?relay`:
        CODE
        LCALL   ?BDISPATCH
        DATA24
        DC24    ZDSecMgrPermitJoiningTimeout

        RSEG BANK_RELAYS:CODE:REORDER:NOROOT(0)
`??ZDSecMgrNewDeviceEvent::?relay`:
        CODE
        LCALL   ?BDISPATCH
        DATA24
        DC24    ZDSecMgrNewDeviceEvent

        RSEG BANK_RELAYS:CODE:REORDER:NOROOT(0)
`??ZDSecMgrEvent::?relay`:
        CODE
        LCALL   ?BDISPATCH
        DATA24
        DC24    ZDSecMgrEvent

        RSEG BANK_RELAYS:CODE:REORDER:NOROOT(0)
`??ZDSecMgrEstablishKeyCfm::?relay`:
        CODE
        LCALL   ?BDISPATCH
        DATA24
        DC24    ZDSecMgrEstablishKeyCfm

        RSEG BANK_RELAYS:CODE:REORDER:NOROOT(0)
`??ZDSecMgrTCExtAddrCheck::?relay`:
        CODE
        LCALL   ?BDISPATCH
        DATA24
        DC24    ZDSecMgrTCExtAddrCheck

        RSEG BANK_RELAYS:CODE:REORDER:NOROOT(0)
`??ZDSecMgrTCDataLoad::?relay`:
        CODE
        LCALL   ?BDISPATCH
        DATA24
        DC24    ZDSecMgrTCDataLoad

        RSEG BANK_RELAYS:CODE:REORDER:NOROOT(0)
`??ZDSecMgrEstablishKeyInd::?relay`:
        CODE
        LCALL   ?BDISPATCH
        DATA24
        DC24    ZDSecMgrEstablishKeyInd

        RSEG BANK_RELAYS:CODE:REORDER:NOROOT(0)
`??ZDSecMgrTransportKeyInd::?relay`:
        CODE
        LCALL   ?BDISPATCH
        DATA24
        DC24    ZDSecMgrTransportKeyInd

        RSEG BANK_RELAYS:CODE:REORDER:NOROOT(0)
`??ZDSecMgrUpdateDeviceInd::?relay`:
        CODE
        LCALL   ?BDISPATCH
        DATA24
        DC24    ZDSecMgrUpdateDeviceInd

        RSEG BANK_RELAYS:CODE:REORDER:NOROOT(0)
`??ZDSecMgrRemoveDeviceInd::?relay`:
        CODE
        LCALL   ?BDISPATCH
        DATA24
        DC24    ZDSecMgrRemoveDeviceInd

        RSEG BANK_RELAYS:CODE:REORDER:NOROOT(0)
`??ZDSecMgrRequestKeyInd::?relay`:
        CODE
        LCALL   ?BDISPATCH
        DATA24
        DC24    ZDSecMgrRequestKeyInd

        RSEG BANK_RELAYS:CODE:REORDER:NOROOT(0)
`??ZDSecMgrSwitchKeyInd::?relay`:
        CODE
        LCALL   ?BDISPATCH
        DATA24
        DC24    ZDSecMgrSwitchKeyInd

        RSEG BANK_RELAYS:CODE:REORDER:NOROOT(0)
`??ZDSecMgrAuthenticateInd::?relay`:
        CODE
        LCALL   ?BDISPATCH
        DATA24
        DC24    ZDSecMgrAuthenticateInd

        RSEG BANK_RELAYS:CODE:REORDER:NOROOT(0)
`??ZDSecMgrAuthenticateCfm::?relay`:
        CODE
        LCALL   ?BDISPATCH
        DATA24
        DC24    ZDSecMgrAuthenticateCfm

        RSEG BANK_RELAYS:CODE:REORDER:NOROOT(0)
`??ZDSecMgrUpdateNwkKey::?relay`:
        CODE
        LCALL   ?BDISPATCH
        DATA24
        DC24    ZDSecMgrUpdateNwkKey

        RSEG BANK_RELAYS:CODE:REORDER:NOROOT(0)
`??ZDSecMgrSwitchNwkKey::?relay`:
        CODE
        LCALL   ?BDISPATCH
        DATA24
        DC24    ZDSecMgrSwitchNwkKey

        RSEG BANK_RELAYS:CODE:REORDER:NOROOT(0)
`??ZDSecMgrAppKeyTypeSet::?relay`:
        CODE
        LCALL   ?BDISPATCH
        DATA24
        DC24    ZDSecMgrAppKeyTypeSet

        RSEG BANK_RELAYS:CODE:REORDER:NOROOT(0)
`??APSME_MasterKeyGet::?relay`:
        CODE
        LCALL   ?BDISPATCH
        DATA24
        DC24    APSME_MasterKeyGet

        RSEG BANK_RELAYS:CODE:REORDER:NOROOT(0)
`??APSME_LinkKeySet::?relay`:
        CODE
        LCALL   ?BDISPATCH
        DATA24
        DC24    APSME_LinkKeySet

        RSEG BANK_RELAYS:CODE:REORDER:NOROOT(0)
`??ZDSecMgrAuthenticationSet::?relay`:
        CODE
        LCALL   ?BDISPATCH
        DATA24
        DC24    ZDSecMgrAuthenticationSet

        RSEG BANK_RELAYS:CODE:REORDER:NOROOT(0)
`??ZDSecMgrAuthenticationCheck::?relay`:
        CODE
        LCALL   ?BDISPATCH
        DATA24
        DC24    ZDSecMgrAuthenticationCheck

        RSEG BANK_RELAYS:CODE:REORDER:NOROOT(0)
`??APSME_LinkKeyDataGet::?relay`:
        CODE
        LCALL   ?BDISPATCH
        DATA24
        DC24    APSME_LinkKeyDataGet

        RSEG BANK_RELAYS:CODE:REORDER:NOROOT(0)
`??APSME_KeyFwdToChild::?relay`:
        CODE
        LCALL   ?BDISPATCH
        DATA24
        DC24    APSME_KeyFwdToChild

        RSEG BANK_RELAYS:CODE:REORDER:NOROOT(0)
`??ZDSecMgrAddLinkKey::?relay`:
        CODE
        LCALL   ?BDISPATCH
        DATA24
        DC24    ZDSecMgrAddLinkKey

        RSEG BANK_RELAYS:CODE:REORDER:NOROOT(0)
`??ZDSecMgrInitNV::?relay`:
        CODE
        LCALL   ?BDISPATCH
        DATA24
        DC24    ZDSecMgrInitNV

        RSEG BANK_RELAYS:CODE:REORDER:NOROOT(0)
`??ZDSecMgrSetDefaultNV::?relay`:
        CODE
        LCALL   ?BDISPATCH
        DATA24
        DC24    ZDSecMgrSetDefaultNV

        RSEG BANK_RELAYS:CODE:REORDER:NOROOT(0)
`??ZDSecMgrWriteNV::?relay`:
        CODE
        LCALL   ?BDISPATCH
        DATA24
        DC24    ZDSecMgrWriteNV

        RSEG BANK_RELAYS:CODE:REORDER:NOROOT(0)
`??ZDSecMgrRestoreFromNV::?relay`:
        CODE
        LCALL   ?BDISPATCH
        DATA24
        DC24    ZDSecMgrRestoreFromNV

        RSEG BANK_RELAYS:CODE:REORDER:NOROOT(0)
`??ZDSecMgrAPSRemove::?relay`:
        CODE
        LCALL   ?BDISPATCH
        DATA24
        DC24    ZDSecMgrAPSRemove

        END
// 3693 
// 3694 /******************************************************************************
// 3695 ******************************************************************************/
// 3696 
// 
// 6 645 bytes in segment BANKED_CODE
//   456 bytes in segment BANK_RELAYS
//    17 bytes in segment XDATA_I
//    17 bytes in segment XDATA_ID
//     4 bytes in segment XDATA_ROM_C
//    28 bytes in segment XDATA_Z
// 
//   473 bytes of CODE     memory
//     0 bytes of CONST    memory (+ 4 bytes shared)
// 6 645 bytes of HUGECODE memory
//    45 bytes of XDATA    memory
//
//Errors: none
//Warnings: none
