///////////////////////////////////////////////////////////////////////////////
//
// IAR C/C++ Compiler V10.20.1.5333 for 8051              18/Jun/2021  15:12:20
// Copyright 2004-2018 IAR Systems AB.
// PC-locked license - IAR Embedded Workbench for 8051
//
//    Core               =  plain
//    Code model         =  banked
//    Data model         =  large
//    Calling convention =  xdata reentrant
//    Constant location  =  data_rom
//    Dptr setup         =  1,16
//                          
//    Source file        =  D:\SRC\DemoPrj\Components\zmac\f8w\zmac.c
//    Command line       =  
//        -f C:\Users\ADMINI~1\AppData\Local\Temp\EW2FC5.tmp
//        (D:\SRC\DemoPrj\Components\zmac\f8w\zmac.c -D ZIGBEEPRO -D
//        HAL_UART=TRUE -D SERIAL_APP_PORT=0 -D LCD_SUPPORTED -lC
//        D:\SRC\DemoPrj\Projects\zstack\Utilities\SerialApp\CC2530DB\CoordinatorEB-Pro\List
//        -lA
//        D:\SRC\DemoPrj\Projects\zstack\Utilities\SerialApp\CC2530DB\CoordinatorEB-Pro\List
//        --diag_suppress Pe001,Pa010 -o
//        D:\SRC\DemoPrj\Projects\zstack\Utilities\SerialApp\CC2530DB\CoordinatorEB-Pro\Obj
//        -e --debug --core=plain --dptr=16,1 --data_model=large
//        --code_model=banked --calling_convention=xdata_reentrant
//        --place_constants=data_rom --nr_virtual_regs 8 -f
//        D:\SRC\DemoPrj\Projects\zstack\Utilities\SerialApp\CC2530DB\..\..\..\Tools\CC2530DB\f8wCoord.cfg
//        (-DCPU32MHZ -DROOT=__near_func -DMAC_CFG_APP_PENDING_QUEUE=TRUE
//        -DZDO_COORDINATOR -DRTR_NWK -DBLINK_LEDS) -f
//        D:\SRC\DemoPrj\Projects\zstack\Utilities\SerialApp\CC2530DB\..\..\..\Tools\CC2530DB\f8wConfig.cfg
//        (-DSECURE=0 -DZG_SECURE_DYNAMIC=0 -DREFLECTOR
//        -DDEFAULT_CHANLIST=0x00000800 -DZDAPP_CONFIG_PAN_ID=0x1223
//        -DNWK_START_DELAY=100 -DEXTENDED_JOINING_RANDOM_MASK=0x007F
//        -DBEACON_REQUEST_DELAY=100 -DBEACON_REQ_DELAY_MASK=0x00FF
//        -DROUTE_EXPIRY_TIME=30 -DAPSC_ACK_WAIT_DURATION_POLLED=3000
//        -DNWK_INDIRECT_MSG_TIMEOUT=7 -DMAX_RREQ_ENTRIES=8
//        -DAPSC_MAX_FRAME_RETRIES=3 -DNWK_MAX_DATA_RETRIES=2
//        -DMAX_POLL_FAILURE_RETRIES=2 -DMAX_BCAST=9 -DAPS_MAX_GROUPS=16
//        -DMAX_RTG_ENTRIES=40 -DNWK_MAX_BINDING_ENTRIES=4
//        -DMAX_BINDING_CLUSTER_IDS=4 "-DDEFAULT_KEY={0x01, 0x03, 0x05, 0x07,
//        0x09, 0x0B, 0x0D, 0x0F, 0x00, 0x02, 0x04, 0x06, 0x08, 0x0A, 0x0C,
//        0x0D}" -DMAC_MAX_FRAME_SIZE=116 "-DCONST=const __code"
//        -DGENERIC=__generic -DRFD_RCVC_ALWAYS_ON=FALSE -DPOLL_RATE=1000
//        -DQUEUED_POLL_RATE=100 -DRESPONSE_POLL_RATE=100
//        -DREJOIN_POLL_RATE=440) -I
//        D:\SRC\DemoPrj\Projects\zstack\Utilities\SerialApp\CC2530DB\ -I
//        D:\SRC\DemoPrj\Projects\zstack\Utilities\SerialApp\CC2530DB\..\SOURCE\
//        -I
//        D:\SRC\DemoPrj\Projects\zstack\Utilities\SerialApp\CC2530DB\..\..\..\ZMAIN\TI2530DB\
//        -I
//        D:\SRC\DemoPrj\Projects\zstack\Utilities\SerialApp\CC2530DB\..\..\..\..\..\COMPONENTS\MT\
//        -I
//        D:\SRC\DemoPrj\Projects\zstack\Utilities\SerialApp\CC2530DB\..\..\..\..\..\COMPONENTS\HAL\INCLUDE\
//        -I
//        D:\SRC\DemoPrj\Projects\zstack\Utilities\SerialApp\CC2530DB\..\..\..\..\..\COMPONENTS\HAL\TARGET\CC2530EB\
//        -I
//        D:\SRC\DemoPrj\Projects\zstack\Utilities\SerialApp\CC2530DB\..\..\..\..\..\COMPONENTS\OSAL\MCU\CCSOC\
//        -I
//        D:\SRC\DemoPrj\Projects\zstack\Utilities\SerialApp\CC2530DB\..\..\..\..\..\COMPONENTS\OSAL\INCLUDE\
//        -I
//        D:\SRC\DemoPrj\Projects\zstack\Utilities\SerialApp\CC2530DB\..\..\..\..\..\COMPONENTS\STACK\AF\
//        -I
//        D:\SRC\DemoPrj\Projects\zstack\Utilities\SerialApp\CC2530DB\..\..\..\..\..\COMPONENTS\STACK\NWK\
//        -I
//        D:\SRC\DemoPrj\Projects\zstack\Utilities\SerialApp\CC2530DB\..\..\..\..\..\COMPONENTS\STACK\SEC\
//        -I
//        D:\SRC\DemoPrj\Projects\zstack\Utilities\SerialApp\CC2530DB\..\..\..\..\..\COMPONENTS\STACK\SAPI\
//        -I
//        D:\SRC\DemoPrj\Projects\zstack\Utilities\SerialApp\CC2530DB\..\..\..\..\..\COMPONENTS\STACK\SYS\
//        -I
//        D:\SRC\DemoPrj\Projects\zstack\Utilities\SerialApp\CC2530DB\..\..\..\..\..\COMPONENTS\STACK\ZDO\
//        -I
//        D:\SRC\DemoPrj\Projects\zstack\Utilities\SerialApp\CC2530DB\..\..\..\..\..\COMPONENTS\ZMAC\F8W\
//        -I
//        D:\SRC\DemoPrj\Projects\zstack\Utilities\SerialApp\CC2530DB\..\..\..\..\..\COMPONENTS\ZMAC\
//        -I
//        D:\SRC\DemoPrj\Projects\zstack\Utilities\SerialApp\CC2530DB\..\..\..\..\..\COMPONENTS\SERVICES\SADDR\
//        -I
//        D:\SRC\DemoPrj\Projects\zstack\Utilities\SerialApp\CC2530DB\..\..\..\..\..\COMPONENTS\SERVICES\SDATA\
//        -I
//        D:\SRC\DemoPrj\Projects\zstack\Utilities\SerialApp\CC2530DB\..\..\..\..\..\COMPONENTS\MAC\INCLUDE\
//        -I
//        D:\SRC\DemoPrj\Projects\zstack\Utilities\SerialApp\CC2530DB\..\..\..\..\..\COMPONENTS\MAC\HIGH_LEVEL\
//        -I
//        D:\SRC\DemoPrj\Projects\zstack\Utilities\SerialApp\CC2530DB\..\..\..\..\..\COMPONENTS\MAC\LOW_LEVEL\srf04\
//        -I
//        D:\SRC\DemoPrj\Projects\zstack\Utilities\SerialApp\CC2530DB\..\..\..\..\..\COMPONENTS\MAC\LOW_LEVEL\srf04\SINGLE_CHIP\
//        -Ohz --require_prototypes)
//    Locale             =  Chinese (Simplified)_CHN.936
//    List file          =  
//        D:\SRC\DemoPrj\Projects\zstack\Utilities\SerialApp\CC2530DB\CoordinatorEB-Pro\List\zmac.s51
//
///////////////////////////////////////////////////////////////////////////////

        NAME zmac

        RTMODEL "__SystemLibrary", "CLib"
        RTMODEL "__calling_convention", "xdata_reentrant"
        RTMODEL "__code_model", "banked"
        RTMODEL "__core", "plain"
        RTMODEL "__data_model", "large"
        RTMODEL "__dptr_size", "16"
        RTMODEL "__extended_stack", "disabled"
        RTMODEL "__location_for_constants", "data"
        RTMODEL "__number_of_dptrs", "1"
        RTMODEL "__register_banks", "*"
        RTMODEL "__rt_version", "1"

        RSEG DOVERLAY:DATA:NOROOT(0)
        RSEG IOVERLAY:IDATA:NOROOT(0)
        RSEG ISTACK:IDATA:NOROOT(0)
        RSEG PSTACK:XDATA:NOROOT(0)
        RSEG XSTACK:XDATA:NOROOT(0)

        EXTERN ?V0
        EXTERN ?V1
        EXTERN ?V2
        EXTERN ?V3
        EXTERN ?V4
        EXTERN ?V5
        EXTERN ?V6
        EXTERN ?V7
        EXTERN ?ALLOC_XSTACK8
        EXTERN ?BANKED_ENTER_XDATA
        EXTERN ?BANKED_LEAVE_XDATA
        EXTERN ?BDISPATCH
        EXTERN ?BRET
        EXTERN ?DEALLOC_XSTACK8
        EXTERN ?PUSH_XSTACK_I_THREE
        EXTERN ?XLOAD_R0123
        EXTERN ?XSP
        EXTERN ?XSTORE_R0123
        EXTERN __INIT_XDATA_Z

        PUBLIC `??ZMacAssociateReq::?relay`
        FUNCTION `??ZMacAssociateReq::?relay`,0203H
        PUBLIC `??ZMacAssociateRsp::?relay`
        FUNCTION `??ZMacAssociateRsp::?relay`,0203H
        PUBLIC `??ZMacDataReq::?relay`
        FUNCTION `??ZMacDataReq::?relay`,0203H
        PUBLIC `??ZMacDisassociateReq::?relay`
        FUNCTION `??ZMacDisassociateReq::?relay`,0203H
        PUBLIC `??ZMacGetReq::?relay`
        FUNCTION `??ZMacGetReq::?relay`,0203H
        PUBLIC `??ZMacInit::?relay`
        FUNCTION `??ZMacInit::?relay`,0203H
        PUBLIC `??ZMacOrphanRsp::?relay`
        FUNCTION `??ZMacOrphanRsp::?relay`,0203H
        PUBLIC `??ZMacPollReq::?relay`
        FUNCTION `??ZMacPollReq::?relay`,0203H
        PUBLIC `??ZMacPurgeReq::?relay`
        FUNCTION `??ZMacPurgeReq::?relay`,0203H
        PUBLIC `??ZMacPwrOnReq::?relay`
        FUNCTION `??ZMacPwrOnReq::?relay`,0203H
        PUBLIC `??ZMacReset::?relay`
        FUNCTION `??ZMacReset::?relay`,0203H
        PUBLIC `??ZMacScanReq::?relay`
        FUNCTION `??ZMacScanReq::?relay`,0203H
        PUBLIC `??ZMacSendNoData::?relay`
        FUNCTION `??ZMacSendNoData::?relay`,0203H
        PUBLIC `??ZMacSetReq::?relay`
        FUNCTION `??ZMacSetReq::?relay`,0203H
        PUBLIC `??ZMacSetTransmitPower::?relay`
        FUNCTION `??ZMacSetTransmitPower::?relay`,0203H
        PUBLIC `??ZMacSrcMatchAckAllPending::?relay`
        FUNCTION `??ZMacSrcMatchAckAllPending::?relay`,0203H
        PUBLIC `??ZMacSrcMatchAddEntry::?relay`
        FUNCTION `??ZMacSrcMatchAddEntry::?relay`,0203H
        PUBLIC `??ZMacSrcMatchCheckAllPending::?relay`
        FUNCTION `??ZMacSrcMatchCheckAllPending::?relay`,0203H
        PUBLIC `??ZMacSrcMatchDeleteEntry::?relay`
        FUNCTION `??ZMacSrcMatchDeleteEntry::?relay`,0203H
        PUBLIC `??ZMacSrcMatchEnable::?relay`
        FUNCTION `??ZMacSrcMatchEnable::?relay`,0203H
        PUBLIC `??ZMacStartReq::?relay`
        FUNCTION `??ZMacStartReq::?relay`,0203H
        PUBLIC `??ZMacStateIdle::?relay`
        FUNCTION `??ZMacStateIdle::?relay`,0203H
        PUBLIC `??ZMacSyncReq::?relay`
        FUNCTION `??ZMacSyncReq::?relay`,0203H
        PUBLIC `??ZMac_PwrMode::?relay`
        FUNCTION `??ZMac_PwrMode::?relay`,0203H
        PUBLIC ZMacAssociateReq
        FUNCTION ZMacAssociateReq,021203H
        ARGFRAME XSTACK, 0, STACK
        LOCFRAME ISTACK, 2, STACK
        PUBLIC ZMacAssociateRsp
        FUNCTION ZMacAssociateRsp,021203H
        ARGFRAME XSTACK, 0, STACK
        LOCFRAME ISTACK, 2, STACK
        PUBLIC ZMacDataReq
        FUNCTION ZMacDataReq,0a1203H
        ARGFRAME XSTACK, 0, STACK
        LOCFRAME ISTACK, 1, STACK
        LOCFRAME XSTACK, 19, STACK
        PUBLIC ZMacDisassociateReq
        FUNCTION ZMacDisassociateReq,021203H
        ARGFRAME XSTACK, 0, STACK
        LOCFRAME ISTACK, 2, STACK
        PUBLIC ZMacGetReq
        FUNCTION ZMacGetReq,021203H
        ARGFRAME XSTACK, 0, STACK
        LOCFRAME XSTACK, 9, STACK
        PUBLIC ZMacInit
        FUNCTION ZMacInit,021203H
        ARGFRAME XSTACK, 0, STACK
        LOCFRAME XSTACK, 9, STACK
        PUBLIC ZMacOrphanRsp
        FUNCTION ZMacOrphanRsp,021203H
        ARGFRAME XSTACK, 0, STACK
        LOCFRAME ISTACK, 2, STACK
        PUBLIC ZMacPollReq
        FUNCTION ZMacPollReq,021203H
        ARGFRAME XSTACK, 0, STACK
        LOCFRAME ISTACK, 2, STACK
        PUBLIC ZMacPurgeReq
        FUNCTION ZMacPurgeReq,021203H
        ARGFRAME XSTACK, 0, STACK
        LOCFRAME XSTACK, 9, STACK
        PUBLIC ZMacPwrOnReq
        FUNCTION ZMacPwrOnReq,021203H
        ARGFRAME XSTACK, 0, STACK
        LOCFRAME ISTACK, 2, STACK
        PUBLIC ZMacReset
        FUNCTION ZMacReset,021203H
        ARGFRAME XSTACK, 9, STACK
        ARGFRAME IOVERLAY, 0, STATIC
        ARGFRAME DOVERLAY, 0, STATIC
        LOCFRAME XSTACK, 10, STACK
        PUBLIC ZMacScanReq
        FUNCTION ZMacScanReq,0a1203H
        ARGFRAME XSTACK, 0, STACK
        LOCFRAME XSTACK, 12, STACK
        PUBLIC ZMacSendNoData
        FUNCTION ZMacSendNoData,0a1203H
        ARGFRAME XSTACK, 0, STACK
        LOCFRAME XSTACK, 12, STACK
        PUBLIC ZMacSetReq
        FUNCTION ZMacSetReq,0a1203H
        ARGFRAME XSTACK, 0, STACK
        LOCFRAME XSTACK, 9, STACK
        PUBLIC ZMacSetTransmitPower
        FUNCTION ZMacSetTransmitPower,021203H
        ARGFRAME XSTACK, 0, STACK
        LOCFRAME ISTACK, 3, STACK
        LOCFRAME XSTACK, 1, STACK
        PUBLIC ZMacSrcMatchAckAllPending
        FUNCTION ZMacSrcMatchAckAllPending,021203H
        ARGFRAME XSTACK, 0, STACK
        LOCFRAME XSTACK, 9, STACK
        PUBLIC ZMacSrcMatchAddEntry
        FUNCTION ZMacSrcMatchAddEntry,021203H
        ARGFRAME XSTACK, 0, STACK
        LOCFRAME ISTACK, 2, STACK
        PUBLIC ZMacSrcMatchCheckAllPending
        FUNCTION ZMacSrcMatchCheckAllPending,021203H
        ARGFRAME XSTACK, 0, STACK
        LOCFRAME ISTACK, 2, STACK
        PUBLIC ZMacSrcMatchDeleteEntry
        FUNCTION ZMacSrcMatchDeleteEntry,021203H
        ARGFRAME XSTACK, 0, STACK
        LOCFRAME ISTACK, 2, STACK
        PUBLIC ZMacSrcMatchEnable
        FUNCTION ZMacSrcMatchEnable,021203H
        ARGFRAME XSTACK, 0, STACK
        LOCFRAME XSTACK, 9, STACK
        PUBLIC ZMacStartReq
        FUNCTION ZMacStartReq,021203H
        ARGFRAME XSTACK, 0, STACK
        LOCFRAME XSTACK, 10, STACK
        PUBLIC ZMacStateIdle
        FUNCTION ZMacStateIdle,021203H
        ARGFRAME XSTACK, 0, STACK
        LOCFRAME ISTACK, 2, STACK
        PUBLIC ZMacSyncReq
        FUNCTION ZMacSyncReq,021203H
        ARGFRAME XSTACK, 0, STACK
        LOCFRAME ISTACK, 2, STACK
        PUBLIC ZMac_PwrMode
        FUNCTION ZMac_PwrMode,021203H
        ARGFRAME XSTACK, 0, STACK
        LOCFRAME ISTACK, 2, STACK
        PUBLIC ZMac_ScanBuf
        PUBLIC _ScanChannels
        
          CFI Names cfiNames0
          CFI StackFrame CFA_SP SP IDATA
          CFI StackFrame CFA_PSP16 PSP16 XDATA
          CFI StackFrame CFA_XSP16 XSP16 XDATA
          CFI StaticOverlayFrame CFA_IOVERLAY IOVERLAY
          CFI StaticOverlayFrame CFA_DOVERLAY DOVERLAY
          CFI Resource `PSW.CY`:1, `B.BR0`:1, `B.BR1`:1, `B.BR2`:1, `B.BR3`:1
          CFI Resource `B.BR4`:1, `B.BR5`:1, `B.BR6`:1, `B.BR7`:1, `VB.BR8`:1
          CFI Resource `VB.BR9`:1, `VB.BR10`:1, `VB.BR11`:1, `VB.BR12`:1
          CFI Resource `VB.BR13`:1, `VB.BR14`:1, `VB.BR15`:1, VB:8, B:8, A:8
          CFI Resource PSW:8, DPL0:8, DPH0:8, R0:8, R1:8, R2:8, R3:8, R4:8, R5:8
          CFI Resource R6:8, R7:8, V0:8, V1:8, V2:8, V3:8, V4:8, V5:8, V6:8, V7:8
          CFI Resource SP:8, PSPH:8, PSPL:8, PSP16:16, XSPH:8, XSPL:8, XSP16:16
          CFI VirtualResource ?RET:24
          CFI Resource ?BRET_EXT:8
          CFI VirtualResource ?RET_HIGH:8, ?RET_LOW:8
          CFI ResourceParts PSP16 PSPH, PSPL
          CFI ResourceParts XSP16 XSPH, XSPL
          CFI ResourceParts ?RET ?BRET_EXT, ?RET_HIGH, ?RET_LOW
          CFI EndNames cfiNames0
        
          CFI Common cfiCommon0 Using cfiNames0
          CFI CodeAlign 1
          CFI DataAlign -1
          CFI ReturnAddress ?RET CODE
          CFI CFA_DOVERLAY Used
          CFI CFA_IOVERLAY Used
          CFI CFA_SP SP+-3
          CFI CFA_PSP16 PSP16+0
          CFI CFA_XSP16 XSP16+0
          CFI `PSW.CY` SameValue
          CFI `B.BR0` SameValue
          CFI `B.BR1` SameValue
          CFI `B.BR2` SameValue
          CFI `B.BR3` SameValue
          CFI `B.BR4` SameValue
          CFI `B.BR5` SameValue
          CFI `B.BR6` SameValue
          CFI `B.BR7` SameValue
          CFI `VB.BR8` SameValue
          CFI `VB.BR9` SameValue
          CFI `VB.BR10` SameValue
          CFI `VB.BR11` SameValue
          CFI `VB.BR12` SameValue
          CFI `VB.BR13` SameValue
          CFI `VB.BR14` SameValue
          CFI `VB.BR15` SameValue
          CFI VB SameValue
          CFI B Undefined
          CFI A Undefined
          CFI PSW SameValue
          CFI DPL0 SameValue
          CFI DPH0 SameValue
          CFI R0 Undefined
          CFI R1 Undefined
          CFI R2 Undefined
          CFI R3 Undefined
          CFI R4 Undefined
          CFI R5 Undefined
          CFI R6 SameValue
          CFI R7 SameValue
          CFI V0 SameValue
          CFI V1 SameValue
          CFI V2 SameValue
          CFI V3 SameValue
          CFI V4 SameValue
          CFI V5 SameValue
          CFI V6 SameValue
          CFI V7 SameValue
          CFI PSPH Undefined
          CFI PSPL Undefined
          CFI XSPH Undefined
          CFI XSPL Undefined
          CFI ?RET Concat
          CFI ?BRET_EXT Frame(CFA_SP, 3)
          CFI ?RET_HIGH Frame(CFA_SP, 2)
          CFI ?RET_LOW Frame(CFA_SP, 1)
          CFI EndCommon cfiCommon0
        
        
          CFI Common cfiCommon1 Using cfiNames0
          CFI CodeAlign 1
          CFI DataAlign -1
          CFI ReturnAddress ?RET CODE
          CFI CFA_DOVERLAY Used
          CFI CFA_IOVERLAY Used
          CFI CFA_SP SP+-2
          CFI CFA_PSP16 PSP16+0
          CFI CFA_XSP16 XSP16+0
          CFI `PSW.CY` SameValue
          CFI `B.BR0` SameValue
          CFI `B.BR1` SameValue
          CFI `B.BR2` SameValue
          CFI `B.BR3` SameValue
          CFI `B.BR4` SameValue
          CFI `B.BR5` SameValue
          CFI `B.BR6` SameValue
          CFI `B.BR7` SameValue
          CFI `VB.BR8` SameValue
          CFI `VB.BR9` SameValue
          CFI `VB.BR10` SameValue
          CFI `VB.BR11` SameValue
          CFI `VB.BR12` SameValue
          CFI `VB.BR13` SameValue
          CFI `VB.BR14` SameValue
          CFI `VB.BR15` SameValue
          CFI VB SameValue
          CFI B SameValue
          CFI A SameValue
          CFI PSW SameValue
          CFI DPL0 SameValue
          CFI DPH0 SameValue
          CFI R0 SameValue
          CFI R1 SameValue
          CFI R2 SameValue
          CFI R3 SameValue
          CFI R4 SameValue
          CFI R5 SameValue
          CFI R6 SameValue
          CFI R7 SameValue
          CFI V0 SameValue
          CFI V1 SameValue
          CFI V2 SameValue
          CFI V3 SameValue
          CFI V4 SameValue
          CFI V5 SameValue
          CFI V6 SameValue
          CFI V7 SameValue
          CFI PSPH Undefined
          CFI PSPL Undefined
          CFI XSPH Undefined
          CFI XSPL Undefined
          CFI ?RET Concat
          CFI ?BRET_EXT SameValue
          CFI ?RET_HIGH Frame(CFA_SP, 2)
          CFI ?RET_LOW Frame(CFA_SP, 1)
          CFI EndCommon cfiCommon1
        
MAC_Init            SYMBOL "MAC_Init"
`??MAC_Init::?relay` SYMBOL "?relay", MAC_Init
MAC_InitCoord       SYMBOL "MAC_InitCoord"
`??MAC_InitCoord::?relay` SYMBOL "?relay", MAC_InitCoord
MAC_InitDevice      SYMBOL "MAC_InitDevice"
`??MAC_InitDevice::?relay` SYMBOL "?relay", MAC_InitDevice
MAC_McpsDataAlloc   SYMBOL "MAC_McpsDataAlloc"
`??MAC_McpsDataAlloc::?relay` SYMBOL "?relay", MAC_McpsDataAlloc
MAC_McpsDataReq     SYMBOL "MAC_McpsDataReq"
`??MAC_McpsDataReq::?relay` SYMBOL "?relay", MAC_McpsDataReq
MAC_McpsPurgeReq    SYMBOL "MAC_McpsPurgeReq"
`??MAC_McpsPurgeReq::?relay` SYMBOL "?relay", MAC_McpsPurgeReq
MAC_MlmeAssociateReq SYMBOL "MAC_MlmeAssociateReq"
`??MAC_MlmeAssociateReq::?relay` SYMBOL "?relay", MAC_MlmeAssociateReq
MAC_MlmeAssociateRsp SYMBOL "MAC_MlmeAssociateRsp"
`??MAC_MlmeAssociateRsp::?relay` SYMBOL "?relay", MAC_MlmeAssociateRsp
MAC_MlmeDisassociateReq SYMBOL "MAC_MlmeDisassociateReq"
`??MAC_MlmeDisassociateReq::?relay` SYMBOL "?relay", MAC_MlmeDisassociateReq
MAC_MlmeGetReq      SYMBOL "MAC_MlmeGetReq"
`??MAC_MlmeGetReq::?relay` SYMBOL "?relay", MAC_MlmeGetReq
MAC_MlmeOrphanRsp   SYMBOL "MAC_MlmeOrphanRsp"
`??MAC_MlmeOrphanRsp::?relay` SYMBOL "?relay", MAC_MlmeOrphanRsp
MAC_MlmePollReq     SYMBOL "MAC_MlmePollReq"
`??MAC_MlmePollReq::?relay` SYMBOL "?relay", MAC_MlmePollReq
MAC_MlmeResetReq    SYMBOL "MAC_MlmeResetReq"
`??MAC_MlmeResetReq::?relay` SYMBOL "?relay", MAC_MlmeResetReq
MAC_MlmeScanReq     SYMBOL "MAC_MlmeScanReq"
`??MAC_MlmeScanReq::?relay` SYMBOL "?relay", MAC_MlmeScanReq
MAC_MlmeSetReq      SYMBOL "MAC_MlmeSetReq"
`??MAC_MlmeSetReq::?relay` SYMBOL "?relay", MAC_MlmeSetReq
MAC_MlmeStartReq    SYMBOL "MAC_MlmeStartReq"
`??MAC_MlmeStartReq::?relay` SYMBOL "?relay", MAC_MlmeStartReq
MAC_MlmeSyncReq     SYMBOL "MAC_MlmeSyncReq"
`??MAC_MlmeSyncReq::?relay` SYMBOL "?relay", MAC_MlmeSyncReq
MAC_PwrMode         SYMBOL "MAC_PwrMode"
`??MAC_PwrMode::?relay` SYMBOL "?relay", MAC_PwrMode
MAC_PwrOnReq        SYMBOL "MAC_PwrOnReq"
`??MAC_PwrOnReq::?relay` SYMBOL "?relay", MAC_PwrOnReq
MAC_SrcMatchAckAllPending SYMBOL "MAC_SrcMatchAckAllPending"
`??MAC_SrcMatchAckAllPending::?relay` SYMBOL "?relay", MAC_SrcMatchAckAllPending
MAC_SrcMatchAddEntry SYMBOL "MAC_SrcMatchAddEntry"
`??MAC_SrcMatchAddEntry::?relay` SYMBOL "?relay", MAC_SrcMatchAddEntry
MAC_SrcMatchCheckAllPending SYMBOL "MAC_SrcMatchCheckAllPending"
`??MAC_SrcMatchCheckAllPending::?relay` SYMBOL "?relay", MAC_SrcMatchCheckAllPending
MAC_SrcMatchDeleteEntry SYMBOL "MAC_SrcMatchDeleteEntry"
`??MAC_SrcMatchDeleteEntry::?relay` SYMBOL "?relay", MAC_SrcMatchDeleteEntry
MAC_SrcMatchEnable  SYMBOL "MAC_SrcMatchEnable"
`??MAC_SrcMatchEnable::?relay` SYMBOL "?relay", MAC_SrcMatchEnable
macStateIdle        SYMBOL "macStateIdle"
`??macStateIdle::?relay` SYMBOL "?relay", macStateIdle
osal_int_disable    SYMBOL "osal_int_disable"
`??osal_int_disable::?relay` SYMBOL "?relay", osal_int_disable
osal_mem_alloc      SYMBOL "osal_mem_alloc"
`??osal_mem_alloc::?relay` SYMBOL "?relay", osal_mem_alloc
osal_mem_free       SYMBOL "osal_mem_free"
`??osal_mem_free::?relay` SYMBOL "?relay", osal_mem_free
osal_memcpy         SYMBOL "osal_memcpy"
`??osal_memcpy::?relay` SYMBOL "?relay", osal_memcpy
osal_memset         SYMBOL "osal_memset"
`??osal_memset::?relay` SYMBOL "?relay", osal_memset
sAddrExtCpy         SYMBOL "sAddrExtCpy"
`??sAddrExtCpy::?relay` SYMBOL "?relay", sAddrExtCpy
ZMacAssociateReq    SYMBOL "ZMacAssociateReq"
`??ZMacAssociateReq::?relay` SYMBOL "?relay", ZMacAssociateReq
ZMacAssociateRsp    SYMBOL "ZMacAssociateRsp"
`??ZMacAssociateRsp::?relay` SYMBOL "?relay", ZMacAssociateRsp
ZMacDataReq         SYMBOL "ZMacDataReq"
`??ZMacDataReq::?relay` SYMBOL "?relay", ZMacDataReq
ZMacDisassociateReq SYMBOL "ZMacDisassociateReq"
`??ZMacDisassociateReq::?relay` SYMBOL "?relay", ZMacDisassociateReq
ZMacGetReq          SYMBOL "ZMacGetReq"
`??ZMacGetReq::?relay` SYMBOL "?relay", ZMacGetReq
ZMacInit            SYMBOL "ZMacInit"
`??ZMacInit::?relay` SYMBOL "?relay", ZMacInit
ZMacOrphanRsp       SYMBOL "ZMacOrphanRsp"
`??ZMacOrphanRsp::?relay` SYMBOL "?relay", ZMacOrphanRsp
ZMacPollReq         SYMBOL "ZMacPollReq"
`??ZMacPollReq::?relay` SYMBOL "?relay", ZMacPollReq
ZMacPurgeReq        SYMBOL "ZMacPurgeReq"
`??ZMacPurgeReq::?relay` SYMBOL "?relay", ZMacPurgeReq
ZMacPwrOnReq        SYMBOL "ZMacPwrOnReq"
`??ZMacPwrOnReq::?relay` SYMBOL "?relay", ZMacPwrOnReq
ZMacReset           SYMBOL "ZMacReset"
`??ZMacReset::?relay` SYMBOL "?relay", ZMacReset
ZMacScanReq         SYMBOL "ZMacScanReq"
`??ZMacScanReq::?relay` SYMBOL "?relay", ZMacScanReq
ZMacSendNoData      SYMBOL "ZMacSendNoData"
`??ZMacSendNoData::?relay` SYMBOL "?relay", ZMacSendNoData
ZMacSetReq          SYMBOL "ZMacSetReq"
`??ZMacSetReq::?relay` SYMBOL "?relay", ZMacSetReq
ZMacSetTransmitPower SYMBOL "ZMacSetTransmitPower"
`??ZMacSetTransmitPower::?relay` SYMBOL "?relay", ZMacSetTransmitPower
ZMacSrcMatchAckAllPending SYMBOL "ZMacSrcMatchAckAllPending"
`??ZMacSrcMatchAckAllPending::?relay` SYMBOL "?relay", ZMacSrcMatchAckAllPending
ZMacSrcMatchAddEntry SYMBOL "ZMacSrcMatchAddEntry"
`??ZMacSrcMatchAddEntry::?relay` SYMBOL "?relay", ZMacSrcMatchAddEntry
ZMacSrcMatchCheckAllPending SYMBOL "ZMacSrcMatchCheckAllPending"
`??ZMacSrcMatchCheckAllPending::?relay` SYMBOL "?relay", ZMacSrcMatchCheckAllPending
ZMacSrcMatchDeleteEntry SYMBOL "ZMacSrcMatchDeleteEntry"
`??ZMacSrcMatchDeleteEntry::?relay` SYMBOL "?relay", ZMacSrcMatchDeleteEntry
ZMacSrcMatchEnable  SYMBOL "ZMacSrcMatchEnable"
`??ZMacSrcMatchEnable::?relay` SYMBOL "?relay", ZMacSrcMatchEnable
ZMacStartReq        SYMBOL "ZMacStartReq"
`??ZMacStartReq::?relay` SYMBOL "?relay", ZMacStartReq
ZMacStateIdle       SYMBOL "ZMacStateIdle"
`??ZMacStateIdle::?relay` SYMBOL "?relay", ZMacStateIdle
ZMacSyncReq         SYMBOL "ZMacSyncReq"
`??ZMacSyncReq::?relay` SYMBOL "?relay", ZMacSyncReq
ZMac_PwrMode        SYMBOL "ZMac_PwrMode"
`??ZMac_PwrMode::?relay` SYMBOL "?relay", ZMac_PwrMode

        EXTERN `??MAC_Init::?relay`
        FUNCTION `??MAC_Init::?relay`,00H
        EXTERN `??MAC_InitCoord::?relay`
        FUNCTION `??MAC_InitCoord::?relay`,00H
        EXTERN `??MAC_InitDevice::?relay`
        FUNCTION `??MAC_InitDevice::?relay`,00H
        EXTERN `??MAC_McpsDataAlloc::?relay`
        FUNCTION `??MAC_McpsDataAlloc::?relay`,00H
        EXTERN `??MAC_McpsDataReq::?relay`
        FUNCTION `??MAC_McpsDataReq::?relay`,00H
        EXTERN `??MAC_McpsPurgeReq::?relay`
        FUNCTION `??MAC_McpsPurgeReq::?relay`,00H
        EXTERN `??MAC_MlmeAssociateReq::?relay`
        FUNCTION `??MAC_MlmeAssociateReq::?relay`,00H
        EXTERN `??MAC_MlmeAssociateRsp::?relay`
        FUNCTION `??MAC_MlmeAssociateRsp::?relay`,00H
        EXTERN `??MAC_MlmeDisassociateReq::?relay`
        FUNCTION `??MAC_MlmeDisassociateReq::?relay`,00H
        EXTERN `??MAC_MlmeGetReq::?relay`
        FUNCTION `??MAC_MlmeGetReq::?relay`,00H
        EXTERN `??MAC_MlmeOrphanRsp::?relay`
        FUNCTION `??MAC_MlmeOrphanRsp::?relay`,00H
        EXTERN `??MAC_MlmePollReq::?relay`
        FUNCTION `??MAC_MlmePollReq::?relay`,00H
        EXTERN `??MAC_MlmeResetReq::?relay`
        FUNCTION `??MAC_MlmeResetReq::?relay`,00H
        EXTERN `??MAC_MlmeScanReq::?relay`
        FUNCTION `??MAC_MlmeScanReq::?relay`,00H
        EXTERN `??MAC_MlmeSetReq::?relay`
        FUNCTION `??MAC_MlmeSetReq::?relay`,00H
        EXTERN `??MAC_MlmeStartReq::?relay`
        FUNCTION `??MAC_MlmeStartReq::?relay`,00H
        EXTERN `??MAC_MlmeSyncReq::?relay`
        FUNCTION `??MAC_MlmeSyncReq::?relay`,00H
        EXTERN `??MAC_PwrMode::?relay`
        FUNCTION `??MAC_PwrMode::?relay`,00H
        EXTERN `??MAC_PwrOnReq::?relay`
        FUNCTION `??MAC_PwrOnReq::?relay`,00H
        EXTERN `??MAC_SrcMatchAckAllPending::?relay`
        FUNCTION `??MAC_SrcMatchAckAllPending::?relay`,00H
        EXTERN `??MAC_SrcMatchAddEntry::?relay`
        FUNCTION `??MAC_SrcMatchAddEntry::?relay`,00H
        EXTERN `??MAC_SrcMatchCheckAllPending::?relay`
        FUNCTION `??MAC_SrcMatchCheckAllPending::?relay`,00H
        EXTERN `??MAC_SrcMatchDeleteEntry::?relay`
        FUNCTION `??MAC_SrcMatchDeleteEntry::?relay`,00H
        EXTERN `??MAC_SrcMatchEnable::?relay`
        FUNCTION `??MAC_SrcMatchEnable::?relay`,00H
        EXTERN `??macStateIdle::?relay`
        FUNCTION `??macStateIdle::?relay`,00H
        EXTERN `??osal_int_disable::?relay`
        FUNCTION `??osal_int_disable::?relay`,00H
        EXTERN `??osal_mem_alloc::?relay`
        FUNCTION `??osal_mem_alloc::?relay`,00H
        EXTERN `??osal_mem_free::?relay`
        FUNCTION `??osal_mem_free::?relay`,00H
        EXTERN `??osal_memcpy::?relay`
        FUNCTION `??osal_memcpy::?relay`,00H
        EXTERN `??osal_memset::?relay`
        FUNCTION `??osal_memset::?relay`,00H
        EXTERN `??sAddrExtCpy::?relay`
        FUNCTION `??sAddrExtCpy::?relay`,00H
        EXTERN MAC_Init
        FUNCTION MAC_Init,0202H
        ARGFRAME ISTACK, 0, STACK
        ARGFRAME PSTACK, 0, STACK
        ARGFRAME XSTACK, 9, STACK
        ARGFRAME IOVERLAY, 0, STATIC
        ARGFRAME DOVERLAY, 0, STATIC
        EXTERN MAC_InitCoord
        FUNCTION MAC_InitCoord,0202H
        ARGFRAME ISTACK, 0, STACK
        ARGFRAME PSTACK, 0, STACK
        ARGFRAME XSTACK, 9, STACK
        ARGFRAME IOVERLAY, 0, STATIC
        ARGFRAME DOVERLAY, 0, STATIC
        EXTERN MAC_InitDevice
        FUNCTION MAC_InitDevice,0202H
        ARGFRAME ISTACK, 0, STACK
        ARGFRAME PSTACK, 0, STACK
        ARGFRAME XSTACK, 9, STACK
        ARGFRAME IOVERLAY, 0, STATIC
        ARGFRAME DOVERLAY, 0, STATIC
        EXTERN MAC_McpsDataAlloc
        FUNCTION MAC_McpsDataAlloc,0202H
        ARGFRAME ISTACK, 0, STACK
        ARGFRAME PSTACK, 0, STACK
        ARGFRAME XSTACK, 16, STACK
        ARGFRAME IOVERLAY, 0, STATIC
        ARGFRAME DOVERLAY, 0, STATIC
        EXTERN MAC_McpsDataReq
        FUNCTION MAC_McpsDataReq,0202H
        ARGFRAME ISTACK, 0, STACK
        ARGFRAME PSTACK, 0, STACK
        ARGFRAME XSTACK, 16, STACK
        ARGFRAME IOVERLAY, 0, STATIC
        ARGFRAME DOVERLAY, 0, STATIC
        EXTERN MAC_McpsPurgeReq
        FUNCTION MAC_McpsPurgeReq,0202H
        ARGFRAME ISTACK, 0, STACK
        ARGFRAME PSTACK, 0, STACK
        ARGFRAME XSTACK, 9, STACK
        ARGFRAME IOVERLAY, 0, STATIC
        ARGFRAME DOVERLAY, 0, STATIC
        EXTERN MAC_MlmeAssociateReq
        FUNCTION MAC_MlmeAssociateReq,0202H
        ARGFRAME ISTACK, 2, STACK
        ARGFRAME PSTACK, 0, STACK
        ARGFRAME XSTACK, 0, STACK
        ARGFRAME IOVERLAY, 0, STATIC
        ARGFRAME DOVERLAY, 0, STATIC
        EXTERN MAC_MlmeAssociateRsp
        FUNCTION MAC_MlmeAssociateRsp,0202H
        ARGFRAME ISTACK, 2, STACK
        ARGFRAME PSTACK, 0, STACK
        ARGFRAME XSTACK, 0, STACK
        ARGFRAME IOVERLAY, 0, STATIC
        ARGFRAME DOVERLAY, 0, STATIC
        EXTERN MAC_MlmeDisassociateReq
        FUNCTION MAC_MlmeDisassociateReq,0202H
        ARGFRAME ISTACK, 2, STACK
        ARGFRAME PSTACK, 0, STACK
        ARGFRAME XSTACK, 0, STACK
        ARGFRAME IOVERLAY, 0, STATIC
        ARGFRAME DOVERLAY, 0, STATIC
        EXTERN MAC_MlmeGetReq
        FUNCTION MAC_MlmeGetReq,0202H
        ARGFRAME ISTACK, 0, STACK
        ARGFRAME PSTACK, 0, STACK
        ARGFRAME XSTACK, 9, STACK
        ARGFRAME IOVERLAY, 0, STATIC
        ARGFRAME DOVERLAY, 0, STATIC
        EXTERN MAC_MlmeOrphanRsp
        FUNCTION MAC_MlmeOrphanRsp,0202H
        ARGFRAME ISTACK, 2, STACK
        ARGFRAME PSTACK, 0, STACK
        ARGFRAME XSTACK, 0, STACK
        ARGFRAME IOVERLAY, 0, STATIC
        ARGFRAME DOVERLAY, 0, STATIC
        EXTERN MAC_MlmePollReq
        FUNCTION MAC_MlmePollReq,0202H
        ARGFRAME ISTACK, 2, STACK
        ARGFRAME PSTACK, 0, STACK
        ARGFRAME XSTACK, 0, STACK
        ARGFRAME IOVERLAY, 0, STATIC
        ARGFRAME DOVERLAY, 0, STATIC
        EXTERN MAC_MlmeResetReq
        FUNCTION MAC_MlmeResetReq,0202H
        ARGFRAME ISTACK, 0, STACK
        ARGFRAME PSTACK, 0, STACK
        ARGFRAME XSTACK, 10, STACK
        ARGFRAME IOVERLAY, 0, STATIC
        ARGFRAME DOVERLAY, 0, STATIC
        EXTERN MAC_MlmeScanReq
        FUNCTION MAC_MlmeScanReq,0202H
        ARGFRAME ISTACK, 0, STACK
        ARGFRAME PSTACK, 0, STACK
        ARGFRAME XSTACK, 12, STACK
        ARGFRAME IOVERLAY, 0, STATIC
        ARGFRAME DOVERLAY, 0, STATIC
        EXTERN MAC_MlmeSetReq
        FUNCTION MAC_MlmeSetReq,0202H
        ARGFRAME ISTACK, 2, STACK
        ARGFRAME PSTACK, 0, STACK
        ARGFRAME XSTACK, 10, STACK
        ARGFRAME IOVERLAY, 0, STATIC
        ARGFRAME DOVERLAY, 0, STATIC
        EXTERN MAC_MlmeStartReq
        FUNCTION MAC_MlmeStartReq,0202H
        ARGFRAME ISTACK, 0, STACK
        ARGFRAME PSTACK, 0, STACK
        ARGFRAME XSTACK, 10, STACK
        ARGFRAME IOVERLAY, 0, STATIC
        ARGFRAME DOVERLAY, 0, STATIC
        EXTERN MAC_MlmeSyncReq
        FUNCTION MAC_MlmeSyncReq,0202H
        ARGFRAME ISTACK, 2, STACK
        ARGFRAME PSTACK, 0, STACK
        ARGFRAME XSTACK, 0, STACK
        ARGFRAME IOVERLAY, 0, STATIC
        ARGFRAME DOVERLAY, 0, STATIC
        EXTERN MAC_PwrMode
        FUNCTION MAC_PwrMode,0202H
        ARGFRAME ISTACK, 2, STACK
        ARGFRAME PSTACK, 0, STACK
        ARGFRAME XSTACK, 0, STACK
        ARGFRAME IOVERLAY, 0, STATIC
        ARGFRAME DOVERLAY, 0, STATIC
        EXTERN MAC_PwrOnReq
        FUNCTION MAC_PwrOnReq,0202H
        ARGFRAME ISTACK, 2, STACK
        ARGFRAME PSTACK, 0, STACK
        ARGFRAME XSTACK, 0, STACK
        ARGFRAME IOVERLAY, 0, STATIC
        ARGFRAME DOVERLAY, 0, STATIC
        EXTERN MAC_SrcMatchAckAllPending
        FUNCTION MAC_SrcMatchAckAllPending,0202H
        ARGFRAME ISTACK, 0, STACK
        ARGFRAME PSTACK, 0, STACK
        ARGFRAME XSTACK, 9, STACK
        ARGFRAME IOVERLAY, 0, STATIC
        ARGFRAME DOVERLAY, 0, STATIC
        EXTERN MAC_SrcMatchAddEntry
        FUNCTION MAC_SrcMatchAddEntry,0202H
        ARGFRAME ISTACK, 2, STACK
        ARGFRAME PSTACK, 0, STACK
        ARGFRAME XSTACK, 0, STACK
        ARGFRAME IOVERLAY, 0, STATIC
        ARGFRAME DOVERLAY, 0, STATIC
        EXTERN MAC_SrcMatchCheckAllPending
        FUNCTION MAC_SrcMatchCheckAllPending,0202H
        ARGFRAME ISTACK, 2, STACK
        ARGFRAME PSTACK, 0, STACK
        ARGFRAME XSTACK, 0, STACK
        ARGFRAME IOVERLAY, 0, STATIC
        ARGFRAME DOVERLAY, 0, STATIC
        EXTERN MAC_SrcMatchDeleteEntry
        FUNCTION MAC_SrcMatchDeleteEntry,0202H
        ARGFRAME ISTACK, 2, STACK
        ARGFRAME PSTACK, 0, STACK
        ARGFRAME XSTACK, 0, STACK
        ARGFRAME IOVERLAY, 0, STATIC
        ARGFRAME DOVERLAY, 0, STATIC
        EXTERN MAC_SrcMatchEnable
        FUNCTION MAC_SrcMatchEnable,0202H
        ARGFRAME ISTACK, 0, STACK
        ARGFRAME PSTACK, 0, STACK
        ARGFRAME XSTACK, 9, STACK
        ARGFRAME IOVERLAY, 0, STATIC
        ARGFRAME DOVERLAY, 0, STATIC
        EXTERN aExtendedAddress
        EXTERN macStateIdle
        FUNCTION macStateIdle,0202H
        ARGFRAME ISTACK, 2, STACK
        ARGFRAME PSTACK, 0, STACK
        ARGFRAME XSTACK, 0, STACK
        ARGFRAME IOVERLAY, 0, STATIC
        ARGFRAME DOVERLAY, 0, STATIC
        EXTERN osal_int_disable
        FUNCTION osal_int_disable,0202H
        ARGFRAME ISTACK, 0, STACK
        ARGFRAME PSTACK, 0, STACK
        ARGFRAME XSTACK, 9, STACK
        ARGFRAME IOVERLAY, 0, STATIC
        ARGFRAME DOVERLAY, 0, STATIC
        EXTERN osal_mem_alloc
        FUNCTION osal_mem_alloc,0202H
        ARGFRAME ISTACK, 0, STACK
        ARGFRAME PSTACK, 0, STACK
        ARGFRAME XSTACK, 12, STACK
        ARGFRAME IOVERLAY, 0, STATIC
        ARGFRAME DOVERLAY, 0, STATIC
        EXTERN osal_mem_free
        FUNCTION osal_mem_free,0202H
        ARGFRAME ISTACK, 0, STACK
        ARGFRAME PSTACK, 0, STACK
        ARGFRAME XSTACK, 10, STACK
        ARGFRAME IOVERLAY, 0, STATIC
        ARGFRAME DOVERLAY, 0, STATIC
        EXTERN osal_memcpy
        FUNCTION osal_memcpy,0202H
        ARGFRAME ISTACK, 0, STACK
        ARGFRAME PSTACK, 0, STACK
        ARGFRAME XSTACK, 19, STACK
        ARGFRAME IOVERLAY, 0, STATIC
        ARGFRAME DOVERLAY, 0, STATIC
        EXTERN osal_memset
        FUNCTION osal_memset,0202H
        ARGFRAME ISTACK, 0, STACK
        ARGFRAME PSTACK, 0, STACK
        ARGFRAME XSTACK, 12, STACK
        ARGFRAME IOVERLAY, 0, STATIC
        ARGFRAME DOVERLAY, 0, STATIC
        EXTERN sAddrExtCpy
        FUNCTION sAddrExtCpy,0202H
        ARGFRAME ISTACK, 0, STACK
        ARGFRAME PSTACK, 0, STACK
        ARGFRAME XSTACK, 9, STACK
        ARGFRAME IOVERLAY, 0, STATIC
        ARGFRAME DOVERLAY, 0, STATIC

// D:\SRC\DemoPrj\Components\zmac\f8w\zmac.c
//    1 /**************************************************************************************************
//    2   Filename:       zmac.c
//    3   Revised:        $Date: 2009-03-31 11:40:58 -0700 (Tue, 31 Mar 2009) $
//    4   Revision:       $Revision: 19611 $
//    5 
//    6 
//    7   Description:    This file contains the ZStack MAC Porting Layer
//    8 
//    9 
//   10   Copyright 2005-2007 Texas Instruments Incorporated. All rights reserved.
//   11 
//   12   IMPORTANT: Your use of this Software is limited to those specific rights
//   13   granted under the terms of a software license agreement between the user
//   14   who downloaded the software, his/her employer (which must be your employer)
//   15   and Texas Instruments Incorporated (the "License").  You may not use this
//   16   Software unless you agree to abide by the terms of the License. The License
//   17   limits your use, and you acknowledge, that the Software may not be modified,
//   18   copied or distributed unless embedded on a Texas Instruments microcontroller
//   19   or used solely and exclusively in conjunction with a Texas Instruments radio
//   20   frequency transceiver, which is integrated into your product.  Other than for
//   21   the foregoing purpose, you may not use, reproduce, copy, prepare derivative
//   22   works of, modify, distribute, perform, display or sell this Software and/or
//   23   its documentation for any purpose.
//   24 
//   25   YOU FURTHER ACKNOWLEDGE AND AGREE THAT THE SOFTWARE AND DOCUMENTATION ARE
//   26   PROVIDED “AS IS?WITHOUT WARRANTY OF ANY KIND, EITHER EXPRESS OR IMPLIED,
//   27   INCLUDING WITHOUT LIMITATION, ANY WARRANTY OF MERCHANTABILITY, TITLE,
//   28   NON-INFRINGEMENT AND FITNESS FOR A PARTICULAR PURPOSE. IN NO EVENT SHALL
//   29   TEXAS INSTRUMENTS OR ITS LICENSORS BE LIABLE OR OBLIGATED UNDER CONTRACT,
//   30   NEGLIGENCE, STRICT LIABILITY, CONTRIBUTION, BREACH OF WARRANTY, OR OTHER
//   31   LEGAL EQUITABLE THEORY ANY DIRECT OR INDIRECT DAMAGES OR EXPENSES
//   32   INCLUDING BUT NOT LIMITED TO ANY INCIDENTAL, SPECIAL, INDIRECT, PUNITIVE
//   33   OR CONSEQUENTIAL DAMAGES, LOST PROFITS OR LOST DATA, COST OF PROCUREMENT
//   34   OF SUBSTITUTE GOODS, TECHNOLOGY, SERVICES, OR ANY CLAIMS BY THIRD PARTIES
//   35   (INCLUDING BUT NOT LIMITED TO ANY DEFENSE THEREOF), OR OTHER SIMILAR COSTS.
//   36 
//   37   Should you have any questions regarding your right to use this Software,
//   38   contact Texas Instruments Incorporated at www.TI.com.
//   39 **************************************************************************************************/
//   40 
//   41 /********************************************************************************************************
//   42  *                                               INCLUDES
//   43  ********************************************************************************************************/
//   44 
//   45 #include "ZComDef.h"
//   46 #include "OSAL.h"
//   47 #include "ZMAC.h"
//   48 #include "mac_main.h"
//   49 
//   50 #if !defined NONWK
//   51   #include "ZGlobals.h"
//   52 #endif
//   53 
//   54 /********************************************************************************************************
//   55  *                                                 MACROS
//   56  ********************************************************************************************************/
//   57 
//   58 /********************************************************************************************************
//   59  *                                               CONSTANTS
//   60  ********************************************************************************************************/
//   61 
//   62 /********************************************************************************************************
//   63  *                                               GLOBALS
//   64  ********************************************************************************************************/

        RSEG XDATA_Z:XDATA:NOROOT(0)
        DATA32
//   65 uint32 _ScanChannels;
_ScanChannels:
        DS 4
        REQUIRE __INIT_XDATA_Z
//   66 
//   67 extern uint8 aExtendedAddress[];
//   68 
//   69 /********************************************************************************************************
//   70  *                                               LOCALS
//   71  ********************************************************************************************************/
//   72 
//   73 /* Pointer to scan result buffer */

        RSEG XDATA_Z:XDATA:NOROOT(0)
        DATA16
//   74 void *ZMac_ScanBuf = NULL;
ZMac_ScanBuf:
        DS 2
        REQUIRE __INIT_XDATA_Z
//   75 
//   76 /********************************************************************************************************
//   77  * LOCAL FUNCTION PROTOTYPES
//   78  ********************************************************************************************************/
//   79 
//   80 /********************************************************************************************************
//   81  *                                                TYPEDEFS
//   82  ********************************************************************************************************/
//   83 
//   84 
//   85 /********************************************************************************************************
//   86  *                                                FUNCTIONS
//   87  ********************************************************************************************************/
//   88 
//   89 /********************************************************************************************************
//   90  * @fn      ZMacInit
//   91  *
//   92  * @brief   Initialize MAC.
//   93  *
//   94  * @param   none.
//   95  *
//   96  * @return  status.
//   97  ********************************************************************************************************/

        RSEG BANKED_CODE:HUGECODE:NOROOT(0)
//   98 uint8 ZMacInit( void )
ZMacInit:
          CFI Block cfiBlock0 Using cfiCommon0
          CFI Function ZMacInit
        CODE
//   99 {
        FUNCALL ZMacInit, MAC_Init
        LOCFRAME ISTACK, 0, STACK
        LOCFRAME PSTACK, 0, STACK
        LOCFRAME XSTACK, 9, STACK
        LOCFRAME IOVERLAY, 0, STATIC
        LOCFRAME DOVERLAY, 0, STATIC
        ARGFRAME ISTACK, 0, STACK
        ARGFRAME PSTACK, 0, STACK
        ARGFRAME XSTACK, 9, STACK
        ARGFRAME IOVERLAY, 0, STATIC
        ARGFRAME DOVERLAY, 0, STATIC
        FUNCALL ZMacInit, MAC_InitDevice
        LOCFRAME ISTACK, 0, STACK
        LOCFRAME PSTACK, 0, STACK
        LOCFRAME XSTACK, 9, STACK
        LOCFRAME IOVERLAY, 0, STATIC
        LOCFRAME DOVERLAY, 0, STATIC
        ARGFRAME ISTACK, 0, STACK
        ARGFRAME PSTACK, 0, STACK
        ARGFRAME XSTACK, 9, STACK
        ARGFRAME IOVERLAY, 0, STATIC
        ARGFRAME DOVERLAY, 0, STATIC
        FUNCALL ZMacInit, MAC_InitCoord
        LOCFRAME ISTACK, 0, STACK
        LOCFRAME PSTACK, 0, STACK
        LOCFRAME XSTACK, 9, STACK
        LOCFRAME IOVERLAY, 0, STATIC
        LOCFRAME DOVERLAY, 0, STATIC
        ARGFRAME ISTACK, 0, STACK
        ARGFRAME PSTACK, 0, STACK
        ARGFRAME XSTACK, 9, STACK
        ARGFRAME IOVERLAY, 0, STATIC
        ARGFRAME DOVERLAY, 0, STATIC
        FUNCALL ZMacInit, ZMacReset
        LOCFRAME ISTACK, 0, STACK
        LOCFRAME PSTACK, 0, STACK
        LOCFRAME XSTACK, 9, STACK
        LOCFRAME IOVERLAY, 0, STATIC
        LOCFRAME DOVERLAY, 0, STATIC
        ARGFRAME ISTACK, 0, STACK
        ARGFRAME PSTACK, 0, STACK
        ARGFRAME XSTACK, 9, STACK
        ARGFRAME IOVERLAY, 0, STATIC
        ARGFRAME DOVERLAY, 0, STATIC
        FUNCALL ZMacInit, osal_int_disable
        LOCFRAME ISTACK, 0, STACK
        LOCFRAME PSTACK, 0, STACK
        LOCFRAME XSTACK, 9, STACK
        LOCFRAME IOVERLAY, 0, STATIC
        LOCFRAME DOVERLAY, 0, STATIC
        ARGFRAME ISTACK, 0, STACK
        ARGFRAME PSTACK, 0, STACK
        ARGFRAME XSTACK, 9, STACK
        ARGFRAME IOVERLAY, 0, STATIC
        ARGFRAME DOVERLAY, 0, STATIC
        MOV       A,#-0x9
        LCALL     ?BANKED_ENTER_XDATA
          CFI DPH0 load(1, XDATA, add(CFA_XSP16, literal(-1)))
          CFI DPL0 load(1, XDATA, add(CFA_XSP16, literal(-2)))
          CFI ?BRET_EXT load(1, XDATA, add(CFA_XSP16, literal(-3)))
          CFI ?RET_HIGH load(1, XDATA, add(CFA_XSP16, literal(-4)))
          CFI ?RET_LOW load(1, XDATA, add(CFA_XSP16, literal(-5)))
          CFI R7 load(1, XDATA, add(CFA_XSP16, literal(-6)))
          CFI V0 load(1, XDATA, add(CFA_XSP16, literal(-7)))
          CFI VB load(1, XDATA, add(CFA_XSP16, literal(-8)))
          CFI R6 load(1, XDATA, add(CFA_XSP16, literal(-9)))
          CFI CFA_SP SP+0
          CFI CFA_XSP16 add(XSP16, 9)
        ; Saved register size: 9
        ; Auto size: 0
//  100   uint8 stat;
//  101 
//  102   MAC_Init();
        ; Setup parameters for call to function MAC_Init
        LCALL     `??MAC_Init::?relay`; Banked call to: MAC_Init
//  103   MAC_InitDevice();
        ; Setup parameters for call to function MAC_InitDevice
        LCALL     `??MAC_InitDevice::?relay`; Banked call to: MAC_InitDevice
//  104 
//  105 #if !defined NONWK
//  106   if ( ZG_BUILD_RTR_TYPE )
//  107   {
//  108     MAC_InitCoord();
        ; Setup parameters for call to function MAC_InitCoord
        LCALL     `??MAC_InitCoord::?relay`; Banked call to: MAC_InitCoord
//  109   }
//  110 #endif
//  111 
//  112   // If OK, initialize the MAC
//  113   stat = ZMacReset( TRUE );
        ; Setup parameters for call to function ZMacReset
        MOV       R1,#0x1
        LCALL     `??ZMacReset::?relay`; Banked call to: ZMacReset
        MOV       A,R1
        MOV       R6,A
//  114 
//  115   // Turn off interrupts
//  116   osal_int_disable( INTS_ALL );
        ; Setup parameters for call to function osal_int_disable
        MOV       R1,#-0x1
        LCALL     `??osal_int_disable::?relay`; Banked call to: osal_int_disable
//  117 
//  118   return ( stat );
        MOV       A,R6
        MOV       R1,A
        LJMP      ??Subroutine7_0 & 0xFFFF
//  119 }
          CFI EndBlock cfiBlock0
//  120 
//  121 /********************************************************************************************************
//  122  * @fn      ZMacReset
//  123  *
//  124  * @brief   Reset the MAC.
//  125  *
//  126  * @param   Default to PIB defaults.
//  127  *
//  128  * @return  status.
//  129  ********************************************************************************************************/

        RSEG BANKED_CODE:HUGECODE:NOROOT(0)
//  130 uint8 ZMacReset( bool SetDefaultPIB )
ZMacReset:
          CFI Block cfiBlock1 Using cfiCommon0
          CFI Function ZMacReset
        CODE
//  131 {
        FUNCALL ZMacReset, MAC_MlmeResetReq
        LOCFRAME ISTACK, 0, STACK
        LOCFRAME PSTACK, 0, STACK
        LOCFRAME XSTACK, 10, STACK
        LOCFRAME IOVERLAY, 0, STATIC
        LOCFRAME DOVERLAY, 0, STATIC
        ARGFRAME ISTACK, 0, STACK
        ARGFRAME PSTACK, 0, STACK
        ARGFRAME XSTACK, 10, STACK
        ARGFRAME IOVERLAY, 0, STATIC
        ARGFRAME DOVERLAY, 0, STATIC
        FUNCALL ZMacReset, MAC_MlmeSetReq
        LOCFRAME ISTACK, 0, STACK
        LOCFRAME PSTACK, 0, STACK
        LOCFRAME XSTACK, 10, STACK
        LOCFRAME IOVERLAY, 0, STATIC
        LOCFRAME DOVERLAY, 0, STATIC
        ARGFRAME ISTACK, 0, STACK
        ARGFRAME PSTACK, 0, STACK
        ARGFRAME XSTACK, 10, STACK
        ARGFRAME IOVERLAY, 0, STATIC
        ARGFRAME DOVERLAY, 0, STATIC
        FUNCALL ZMacReset, MAC_MlmeSetReq
        LOCFRAME ISTACK, 0, STACK
        LOCFRAME PSTACK, 0, STACK
        LOCFRAME XSTACK, 10, STACK
        LOCFRAME IOVERLAY, 0, STATIC
        LOCFRAME DOVERLAY, 0, STATIC
        ARGFRAME ISTACK, 0, STACK
        ARGFRAME PSTACK, 0, STACK
        ARGFRAME XSTACK, 10, STACK
        ARGFRAME IOVERLAY, 0, STATIC
        ARGFRAME DOVERLAY, 0, STATIC
        FUNCALL ZMacReset, osal_mem_free
        LOCFRAME ISTACK, 0, STACK
        LOCFRAME PSTACK, 0, STACK
        LOCFRAME XSTACK, 10, STACK
        LOCFRAME IOVERLAY, 0, STATIC
        LOCFRAME DOVERLAY, 0, STATIC
        ARGFRAME ISTACK, 0, STACK
        ARGFRAME PSTACK, 0, STACK
        ARGFRAME XSTACK, 10, STACK
        ARGFRAME IOVERLAY, 0, STATIC
        ARGFRAME DOVERLAY, 0, STATIC
        MOV       A,#-0x9
        LCALL     ?BANKED_ENTER_XDATA
          CFI DPH0 load(1, XDATA, add(CFA_XSP16, literal(-1)))
          CFI DPL0 load(1, XDATA, add(CFA_XSP16, literal(-2)))
          CFI ?BRET_EXT load(1, XDATA, add(CFA_XSP16, literal(-3)))
          CFI ?RET_HIGH load(1, XDATA, add(CFA_XSP16, literal(-4)))
          CFI ?RET_LOW load(1, XDATA, add(CFA_XSP16, literal(-5)))
          CFI R7 load(1, XDATA, add(CFA_XSP16, literal(-6)))
          CFI V0 load(1, XDATA, add(CFA_XSP16, literal(-7)))
          CFI VB load(1, XDATA, add(CFA_XSP16, literal(-8)))
          CFI R6 load(1, XDATA, add(CFA_XSP16, literal(-9)))
          CFI CFA_SP SP+0
          CFI CFA_XSP16 add(XSP16, 9)
        ; Saved register size: 9
        ; Auto size: 1
        MOV       A,#-0x1
        LCALL     ?ALLOC_XSTACK8
          CFI CFA_XSP16 add(XSP16, 10)
//  132   byte stat;
//  133   byte value;
//  134 
//  135   stat = MAC_MlmeResetReq( SetDefaultPIB );
        ; Setup parameters for call to function MAC_MlmeResetReq
        LCALL     `??MAC_MlmeResetReq::?relay`; Banked call to: MAC_MlmeResetReq
        MOV       A,R1
        MOV       R6,A
//  136 
//  137   // Don't send PAN ID conflict
//  138   value = FALSE;
        MOV       DPL,?XSP + 0
        MOV       DPH,?XSP + 1
        CLR       A
        MOVX      @DPTR,A
//  139   MAC_MlmeSetReq( MAC_ASSOCIATED_PAN_COORD, &value );
        ; Setup parameters for call to function MAC_MlmeSetReq
        MOV       R2,?XSP + 0
        MOV       R3,?XSP + 1
        MOV       R1,#0x56
        LCALL     `??MAC_MlmeSetReq::?relay`; Banked call to: MAC_MlmeSetReq
//  140   MAC_MlmeSetReq( MAC_EXTENDED_ADDRESS, &aExtendedAddress );
        ; Setup parameters for call to function MAC_MlmeSetReq
        MOV       R2,#aExtendedAddress & 0xff
        MOV       R3,#(aExtendedAddress >> 8) & 0xff
        MOV       R1,#-0x1e
        LCALL     `??MAC_MlmeSetReq::?relay`; Banked call to: MAC_MlmeSetReq
//  141 
//  142   if (ZMac_ScanBuf)
        MOV       DPTR,#ZMac_ScanBuf
        MOVX      A,@DPTR
        MOV       R0,A
        INC       DPTR
        MOVX      A,@DPTR
        MOV       R1,A
        MOV       A,R0
        ORL       A,R1
        JZ        ??ZMacReset_0
//  143   {
//  144     osal_mem_free(ZMac_ScanBuf);
        ; Setup parameters for call to function osal_mem_free
        MOV       DPTR,#ZMac_ScanBuf
        MOVX      A,@DPTR
        MOV       R2,A
        INC       DPTR
        MOVX      A,@DPTR
        MOV       R3,A
        LCALL     `??osal_mem_free::?relay`; Banked call to: osal_mem_free
//  145     ZMac_ScanBuf = NULL;
        MOV       DPTR,#ZMac_ScanBuf
        CLR       A
        MOVX      @DPTR,A
        INC       DPTR
        MOVX      @DPTR,A
//  146   }
//  147 
//  148   return ( stat );
??ZMacReset_0:
        MOV       A,R6
        MOV       R1,A
        SJMP      ?Subroutine0
//  149 }
          CFI EndBlock cfiBlock1
//  150 
//  151 
//  152 /********************************************************************************************************
//  153  * @fn      ZMacGetReq
//  154  *
//  155  * @brief   Read a MAC PIB attribute.
//  156  *
//  157  * @param   attr - PIB attribute to get
//  158  * @param   value - pointer to the buffer to store the attribute
//  159  *
//  160  * @return  status
//  161  ********************************************************************************************************/

        RSEG BANKED_CODE:HUGECODE:NOROOT(0)
//  162 uint8 ZMacGetReq( uint8 attr, uint8 *value )
ZMacGetReq:
          CFI Block cfiBlock2 Using cfiCommon0
          CFI Function ZMacGetReq
        CODE
//  163 {
        FUNCALL ZMacGetReq, sAddrExtCpy
        LOCFRAME ISTACK, 0, STACK
        LOCFRAME PSTACK, 0, STACK
        LOCFRAME XSTACK, 9, STACK
        LOCFRAME IOVERLAY, 0, STATIC
        LOCFRAME DOVERLAY, 0, STATIC
        ARGFRAME ISTACK, 0, STACK
        ARGFRAME PSTACK, 0, STACK
        ARGFRAME XSTACK, 9, STACK
        ARGFRAME IOVERLAY, 0, STATIC
        ARGFRAME DOVERLAY, 0, STATIC
        FUNCALL ZMacGetReq, MAC_MlmeGetReq
        LOCFRAME ISTACK, 0, STACK
        LOCFRAME PSTACK, 0, STACK
        LOCFRAME XSTACK, 9, STACK
        LOCFRAME IOVERLAY, 0, STATIC
        LOCFRAME DOVERLAY, 0, STATIC
        ARGFRAME ISTACK, 0, STACK
        ARGFRAME PSTACK, 0, STACK
        ARGFRAME XSTACK, 9, STACK
        ARGFRAME IOVERLAY, 0, STATIC
        ARGFRAME DOVERLAY, 0, STATIC
        MOV       A,#-0x9
        LCALL     ?BANKED_ENTER_XDATA
          CFI DPH0 load(1, XDATA, add(CFA_XSP16, literal(-1)))
          CFI DPL0 load(1, XDATA, add(CFA_XSP16, literal(-2)))
          CFI ?BRET_EXT load(1, XDATA, add(CFA_XSP16, literal(-3)))
          CFI ?RET_HIGH load(1, XDATA, add(CFA_XSP16, literal(-4)))
          CFI ?RET_LOW load(1, XDATA, add(CFA_XSP16, literal(-5)))
          CFI R7 load(1, XDATA, add(CFA_XSP16, literal(-6)))
          CFI V0 load(1, XDATA, add(CFA_XSP16, literal(-7)))
          CFI VB load(1, XDATA, add(CFA_XSP16, literal(-8)))
          CFI R6 load(1, XDATA, add(CFA_XSP16, literal(-9)))
          CFI CFA_SP SP+0
          CFI CFA_XSP16 add(XSP16, 9)
        ; Saved register size: 9
        ; Auto size: 0
        MOV       A,R1
        MOV       R6,A
//  164   if ( attr == ZMacExtAddr )
        MOV       A,#-0x1e
        XRL       A,R6
        JNZ       ??ZMacGetReq_0
//  165   {
//  166     osal_cpyExtAddr( value, &aExtendedAddress );
        ; Setup parameters for call to function sAddrExtCpy
        MOV       R4,#aExtendedAddress & 0xff
        MOV       R5,#(aExtendedAddress >> 8) & 0xff
        LCALL     `??sAddrExtCpy::?relay`; Banked call to: sAddrExtCpy
//  167     return ZMacSuccess;
        MOV       R1,#0x0
        SJMP      ??ZMacGetReq_1
//  168   }
//  169 
//  170   return (ZMacStatus_t) MAC_MlmeGetReq( attr, value );
??ZMacGetReq_0:
        ; Setup parameters for call to function MAC_MlmeGetReq
        LCALL     `??MAC_MlmeGetReq::?relay`; Banked call to: MAC_MlmeGetReq
??ZMacGetReq_1:
        SJMP      ??Subroutine7_0
//  171 }
          CFI EndBlock cfiBlock2
//  172 
//  173 
//  174 /********************************************************************************************************
//  175  * @fn      ZMacSetReq
//  176  *
//  177  * @brief   Write a MAC PIB attribute.
//  178  *
//  179  * @param   attr - PIB attribute to Set
//  180  * @param   value - pointer to the data
//  181  *
//  182  * @return  status
//  183  ********************************************************************************************************/

        RSEG BANKED_CODE:HUGECODE:NOROOT(0)
//  184 uint8 ZMacSetReq( uint8 attr, byte *value )
ZMacSetReq:
          CFI Block cfiBlock3 Using cfiCommon0
          CFI Function ZMacSetReq
        CODE
//  185 {
        FUNCALL ZMacSetReq, sAddrExtCpy
        LOCFRAME ISTACK, 0, STACK
        LOCFRAME PSTACK, 0, STACK
        LOCFRAME XSTACK, 9, STACK
        LOCFRAME IOVERLAY, 0, STATIC
        LOCFRAME DOVERLAY, 0, STATIC
        ARGFRAME ISTACK, 0, STACK
        ARGFRAME PSTACK, 0, STACK
        ARGFRAME XSTACK, 9, STACK
        ARGFRAME IOVERLAY, 0, STATIC
        ARGFRAME DOVERLAY, 0, STATIC
        FUNCALL ZMacSetReq, MAC_MlmeSetReq
        LOCFRAME ISTACK, 0, STACK
        LOCFRAME PSTACK, 0, STACK
        LOCFRAME XSTACK, 9, STACK
        LOCFRAME IOVERLAY, 0, STATIC
        LOCFRAME DOVERLAY, 0, STATIC
        ARGFRAME ISTACK, 0, STACK
        ARGFRAME PSTACK, 0, STACK
        ARGFRAME XSTACK, 9, STACK
        ARGFRAME IOVERLAY, 0, STATIC
        ARGFRAME DOVERLAY, 0, STATIC
        REQUIRE ?V0
        MOV       A,#-0x9
        LCALL     ?BANKED_ENTER_XDATA
          CFI DPH0 load(1, XDATA, add(CFA_XSP16, literal(-1)))
          CFI DPL0 load(1, XDATA, add(CFA_XSP16, literal(-2)))
          CFI ?BRET_EXT load(1, XDATA, add(CFA_XSP16, literal(-3)))
          CFI ?RET_HIGH load(1, XDATA, add(CFA_XSP16, literal(-4)))
          CFI ?RET_LOW load(1, XDATA, add(CFA_XSP16, literal(-5)))
          CFI R7 load(1, XDATA, add(CFA_XSP16, literal(-6)))
          CFI V0 load(1, XDATA, add(CFA_XSP16, literal(-7)))
          CFI VB load(1, XDATA, add(CFA_XSP16, literal(-8)))
          CFI R6 load(1, XDATA, add(CFA_XSP16, literal(-9)))
          CFI CFA_SP SP+0
          CFI CFA_XSP16 add(XSP16, 9)
        ; Saved register size: 9
        ; Auto size: 0
        MOV       ?V0,R1
        MOV       A,R2
        MOV       R6,A
        MOV       A,R3
        MOV       R7,A
//  186   if ( attr == ZMacExtAddr )
        MOV       A,#-0x1e
        XRL       A,R1
        JNZ       ??ZMacSetReq_0
//  187   {
//  188     osal_cpyExtAddr( aExtendedAddress, value );
        ; Setup parameters for call to function sAddrExtCpy
        MOV       A,R2
        MOV       R4,A
        MOV       A,R3
        MOV       R5,A
        MOV       R2,#aExtendedAddress & 0xff
        MOV       R3,#(aExtendedAddress >> 8) & 0xff
        LCALL     `??sAddrExtCpy::?relay`; Banked call to: sAddrExtCpy
//  189   }
//  190 
//  191   return (ZMacStatus_t) MAC_MlmeSetReq( attr, value );
??ZMacSetReq_0:
        ; Setup parameters for call to function MAC_MlmeSetReq
        MOV       A,R6
        MOV       R2,A
        MOV       A,R7
        MOV       R3,A
        MOV       R1,?V0
        LCALL     `??MAC_MlmeSetReq::?relay`; Banked call to: MAC_MlmeSetReq
        SJMP      ??Subroutine7_0
//  192 }
          CFI EndBlock cfiBlock3

        RSEG BANKED_CODE:HUGECODE:NOROOT(0)
?Subroutine0:
          CFI Block cfiBlock4 Using cfiCommon0
          CFI NoFunction
          CFI CFA_SP SP+0
          CFI CFA_XSP16 add(XSP16, 10)
          CFI VB load(1, XDATA, add(CFA_XSP16, literal(-8)))
          CFI DPL0 load(1, XDATA, add(CFA_XSP16, literal(-2)))
          CFI DPH0 load(1, XDATA, add(CFA_XSP16, literal(-1)))
          CFI R6 load(1, XDATA, add(CFA_XSP16, literal(-9)))
          CFI R7 load(1, XDATA, add(CFA_XSP16, literal(-6)))
          CFI V0 load(1, XDATA, add(CFA_XSP16, literal(-7)))
          CFI ?BRET_EXT load(1, XDATA, add(CFA_XSP16, literal(-3)))
          CFI ?RET_HIGH load(1, XDATA, add(CFA_XSP16, literal(-4)))
          CFI ?RET_LOW load(1, XDATA, add(CFA_XSP16, literal(-5)))
        MOV       A,#0x1
        LCALL     ?DEALLOC_XSTACK8
          CFI EndBlock cfiBlock4
        REQUIRE ??Subroutine7_0
        ; // Fall through to label ??Subroutine7_0

        RSEG BANKED_CODE:HUGECODE:NOROOT(0)
??Subroutine7_0:
          CFI Block cfiBlock5 Using cfiCommon0
          CFI NoFunction
          CFI CFA_SP SP+0
          CFI CFA_XSP16 add(XSP16, 9)
          CFI VB load(1, XDATA, add(CFA_XSP16, literal(-8)))
          CFI DPL0 load(1, XDATA, add(CFA_XSP16, literal(-2)))
          CFI DPH0 load(1, XDATA, add(CFA_XSP16, literal(-1)))
          CFI R6 load(1, XDATA, add(CFA_XSP16, literal(-9)))
          CFI R7 load(1, XDATA, add(CFA_XSP16, literal(-6)))
          CFI V0 load(1, XDATA, add(CFA_XSP16, literal(-7)))
          CFI ?BRET_EXT load(1, XDATA, add(CFA_XSP16, literal(-3)))
          CFI ?RET_HIGH load(1, XDATA, add(CFA_XSP16, literal(-4)))
          CFI ?RET_LOW load(1, XDATA, add(CFA_XSP16, literal(-5)))
        MOV       R7,#0x1
        LJMP      ?BANKED_LEAVE_XDATA
          CFI EndBlock cfiBlock5
//  193 
//  194 /********************************************************************************************************
//  195  * @fn      ZMacAssociateReq
//  196  *
//  197  * @brief   Request an association with a coordinator.
//  198  *
//  199  * @param   structure with info need to associate.
//  200  *
//  201  * @return  status
//  202  ********************************************************************************************************/

        RSEG BANKED_CODE:HUGECODE:NOROOT(0)
//  203 uint8 ZMacAssociateReq( ZMacAssociateReq_t *pData )
ZMacAssociateReq:
          CFI Block cfiBlock6 Using cfiCommon0
          CFI Function ZMacAssociateReq
        CODE
//  204 {
        FUNCALL ZMacAssociateReq, MAC_MlmeAssociateReq
        LOCFRAME ISTACK, 2, STACK
        LOCFRAME PSTACK, 0, STACK
        LOCFRAME XSTACK, 0, STACK
        LOCFRAME IOVERLAY, 0, STATIC
        LOCFRAME DOVERLAY, 0, STATIC
        ARGFRAME ISTACK, 2, STACK
        ARGFRAME PSTACK, 0, STACK
        ARGFRAME XSTACK, 0, STACK
        ARGFRAME IOVERLAY, 0, STATIC
        ARGFRAME DOVERLAY, 0, STATIC
        PUSH      DPL
          CFI DPL0 Frame(CFA_SP, 4)
          CFI CFA_SP SP+-4
        PUSH      DPH
          CFI DPH0 Frame(CFA_SP, 5)
          CFI CFA_SP SP+-5
        ; Saved register size: 2
        ; Auto size: 0
//  205   /* Right now, set security to zero */
//  206   pData->Sec.SecurityLevel = false;
        MOV       A,R2
        ADD       A,#0x16
        LCALL     ?Subroutine5 & 0xFFFF
//  207 
//  208   MAC_MlmeAssociateReq ( (macMlmeAssociateReq_t *)pData);
??CrossCallReturnLabel_3:
        ; Setup parameters for call to function MAC_MlmeAssociateReq
        LCALL     `??MAC_MlmeAssociateReq::?relay`; Banked call to: MAC_MlmeAssociateReq
//  209   return ( ZMacSuccess );
        LJMP      ?Subroutine1 & 0xFFFF
//  210 }
          CFI EndBlock cfiBlock6
//  211 
//  212 /********************************************************************************************************
//  213  * @fn      ZMacAssociateRsp
//  214  *
//  215  * @brief   Request to send an association response message.
//  216  *
//  217  * @param   structure with associate response and info needed to send it.
//  218  *
//  219  * @return  status
//  220  ********************************************************************************************************/

        RSEG BANKED_CODE:HUGECODE:NOROOT(0)
//  221 uint8 ZMacAssociateRsp( ZMacAssociateRsp_t *pData )
ZMacAssociateRsp:
          CFI Block cfiBlock7 Using cfiCommon0
          CFI Function ZMacAssociateRsp
        CODE
//  222 {
        FUNCALL ZMacAssociateRsp, MAC_MlmeAssociateRsp
        LOCFRAME ISTACK, 2, STACK
        LOCFRAME PSTACK, 0, STACK
        LOCFRAME XSTACK, 0, STACK
        LOCFRAME IOVERLAY, 0, STATIC
        LOCFRAME DOVERLAY, 0, STATIC
        ARGFRAME ISTACK, 2, STACK
        ARGFRAME PSTACK, 0, STACK
        ARGFRAME XSTACK, 0, STACK
        ARGFRAME IOVERLAY, 0, STATIC
        ARGFRAME DOVERLAY, 0, STATIC
        PUSH      DPL
          CFI DPL0 Frame(CFA_SP, 4)
          CFI CFA_SP SP+-4
        PUSH      DPH
          CFI DPH0 Frame(CFA_SP, 5)
          CFI CFA_SP SP+-5
        ; Saved register size: 2
        ; Auto size: 0
//  223   /* Right now, set security to zero */
//  224   pData->Sec.SecurityLevel = false;
        LCALL     ?Subroutine4 & 0xFFFF
//  225 
//  226   MAC_MlmeAssociateRsp( (macMlmeAssociateRsp_t *) pData );
??CrossCallReturnLabel_0:
        ; Setup parameters for call to function MAC_MlmeAssociateRsp
        LCALL     `??MAC_MlmeAssociateRsp::?relay`; Banked call to: MAC_MlmeAssociateRsp
//  227   return ( ZMacSuccess );
        LJMP      ?Subroutine1 & 0xFFFF
//  228 }
          CFI EndBlock cfiBlock7
//  229 
//  230 /********************************************************************************************************
//  231  * @fn      ZMacDisassociateReq
//  232  *
//  233  * @brief   Request to send a disassociate request message.
//  234  *
//  235  * @param   structure with info need send it.
//  236  *
//  237  * @return  status
//  238  ********************************************************************************************************/

        RSEG BANKED_CODE:HUGECODE:NOROOT(0)
//  239 uint8 ZMacDisassociateReq( ZMacDisassociateReq_t *pData )
ZMacDisassociateReq:
          CFI Block cfiBlock8 Using cfiCommon0
          CFI Function ZMacDisassociateReq
        CODE
//  240 {
        FUNCALL ZMacDisassociateReq, MAC_MlmeDisassociateReq
        LOCFRAME ISTACK, 2, STACK
        LOCFRAME PSTACK, 0, STACK
        LOCFRAME XSTACK, 0, STACK
        LOCFRAME IOVERLAY, 0, STATIC
        LOCFRAME DOVERLAY, 0, STATIC
        ARGFRAME ISTACK, 2, STACK
        ARGFRAME PSTACK, 0, STACK
        ARGFRAME XSTACK, 0, STACK
        ARGFRAME IOVERLAY, 0, STATIC
        ARGFRAME DOVERLAY, 0, STATIC
        PUSH      DPL
          CFI DPL0 Frame(CFA_SP, 4)
          CFI CFA_SP SP+-4
        PUSH      DPH
          CFI DPH0 Frame(CFA_SP, 5)
          CFI CFA_SP SP+-5
        ; Saved register size: 2
        ; Auto size: 0
//  241   /* Right now, set security to zero */
//  242   pData->Sec.SecurityLevel = false;
        MOV       A,R2
        ADD       A,#0x15
        LCALL     ?Subroutine5 & 0xFFFF
//  243 
//  244   MAC_MlmeDisassociateReq( (macMlmeDisassociateReq_t *)pData);
??CrossCallReturnLabel_4:
        ; Setup parameters for call to function MAC_MlmeDisassociateReq
        LCALL     `??MAC_MlmeDisassociateReq::?relay`; Banked call to: MAC_MlmeDisassociateReq
//  245   return ( ZMacSuccess );
        LJMP      ?Subroutine1 & 0xFFFF
//  246 }
          CFI EndBlock cfiBlock8

        RSEG BANKED_CODE:HUGECODE:NOROOT(0)
?Subroutine5:
          CFI Block cfiCond9 Using cfiCommon0
          CFI Function ZMacAssociateReq
          CFI Conditional ??CrossCallReturnLabel_3
          CFI DPL0 Frame(CFA_SP, 4)
          CFI DPH0 Frame(CFA_SP, 5)
          CFI CFA_SP SP+-7
          CFI Block cfiCond10 Using cfiCommon0
          CFI (cfiCond10) Function ZMacDisassociateReq
          CFI (cfiCond10) Conditional ??CrossCallReturnLabel_4
          CFI (cfiCond10) DPL0 Frame(CFA_SP, 4)
          CFI (cfiCond10) DPH0 Frame(CFA_SP, 5)
          CFI (cfiCond10) CFA_SP SP+-7
          CFI Block cfiCond11 Using cfiCommon0
          CFI (cfiCond11) Function ZMacSendNoData
          CFI (cfiCond11) Conditional ??CrossCallReturnLabel_5
          CFI (cfiCond11) R6 load(1, XDATA, add(CFA_XSP16, literal(-12)))
          CFI (cfiCond11) VB load(1, XDATA, add(CFA_XSP16, literal(-11)))
          CFI (cfiCond11) V0 load(1, XDATA, add(CFA_XSP16, literal(-10)))
          CFI (cfiCond11) V1 load(1, XDATA, add(CFA_XSP16, literal(-9)))
          CFI (cfiCond11) V2 load(1, XDATA, add(CFA_XSP16, literal(-8)))
          CFI (cfiCond11) V3 load(1, XDATA, add(CFA_XSP16, literal(-7)))
          CFI (cfiCond11) R7 load(1, XDATA, add(CFA_XSP16, literal(-6)))
          CFI (cfiCond11) ?RET_LOW load(1, XDATA, add(CFA_XSP16, literal(-5)))
          CFI (cfiCond11) ?RET_HIGH load(1, XDATA, add(CFA_XSP16, literal(-4)))
          CFI (cfiCond11) ?BRET_EXT load(1, XDATA, add(CFA_XSP16, literal(-3)))
          CFI (cfiCond11) DPL0 load(1, XDATA, add(CFA_XSP16, literal(-2)))
          CFI (cfiCond11) DPH0 load(1, XDATA, add(CFA_XSP16, literal(-1)))
          CFI (cfiCond11) CFA_SP SP+-2
          CFI (cfiCond11) CFA_XSP16 add(XSP16, 12)
          CFI Block cfiCond12 Using cfiCommon0
          CFI (cfiCond12) Function ZMacSendNoData
          CFI (cfiCond12) Conditional ??CrossCallReturnLabel_6
          CFI (cfiCond12) R6 load(1, XDATA, add(CFA_XSP16, literal(-12)))
          CFI (cfiCond12) VB load(1, XDATA, add(CFA_XSP16, literal(-11)))
          CFI (cfiCond12) V0 load(1, XDATA, add(CFA_XSP16, literal(-10)))
          CFI (cfiCond12) V1 load(1, XDATA, add(CFA_XSP16, literal(-9)))
          CFI (cfiCond12) V2 load(1, XDATA, add(CFA_XSP16, literal(-8)))
          CFI (cfiCond12) V3 load(1, XDATA, add(CFA_XSP16, literal(-7)))
          CFI (cfiCond12) R7 load(1, XDATA, add(CFA_XSP16, literal(-6)))
          CFI (cfiCond12) ?RET_LOW load(1, XDATA, add(CFA_XSP16, literal(-5)))
          CFI (cfiCond12) ?RET_HIGH load(1, XDATA, add(CFA_XSP16, literal(-4)))
          CFI (cfiCond12) ?BRET_EXT load(1, XDATA, add(CFA_XSP16, literal(-3)))
          CFI (cfiCond12) DPL0 load(1, XDATA, add(CFA_XSP16, literal(-2)))
          CFI (cfiCond12) DPH0 load(1, XDATA, add(CFA_XSP16, literal(-1)))
          CFI (cfiCond12) CFA_SP SP+-2
          CFI (cfiCond12) CFA_XSP16 add(XSP16, 12)
          CFI Block cfiPicker13 Using cfiCommon1
          CFI (cfiPicker13) NoFunction
          CFI (cfiPicker13) Picker
        MOV       DPL,A
        CLR       A
        ADDC      A,R3
        MOV       DPH,A
        CLR       A
        MOVX      @DPTR,A
        RET
          CFI EndBlock cfiCond9
          CFI EndBlock cfiCond10
          CFI EndBlock cfiCond11
          CFI EndBlock cfiCond12
          CFI EndBlock cfiPicker13
//  247 
//  248 /********************************************************************************************************
//  249  * @fn      ZMacOrphanRsp
//  250  *
//  251  * @brief   Allows next higher layer to respond to an orphan indication message.
//  252  *
//  253  * @param   structure with info need send it.
//  254  *
//  255  * @return  status
//  256  ********************************************************************************************************/

        RSEG BANKED_CODE:HUGECODE:NOROOT(0)
//  257 uint8 ZMacOrphanRsp( ZMacOrphanRsp_t *pData )
ZMacOrphanRsp:
          CFI Block cfiBlock14 Using cfiCommon0
          CFI Function ZMacOrphanRsp
        CODE
//  258 {
        FUNCALL ZMacOrphanRsp, MAC_MlmeOrphanRsp
        LOCFRAME ISTACK, 2, STACK
        LOCFRAME PSTACK, 0, STACK
        LOCFRAME XSTACK, 0, STACK
        LOCFRAME IOVERLAY, 0, STATIC
        LOCFRAME DOVERLAY, 0, STATIC
        ARGFRAME ISTACK, 2, STACK
        ARGFRAME PSTACK, 0, STACK
        ARGFRAME XSTACK, 0, STACK
        ARGFRAME IOVERLAY, 0, STATIC
        ARGFRAME DOVERLAY, 0, STATIC
        PUSH      DPL
          CFI DPL0 Frame(CFA_SP, 4)
          CFI CFA_SP SP+-4
        PUSH      DPH
          CFI DPH0 Frame(CFA_SP, 5)
          CFI CFA_SP SP+-5
        ; Saved register size: 2
        ; Auto size: 0
//  259   /* Right now, set security to zero */
//  260   pData->Sec.SecurityLevel = false;
        LCALL     ?Subroutine4 & 0xFFFF
//  261 
//  262   MAC_MlmeOrphanRsp( (macMlmeOrphanRsp_t *)pData);
??CrossCallReturnLabel_1:
        ; Setup parameters for call to function MAC_MlmeOrphanRsp
        LCALL     `??MAC_MlmeOrphanRsp::?relay`; Banked call to: MAC_MlmeOrphanRsp
//  263   return ( ZMacSuccess );
        LJMP      ?Subroutine1 & 0xFFFF
//  264 }
          CFI EndBlock cfiBlock14

        RSEG BANKED_CODE:HUGECODE:NOROOT(0)
?Subroutine4:
          CFI Block cfiCond15 Using cfiCommon0
          CFI Function ZMacAssociateRsp
          CFI Conditional ??CrossCallReturnLabel_0
          CFI DPL0 Frame(CFA_SP, 4)
          CFI DPH0 Frame(CFA_SP, 5)
          CFI CFA_SP SP+-7
          CFI Block cfiCond16 Using cfiCommon0
          CFI (cfiCond16) Function ZMacOrphanRsp
          CFI (cfiCond16) Conditional ??CrossCallReturnLabel_1
          CFI (cfiCond16) DPL0 Frame(CFA_SP, 4)
          CFI (cfiCond16) DPH0 Frame(CFA_SP, 5)
          CFI (cfiCond16) CFA_SP SP+-7
          CFI Block cfiCond17 Using cfiCommon0
          CFI (cfiCond17) Function ZMacPollReq
          CFI (cfiCond17) Conditional ??CrossCallReturnLabel_2
          CFI (cfiCond17) DPL0 Frame(CFA_SP, 4)
          CFI (cfiCond17) DPH0 Frame(CFA_SP, 5)
          CFI (cfiCond17) CFA_SP SP+-7
          CFI Block cfiPicker18 Using cfiCommon1
          CFI (cfiPicker18) NoFunction
          CFI (cfiPicker18) Picker
        MOV       A,R2
        ADD       A,#0x13
        MOV       DPL,A
        CLR       A
        ADDC      A,R3
        MOV       DPH,A
        CLR       A
        MOVX      @DPTR,A
        RET
          CFI EndBlock cfiCond15
          CFI EndBlock cfiCond16
          CFI EndBlock cfiCond17
          CFI EndBlock cfiPicker18
//  265 
//  266 /********************************************************************************************************
//  267  * @fn      ZMacScanReq
//  268  *
//  269  * @brief   This function is called to perform a network scan.
//  270  *
//  271  * @param   param - structure with info need send it.
//  272  *
//  273  * @return  status
//  274  ********************************************************************************************************/

        RSEG BANKED_CODE:HUGECODE:NOROOT(0)
//  275 uint8 ZMacScanReq( ZMacScanReq_t *pData )
ZMacScanReq:
          CFI Block cfiBlock19 Using cfiCommon0
          CFI Function ZMacScanReq
        CODE
//  276 {
        FUNCALL ZMacScanReq, osal_mem_alloc
        LOCFRAME ISTACK, 0, STACK
        LOCFRAME PSTACK, 0, STACK
        LOCFRAME XSTACK, 12, STACK
        LOCFRAME IOVERLAY, 0, STATIC
        LOCFRAME DOVERLAY, 0, STATIC
        ARGFRAME ISTACK, 0, STACK
        ARGFRAME PSTACK, 0, STACK
        ARGFRAME XSTACK, 12, STACK
        ARGFRAME IOVERLAY, 0, STATIC
        ARGFRAME DOVERLAY, 0, STATIC
        FUNCALL ZMacScanReq, osal_memset
        LOCFRAME ISTACK, 0, STACK
        LOCFRAME PSTACK, 0, STACK
        LOCFRAME XSTACK, 12, STACK
        LOCFRAME IOVERLAY, 0, STATIC
        LOCFRAME DOVERLAY, 0, STATIC
        ARGFRAME ISTACK, 0, STACK
        ARGFRAME PSTACK, 0, STACK
        ARGFRAME XSTACK, 12, STACK
        ARGFRAME IOVERLAY, 0, STATIC
        ARGFRAME DOVERLAY, 0, STATIC
        FUNCALL ZMacScanReq, MAC_MlmeScanReq
        LOCFRAME ISTACK, 0, STACK
        LOCFRAME PSTACK, 0, STACK
        LOCFRAME XSTACK, 12, STACK
        LOCFRAME IOVERLAY, 0, STATIC
        LOCFRAME DOVERLAY, 0, STATIC
        ARGFRAME ISTACK, 0, STACK
        ARGFRAME PSTACK, 0, STACK
        ARGFRAME XSTACK, 12, STACK
        ARGFRAME IOVERLAY, 0, STATIC
        ARGFRAME DOVERLAY, 0, STATIC
        FUNCALL ZMacScanReq, osal_mem_alloc
        LOCFRAME ISTACK, 0, STACK
        LOCFRAME PSTACK, 0, STACK
        LOCFRAME XSTACK, 12, STACK
        LOCFRAME IOVERLAY, 0, STATIC
        LOCFRAME DOVERLAY, 0, STATIC
        ARGFRAME ISTACK, 0, STACK
        ARGFRAME PSTACK, 0, STACK
        ARGFRAME XSTACK, 12, STACK
        ARGFRAME IOVERLAY, 0, STATIC
        ARGFRAME DOVERLAY, 0, STATIC
        REQUIRE ?V0
        REQUIRE ?V1
        REQUIRE ?V2
        REQUIRE ?V3
        MOV       A,#-0xc
        LCALL     ?BANKED_ENTER_XDATA
          CFI DPH0 load(1, XDATA, add(CFA_XSP16, literal(-1)))
          CFI DPL0 load(1, XDATA, add(CFA_XSP16, literal(-2)))
          CFI ?BRET_EXT load(1, XDATA, add(CFA_XSP16, literal(-3)))
          CFI ?RET_HIGH load(1, XDATA, add(CFA_XSP16, literal(-4)))
          CFI ?RET_LOW load(1, XDATA, add(CFA_XSP16, literal(-5)))
          CFI R7 load(1, XDATA, add(CFA_XSP16, literal(-6)))
          CFI V3 load(1, XDATA, add(CFA_XSP16, literal(-7)))
          CFI V2 load(1, XDATA, add(CFA_XSP16, literal(-8)))
          CFI V1 load(1, XDATA, add(CFA_XSP16, literal(-9)))
          CFI V0 load(1, XDATA, add(CFA_XSP16, literal(-10)))
          CFI VB load(1, XDATA, add(CFA_XSP16, literal(-11)))
          CFI R6 load(1, XDATA, add(CFA_XSP16, literal(-12)))
          CFI CFA_SP SP+0
          CFI CFA_XSP16 add(XSP16, 12)
        ; Saved register size: 12
        ; Auto size: 0
        MOV       A,R2
        MOV       R6,A
        MOV       A,R3
        MOV       R7,A
//  277   _ScanChannels = pData->ScanChannels;
        MOV       DPL,R2
        MOV       DPH,A
        LCALL     ?XLOAD_R0123
        MOV       DPTR,#_ScanChannels
        LCALL     ?XSTORE_R0123
//  278 
//  279   /* scan in progress */
//  280   if (ZMac_ScanBuf != NULL)
        MOV       DPTR,#ZMac_ScanBuf
        MOVX      A,@DPTR
        MOV       R0,A
        INC       DPTR
        MOVX      A,@DPTR
        MOV       R1,A
        MOV       A,R0
        ORL       A,R1
        JZ        ??ZMacScanReq_0
//  281   {
//  282     return MAC_SCAN_IN_PROGRESS;
        MOV       R1,#-0x4
        SJMP      ??ZMacScanReq_1
//  283   }
//  284 
//  285   if (pData->ScanType != ZMAC_ORPHAN_SCAN)
??ZMacScanReq_0:
        MOV       DPL,R6
        MOV       DPH,R7
        INC       DPTR
        INC       DPTR
        INC       DPTR
        INC       DPTR
        MOVX      A,@DPTR
        MOV       R0,A
        MOV       A,#0x3
        XRL       A,R0
        JZ        ??ZMacScanReq_2
//  286   {
//  287     /* Allocate memory depends on the scan type */
//  288     if (pData->ScanType == ZMAC_ED_SCAN)
        MOV       A,R6
        ADD       A,#0x13
        MOV       ?V0,A
        CLR       A
        ADDC      A,R7
        MOV       ?V1,A
        MOV       A,R0
        JNZ       ??ZMacScanReq_3
//  289     {
//  290       if ((ZMac_ScanBuf = osal_mem_alloc(ZMAC_ED_SCAN_MAXCHANNELS)) == NULL)
        ; Setup parameters for call to function osal_mem_alloc
        MOV       R2,#0x1b
        MOV       R3,#0x0
        LCALL     `??osal_mem_alloc::?relay`; Banked call to: osal_mem_alloc
        MOV       ?V3,R3
        MOV       R1,?V3
        MOV       DPTR,#ZMac_ScanBuf
        MOV       A,R2
        MOVX      @DPTR,A
        INC       DPTR
        MOV       A,R3
        MOVX      @DPTR,A
        MOV       A,R2
        ORL       A,R1
        JZ        ??ZMacScanReq_4
//  291       {
//  292         return MAC_NO_RESOURCES;
//  293       }
//  294       osal_memset(ZMac_ScanBuf, 0, ZMAC_ED_SCAN_MAXCHANNELS);
        ; Setup parameters for call to function osal_memset
        MOV       R4,#0x1b
        MOV       R5,#0x0
        MOV       R1,#0x0
        LCALL     `??osal_memset::?relay`; Banked call to: osal_memset
//  295       pData->Result.pEnergyDetect = ((uint8*)ZMac_ScanBuf) + MAC_CHAN_11;
        MOV       DPTR,#ZMac_ScanBuf
        MOVX      A,@DPTR
        ADD       A,#0xb
        MOV       R0,A
        INC       DPTR
        MOVX      A,@DPTR
        ADDC      A,#0x0
        MOV       R1,A
        MOV       DPL,?V0
        MOV       DPH,?V1
        MOV       A,R0
        MOVX      @DPTR,A
        INC       DPTR
        MOV       A,R1
        MOVX      @DPTR,A
//  296     }
//  297     else if (pData->MaxResults > 0)
//  298     {
//  299       if ((ZMac_ScanBuf = pData->Result.pPanDescriptor =
//  300            osal_mem_alloc( sizeof( ZMacPanDesc_t ) * pData->MaxResults )) == NULL)
//  301       {
//  302         return MAC_NO_RESOURCES;
//  303       }
//  304     }
//  305   }
//  306 
//  307   /* Right now, set security to zero */
//  308   pData->Sec.SecurityLevel = false;
??ZMacScanReq_2:
        MOV       A,R6
        ADD       A,#0x10
        MOV       DPL,A
        CLR       A
        ADDC      A,R7
        MOV       DPH,A
        CLR       A
        MOVX      @DPTR,A
//  309 
//  310   /* Channel Page */
//  311   pData->ChannelPage = 0x00;
        MOV       DPL,R6
        MOV       DPH,R7
        INC       DPTR
        INC       DPTR
        INC       DPTR
        INC       DPTR
        INC       DPTR
        INC       DPTR
        MOVX      @DPTR,A
//  312 
//  313   MAC_MlmeScanReq ((macMlmeScanReq_t *)pData);
        ; Setup parameters for call to function MAC_MlmeScanReq
        MOV       A,R6
        MOV       R2,A
        MOV       A,R7
        MOV       R3,A
        LCALL     `??MAC_MlmeScanReq::?relay`; Banked call to: MAC_MlmeScanReq
//  314 
//  315   return ZMacSuccess;
        MOV       R1,#0x0
??ZMacScanReq_1:
        LJMP      ?Subroutine2 & 0xFFFF
??ZMacScanReq_3:
        MOV       DPL,R6
        MOV       DPH,R7
        INC       DPTR
        INC       DPTR
        INC       DPTR
        INC       DPTR
        INC       DPTR
        INC       DPTR
        INC       DPTR
        MOVX      A,@DPTR
        JZ        ??ZMacScanReq_2
        ; Setup parameters for call to function osal_mem_alloc
        MOV       B,#0x21
        MUL       AB
        MOV       R2,A
        MOV       R3,B
        LCALL     `??osal_mem_alloc::?relay`; Banked call to: osal_mem_alloc
        MOV       ?V3,R3
        MOV       R1,?V3
        MOV       DPL,?V0
        MOV       DPH,?V1
        MOV       A,R2
        MOVX      @DPTR,A
        INC       DPTR
        MOV       A,R3
        MOVX      @DPTR,A
        MOV       DPTR,#ZMac_ScanBuf
        MOV       A,R2
        MOVX      @DPTR,A
        INC       DPTR
        MOV       A,R3
        MOVX      @DPTR,A
        MOV       A,R2
        ORL       A,R1
        JNZ       ??ZMacScanReq_2
??ZMacScanReq_4:
        MOV       R1,#0x1a
        SJMP      ??ZMacScanReq_1
//  316 }
          CFI EndBlock cfiBlock19
//  317 
//  318 
//  319 /********************************************************************************************************
//  320  * @fn      ZMacStartReq
//  321  *
//  322  * @brief   This function is called to tell the MAC to transmit beacons
//  323  *          and become a coordinator.
//  324  *
//  325  * @param   structure with info need send it.
//  326  *
//  327  * @return  status
//  328  ********************************************************************************************************/

        RSEG BANKED_CODE:HUGECODE:NOROOT(0)
//  329 uint8 ZMacStartReq( ZMacStartReq_t *pData )
ZMacStartReq:
          CFI Block cfiBlock20 Using cfiCommon0
          CFI Function ZMacStartReq
        CODE
//  330 {
        FUNCALL ZMacStartReq, MAC_MlmeSetReq
        LOCFRAME ISTACK, 0, STACK
        LOCFRAME PSTACK, 0, STACK
        LOCFRAME XSTACK, 10, STACK
        LOCFRAME IOVERLAY, 0, STATIC
        LOCFRAME DOVERLAY, 0, STATIC
        ARGFRAME ISTACK, 0, STACK
        ARGFRAME PSTACK, 0, STACK
        ARGFRAME XSTACK, 10, STACK
        ARGFRAME IOVERLAY, 0, STATIC
        ARGFRAME DOVERLAY, 0, STATIC
        FUNCALL ZMacStartReq, MAC_MlmeStartReq
        LOCFRAME ISTACK, 0, STACK
        LOCFRAME PSTACK, 0, STACK
        LOCFRAME XSTACK, 10, STACK
        LOCFRAME IOVERLAY, 0, STATIC
        LOCFRAME DOVERLAY, 0, STATIC
        ARGFRAME ISTACK, 0, STACK
        ARGFRAME PSTACK, 0, STACK
        ARGFRAME XSTACK, 10, STACK
        ARGFRAME IOVERLAY, 0, STATIC
        ARGFRAME DOVERLAY, 0, STATIC
        MOV       A,#-0x9
        LCALL     ?BANKED_ENTER_XDATA
          CFI DPH0 load(1, XDATA, add(CFA_XSP16, literal(-1)))
          CFI DPL0 load(1, XDATA, add(CFA_XSP16, literal(-2)))
          CFI ?BRET_EXT load(1, XDATA, add(CFA_XSP16, literal(-3)))
          CFI ?RET_HIGH load(1, XDATA, add(CFA_XSP16, literal(-4)))
          CFI ?RET_LOW load(1, XDATA, add(CFA_XSP16, literal(-5)))
          CFI R7 load(1, XDATA, add(CFA_XSP16, literal(-6)))
          CFI V0 load(1, XDATA, add(CFA_XSP16, literal(-7)))
          CFI VB load(1, XDATA, add(CFA_XSP16, literal(-8)))
          CFI R6 load(1, XDATA, add(CFA_XSP16, literal(-9)))
          CFI CFA_SP SP+0
          CFI CFA_XSP16 add(XSP16, 9)
        ; Saved register size: 9
        ; Auto size: 1
        MOV       A,#-0x1
        LCALL     ?ALLOC_XSTACK8
          CFI CFA_XSP16 add(XSP16, 10)
        MOV       A,R2
        MOV       R6,A
        MOV       A,R3
        MOV       R7,A
//  331   uint8 stat;
//  332 
//  333   // Probably want to keep the receiver on
//  334   stat = true;
        MOV       DPL,?XSP + 0
        MOV       DPH,?XSP + 1
        MOV       A,#0x1
        MOVX      @DPTR,A
//  335   MAC_MlmeSetReq( MAC_RX_ON_WHEN_IDLE, &stat );
        ; Setup parameters for call to function MAC_MlmeSetReq
        MOV       R2,?XSP + 0
        MOV       R3,?XSP + 1
        MOV       R1,#0x52
        LCALL     `??MAC_MlmeSetReq::?relay`; Banked call to: MAC_MlmeSetReq
//  336 
//  337   /* Right now, set security to zero */
//  338   pData->RealignSec.SecurityLevel = false;
        MOV       A,R6
        ADD       A,#0x15
        MOV       DPL,A
        CLR       A
        ADDC      A,R7
        MOV       DPH,A
        CLR       A
        MOVX      @DPTR,A
//  339   pData->BeaconSec.SecurityLevel = false;
        MOV       A,R6
        ADD       A,#0x20
        LCALL     ?Subroutine6 & 0xFFFF
//  340 
//  341 
//  342   MAC_MlmeStartReq((macMlmeStartReq_t *) pData);
??CrossCallReturnLabel_7:
        LCALL     `??MAC_MlmeStartReq::?relay`; Banked call to: MAC_MlmeStartReq
//  343 
//  344   // MAC does not issue mlmeStartConfirm(), so we have to
//  345   // mlmeStartConfirm( stat );  This needs to be addressed some how
//  346 
//  347   return ZMacSuccess;
        MOV       R1,#0x0
        LJMP      ?Subroutine0 & 0xFFFF
//  348 }
          CFI EndBlock cfiBlock20
//  349 
//  350 /********************************************************************************************************
//  351  * @fn      ZMacSyncReq
//  352  *
//  353  * @brief   This function is called to request a sync to the current
//  354  *          networks beacons.
//  355  *
//  356  * @param   LogicalChannel -
//  357  * @param   TrackBeacon - true/false
//  358  *
//  359  * @return  status
//  360  ********************************************************************************************************/

        RSEG BANKED_CODE:HUGECODE:NOROOT(0)
//  361 uint8 ZMacSyncReq( ZMacSyncReq_t *pData )
ZMacSyncReq:
          CFI Block cfiBlock21 Using cfiCommon0
          CFI Function ZMacSyncReq
        CODE
//  362 {
        FUNCALL ZMacSyncReq, MAC_MlmeSyncReq
        LOCFRAME ISTACK, 2, STACK
        LOCFRAME PSTACK, 0, STACK
        LOCFRAME XSTACK, 0, STACK
        LOCFRAME IOVERLAY, 0, STATIC
        LOCFRAME DOVERLAY, 0, STATIC
        ARGFRAME ISTACK, 2, STACK
        ARGFRAME PSTACK, 0, STACK
        ARGFRAME XSTACK, 0, STACK
        ARGFRAME IOVERLAY, 0, STATIC
        ARGFRAME DOVERLAY, 0, STATIC
        PUSH      DPL
          CFI DPL0 Frame(CFA_SP, 4)
          CFI CFA_SP SP+-4
        PUSH      DPH
          CFI DPH0 Frame(CFA_SP, 5)
          CFI CFA_SP SP+-5
        ; Saved register size: 2
        ; Auto size: 0
//  363   MAC_MlmeSyncReq( (macMlmeSyncReq_t *)pData);
        ; Setup parameters for call to function MAC_MlmeSyncReq
        LCALL     `??MAC_MlmeSyncReq::?relay`; Banked call to: MAC_MlmeSyncReq
//  364   return ZMacSuccess;
        LJMP      ?Subroutine1 & 0xFFFF
//  365 }
          CFI EndBlock cfiBlock21
//  366 
//  367 /********************************************************************************************************
//  368  * @fn      ZMacPollReq
//  369  *
//  370  * @brief   This function is called to request MAC data request poll.
//  371  *
//  372  * @param   coordAddr -
//  373  * @param   coordPanId -
//  374  * @param   SecurityEnable - true or false.
//  375  *
//  376  * @return  status
//  377  ********************************************************************************************************/

        RSEG BANKED_CODE:HUGECODE:NOROOT(0)
//  378 uint8 ZMacPollReq( ZMacPollReq_t *pData )
ZMacPollReq:
          CFI Block cfiBlock22 Using cfiCommon0
          CFI Function ZMacPollReq
        CODE
//  379 {
        FUNCALL ZMacPollReq, MAC_MlmePollReq
        LOCFRAME ISTACK, 2, STACK
        LOCFRAME PSTACK, 0, STACK
        LOCFRAME XSTACK, 0, STACK
        LOCFRAME IOVERLAY, 0, STATIC
        LOCFRAME DOVERLAY, 0, STATIC
        ARGFRAME ISTACK, 2, STACK
        ARGFRAME PSTACK, 0, STACK
        ARGFRAME XSTACK, 0, STACK
        ARGFRAME IOVERLAY, 0, STATIC
        ARGFRAME DOVERLAY, 0, STATIC
        PUSH      DPL
          CFI DPL0 Frame(CFA_SP, 4)
          CFI CFA_SP SP+-4
        PUSH      DPH
          CFI DPH0 Frame(CFA_SP, 5)
          CFI CFA_SP SP+-5
        ; Saved register size: 2
        ; Auto size: 0
//  380   /* Right now, set security to zero */
//  381   pData->Sec.SecurityLevel = false;
        LCALL     ?Subroutine4 & 0xFFFF
//  382 
//  383   MAC_MlmePollReq ((macMlmePollReq_t *)pData);
??CrossCallReturnLabel_2:
        ; Setup parameters for call to function MAC_MlmePollReq
        LCALL     `??MAC_MlmePollReq::?relay`; Banked call to: MAC_MlmePollReq
//  384   return ( ZMacSuccess );
        LJMP      ?Subroutine1 & 0xFFFF
//  385 }
          CFI EndBlock cfiBlock22
//  386 
//  387 /********************************************************************************************************
//  388  * @fn      ZMacDataReq
//  389  *
//  390  * @brief   Send a MAC Data Frame packet.
//  391  *
//  392  * @param   structure containing data and where to send it.
//  393  *
//  394  * @return  status
//  395  ********************************************************************************************************/

        RSEG BANKED_CODE:HUGECODE:NOROOT(0)
//  396 uint8 ZMacDataReq( ZMacDataReq_t *pData )
ZMacDataReq:
          CFI Block cfiBlock23 Using cfiCommon0
          CFI Function ZMacDataReq
        CODE
//  397 {
        FUNCALL ZMacDataReq, MAC_McpsDataAlloc
        LOCFRAME ISTACK, 0, STACK
        LOCFRAME PSTACK, 0, STACK
        LOCFRAME XSTACK, 16, STACK
        LOCFRAME IOVERLAY, 0, STATIC
        LOCFRAME DOVERLAY, 0, STATIC
        ARGFRAME ISTACK, 0, STACK
        ARGFRAME PSTACK, 0, STACK
        ARGFRAME XSTACK, 16, STACK
        ARGFRAME IOVERLAY, 0, STATIC
        ARGFRAME DOVERLAY, 0, STATIC
        FUNCALL ZMacDataReq, osal_memcpy
        LOCFRAME ISTACK, 0, STACK
        LOCFRAME PSTACK, 0, STACK
        LOCFRAME XSTACK, 19, STACK
        LOCFRAME IOVERLAY, 0, STATIC
        LOCFRAME DOVERLAY, 0, STATIC
        ARGFRAME ISTACK, 0, STACK
        ARGFRAME PSTACK, 0, STACK
        ARGFRAME XSTACK, 19, STACK
        ARGFRAME IOVERLAY, 0, STATIC
        ARGFRAME DOVERLAY, 0, STATIC
        FUNCALL ZMacDataReq, osal_memcpy
        LOCFRAME ISTACK, 0, STACK
        LOCFRAME PSTACK, 0, STACK
        LOCFRAME XSTACK, 19, STACK
        LOCFRAME IOVERLAY, 0, STATIC
        LOCFRAME DOVERLAY, 0, STATIC
        ARGFRAME ISTACK, 0, STACK
        ARGFRAME PSTACK, 0, STACK
        ARGFRAME XSTACK, 19, STACK
        ARGFRAME IOVERLAY, 0, STATIC
        ARGFRAME DOVERLAY, 0, STATIC
        FUNCALL ZMacDataReq, MAC_McpsDataReq
        LOCFRAME ISTACK, 0, STACK
        LOCFRAME PSTACK, 0, STACK
        LOCFRAME XSTACK, 16, STACK
        LOCFRAME IOVERLAY, 0, STATIC
        LOCFRAME DOVERLAY, 0, STATIC
        ARGFRAME ISTACK, 0, STACK
        ARGFRAME PSTACK, 0, STACK
        ARGFRAME XSTACK, 16, STACK
        ARGFRAME IOVERLAY, 0, STATIC
        ARGFRAME DOVERLAY, 0, STATIC
        REQUIRE ?V0
        REQUIRE ?V1
        REQUIRE ?V2
        REQUIRE ?V4
        REQUIRE ?V5
        REQUIRE ?V6
        REQUIRE ?V7
        MOV       A,#-0x10
        LCALL     ?BANKED_ENTER_XDATA
          CFI DPH0 load(1, XDATA, add(CFA_XSP16, literal(-1)))
          CFI DPL0 load(1, XDATA, add(CFA_XSP16, literal(-2)))
          CFI ?BRET_EXT load(1, XDATA, add(CFA_XSP16, literal(-3)))
          CFI ?RET_HIGH load(1, XDATA, add(CFA_XSP16, literal(-4)))
          CFI ?RET_LOW load(1, XDATA, add(CFA_XSP16, literal(-5)))
          CFI R7 load(1, XDATA, add(CFA_XSP16, literal(-6)))
          CFI V7 load(1, XDATA, add(CFA_XSP16, literal(-7)))
          CFI V6 load(1, XDATA, add(CFA_XSP16, literal(-8)))
          CFI V5 load(1, XDATA, add(CFA_XSP16, literal(-9)))
          CFI V4 load(1, XDATA, add(CFA_XSP16, literal(-10)))
          CFI V3 load(1, XDATA, add(CFA_XSP16, literal(-11)))
          CFI V2 load(1, XDATA, add(CFA_XSP16, literal(-12)))
          CFI V1 load(1, XDATA, add(CFA_XSP16, literal(-13)))
          CFI V0 load(1, XDATA, add(CFA_XSP16, literal(-14)))
          CFI VB load(1, XDATA, add(CFA_XSP16, literal(-15)))
          CFI R6 load(1, XDATA, add(CFA_XSP16, literal(-16)))
          CFI CFA_SP SP+0
          CFI CFA_XSP16 add(XSP16, 16)
        ; Saved register size: 16
        ; Auto size: 0
        MOV       ?V4,R2
        MOV       ?V5,R3
//  398   macMcpsDataReq_t *pBuf;
//  399 
//  400   /* Allocate memory */
//  401   pBuf = MAC_McpsDataAlloc(pData->msduLength, MAC_SEC_LEVEL_NONE, MAC_KEY_ID_MODE_NONE);
        MOV       A,R2
        ADD       A,#0x1b
        MOV       ?V6,A
        CLR       A
        ADDC      A,?V5
        MOV       ?V7,A
        ; Setup parameters for call to function MAC_McpsDataAlloc
        MOV       R3,#0x0
        MOV       R2,#0x0
        MOV       DPL,?V6
        MOV       DPH,A
        MOVX      A,@DPTR
        MOV       R1,A
        LCALL     `??MAC_McpsDataAlloc::?relay`; Banked call to: MAC_McpsDataAlloc
        MOV       ?V0,R2
        MOV       ?V1,R3
        MOV       R6,?V0
        MOV       R7,?V1
//  402 
//  403   if (pBuf)
        MOV       A,R2
        ORL       A,R7
        JZ        ??ZMacDataReq_0
//  404   {
//  405     /* Copy the addresses */
//  406     osal_memcpy (&pBuf->mac, pData, sizeof (macDataReq_t));
        ; Setup parameters for call to function osal_memcpy
        MOV       ?V0,?V4
        MOV       ?V1,?V5
        MOV       ?V2,#0x0
        MOV       R0,#?V0
        LCALL     ?PUSH_XSTACK_I_THREE
          CFI CFA_XSP16 add(XSP16, 19)
        MOV       R4,#0x10
        MOV       R5,#0x0
        MOV       A,R2
        ADD       A,#0x22
        MOV       R2,A
        CLR       A
        ADDC      A,R7
        MOV       R3,A
        LCALL     `??osal_memcpy::?relay`; Banked call to: osal_memcpy
        MOV       A,#0x3
        LCALL     ?DEALLOC_XSTACK8
          CFI CFA_XSP16 add(XSP16, 16)
//  407 
//  408     /* Copy data */
//  409     pBuf->msdu.len = pData->msduLength;
        MOV       DPL,?V6
        MOV       DPH,?V7
        MOVX      A,@DPTR
        MOV       DPL,R6
        MOV       DPH,R7
        INC       DPTR
        INC       DPTR
        INC       DPTR
        INC       DPTR
        MOVX      @DPTR,A
//  410     osal_memcpy (pBuf->msdu.p, pData->msdu, pData->msduLength);
        ; Setup parameters for call to function osal_memcpy
        MOV       A,?V4
        ADD       A,#0x1c
        MOV       DPL,A
        CLR       A
        ADDC      A,?V5
        MOV       DPH,A
        MOVX      A,@DPTR
        MOV       ?V0,A
        INC       DPTR
        MOVX      A,@DPTR
        MOV       ?V1,A
        MOV       R0,#?V0
        LCALL     ?PUSH_XSTACK_I_THREE
          CFI CFA_XSP16 add(XSP16, 19)
        MOV       DPL,?V6
        MOV       DPH,?V7
        MOVX      A,@DPTR
        MOV       R4,A
        MOV       R5,#0x0
        MOV       DPL,R6
        MOV       DPH,R7
        INC       DPTR
        INC       DPTR
        MOVX      A,@DPTR
        MOV       R2,A
        INC       DPTR
        MOVX      A,@DPTR
        MOV       R3,A
        LCALL     `??osal_memcpy::?relay`; Banked call to: osal_memcpy
        MOV       A,#0x3
        LCALL     ?DEALLOC_XSTACK8
          CFI CFA_XSP16 add(XSP16, 16)
//  411 
//  412     /* Right now, set security to zero */
//  413     pBuf->sec.securityLevel = false;
        MOV       A,R6
        ADD       A,#0x1f
        LCALL     ?Subroutine6 & 0xFFFF
//  414 
//  415     /* Call Mac Data Request */
//  416     MAC_McpsDataReq(pBuf);
??CrossCallReturnLabel_8:
        LCALL     `??MAC_McpsDataReq::?relay`; Banked call to: MAC_McpsDataReq
//  417 
//  418     return ( ZMacSuccess );
        MOV       R1,#0x0
        SJMP      ??ZMacDataReq_1
//  419   }
//  420 
//  421   return MAC_NO_RESOURCES;
??ZMacDataReq_0:
        MOV       R1,#0x1a
??ZMacDataReq_1:
        MOV       R7,#0x8
        LJMP      ?BANKED_LEAVE_XDATA
//  422 }
          CFI EndBlock cfiBlock23

        RSEG BANKED_CODE:HUGECODE:NOROOT(0)
?Subroutine6:
          CFI Block cfiCond24 Using cfiCommon0
          CFI Function ZMacStartReq
          CFI Conditional ??CrossCallReturnLabel_7
          CFI R6 load(1, XDATA, add(CFA_XSP16, literal(-9)))
          CFI VB load(1, XDATA, add(CFA_XSP16, literal(-8)))
          CFI V0 load(1, XDATA, add(CFA_XSP16, literal(-7)))
          CFI R7 load(1, XDATA, add(CFA_XSP16, literal(-6)))
          CFI ?RET_LOW load(1, XDATA, add(CFA_XSP16, literal(-5)))
          CFI ?RET_HIGH load(1, XDATA, add(CFA_XSP16, literal(-4)))
          CFI ?BRET_EXT load(1, XDATA, add(CFA_XSP16, literal(-3)))
          CFI DPL0 load(1, XDATA, add(CFA_XSP16, literal(-2)))
          CFI DPH0 load(1, XDATA, add(CFA_XSP16, literal(-1)))
          CFI CFA_SP SP+-2
          CFI CFA_XSP16 add(XSP16, 10)
          CFI Block cfiCond25 Using cfiCommon0
          CFI (cfiCond25) Function ZMacDataReq
          CFI (cfiCond25) Conditional ??CrossCallReturnLabel_8
          CFI (cfiCond25) R6 load(1, XDATA, add(CFA_XSP16, literal(-16)))
          CFI (cfiCond25) VB load(1, XDATA, add(CFA_XSP16, literal(-15)))
          CFI (cfiCond25) V0 load(1, XDATA, add(CFA_XSP16, literal(-14)))
          CFI (cfiCond25) V1 load(1, XDATA, add(CFA_XSP16, literal(-13)))
          CFI (cfiCond25) V2 load(1, XDATA, add(CFA_XSP16, literal(-12)))
          CFI (cfiCond25) V3 load(1, XDATA, add(CFA_XSP16, literal(-11)))
          CFI (cfiCond25) V4 load(1, XDATA, add(CFA_XSP16, literal(-10)))
          CFI (cfiCond25) V5 load(1, XDATA, add(CFA_XSP16, literal(-9)))
          CFI (cfiCond25) V6 load(1, XDATA, add(CFA_XSP16, literal(-8)))
          CFI (cfiCond25) V7 load(1, XDATA, add(CFA_XSP16, literal(-7)))
          CFI (cfiCond25) R7 load(1, XDATA, add(CFA_XSP16, literal(-6)))
          CFI (cfiCond25) ?RET_LOW load(1, XDATA, add(CFA_XSP16, literal(-5)))
          CFI (cfiCond25) ?RET_HIGH load(1, XDATA, add(CFA_XSP16, literal(-4)))
          CFI (cfiCond25) ?BRET_EXT load(1, XDATA, add(CFA_XSP16, literal(-3)))
          CFI (cfiCond25) DPL0 load(1, XDATA, add(CFA_XSP16, literal(-2)))
          CFI (cfiCond25) DPH0 load(1, XDATA, add(CFA_XSP16, literal(-1)))
          CFI (cfiCond25) CFA_SP SP+-2
          CFI (cfiCond25) CFA_XSP16 add(XSP16, 16)
          CFI Block cfiPicker26 Using cfiCommon1
          CFI (cfiPicker26) NoFunction
          CFI (cfiPicker26) Picker
        MOV       DPL,A
        CLR       A
        ADDC      A,R7
        MOV       DPH,A
        CLR       A
        MOVX      @DPTR,A
        ; Setup parameters for call to function MAC_MlmeStartReq
        ; Setup parameters for call to function MAC_McpsDataReq
        MOV       A,R6
        MOV       R2,A
        MOV       A,R7
        MOV       R3,A
        RET
          CFI EndBlock cfiCond24
          CFI EndBlock cfiCond25
          CFI EndBlock cfiPicker26
//  423 
//  424 /********************************************************************************************************
//  425  * @fn      ZMacPurgeReq
//  426  *
//  427  * @brief   Purge a MAC Data Frame packet.
//  428  *
//  429  * @param   MSDU data handle.
//  430  *
//  431  * @return  status
//  432  ********************************************************************************************************/

        RSEG BANKED_CODE:HUGECODE:NOROOT(0)
//  433 uint8 ZMacPurgeReq( byte Handle )
ZMacPurgeReq:
          CFI Block cfiBlock27 Using cfiCommon0
          CFI Function ZMacPurgeReq
        CODE
//  434 {
        FUNCALL ZMacPurgeReq, MAC_McpsPurgeReq
        LOCFRAME ISTACK, 0, STACK
        LOCFRAME PSTACK, 0, STACK
        LOCFRAME XSTACK, 9, STACK
        LOCFRAME IOVERLAY, 0, STATIC
        LOCFRAME DOVERLAY, 0, STATIC
        ARGFRAME ISTACK, 0, STACK
        ARGFRAME PSTACK, 0, STACK
        ARGFRAME XSTACK, 9, STACK
        ARGFRAME IOVERLAY, 0, STATIC
        ARGFRAME DOVERLAY, 0, STATIC
        MOV       A,#-0x9
        LCALL     ?BANKED_ENTER_XDATA
          CFI DPH0 load(1, XDATA, add(CFA_XSP16, literal(-1)))
          CFI DPL0 load(1, XDATA, add(CFA_XSP16, literal(-2)))
          CFI ?BRET_EXT load(1, XDATA, add(CFA_XSP16, literal(-3)))
          CFI ?RET_HIGH load(1, XDATA, add(CFA_XSP16, literal(-4)))
          CFI ?RET_LOW load(1, XDATA, add(CFA_XSP16, literal(-5)))
          CFI R7 load(1, XDATA, add(CFA_XSP16, literal(-6)))
          CFI V0 load(1, XDATA, add(CFA_XSP16, literal(-7)))
          CFI VB load(1, XDATA, add(CFA_XSP16, literal(-8)))
          CFI R6 load(1, XDATA, add(CFA_XSP16, literal(-9)))
          CFI CFA_SP SP+0
          CFI CFA_XSP16 add(XSP16, 9)
        ; Saved register size: 9
        ; Auto size: 0
//  435   MAC_McpsPurgeReq( Handle );
        ; Setup parameters for call to function MAC_McpsPurgeReq
        LCALL     `??MAC_McpsPurgeReq::?relay`; Banked call to: MAC_McpsPurgeReq
//  436   return ZMacSuccess;
          CFI EndBlock cfiBlock27
        REQUIRE ?Subroutine3
        ; // Fall through to label ?Subroutine3
//  437 }

        RSEG BANKED_CODE:HUGECODE:NOROOT(0)
?Subroutine3:
          CFI Block cfiBlock28 Using cfiCommon0
          CFI NoFunction
          CFI CFA_SP SP+0
          CFI CFA_XSP16 add(XSP16, 9)
          CFI VB load(1, XDATA, add(CFA_XSP16, literal(-8)))
          CFI DPL0 load(1, XDATA, add(CFA_XSP16, literal(-2)))
          CFI DPH0 load(1, XDATA, add(CFA_XSP16, literal(-1)))
          CFI R6 load(1, XDATA, add(CFA_XSP16, literal(-9)))
          CFI R7 load(1, XDATA, add(CFA_XSP16, literal(-6)))
          CFI V0 load(1, XDATA, add(CFA_XSP16, literal(-7)))
          CFI ?BRET_EXT load(1, XDATA, add(CFA_XSP16, literal(-3)))
          CFI ?RET_HIGH load(1, XDATA, add(CFA_XSP16, literal(-4)))
          CFI ?RET_LOW load(1, XDATA, add(CFA_XSP16, literal(-5)))
        MOV       R1,#0x0
        LJMP      ??Subroutine7_0 & 0xFFFF
          CFI EndBlock cfiBlock28
//  438 
//  439 /********************************************************************************************************
//  440  * @fn      ZMacSrcMatchEnable
//  441  *
//  442  * @brief   This function is call to enable AUTOPEND and source address matching.
//  443  *
//  444  * @param   addressType - address type that the application uses
//  445  *                        SADDR_MODE_SHORT or SADDR_MODE_EXT.
//  446  *          numEntries  - number of source address table entries to be used
//  447  *
//  448  * @return  status
//  449  ********************************************************************************************************/

        RSEG BANKED_CODE:HUGECODE:NOROOT(0)
//  450 ZMacStatus_t ZMacSrcMatchEnable (uint8 addrType, uint8 numEntries)
ZMacSrcMatchEnable:
          CFI Block cfiBlock29 Using cfiCommon0
          CFI Function ZMacSrcMatchEnable
        CODE
//  451 {
        FUNCALL ZMacSrcMatchEnable, MAC_SrcMatchEnable
        LOCFRAME ISTACK, 0, STACK
        LOCFRAME PSTACK, 0, STACK
        LOCFRAME XSTACK, 9, STACK
        LOCFRAME IOVERLAY, 0, STATIC
        LOCFRAME DOVERLAY, 0, STATIC
        ARGFRAME ISTACK, 0, STACK
        ARGFRAME PSTACK, 0, STACK
        ARGFRAME XSTACK, 9, STACK
        ARGFRAME IOVERLAY, 0, STATIC
        ARGFRAME DOVERLAY, 0, STATIC
        MOV       A,#-0x9
        LCALL     ?BANKED_ENTER_XDATA
          CFI DPH0 load(1, XDATA, add(CFA_XSP16, literal(-1)))
          CFI DPL0 load(1, XDATA, add(CFA_XSP16, literal(-2)))
          CFI ?BRET_EXT load(1, XDATA, add(CFA_XSP16, literal(-3)))
          CFI ?RET_HIGH load(1, XDATA, add(CFA_XSP16, literal(-4)))
          CFI ?RET_LOW load(1, XDATA, add(CFA_XSP16, literal(-5)))
          CFI R7 load(1, XDATA, add(CFA_XSP16, literal(-6)))
          CFI V0 load(1, XDATA, add(CFA_XSP16, literal(-7)))
          CFI VB load(1, XDATA, add(CFA_XSP16, literal(-8)))
          CFI R6 load(1, XDATA, add(CFA_XSP16, literal(-9)))
          CFI CFA_SP SP+0
          CFI CFA_XSP16 add(XSP16, 9)
        ; Saved register size: 9
        ; Auto size: 0
//  452   return (MAC_SrcMatchEnable(addrType, numEntries));
        ; Setup parameters for call to function MAC_SrcMatchEnable
        LCALL     `??MAC_SrcMatchEnable::?relay`; Banked call to: MAC_SrcMatchEnable
        LJMP      ??Subroutine7_0 & 0xFFFF
//  453 }
          CFI EndBlock cfiBlock29
//  454 
//  455 /********************************************************************************************************
//  456  * @fn      ZMacSrcMatchAddEntry
//  457  *
//  458  * @brief   This function is called to add a short or extended address to source address table.
//  459  *
//  460  * @param   addr - a pointer to sAddr_t which contains addrMode
//  461  *                     and a union of a short 16-bit MAC address or an extended
//  462  *                     64-bit MAC address to be added to the source address table.
//  463  *          panID - the device PAN ID. It is only used when the addr is
//  464  *                      using short address
//  465  *
//  466  * @return  status
//  467  ********************************************************************************************************/

        RSEG BANKED_CODE:HUGECODE:NOROOT(0)
//  468 ZMacStatus_t ZMacSrcMatchAddEntry (zAddrType_t *addr, uint16 panID)
ZMacSrcMatchAddEntry:
          CFI Block cfiBlock30 Using cfiCommon0
          CFI Function ZMacSrcMatchAddEntry
        CODE
//  469 {
        FUNCALL ZMacSrcMatchAddEntry, MAC_SrcMatchAddEntry
        LOCFRAME ISTACK, 2, STACK
        LOCFRAME PSTACK, 0, STACK
        LOCFRAME XSTACK, 0, STACK
        LOCFRAME IOVERLAY, 0, STATIC
        LOCFRAME DOVERLAY, 0, STATIC
        ARGFRAME ISTACK, 2, STACK
        ARGFRAME PSTACK, 0, STACK
        ARGFRAME XSTACK, 0, STACK
        ARGFRAME IOVERLAY, 0, STATIC
        ARGFRAME DOVERLAY, 0, STATIC
        PUSH      DPL
          CFI DPL0 Frame(CFA_SP, 4)
          CFI CFA_SP SP+-4
        PUSH      DPH
          CFI DPH0 Frame(CFA_SP, 5)
          CFI CFA_SP SP+-5
        ; Saved register size: 2
        ; Auto size: 0
//  470   return (MAC_SrcMatchAddEntry ((sAddr_t*)addr, panID));
        ; Setup parameters for call to function MAC_SrcMatchAddEntry
        LCALL     `??MAC_SrcMatchAddEntry::?relay`; Banked call to: MAC_SrcMatchAddEntry
        SJMP      ??Subroutine8_0
//  471 }
          CFI EndBlock cfiBlock30

        RSEG BANKED_CODE:HUGECODE:NOROOT(0)
?Subroutine1:
          CFI Block cfiBlock31 Using cfiCommon0
          CFI NoFunction
          CFI CFA_SP SP+-5
          CFI DPL0 Frame(CFA_SP, 4)
          CFI DPH0 Frame(CFA_SP, 5)
        MOV       R1,#0x0
          CFI EndBlock cfiBlock31
        REQUIRE ??Subroutine8_0
        ; // Fall through to label ??Subroutine8_0

        RSEG BANKED_CODE:HUGECODE:NOROOT(0)
??Subroutine8_0:
          CFI Block cfiBlock32 Using cfiCommon0
          CFI NoFunction
          CFI CFA_SP SP+-5
          CFI DPL0 Frame(CFA_SP, 4)
          CFI DPH0 Frame(CFA_SP, 5)
        POP       DPH
          CFI CFA_SP SP+-4
          CFI DPH0 SameValue
        POP       DPL
          CFI CFA_SP SP+-3
          CFI DPL0 SameValue
        LJMP      ?BRET
          CFI EndBlock cfiBlock32
//  472 
//  473 /********************************************************************************************************
//  474  * @fn      ZMacSrcMatchDeleteEntry
//  475  *
//  476  * @brief   This function is called to delete a short or extended address from source address table.
//  477  *
//  478  * @param   addr - a pointer to sAddr_t which contains addrMode
//  479  *                     and a union of a short 16-bit MAC address or an extended
//  480  *                     64-bit MAC address to be added to the source address table.
//  481  *          panID - the device PAN ID. It is only used when the addr is
//  482  *                      using short address
//  483  *
//  484  * @return  status
//  485  ********************************************************************************************************/

        RSEG BANKED_CODE:HUGECODE:NOROOT(0)
//  486 ZMacStatus_t ZMacSrcMatchDeleteEntry (zAddrType_t *addr, uint16 panID)
ZMacSrcMatchDeleteEntry:
          CFI Block cfiBlock33 Using cfiCommon0
          CFI Function ZMacSrcMatchDeleteEntry
        CODE
//  487 {
        FUNCALL ZMacSrcMatchDeleteEntry, MAC_SrcMatchDeleteEntry
        LOCFRAME ISTACK, 2, STACK
        LOCFRAME PSTACK, 0, STACK
        LOCFRAME XSTACK, 0, STACK
        LOCFRAME IOVERLAY, 0, STATIC
        LOCFRAME DOVERLAY, 0, STATIC
        ARGFRAME ISTACK, 2, STACK
        ARGFRAME PSTACK, 0, STACK
        ARGFRAME XSTACK, 0, STACK
        ARGFRAME IOVERLAY, 0, STATIC
        ARGFRAME DOVERLAY, 0, STATIC
        PUSH      DPL
          CFI DPL0 Frame(CFA_SP, 4)
          CFI CFA_SP SP+-4
        PUSH      DPH
          CFI DPH0 Frame(CFA_SP, 5)
          CFI CFA_SP SP+-5
        ; Saved register size: 2
        ; Auto size: 0
//  488   return (MAC_SrcMatchDeleteEntry ((sAddr_t*)addr, panID));
        ; Setup parameters for call to function MAC_SrcMatchDeleteEntry
        LCALL     `??MAC_SrcMatchDeleteEntry::?relay`; Banked call to: MAC_SrcMatchDeleteEntry
        SJMP      ??Subroutine8_0
//  489 }
          CFI EndBlock cfiBlock33
//  490 
//  491 /********************************************************************************************************
//  492  * @fn       ZMacSrcMatchAckAllPending
//  493  *
//  494  * @brief    Enabled/disable acknowledging all packets with pending bit set
//  495  *           It is normally enabled when adding new entries to
//  496  *           the source address table fails due to the table is full, or
//  497  *           disabled when more entries are deleted and the table has
//  498  *           empty slots.
//  499  *
//  500  * @param    option - true (acknowledging all packets with pending field set)
//  501  *                    false (acknowledging all packets with pending field cleared)
//  502  *
//  503  * @return   status
//  504  ********************************************************************************************************/

        RSEG BANKED_CODE:HUGECODE:NOROOT(0)
//  505 ZMacStatus_t ZMacSrcMatchAckAllPending (uint8 option)
ZMacSrcMatchAckAllPending:
          CFI Block cfiBlock34 Using cfiCommon0
          CFI Function ZMacSrcMatchAckAllPending
        CODE
//  506 {
        FUNCALL ZMacSrcMatchAckAllPending, MAC_SrcMatchAckAllPending
        LOCFRAME ISTACK, 0, STACK
        LOCFRAME PSTACK, 0, STACK
        LOCFRAME XSTACK, 9, STACK
        LOCFRAME IOVERLAY, 0, STATIC
        LOCFRAME DOVERLAY, 0, STATIC
        ARGFRAME ISTACK, 0, STACK
        ARGFRAME PSTACK, 0, STACK
        ARGFRAME XSTACK, 9, STACK
        ARGFRAME IOVERLAY, 0, STATIC
        ARGFRAME DOVERLAY, 0, STATIC
        MOV       A,#-0x9
        LCALL     ?BANKED_ENTER_XDATA
          CFI DPH0 load(1, XDATA, add(CFA_XSP16, literal(-1)))
          CFI DPL0 load(1, XDATA, add(CFA_XSP16, literal(-2)))
          CFI ?BRET_EXT load(1, XDATA, add(CFA_XSP16, literal(-3)))
          CFI ?RET_HIGH load(1, XDATA, add(CFA_XSP16, literal(-4)))
          CFI ?RET_LOW load(1, XDATA, add(CFA_XSP16, literal(-5)))
          CFI R7 load(1, XDATA, add(CFA_XSP16, literal(-6)))
          CFI V0 load(1, XDATA, add(CFA_XSP16, literal(-7)))
          CFI VB load(1, XDATA, add(CFA_XSP16, literal(-8)))
          CFI R6 load(1, XDATA, add(CFA_XSP16, literal(-9)))
          CFI CFA_SP SP+0
          CFI CFA_XSP16 add(XSP16, 9)
        ; Saved register size: 9
        ; Auto size: 0
//  507   MAC_SrcMatchAckAllPending (option);
        ; Setup parameters for call to function MAC_SrcMatchAckAllPending
        LCALL     `??MAC_SrcMatchAckAllPending::?relay`; Banked call to: MAC_SrcMatchAckAllPending
//  508 
//  509   return ZMacSuccess;
        SJMP      ?Subroutine3
//  510 }
          CFI EndBlock cfiBlock34
//  511 
//  512 /********************************************************************************************************
//  513  * @fn       ZMacSrcMatchCheckAllPending
//  514  *
//  515  * @brief    This function is called to check if acknowledging all packets with pending bit set is enabled.
//  516  *
//  517  * @param    none
//  518  *
//  519  * @return   status
//  520  ********************************************************************************************************/

        RSEG BANKED_CODE:HUGECODE:NOROOT(0)
//  521 ZMacStatus_t ZMacSrcMatchCheckAllPending (void)
ZMacSrcMatchCheckAllPending:
          CFI Block cfiBlock35 Using cfiCommon0
          CFI Function ZMacSrcMatchCheckAllPending
        CODE
//  522 {
        FUNCALL ZMacSrcMatchCheckAllPending, MAC_SrcMatchCheckAllPending
        LOCFRAME ISTACK, 2, STACK
        LOCFRAME PSTACK, 0, STACK
        LOCFRAME XSTACK, 0, STACK
        LOCFRAME IOVERLAY, 0, STATIC
        LOCFRAME DOVERLAY, 0, STATIC
        ARGFRAME ISTACK, 2, STACK
        ARGFRAME PSTACK, 0, STACK
        ARGFRAME XSTACK, 0, STACK
        ARGFRAME IOVERLAY, 0, STATIC
        ARGFRAME DOVERLAY, 0, STATIC
        PUSH      DPL
          CFI DPL0 Frame(CFA_SP, 4)
          CFI CFA_SP SP+-4
        PUSH      DPH
          CFI DPH0 Frame(CFA_SP, 5)
          CFI CFA_SP SP+-5
        ; Saved register size: 2
        ; Auto size: 0
//  523   return (MAC_SrcMatchCheckAllPending ());
        ; Setup parameters for call to function MAC_SrcMatchCheckAllPending
        LCALL     `??MAC_SrcMatchCheckAllPending::?relay`; Banked call to: MAC_SrcMatchCheckAllPending
        SJMP      ??Subroutine8_0
//  524 }
          CFI EndBlock cfiBlock35
//  525 
//  526 /********************************************************************************************************
//  527  * @fn      - ZMACPwrOnReq
//  528  *
//  529  * @brief   - This function requests the MAC to power on the radio hardware
//  530  *            and wake up.  When the power on procedure is complete the MAC
//  531  *            will send a MAC_PWR_ON_CNF to the application.
//  532  *
//  533  * @input   - None.
//  534  *
//  535  * @output  - None.
//  536  *
//  537  * @return  - None.
//  538  ********************************************************************************************************/

        RSEG BANKED_CODE:HUGECODE:NOROOT(0)
//  539 void ZMacPwrOnReq ( void )
ZMacPwrOnReq:
          CFI Block cfiBlock36 Using cfiCommon0
          CFI Function ZMacPwrOnReq
        CODE
//  540 {
        FUNCALL ZMacPwrOnReq, MAC_PwrOnReq
        LOCFRAME ISTACK, 2, STACK
        LOCFRAME PSTACK, 0, STACK
        LOCFRAME XSTACK, 0, STACK
        LOCFRAME IOVERLAY, 0, STATIC
        LOCFRAME DOVERLAY, 0, STATIC
        ARGFRAME ISTACK, 2, STACK
        ARGFRAME PSTACK, 0, STACK
        ARGFRAME XSTACK, 0, STACK
        ARGFRAME IOVERLAY, 0, STATIC
        ARGFRAME DOVERLAY, 0, STATIC
        PUSH      DPL
          CFI DPL0 Frame(CFA_SP, 4)
          CFI CFA_SP SP+-4
        PUSH      DPH
          CFI DPH0 Frame(CFA_SP, 5)
          CFI CFA_SP SP+-5
        ; Saved register size: 2
        ; Auto size: 0
//  541   MAC_PwrOnReq();
        ; Setup parameters for call to function MAC_PwrOnReq
        LCALL     `??MAC_PwrOnReq::?relay`; Banked call to: MAC_PwrOnReq
//  542 }
        SJMP      ??Subroutine8_0
          CFI EndBlock cfiBlock36
//  543 
//  544 /********************************************************************************************************
//  545  * @fn          MAC_PwrMode
//  546  *
//  547  * @brief       This function returns the current power mode of the MAC.
//  548  *
//  549  * input parameters
//  550  *
//  551  * None.
//  552  *
//  553  * output parameters
//  554  *
//  555  * None.
//  556  *
//  557  * @return      The current power mode of the MAC.
//  558  ********************************************************************************************************/

        RSEG BANKED_CODE:HUGECODE:NOROOT(0)
//  559 uint8 ZMac_PwrMode(void)
ZMac_PwrMode:
          CFI Block cfiBlock37 Using cfiCommon0
          CFI Function ZMac_PwrMode
        CODE
//  560 {
        FUNCALL ZMac_PwrMode, MAC_PwrMode
        LOCFRAME ISTACK, 2, STACK
        LOCFRAME PSTACK, 0, STACK
        LOCFRAME XSTACK, 0, STACK
        LOCFRAME IOVERLAY, 0, STATIC
        LOCFRAME DOVERLAY, 0, STATIC
        ARGFRAME ISTACK, 2, STACK
        ARGFRAME PSTACK, 0, STACK
        ARGFRAME XSTACK, 0, STACK
        ARGFRAME IOVERLAY, 0, STATIC
        ARGFRAME DOVERLAY, 0, STATIC
        PUSH      DPL
          CFI DPL0 Frame(CFA_SP, 4)
          CFI CFA_SP SP+-4
        PUSH      DPH
          CFI DPH0 Frame(CFA_SP, 5)
          CFI CFA_SP SP+-5
        ; Saved register size: 2
        ; Auto size: 0
//  561   return (MAC_PwrMode());
        ; Setup parameters for call to function MAC_PwrMode
        LCALL     `??MAC_PwrMode::?relay`; Banked call to: MAC_PwrMode
        SJMP      ??Subroutine8_0
//  562 }
          CFI EndBlock cfiBlock37
//  563 
//  564 /********************************************************************************************************
//  565  * @fn      ZMacSetTransmitPower
//  566  *
//  567  * @brief   Set the transmitter power according to the level setting param.
//  568  *
//  569  * @param   Valid power level setting as defined in ZMAC.h.
//  570  *
//  571  * @return  ZMacSuccess if PHY_TRANSMIT_POWER found or ZMacUnsupportedAttribute.
//  572  ********************************************************************************************************/

        RSEG BANKED_CODE:HUGECODE:NOROOT(0)
//  573 uint8 ZMacSetTransmitPower( ZMacTransmitPower_t level )
ZMacSetTransmitPower:
          CFI Block cfiBlock38 Using cfiCommon0
          CFI Function ZMacSetTransmitPower
        CODE
//  574 {
        FUNCALL ZMacSetTransmitPower, MAC_MlmeSetReq
        LOCFRAME ISTACK, 2, STACK
        LOCFRAME PSTACK, 0, STACK
        LOCFRAME XSTACK, 1, STACK
        LOCFRAME IOVERLAY, 0, STATIC
        LOCFRAME DOVERLAY, 0, STATIC
        ARGFRAME ISTACK, 2, STACK
        ARGFRAME PSTACK, 0, STACK
        ARGFRAME XSTACK, 1, STACK
        ARGFRAME IOVERLAY, 0, STATIC
        ARGFRAME DOVERLAY, 0, STATIC
        PUSH      DPL
          CFI DPL0 Frame(CFA_SP, 4)
          CFI CFA_SP SP+-4
        PUSH      DPH
          CFI DPH0 Frame(CFA_SP, 5)
          CFI CFA_SP SP+-5
        ; Saved register size: 2
        ; Auto size: 1
        MOV       A,#-0x1
        LCALL     ?ALLOC_XSTACK8
          CFI CFA_XSP16 add(XSP16, 1)
        MOV       A,R1
        MOV       DPL,?XSP + 0
        MOV       DPH,?XSP + 1
        MOVX      @DPTR,A
//  575   return MAC_MlmeSetReq( ZMacPhyTransmitPower, &level );
        ; Setup parameters for call to function MAC_MlmeSetReq
        MOV       R2,?XSP + 0
        MOV       R3,?XSP + 1
        MOV       R1,#-0x20
        LCALL     `??MAC_MlmeSetReq::?relay`; Banked call to: MAC_MlmeSetReq
        MOV       A,#0x1
        LCALL     ?DEALLOC_XSTACK8
          CFI CFA_XSP16 XSP16+0
        SJMP      ??Subroutine8_0
//  576 }
          CFI EndBlock cfiBlock38
//  577 
//  578 /********************************************************************************************************
//  579  * @fn      ZMacSendNoData
//  580  *
//  581  * @brief   This function sends an empty msg
//  582  *
//  583  * @param   DstAddr   - destination short address
//  584  *          DstPANId  - destination pan id
//  585  *
//  586  * @return  None
//  587  ********************************************************************************************************/

        RSEG BANKED_CODE:HUGECODE:NOROOT(0)
//  588 void ZMacSendNoData ( uint16 DstAddr, uint16 DstPANId )
ZMacSendNoData:
          CFI Block cfiBlock39 Using cfiCommon0
          CFI Function ZMacSendNoData
        CODE
//  589 {
        FUNCALL ZMacSendNoData, MAC_McpsDataAlloc
        LOCFRAME ISTACK, 0, STACK
        LOCFRAME PSTACK, 0, STACK
        LOCFRAME XSTACK, 12, STACK
        LOCFRAME IOVERLAY, 0, STATIC
        LOCFRAME DOVERLAY, 0, STATIC
        ARGFRAME ISTACK, 0, STACK
        ARGFRAME PSTACK, 0, STACK
        ARGFRAME XSTACK, 12, STACK
        ARGFRAME IOVERLAY, 0, STATIC
        ARGFRAME DOVERLAY, 0, STATIC
        FUNCALL ZMacSendNoData, MAC_McpsDataReq
        LOCFRAME ISTACK, 0, STACK
        LOCFRAME PSTACK, 0, STACK
        LOCFRAME XSTACK, 12, STACK
        LOCFRAME IOVERLAY, 0, STATIC
        LOCFRAME DOVERLAY, 0, STATIC
        ARGFRAME ISTACK, 0, STACK
        ARGFRAME PSTACK, 0, STACK
        ARGFRAME XSTACK, 12, STACK
        ARGFRAME IOVERLAY, 0, STATIC
        ARGFRAME DOVERLAY, 0, STATIC
        REQUIRE ?V0
        REQUIRE ?V1
        REQUIRE ?V2
        REQUIRE ?V3
        MOV       A,#-0xc
        LCALL     ?BANKED_ENTER_XDATA
          CFI DPH0 load(1, XDATA, add(CFA_XSP16, literal(-1)))
          CFI DPL0 load(1, XDATA, add(CFA_XSP16, literal(-2)))
          CFI ?BRET_EXT load(1, XDATA, add(CFA_XSP16, literal(-3)))
          CFI ?RET_HIGH load(1, XDATA, add(CFA_XSP16, literal(-4)))
          CFI ?RET_LOW load(1, XDATA, add(CFA_XSP16, literal(-5)))
          CFI R7 load(1, XDATA, add(CFA_XSP16, literal(-6)))
          CFI V3 load(1, XDATA, add(CFA_XSP16, literal(-7)))
          CFI V2 load(1, XDATA, add(CFA_XSP16, literal(-8)))
          CFI V1 load(1, XDATA, add(CFA_XSP16, literal(-9)))
          CFI V0 load(1, XDATA, add(CFA_XSP16, literal(-10)))
          CFI VB load(1, XDATA, add(CFA_XSP16, literal(-11)))
          CFI R6 load(1, XDATA, add(CFA_XSP16, literal(-12)))
          CFI CFA_SP SP+0
          CFI CFA_XSP16 add(XSP16, 12)
        ; Saved register size: 12
        ; Auto size: 0
        MOV       ?V0,R2
        MOV       ?V1,R3
        MOV       A,R4
        MOV       R6,A
        MOV       A,R5
        MOV       R7,A
//  590   macMcpsDataReq_t *pBuf;
//  591 
//  592   /* Allocate memory */
//  593   pBuf = MAC_McpsDataAlloc(0, MAC_SEC_LEVEL_NONE, MAC_KEY_ID_MODE_NONE);
        ; Setup parameters for call to function MAC_McpsDataAlloc
        MOV       R3,#0x0
        MOV       R2,#0x0
        MOV       R1,#0x0
        LCALL     `??MAC_McpsDataAlloc::?relay`; Banked call to: MAC_McpsDataAlloc
//  594 
//  595   if (pBuf)
        MOV       A,R2
        ORL       A,R3
        JZ        ??ZMacSendNoData_0
//  596   {
//  597     /* Fill in src information */
//  598     pBuf->mac.srcAddrMode              = SADDR_MODE_SHORT;
        MOV       A,R2
        ADD       A,#0x2d
        MOV       DPL,A
        CLR       A
        ADDC      A,R3
        MOV       DPH,A
        MOV       A,#0x2
        MOVX      @DPTR,A
//  599 
//  600     /* Fill in dst information */
//  601     pBuf->mac.dstAddr.addr.shortAddr   = DstAddr;
        MOV       A,R2
        ADD       A,#0x22
        MOV       DPL,A
        CLR       A
        ADDC      A,R3
        MOV       DPH,A
        MOV       A,?V0
        MOVX      @DPTR,A
        INC       DPTR
        MOV       A,?V1
        MOVX      @DPTR,A
//  602     pBuf->mac.dstAddr.addrMode         = SADDR_MODE_SHORT;
        MOV       A,R2
        ADD       A,#0x2a
        MOV       DPL,A
        CLR       A
        ADDC      A,R3
        MOV       DPH,A
        MOV       A,#0x2
        MOVX      @DPTR,A
//  603     pBuf->mac.dstPanId                 = DstPANId;
        MOV       A,R2
        ADD       A,#0x2b
        MOV       DPL,A
        CLR       A
        ADDC      A,R3
        MOV       DPH,A
        MOV       A,R6
        MOVX      @DPTR,A
        INC       DPTR
        MOV       A,R7
        MOVX      @DPTR,A
//  604 
//  605     /* Misc information */
//  606     pBuf->mac.msduHandle               = 0;
        MOV       A,R2
        ADD       A,#0x2e
        LCALL     ?Subroutine5 & 0xFFFF
//  607     pBuf->mac.txOptions                = ZMAC_TXOPTION_ACK | ZMAC_TXOPTION_NO_RETRANS | ZMAC_TXOPTION_NO_CNF;
??CrossCallReturnLabel_5:
        MOV       A,R2
        ADD       A,#0x2f
        MOV       DPL,A
        CLR       A
        ADDC      A,R3
        MOV       DPH,A
        MOV       A,#0x31
        MOVX      @DPTR,A
//  608 
//  609     /* Right now, set security to zero */
//  610     pBuf->sec.securityLevel = false;
        MOV       A,R2
        ADD       A,#0x1f
        LCALL     ?Subroutine5 & 0xFFFF
//  611 
//  612     /* Call Mac Data Request */
//  613     MAC_McpsDataReq(pBuf);
??CrossCallReturnLabel_6:
        ; Setup parameters for call to function MAC_McpsDataReq
        LCALL     `??MAC_McpsDataReq::?relay`; Banked call to: MAC_McpsDataReq
//  614   }
//  615 
//  616 }
??ZMacSendNoData_0:
          CFI EndBlock cfiBlock39
        REQUIRE ?Subroutine2
        ; // Fall through to label ?Subroutine2

        RSEG BANKED_CODE:HUGECODE:NOROOT(0)
?Subroutine2:
          CFI Block cfiBlock40 Using cfiCommon0
          CFI NoFunction
          CFI CFA_SP SP+0
          CFI CFA_XSP16 add(XSP16, 12)
          CFI VB load(1, XDATA, add(CFA_XSP16, literal(-11)))
          CFI DPL0 load(1, XDATA, add(CFA_XSP16, literal(-2)))
          CFI DPH0 load(1, XDATA, add(CFA_XSP16, literal(-1)))
          CFI R6 load(1, XDATA, add(CFA_XSP16, literal(-12)))
          CFI R7 load(1, XDATA, add(CFA_XSP16, literal(-6)))
          CFI V0 load(1, XDATA, add(CFA_XSP16, literal(-10)))
          CFI V1 load(1, XDATA, add(CFA_XSP16, literal(-9)))
          CFI V2 load(1, XDATA, add(CFA_XSP16, literal(-8)))
          CFI V3 load(1, XDATA, add(CFA_XSP16, literal(-7)))
          CFI ?BRET_EXT load(1, XDATA, add(CFA_XSP16, literal(-3)))
          CFI ?RET_HIGH load(1, XDATA, add(CFA_XSP16, literal(-4)))
          CFI ?RET_LOW load(1, XDATA, add(CFA_XSP16, literal(-5)))
        MOV       R7,#0x4
        LJMP      ?BANKED_LEAVE_XDATA
          CFI EndBlock cfiBlock40
//  617 
//  618 /********************************************************************************************************
//  619  * @fn      ZMacStateIdle
//  620  *
//  621  * @brief   This function returns true if the MAC state is idle.
//  622  *
//  623  * @param   none
//  624  *
//  625  * @return  TRUE if the MAC state is idle, FALSE otherwise.
//  626  ********************************************************************************************************/

        RSEG BANKED_CODE:HUGECODE:NOROOT(0)
//  627 uint8 ZMacStateIdle( void )
ZMacStateIdle:
          CFI Block cfiBlock41 Using cfiCommon0
          CFI Function ZMacStateIdle
        CODE
//  628 {
        FUNCALL ZMacStateIdle, macStateIdle
        LOCFRAME ISTACK, 2, STACK
        LOCFRAME PSTACK, 0, STACK
        LOCFRAME XSTACK, 0, STACK
        LOCFRAME IOVERLAY, 0, STATIC
        LOCFRAME DOVERLAY, 0, STATIC
        ARGFRAME ISTACK, 2, STACK
        ARGFRAME PSTACK, 0, STACK
        ARGFRAME XSTACK, 0, STACK
        ARGFRAME IOVERLAY, 0, STATIC
        ARGFRAME DOVERLAY, 0, STATIC
        PUSH      DPL
          CFI DPL0 Frame(CFA_SP, 4)
          CFI CFA_SP SP+-4
        PUSH      DPH
          CFI DPH0 Frame(CFA_SP, 5)
          CFI CFA_SP SP+-5
        ; Saved register size: 2
        ; Auto size: 0
//  629   return macStateIdle();
        ; Setup parameters for call to function macStateIdle
        LCALL     `??macStateIdle::?relay`; Banked call to: macStateIdle
        LJMP      ??Subroutine8_0 & 0xFFFF
//  630 }
          CFI EndBlock cfiBlock41

        RSEG BANK_RELAYS:CODE:REORDER:NOROOT(0)
`??ZMacInit::?relay`:
        CODE
        LCALL   ?BDISPATCH
        DATA24
        DC24    ZMacInit

        RSEG BANK_RELAYS:CODE:REORDER:NOROOT(0)
`??ZMacReset::?relay`:
        CODE
        LCALL   ?BDISPATCH
        DATA24
        DC24    ZMacReset

        RSEG BANK_RELAYS:CODE:REORDER:NOROOT(0)
`??ZMacGetReq::?relay`:
        CODE
        LCALL   ?BDISPATCH
        DATA24
        DC24    ZMacGetReq

        RSEG BANK_RELAYS:CODE:REORDER:NOROOT(0)
`??ZMacSetReq::?relay`:
        CODE
        LCALL   ?BDISPATCH
        DATA24
        DC24    ZMacSetReq

        RSEG BANK_RELAYS:CODE:REORDER:NOROOT(0)
`??ZMacAssociateReq::?relay`:
        CODE
        LCALL   ?BDISPATCH
        DATA24
        DC24    ZMacAssociateReq

        RSEG BANK_RELAYS:CODE:REORDER:NOROOT(0)
`??ZMacAssociateRsp::?relay`:
        CODE
        LCALL   ?BDISPATCH
        DATA24
        DC24    ZMacAssociateRsp

        RSEG BANK_RELAYS:CODE:REORDER:NOROOT(0)
`??ZMacDisassociateReq::?relay`:
        CODE
        LCALL   ?BDISPATCH
        DATA24
        DC24    ZMacDisassociateReq

        RSEG BANK_RELAYS:CODE:REORDER:NOROOT(0)
`??ZMacOrphanRsp::?relay`:
        CODE
        LCALL   ?BDISPATCH
        DATA24
        DC24    ZMacOrphanRsp

        RSEG BANK_RELAYS:CODE:REORDER:NOROOT(0)
`??ZMacScanReq::?relay`:
        CODE
        LCALL   ?BDISPATCH
        DATA24
        DC24    ZMacScanReq

        RSEG BANK_RELAYS:CODE:REORDER:NOROOT(0)
`??ZMacStartReq::?relay`:
        CODE
        LCALL   ?BDISPATCH
        DATA24
        DC24    ZMacStartReq

        RSEG BANK_RELAYS:CODE:REORDER:NOROOT(0)
`??ZMacSyncReq::?relay`:
        CODE
        LCALL   ?BDISPATCH
        DATA24
        DC24    ZMacSyncReq

        RSEG BANK_RELAYS:CODE:REORDER:NOROOT(0)
`??ZMacPollReq::?relay`:
        CODE
        LCALL   ?BDISPATCH
        DATA24
        DC24    ZMacPollReq

        RSEG BANK_RELAYS:CODE:REORDER:NOROOT(0)
`??ZMacDataReq::?relay`:
        CODE
        LCALL   ?BDISPATCH
        DATA24
        DC24    ZMacDataReq

        RSEG BANK_RELAYS:CODE:REORDER:NOROOT(0)
`??ZMacPurgeReq::?relay`:
        CODE
        LCALL   ?BDISPATCH
        DATA24
        DC24    ZMacPurgeReq

        RSEG BANK_RELAYS:CODE:REORDER:NOROOT(0)
`??ZMacSrcMatchEnable::?relay`:
        CODE
        LCALL   ?BDISPATCH
        DATA24
        DC24    ZMacSrcMatchEnable

        RSEG BANK_RELAYS:CODE:REORDER:NOROOT(0)
`??ZMacSrcMatchAddEntry::?relay`:
        CODE
        LCALL   ?BDISPATCH
        DATA24
        DC24    ZMacSrcMatchAddEntry

        RSEG BANK_RELAYS:CODE:REORDER:NOROOT(0)
`??ZMacSrcMatchDeleteEntry::?relay`:
        CODE
        LCALL   ?BDISPATCH
        DATA24
        DC24    ZMacSrcMatchDeleteEntry

        RSEG BANK_RELAYS:CODE:REORDER:NOROOT(0)
`??ZMacSrcMatchAckAllPending::?relay`:
        CODE
        LCALL   ?BDISPATCH
        DATA24
        DC24    ZMacSrcMatchAckAllPending

        RSEG BANK_RELAYS:CODE:REORDER:NOROOT(0)
`??ZMacSrcMatchCheckAllPending::?relay`:
        CODE
        LCALL   ?BDISPATCH
        DATA24
        DC24    ZMacSrcMatchCheckAllPending

        RSEG BANK_RELAYS:CODE:REORDER:NOROOT(0)
`??ZMacPwrOnReq::?relay`:
        CODE
        LCALL   ?BDISPATCH
        DATA24
        DC24    ZMacPwrOnReq

        RSEG BANK_RELAYS:CODE:REORDER:NOROOT(0)
`??ZMac_PwrMode::?relay`:
        CODE
        LCALL   ?BDISPATCH
        DATA24
        DC24    ZMac_PwrMode

        RSEG BANK_RELAYS:CODE:REORDER:NOROOT(0)
`??ZMacSetTransmitPower::?relay`:
        CODE
        LCALL   ?BDISPATCH
        DATA24
        DC24    ZMacSetTransmitPower

        RSEG BANK_RELAYS:CODE:REORDER:NOROOT(0)
`??ZMacSendNoData::?relay`:
        CODE
        LCALL   ?BDISPATCH
        DATA24
        DC24    ZMacSendNoData

        RSEG BANK_RELAYS:CODE:REORDER:NOROOT(0)
`??ZMacStateIdle::?relay`:
        CODE
        LCALL   ?BDISPATCH
        DATA24
        DC24    ZMacStateIdle

        END
// 
// 972 bytes in segment BANKED_CODE
// 144 bytes in segment BANK_RELAYS
//   6 bytes in segment XDATA_Z
// 
// 144 bytes of CODE     memory
// 972 bytes of HUGECODE memory
//   6 bytes of XDATA    memory
//
//Errors: none
//Warnings: none
